

Microchip MPLAB XC8 Assembler V2.10 build 88905656 
                                                                                               Sun Dec 01 23:30:57 2019

Microchip MPLAB XC8 C Compiler v2.10 (Free license) build 20190730164152 Og1 
     1                           	processor	18F4550
     2                           	fnconf	rparam,??,?,0
     3                           	opt	pw 120
     4                           	opt	flic
     5                           	psect	mediumconst,global,reloc=2,class=MEDIUMCONST,delta=1,noexec
     6                           	psect	cinit,global,reloc=2,class=CODE,delta=1
     7                           	psect	bssCOMRAM,global,class=COMRAM,space=1,delta=1,noexec
     8                           	psect	bssBANK0,global,class=BANK0,space=1,delta=1,lowdata,noexec
     9                           	psect	cstackBANK0,global,class=BANK0,space=1,delta=1,noexec
    10                           	psect	cstackCOMRAM,global,class=COMRAM,space=1,delta=1,noexec
    11                           	psect	text0,global,reloc=2,class=CODE,delta=1
    12                           	psect	text1,global,reloc=2,class=CODE,delta=1
    13                           	psect	text2,global,reloc=2,class=CODE,delta=1
    14                           	psect	text3,global,reloc=2,class=CODE,delta=1
    15                           	psect	text4,global,reloc=2,class=CODE,delta=1,group=1
    16                           	psect	text5,global,reloc=2,class=CODE,delta=1
    17                           	psect	text6,global,reloc=2,class=CODE,delta=1
    18                           	psect	text7,global,reloc=2,class=CODE,delta=1
    19                           	psect	text8,global,reloc=2,class=CODE,delta=1
    20                           	psect	text9,global,reloc=2,class=CODE,delta=1
    21                           	psect	text10,global,reloc=2,class=CODE,delta=1
    22                           	psect	text11,global,reloc=2,class=CODE,delta=1
    23                           	psect	text12,global,reloc=2,class=CODE,delta=1
    24                           	psect	text13,global,reloc=2,class=CODE,delta=1
    25                           	psect	text14,global,reloc=2,class=CODE,delta=1
    26                           	psect	text15,global,reloc=2,class=CODE,delta=1
    27                           	psect	text16,global,reloc=2,class=CODE,delta=1
    28                           	psect	text17,global,reloc=2,class=CODE,delta=1,group=2
    29                           	psect	text18,global,reloc=2,class=CODE,delta=1,group=2
    30                           	psect	text19,global,reloc=2,class=CODE,delta=1,group=2
    31                           	psect	text20,global,reloc=2,class=CODE,delta=1,group=1
    32                           	psect	text21,global,reloc=2,class=CODE,delta=1
    33                           	psect	text22,global,reloc=2,class=CODE,delta=1
    34                           	psect	text23,global,reloc=2,class=CODE,delta=1
    35                           	psect	text24,global,reloc=2,class=CODE,delta=1
    36                           	psect	text25,global,reloc=2,class=CODE,delta=1
    37                           	psect	text26,global,reloc=2,class=CODE,delta=1
    38                           	psect	text27,global,reloc=2,class=CODE,delta=1
    39                           	psect	text28,global,reloc=2,class=CODE,delta=1
    40                           	psect	text29,global,reloc=2,class=CODE,delta=1,group=1
    41                           	psect	text30,global,reloc=2,class=CODE,delta=1,group=1
    42                           	psect	text31,global,reloc=2,class=CODE,delta=1,group=1
    43                           	psect	text32,global,reloc=2,class=CODE,delta=1
    44                           	psect	text33,global,reloc=2,class=CODE,delta=1
    45                           	psect	text34,global,reloc=2,class=CODE,delta=1
    46                           	psect	text35,global,reloc=2,class=CODE,delta=1
    47                           	psect	text36,global,reloc=2,class=CODE,delta=1
    48                           	psect	text37,global,reloc=2,class=CODE,delta=1
    49                           	psect	text38,global,reloc=2,class=CODE,delta=1
    50                           	psect	intcode,global,reloc=2,class=CODE,delta=1
    51                           	psect	intcode_body,global,reloc=2,class=CODE,delta=1
    52                           	psect	text40,global,reloc=2,class=CODE,delta=1
    53                           	psect	text41,global,reloc=2,class=CODE,delta=1
    54                           	psect	text42,global,reloc=2,class=CODE,delta=1
    55                           	psect	text43,global,reloc=2,class=CODE,delta=1
    56                           	psect	text44,global,reloc=2,class=CODE,delta=1
    57                           	psect	text45,global,reloc=2,class=CODE,delta=1
    58                           	psect	text46,global,reloc=2,class=CODE,delta=1
    59                           	psect	text47,global,reloc=2,class=CODE,delta=1
    60                           	psect	text48,global,reloc=2,class=CODE,delta=1
    61                           	psect	text49,global,reloc=2,class=CODE,delta=1
    62                           	psect	text50,global,reloc=2,class=CODE,delta=1
    63                           	psect	text51,global,reloc=2,class=CODE,delta=1
    64                           	psect	text52,global,reloc=2,class=CODE,delta=1
    65                           	psect	text53,global,reloc=2,class=CODE,delta=1
    66                           	psect	text54,global,reloc=2,class=CODE,delta=1
    67                           	psect	intsave_regs,global,class=BIGRAM,space=1,delta=1,noexec
    68                           	psect	rparam,global,class=COMRAM,space=1,delta=1,noexec
    69                           	psect	temp,global,ovrld,common,class=COMRAM,space=1,delta=1
    70  0000                     
    71                           ; Version 2.10
    72                           ; Generated 31/07/2019 GMT
    73                           ; 
    74                           ; Copyright © 2019, Microchip Technology Inc. and its subsidiaries ("Microchip")
    75                           ; All rights reserved.
    76                           ; 
    77                           ; This software is developed by Microchip Technology Inc. and its subsidiaries ("Microch
      +                          ip").
    78                           ; 
    79                           ; Redistribution and use in source and binary forms, with or without modification, are
    80                           ; permitted provided that the following conditions are met:
    81                           ; 
    82                           ;     1. Redistributions of source code must retain the above copyright notice, this lis
      +                          t of
    83                           ;        conditions and the following disclaimer.
    84                           ; 
    85                           ;     2. Redistributions in binary form must reproduce the above copyright notice, this 
      +                          list
    86                           ;        of conditions and the following disclaimer in the documentation and/or other
    87                           ;        materials provided with the distribution.
    88                           ; 
    89                           ;     3. Microchip's name may not be used to endorse or promote products derived from th
      +                          is
    90                           ;        software without specific prior written permission.
    91                           ; 
    92                           ; THIS SOFTWARE IS PROVIDED BY MICROCHIP "AS IS" AND ANY EXPRESS OR IMPLIED WARRANTIES,
    93                           ; INCLUDING, BUT NOT LIMITED TO, THE IMPLIED WARRANTIES OF MERCHANTABILITY AND FITNESS F
      +                          OR
    94                           ; PURPOSE ARE DISCLAIMED.  IN NO EVENT SHALL MICROCHIP BE LIABLE FOR ANY DIRECT, INDIREC
      +                          T,
    95                           ; INCIDENTAL, SPECIAL, EXEMPLARY, OR CONSEQUENTIAL DAMAGES (INCLUDING BUT NOT LIMITED TO
    96                           ; PROCUREMENT OF SUBSTITUTE GOODS OR SERVICES; LOSS OF USE, DATA OR PROFITS; OR BUSINESS
    97                           ; INTERRUPTION) HOWSOEVER CAUSED AND ON ANY THEORY OF LIABILITY, WHETHER IN CONTRACT, ST
      +                          RICT
    98                           ; LIABILITY, OR TORT (INCLUDING NEGLIGENCE OR OTHERWISE) ARISING IN ANY WAY OUT OF THE U
      +                          SE OF
    99                           ; THIS SOFTWARE, EVEN IF ADVISED OF THE POSSIBILITY OF SUCH DAMAGE.
   100                           ; 
   101                           ; 
   102                           ; Code-generator required, PIC18F4550 Definitions
   103                           ; 
   104                           ; SFR Addresses
   105  0000                     
   106                           	psect	mediumconst
   107  007C54                     __pmediumconst:
   108                           	opt callstack 0
   109  007C54  00                 	db	0
   110  007C55                     _dp_l:
   111                           	opt callstack 0
   112  007C55  0000               	dw	0
   113  007C57  0000               	dw	0
   114  007C59  CFDC               	dw	53212
   115  007C5B  35D1               	dw	13777
   116  007C5D                     __end_of_dp_l:
   117                           	opt callstack 0
   118  007C5D                     _dp_h:
   119                           	opt callstack 0
   120  007C5D  0000               	dw	0
   121  007C5F  0000               	dw	0
   122  007C61  C000               	dw	49152
   123  007C63  3F15               	dw	16149
   124  007C65                     __end_of_dp_h:
   125                           	opt callstack 0
   126  007C65  4260               	dw	16992
   127  007C67  0DA2               	dw	3490
   128  007C69                     __end_ofsqrtf@tiny:
   129                           	opt callstack 0
   130  007C69  A570               	dw	42352
   131  007C6B  36EC               	dw	14060
   132  007C6D                     __end_of_ivln2_l:
   133                           	opt callstack 0
   134  007C6D  AA3B               	dw	43579
   135  007C6F  3FB8               	dw	16312
   136  007C71                     __end_of_ivln2:
   137                           	opt callstack 0
   138  007C71  384F               	dw	14415
   139  007C73  3F76               	dw	16246
   140  007C75                     __end_of_cp:
   141                           	opt callstack 0
   142  007C75  AA3C               	dw	43580
   143  007C77  3338               	dw	13112
   144  007C79                     __end_of_ovt:
   145                           	opt callstack 0
   146  007C79  BE8C               	dw	48780
   147  007C7B  35BF               	dw	13759
   148  007C7D                     __end_of_lg2_l:
   149                           	opt callstack 0
   150  007C7D  7200               	dw	29184
   151  007C7F  3F31               	dw	16177
   152  007C81                     __end_of_lg2_h:
   153                           	opt callstack 0
   154  007C81  7218               	dw	29208
   155  007C83  3F31               	dw	16177
   156  007C85                     __end_of_lg2:
   157                           	opt callstack 0
   158  007C85  BB4C               	dw	47948
   159  007C87  3331               	dw	13105
   160  007C89                     __end_of_P5:
   161                           	opt callstack 0
   162  007C89  EA0E               	dw	59918
   163  007C8B  B5DD               	dw	46557
   164  007C8D                     __end_of_P4:
   165                           	opt callstack 0
   166  007C8D  B355               	dw	45909
   167  007C8F  388A               	dw	14474
   168  007C91                     __end_of_P3:
   169                           	opt callstack 0
   170  007C91  0B61               	dw	2913
   171  007C93  BB36               	dw	47926
   172  007C95                     __end_of_P2:
   173                           	opt callstack 0
   174  007C95  AAAB               	dw	43691
   175  007C97  3E2A               	dw	15914
   176  007C99                     __end_of_P1:
   177                           	opt callstack 0
   178  007C99  F142               	dw	61762
   179  007C9B  3E53               	dw	15955
   180  007C9D                     __end_of_L6:
   181                           	opt callstack 0
   182  007C9D  3255               	dw	12885
   183  007C9F  3E6C               	dw	15980
   184  007CA1                     __end_of_L5:
   185                           	opt callstack 0
   186  007CA1  A305               	dw	41733
   187  007CA3  3E8B               	dw	16011
   188  007CA5                     __end_of_L4:
   189                           	opt callstack 0
   190  007CA5  AAAB               	dw	43691
   191  007CA7  3EAA               	dw	16042
   192  007CA9                     __end_of_L3:
   193                           	opt callstack 0
   194  007CA9  6DB7               	dw	28087
   195  007CAB  3EDB               	dw	16091
   196  007CAD                     __end_of_L2:
   197                           	opt callstack 0
   198  007CAD  999A               	dw	39322
   199  007CAF  3F19               	dw	16153
   200  007CB1                     __end_of_L1:
   201                           	opt callstack 0
   202  007CB1  4260               	dw	16992
   203  007CB3  0DA2               	dw	3490
   204  007CB5                     __end_of_tiny:
   205                           	opt callstack 0
   206  007CB5  F2CA               	dw	62154
   207  007CB7  7149               	dw	29001
   208  007CB9                     __end_of_huge:
   209                           	opt callstack 0
   210  007CB9  0000               	dw	0
   211  007CBB  4B80               	dw	19328
   212  007CBD                     __end_of_two24:
   213                           	opt callstack 0
   214  007CBD                     _bp:
   215                           	opt callstack 0
   216  007CBD  0000               	dw	0
   217  007CBF  3F80               	dw	16256
   218  007CC1  0000               	dw	0
   219  007CC3  3FC0               	dw	16320
   220  007CC5                     __end_of_bp:
   221                           	opt callstack 0
   222  007CC5  AA00               	dw	43520
   223  007CC7  3FB8               	dw	16312
   224  007CC9                     __end_of_ivln2_h:
   225                           	opt callstack 0
   226  007CC9  23C6               	dw	9158
   227  007CCB  B8F6               	dw	47350
   228  007CCD                     __end_of_cp_l:
   229                           	opt callstack 0
   230  007CCD  4000               	dw	16384
   231  007CCF  3F76               	dw	16246
   232  007CD1                     __end_of_cp_h:
   233                           	opt callstack 0
   234  0000                     _INTCON3bits	set	4080
   235  0000                     _RCONbits	set	4048
   236  0000                     _INTCON2bits	set	4081
   237  0000                     _TRISD	set	3989
   238  0000                     _OSCCON	set	4051
   239  0000                     _LATCbits	set	3979
   240  0000                     _LATDbits	set	3980
   241  0000                     _PIR2bits	set	4001
   242  0000                     _EECON2	set	4007
   243  0000                     _INTCONbits	set	4082
   244  0000                     _EEDATA	set	4008
   245  0000                     _EEADR	set	4009
   246  0000                     _EECON1bits	set	4006
   247  0000                     _ADCON2bits	set	4032
   248  0000                     _ADCON1bits	set	4033
   249  0000                     _ADRESH	set	4036
   250  0000                     _ADRESL	set	4035
   251  0000                     _ADCON0bits	set	4034
   252  0000                     _TRISEbits	set	3990
   253  0000                     _LATE	set	3981
   254  0000                     _PORTE	set	3972
   255  0000                     _TRISDbits	set	3989
   256  0000                     _LATD	set	3980
   257  0000                     _PORTD	set	3971
   258  0000                     _LATC	set	3979
   259  0000                     _PORTC	set	3970
   260  0000                     _TRISBbits	set	3987
   261  0000                     _LATB	set	3978
   262  0000                     _PORTB	set	3969
   263  0000                     _TRISAbits	set	3986
   264  0000                     _CMCON	set	4020
   265  0000                     _ADCON1	set	4033
   266  0000                     _LATA	set	3977
   267  0000                     _PORTA	set	3968
   268  0000                     _RCREG	set	4014
   269  0000                     _TXREG	set	4013
   270  0000                     _PIR1bits	set	3998
   271  0000                     _RCSTAbits	set	4011
   272  0000                     _TXSTAbits	set	4012
   273  0000                     _SPBRG	set	4015
   274  0000                     _CCP2CON	set	4026
   275  0000                     _CCP1CON	set	4029
   276  0000                     _T2CON	set	4042
   277  0000                     _TRISCbits	set	3988
   278  0000                     _CCPR2L	set	4027
   279  0000                     _CCPR1L	set	4030
   280  0000                     _PR2	set	4043
   281  0000                     _PORTCbits	set	3970
   282  0000                     _T2CONbits	set	4042
   283  0000                     _PORTDbits	set	3971
   284  0000                     _RCIF	set	31989
   285  007CD1                     STR_2:
   286  007CD1  50                 	db	80	;'P'
   287  007CD2  4C                 	db	76	;'L'
   288  007CD3  45                 	db	69	;'E'
   289  007CD4  41                 	db	65	;'A'
   290  007CD5  53                 	db	83	;'S'
   291  007CD6  45                 	db	69	;'E'
   292  007CD7  20                 	db	32
   293  007CD8  49                 	db	73	;'I'
   294  007CD9  4E                 	db	78	;'N'
   295  007CDA  53                 	db	83	;'S'
   296  007CDB  45                 	db	69	;'E'
   297  007CDC  52                 	db	82	;'R'
   298  007CDD  54                 	db	84	;'T'
   299  007CDE  20                 	db	32
   300  007CDF  54                 	db	84	;'T'
   301  007CE0  48                 	db	72	;'H'
   302  007CE1  45                 	db	69	;'E'
   303  007CE2  20                 	db	32
   304  007CE3  49                 	db	73	;'I'
   305  007CE4  4E                 	db	78	;'N'
   306  007CE5  53                 	db	83	;'S'
   307  007CE6  54                 	db	84	;'T'
   308  007CE7  52                 	db	82	;'R'
   309  007CE8  55                 	db	85	;'U'
   310  007CE9  43                 	db	67	;'C'
   311  007CEA  54                 	db	84	;'T'
   312  007CEB  49                 	db	73	;'I'
   313  007CEC  4F                 	db	79	;'O'
   314  007CED  4E                 	db	78	;'N'
   315  007CEE  20                 	db	32
   316  007CEF  4F                 	db	79	;'O'
   317  007CF0  46                 	db	70	;'F'
   318  007CF1  20                 	db	32
   319  007CF2  53                 	db	83	;'S'
   320  007CF3  45                 	db	69	;'E'
   321  007CF4  54                 	db	84	;'T'
   322  007CF5  50                 	db	80	;'P'
   323  007CF6  4F                 	db	79	;'O'
   324  007CF7  49                 	db	73	;'I'
   325  007CF8  4E                 	db	78	;'N'
   326  007CF9  54                 	db	84	;'T'
   327  007CFA  0A                 	db	10
   328  007CFB  00                 	db	0
   329  007CFC                     STR_15:
   330  007CFC  50                 	db	80	;'P'
   331  007CFD  4C                 	db	76	;'L'
   332  007CFE  45                 	db	69	;'E'
   333  007CFF  41                 	db	65	;'A'
   334  007D00  53                 	db	83	;'S'
   335  007D01  45                 	db	69	;'E'
   336  007D02  20                 	db	32
   337  007D03  4D                 	db	77	;'M'
   338  007D04  4F                 	db	79	;'O'
   339  007D05  44                 	db	68	;'D'
   340  007D06  49                 	db	73	;'I'
   341  007D07  46                 	db	70	;'F'
   342  007D08  59                 	db	89	;'Y'
   343  007D09  20                 	db	32
   344  007D0A  54                 	db	84	;'T'
   345  007D0B  48                 	db	72	;'H'
   346  007D0C  45                 	db	69	;'E'
   347  007D0D  20                 	db	32
   348  007D0E  53                 	db	83	;'S'
   349  007D0F  45                 	db	69	;'E'
   350  007D10  54                 	db	84	;'T'
   351  007D11  50                 	db	80	;'P'
   352  007D12  4F                 	db	79	;'O'
   353  007D13  49                 	db	73	;'I'
   354  007D14  4E                 	db	78	;'N'
   355  007D15  54                 	db	84	;'T'
   356  007D16  20                 	db	32
   357  007D17  41                 	db	65	;'A'
   358  007D18  4E                 	db	78	;'N'
   359  007D19  44                 	db	68	;'D'
   360  007D1A  20                 	db	32
   361  007D1B  54                 	db	84	;'T'
   362  007D1C  52                 	db	82	;'R'
   363  007D1D  59                 	db	89	;'Y'
   364  007D1E  20                 	db	32
   365  007D1F  41                 	db	65	;'A'
   366  007D20  47                 	db	71	;'G'
   367  007D21  41                 	db	65	;'A'
   368  007D22  49                 	db	73	;'I'
   369  007D23  4E                 	db	78	;'N'
   370  007D24  0A                 	db	10
   371  007D25  00                 	db	0
   372  007D26                     STR_5:
   373  007D26  45                 	db	69	;'E'
   374  007D27  52                 	db	82	;'R'
   375  007D28  52                 	db	82	;'R'
   376  007D29  4F                 	db	79	;'O'
   377  007D2A  52                 	db	82	;'R'
   378  007D2B  20                 	db	32
   379  007D2C  43                 	db	67	;'C'
   380  007D2D  4F                 	db	79	;'O'
   381  007D2E  52                 	db	82	;'R'
   382  007D2F  44                 	db	68	;'D'
   383  007D30  49                 	db	73	;'I'
   384  007D31  4E                 	db	78	;'N'
   385  007D32  41                 	db	65	;'A'
   386  007D33  54                 	db	84	;'T'
   387  007D34  45                 	db	69	;'E'
   388  007D35  53                 	db	83	;'S'
   389  007D36  20                 	db	32
   390  007D37  4F                 	db	79	;'O'
   391  007D38  55                 	db	85	;'U'
   392  007D39  54                 	db	84	;'T'
   393  007D3A  53                 	db	83	;'S'
   394  007D3B  49                 	db	73	;'I'
   395  007D3C  44                 	db	68	;'D'
   396  007D3D  45                 	db	69	;'E'
   397  007D3E  20                 	db	32
   398  007D3F  54                 	db	84	;'T'
   399  007D40  48                 	db	72	;'H'
   400  007D41  45                 	db	69	;'E'
   401  007D42  20                 	db	32
   402  007D43  52                 	db	82	;'R'
   403  007D44  41                 	db	65	;'A'
   404  007D45  4E                 	db	78	;'N'
   405  007D46  47                 	db	71	;'G'
   406  007D47  45                 	db	69	;'E'
   407  007D48  0A                 	db	10
   408  007D49  00                 	db	0
   409  007D4A                     STR_6:
   410  007D4A  45                 	db	69	;'E'
   411  007D4B  52                 	db	82	;'R'
   412  007D4C  52                 	db	82	;'R'
   413  007D4D  4F                 	db	79	;'O'
   414  007D4E  52                 	db	82	;'R'
   415  007D4F  20                 	db	32
   416  007D50  43                 	db	67	;'C'
   417  007D51  41                 	db	65	;'A'
   418  007D52  52                 	db	82	;'R'
   419  007D53  41                 	db	65	;'A'
   420  007D54  43                 	db	67	;'C'
   421  007D55  54                 	db	84	;'T'
   422  007D56  45                 	db	69	;'E'
   423  007D57  52                 	db	82	;'R'
   424  007D58  53                 	db	83	;'S'
   425  007D59  20                 	db	32
   426  007D5A  49                 	db	73	;'I'
   427  007D5B  4E                 	db	78	;'N'
   428  007D5C  47                 	db	71	;'G'
   429  007D5D  52                 	db	82	;'R'
   430  007D5E  45                 	db	69	;'E'
   431  007D5F  53                 	db	83	;'S'
   432  007D60  45                 	db	69	;'E'
   433  007D61  44                 	db	68	;'D'
   434  007D62  20                 	db	32
   435  007D63  57                 	db	87	;'W'
   436  007D64  52                 	db	82	;'R'
   437  007D65  4F                 	db	79	;'O'
   438  007D66  4E                 	db	78	;'N'
   439  007D67  47                 	db	71	;'G'
   440  007D68  0A                 	db	10
   441  007D69  00                 	db	0
   442  007D6A                     STR_29:
   443  007D6A  43                 	db	67	;'C'
   444  007D6B  4F                 	db	79	;'O'
   445  007D6C  4F                 	db	79	;'O'
   446  007D6D  52                 	db	82	;'R'
   447  007D6E  44                 	db	68	;'D'
   448  007D6F  49                 	db	73	;'I'
   449  007D70  4E                 	db	78	;'N'
   450  007D71  41                 	db	65	;'A'
   451  007D72  54                 	db	84	;'T'
   452  007D73  45                 	db	69	;'E'
   453  007D74  20                 	db	32
   454  007D75  4F                 	db	79	;'O'
   455  007D76  46                 	db	70	;'F'
   456  007D77  20                 	db	32
   457  007D78  53                 	db	83	;'S'
   458  007D79  45                 	db	69	;'E'
   459  007D7A  54                 	db	84	;'T'
   460  007D7B  50                 	db	80	;'P'
   461  007D7C  4F                 	db	79	;'O'
   462  007D7D  49                 	db	73	;'I'
   463  007D7E  4E                 	db	78	;'N'
   464  007D7F  54                 	db	84	;'T'
   465  007D80  20                 	db	32
   466  007D81  31                 	db	49	;'1'
   467  007D82  30                 	db	48	;'0'
   468  007D83  3A                 	db	58	;':'
   469  007D84  0A                 	db	10
   470  007D85  00                 	db	0
   471  007D86                     STR_30:
   472  007D86  43                 	db	67	;'C'
   473  007D87  4F                 	db	79	;'O'
   474  007D88  4F                 	db	79	;'O'
   475  007D89  52                 	db	82	;'R'
   476  007D8A  44                 	db	68	;'D'
   477  007D8B  49                 	db	73	;'I'
   478  007D8C  4E                 	db	78	;'N'
   479  007D8D  41                 	db	65	;'A'
   480  007D8E  54                 	db	84	;'T'
   481  007D8F  45                 	db	69	;'E'
   482  007D90  20                 	db	32
   483  007D91  4F                 	db	79	;'O'
   484  007D92  46                 	db	70	;'F'
   485  007D93  20                 	db	32
   486  007D94  53                 	db	83	;'S'
   487  007D95  45                 	db	69	;'E'
   488  007D96  54                 	db	84	;'T'
   489  007D97  50                 	db	80	;'P'
   490  007D98  4F                 	db	79	;'O'
   491  007D99  49                 	db	73	;'I'
   492  007D9A  4E                 	db	78	;'N'
   493  007D9B  54                 	db	84	;'T'
   494  007D9C  20                 	db	32
   495  007D9D  31                 	db	49	;'1'
   496  007D9E  31                 	db	49	;'1'
   497  007D9F  3A                 	db	58	;':'
   498  007DA0  0A                 	db	10
   499  007DA1  00                 	db	0
   500  007DA2                     STR_31:
   501  007DA2  43                 	db	67	;'C'
   502  007DA3  4F                 	db	79	;'O'
   503  007DA4  4F                 	db	79	;'O'
   504  007DA5  52                 	db	82	;'R'
   505  007DA6  44                 	db	68	;'D'
   506  007DA7  49                 	db	73	;'I'
   507  007DA8  4E                 	db	78	;'N'
   508  007DA9  41                 	db	65	;'A'
   509  007DAA  54                 	db	84	;'T'
   510  007DAB  45                 	db	69	;'E'
   511  007DAC  20                 	db	32
   512  007DAD  4F                 	db	79	;'O'
   513  007DAE  46                 	db	70	;'F'
   514  007DAF  20                 	db	32
   515  007DB0  53                 	db	83	;'S'
   516  007DB1  45                 	db	69	;'E'
   517  007DB2  54                 	db	84	;'T'
   518  007DB3  50                 	db	80	;'P'
   519  007DB4  4F                 	db	79	;'O'
   520  007DB5  49                 	db	73	;'I'
   521  007DB6  4E                 	db	78	;'N'
   522  007DB7  54                 	db	84	;'T'
   523  007DB8  20                 	db	32
   524  007DB9  31                 	db	49	;'1'
   525  007DBA  32                 	db	50	;'2'
   526  007DBB  3A                 	db	58	;':'
   527  007DBC  0A                 	db	10
   528  007DBD  00                 	db	0
   529  007DBE                     STR_32:
   530  007DBE  43                 	db	67	;'C'
   531  007DBF  4F                 	db	79	;'O'
   532  007DC0  4F                 	db	79	;'O'
   533  007DC1  52                 	db	82	;'R'
   534  007DC2  44                 	db	68	;'D'
   535  007DC3  49                 	db	73	;'I'
   536  007DC4  4E                 	db	78	;'N'
   537  007DC5  41                 	db	65	;'A'
   538  007DC6  54                 	db	84	;'T'
   539  007DC7  45                 	db	69	;'E'
   540  007DC8  20                 	db	32
   541  007DC9  4F                 	db	79	;'O'
   542  007DCA  46                 	db	70	;'F'
   543  007DCB  20                 	db	32
   544  007DCC  53                 	db	83	;'S'
   545  007DCD  45                 	db	69	;'E'
   546  007DCE  54                 	db	84	;'T'
   547  007DCF  50                 	db	80	;'P'
   548  007DD0  4F                 	db	79	;'O'
   549  007DD1  49                 	db	73	;'I'
   550  007DD2  4E                 	db	78	;'N'
   551  007DD3  54                 	db	84	;'T'
   552  007DD4  20                 	db	32
   553  007DD5  31                 	db	49	;'1'
   554  007DD6  33                 	db	51	;'3'
   555  007DD7  3A                 	db	58	;':'
   556  007DD8  0A                 	db	10
   557  007DD9  00                 	db	0
   558  007DDA                     STR_33:
   559  007DDA  43                 	db	67	;'C'
   560  007DDB  4F                 	db	79	;'O'
   561  007DDC  4F                 	db	79	;'O'
   562  007DDD  52                 	db	82	;'R'
   563  007DDE  44                 	db	68	;'D'
   564  007DDF  49                 	db	73	;'I'
   565  007DE0  4E                 	db	78	;'N'
   566  007DE1  41                 	db	65	;'A'
   567  007DE2  54                 	db	84	;'T'
   568  007DE3  45                 	db	69	;'E'
   569  007DE4  20                 	db	32
   570  007DE5  4F                 	db	79	;'O'
   571  007DE6  46                 	db	70	;'F'
   572  007DE7  20                 	db	32
   573  007DE8  53                 	db	83	;'S'
   574  007DE9  45                 	db	69	;'E'
   575  007DEA  54                 	db	84	;'T'
   576  007DEB  50                 	db	80	;'P'
   577  007DEC  4F                 	db	79	;'O'
   578  007DED  49                 	db	73	;'I'
   579  007DEE  4E                 	db	78	;'N'
   580  007DEF  54                 	db	84	;'T'
   581  007DF0  20                 	db	32
   582  007DF1  31                 	db	49	;'1'
   583  007DF2  34                 	db	52	;'4'
   584  007DF3  3A                 	db	58	;':'
   585  007DF4  0A                 	db	10
   586  007DF5  00                 	db	0
   587  007DF6                     STR_34:
   588  007DF6  43                 	db	67	;'C'
   589  007DF7  4F                 	db	79	;'O'
   590  007DF8  4F                 	db	79	;'O'
   591  007DF9  52                 	db	82	;'R'
   592  007DFA  44                 	db	68	;'D'
   593  007DFB  49                 	db	73	;'I'
   594  007DFC  4E                 	db	78	;'N'
   595  007DFD  41                 	db	65	;'A'
   596  007DFE  54                 	db	84	;'T'
   597  007DFF  45                 	db	69	;'E'
   598  007E00  20                 	db	32
   599  007E01  4F                 	db	79	;'O'
   600  007E02  46                 	db	70	;'F'
   601  007E03  20                 	db	32
   602  007E04  53                 	db	83	;'S'
   603  007E05  45                 	db	69	;'E'
   604  007E06  54                 	db	84	;'T'
   605  007E07  50                 	db	80	;'P'
   606  007E08  4F                 	db	79	;'O'
   607  007E09  49                 	db	73	;'I'
   608  007E0A  4E                 	db	78	;'N'
   609  007E0B  54                 	db	84	;'T'
   610  007E0C  20                 	db	32
   611  007E0D  31                 	db	49	;'1'
   612  007E0E  35                 	db	53	;'5'
   613  007E0F  3A                 	db	58	;':'
   614  007E10  0A                 	db	10
   615  007E11  00                 	db	0
   616  007E12                     STR_19:
   617  007E12  43                 	db	67	;'C'
   618  007E13  4F                 	db	79	;'O'
   619  007E14  4F                 	db	79	;'O'
   620  007E15  52                 	db	82	;'R'
   621  007E16  44                 	db	68	;'D'
   622  007E17  49                 	db	73	;'I'
   623  007E18  4E                 	db	78	;'N'
   624  007E19  41                 	db	65	;'A'
   625  007E1A  54                 	db	84	;'T'
   626  007E1B  45                 	db	69	;'E'
   627  007E1C  20                 	db	32
   628  007E1D  4F                 	db	79	;'O'
   629  007E1E  46                 	db	70	;'F'
   630  007E1F  20                 	db	32
   631  007E20  53                 	db	83	;'S'
   632  007E21  45                 	db	69	;'E'
   633  007E22  54                 	db	84	;'T'
   634  007E23  50                 	db	80	;'P'
   635  007E24  4F                 	db	79	;'O'
   636  007E25  49                 	db	73	;'I'
   637  007E26  4E                 	db	78	;'N'
   638  007E27  54                 	db	84	;'T'
   639  007E28  20                 	db	32
   640  007E29  30                 	db	48	;'0'
   641  007E2A  3A                 	db	58	;':'
   642  007E2B  0A                 	db	10
   643  007E2C  00                 	db	0
   644  007E2D                     STR_20:
   645  007E2D  43                 	db	67	;'C'
   646  007E2E  4F                 	db	79	;'O'
   647  007E2F  4F                 	db	79	;'O'
   648  007E30  52                 	db	82	;'R'
   649  007E31  44                 	db	68	;'D'
   650  007E32  49                 	db	73	;'I'
   651  007E33  4E                 	db	78	;'N'
   652  007E34  41                 	db	65	;'A'
   653  007E35  54                 	db	84	;'T'
   654  007E36  45                 	db	69	;'E'
   655  007E37  20                 	db	32
   656  007E38  4F                 	db	79	;'O'
   657  007E39  46                 	db	70	;'F'
   658  007E3A  20                 	db	32
   659  007E3B  53                 	db	83	;'S'
   660  007E3C  45                 	db	69	;'E'
   661  007E3D  54                 	db	84	;'T'
   662  007E3E  50                 	db	80	;'P'
   663  007E3F  4F                 	db	79	;'O'
   664  007E40  49                 	db	73	;'I'
   665  007E41  4E                 	db	78	;'N'
   666  007E42  54                 	db	84	;'T'
   667  007E43  20                 	db	32
   668  007E44  31                 	db	49	;'1'
   669  007E45  3A                 	db	58	;':'
   670  007E46  0A                 	db	10
   671  007E47  00                 	db	0
   672  007E48                     STR_21:
   673  007E48  43                 	db	67	;'C'
   674  007E49  4F                 	db	79	;'O'
   675  007E4A  4F                 	db	79	;'O'
   676  007E4B  52                 	db	82	;'R'
   677  007E4C  44                 	db	68	;'D'
   678  007E4D  49                 	db	73	;'I'
   679  007E4E  4E                 	db	78	;'N'
   680  007E4F  41                 	db	65	;'A'
   681  007E50  54                 	db	84	;'T'
   682  007E51  45                 	db	69	;'E'
   683  007E52  20                 	db	32
   684  007E53  4F                 	db	79	;'O'
   685  007E54  46                 	db	70	;'F'
   686  007E55  20                 	db	32
   687  007E56  53                 	db	83	;'S'
   688  007E57  45                 	db	69	;'E'
   689  007E58  54                 	db	84	;'T'
   690  007E59  50                 	db	80	;'P'
   691  007E5A  4F                 	db	79	;'O'
   692  007E5B  49                 	db	73	;'I'
   693  007E5C  4E                 	db	78	;'N'
   694  007E5D  54                 	db	84	;'T'
   695  007E5E  20                 	db	32
   696  007E5F  32                 	db	50	;'2'
   697  007E60  3A                 	db	58	;':'
   698  007E61  0A                 	db	10
   699  007E62  00                 	db	0
   700  007E63                     STR_22:
   701  007E63  43                 	db	67	;'C'
   702  007E64  4F                 	db	79	;'O'
   703  007E65  4F                 	db	79	;'O'
   704  007E66  52                 	db	82	;'R'
   705  007E67  44                 	db	68	;'D'
   706  007E68  49                 	db	73	;'I'
   707  007E69  4E                 	db	78	;'N'
   708  007E6A  41                 	db	65	;'A'
   709  007E6B  54                 	db	84	;'T'
   710  007E6C  45                 	db	69	;'E'
   711  007E6D  20                 	db	32
   712  007E6E  4F                 	db	79	;'O'
   713  007E6F  46                 	db	70	;'F'
   714  007E70  20                 	db	32
   715  007E71  53                 	db	83	;'S'
   716  007E72  45                 	db	69	;'E'
   717  007E73  54                 	db	84	;'T'
   718  007E74  50                 	db	80	;'P'
   719  007E75  4F                 	db	79	;'O'
   720  007E76  49                 	db	73	;'I'
   721  007E77  4E                 	db	78	;'N'
   722  007E78  54                 	db	84	;'T'
   723  007E79  20                 	db	32
   724  007E7A  33                 	db	51	;'3'
   725  007E7B  3A                 	db	58	;':'
   726  007E7C  0A                 	db	10
   727  007E7D  00                 	db	0
   728  007E7E                     STR_23:
   729  007E7E  43                 	db	67	;'C'
   730  007E7F  4F                 	db	79	;'O'
   731  007E80  4F                 	db	79	;'O'
   732  007E81  52                 	db	82	;'R'
   733  007E82  44                 	db	68	;'D'
   734  007E83  49                 	db	73	;'I'
   735  007E84  4E                 	db	78	;'N'
   736  007E85  41                 	db	65	;'A'
   737  007E86  54                 	db	84	;'T'
   738  007E87  45                 	db	69	;'E'
   739  007E88  20                 	db	32
   740  007E89  4F                 	db	79	;'O'
   741  007E8A  46                 	db	70	;'F'
   742  007E8B  20                 	db	32
   743  007E8C  53                 	db	83	;'S'
   744  007E8D  45                 	db	69	;'E'
   745  007E8E  54                 	db	84	;'T'
   746  007E8F  50                 	db	80	;'P'
   747  007E90  4F                 	db	79	;'O'
   748  007E91  49                 	db	73	;'I'
   749  007E92  4E                 	db	78	;'N'
   750  007E93  54                 	db	84	;'T'
   751  007E94  20                 	db	32
   752  007E95  34                 	db	52	;'4'
   753  007E96  3A                 	db	58	;':'
   754  007E97  0A                 	db	10
   755  007E98  00                 	db	0
   756  007E99                     STR_24:
   757  007E99  43                 	db	67	;'C'
   758  007E9A  4F                 	db	79	;'O'
   759  007E9B  4F                 	db	79	;'O'
   760  007E9C  52                 	db	82	;'R'
   761  007E9D  44                 	db	68	;'D'
   762  007E9E  49                 	db	73	;'I'
   763  007E9F  4E                 	db	78	;'N'
   764  007EA0  41                 	db	65	;'A'
   765  007EA1  54                 	db	84	;'T'
   766  007EA2  45                 	db	69	;'E'
   767  007EA3  20                 	db	32
   768  007EA4  4F                 	db	79	;'O'
   769  007EA5  46                 	db	70	;'F'
   770  007EA6  20                 	db	32
   771  007EA7  53                 	db	83	;'S'
   772  007EA8  45                 	db	69	;'E'
   773  007EA9  54                 	db	84	;'T'
   774  007EAA  50                 	db	80	;'P'
   775  007EAB  4F                 	db	79	;'O'
   776  007EAC  49                 	db	73	;'I'
   777  007EAD  4E                 	db	78	;'N'
   778  007EAE  54                 	db	84	;'T'
   779  007EAF  20                 	db	32
   780  007EB0  35                 	db	53	;'5'
   781  007EB1  3A                 	db	58	;':'
   782  007EB2  0A                 	db	10
   783  007EB3  00                 	db	0
   784  007EB4                     STR_25:
   785  007EB4  43                 	db	67	;'C'
   786  007EB5  4F                 	db	79	;'O'
   787  007EB6  4F                 	db	79	;'O'
   788  007EB7  52                 	db	82	;'R'
   789  007EB8  44                 	db	68	;'D'
   790  007EB9  49                 	db	73	;'I'
   791  007EBA  4E                 	db	78	;'N'
   792  007EBB  41                 	db	65	;'A'
   793  007EBC  54                 	db	84	;'T'
   794  007EBD  45                 	db	69	;'E'
   795  007EBE  20                 	db	32
   796  007EBF  4F                 	db	79	;'O'
   797  007EC0  46                 	db	70	;'F'
   798  007EC1  20                 	db	32
   799  007EC2  53                 	db	83	;'S'
   800  007EC3  45                 	db	69	;'E'
   801  007EC4  54                 	db	84	;'T'
   802  007EC5  50                 	db	80	;'P'
   803  007EC6  4F                 	db	79	;'O'
   804  007EC7  49                 	db	73	;'I'
   805  007EC8  4E                 	db	78	;'N'
   806  007EC9  54                 	db	84	;'T'
   807  007ECA  20                 	db	32
   808  007ECB  36                 	db	54	;'6'
   809  007ECC  3A                 	db	58	;':'
   810  007ECD  0A                 	db	10
   811  007ECE  00                 	db	0
   812  007ECF                     STR_26:
   813  007ECF  43                 	db	67	;'C'
   814  007ED0  4F                 	db	79	;'O'
   815  007ED1  4F                 	db	79	;'O'
   816  007ED2  52                 	db	82	;'R'
   817  007ED3  44                 	db	68	;'D'
   818  007ED4  49                 	db	73	;'I'
   819  007ED5  4E                 	db	78	;'N'
   820  007ED6  41                 	db	65	;'A'
   821  007ED7  54                 	db	84	;'T'
   822  007ED8  45                 	db	69	;'E'
   823  007ED9  20                 	db	32
   824  007EDA  4F                 	db	79	;'O'
   825  007EDB  46                 	db	70	;'F'
   826  007EDC  20                 	db	32
   827  007EDD  53                 	db	83	;'S'
   828  007EDE  45                 	db	69	;'E'
   829  007EDF  54                 	db	84	;'T'
   830  007EE0  50                 	db	80	;'P'
   831  007EE1  4F                 	db	79	;'O'
   832  007EE2  49                 	db	73	;'I'
   833  007EE3  4E                 	db	78	;'N'
   834  007EE4  54                 	db	84	;'T'
   835  007EE5  20                 	db	32
   836  007EE6  37                 	db	55	;'7'
   837  007EE7  3A                 	db	58	;':'
   838  007EE8  0A                 	db	10
   839  007EE9  00                 	db	0
   840  007EEA                     STR_27:
   841  007EEA  43                 	db	67	;'C'
   842  007EEB  4F                 	db	79	;'O'
   843  007EEC  4F                 	db	79	;'O'
   844  007EED  52                 	db	82	;'R'
   845  007EEE  44                 	db	68	;'D'
   846  007EEF  49                 	db	73	;'I'
   847  007EF0  4E                 	db	78	;'N'
   848  007EF1  41                 	db	65	;'A'
   849  007EF2  54                 	db	84	;'T'
   850  007EF3  45                 	db	69	;'E'
   851  007EF4  20                 	db	32
   852  007EF5  4F                 	db	79	;'O'
   853  007EF6  46                 	db	70	;'F'
   854  007EF7  20                 	db	32
   855  007EF8  53                 	db	83	;'S'
   856  007EF9  45                 	db	69	;'E'
   857  007EFA  54                 	db	84	;'T'
   858  007EFB  50                 	db	80	;'P'
   859  007EFC  4F                 	db	79	;'O'
   860  007EFD  49                 	db	73	;'I'
   861  007EFE  4E                 	db	78	;'N'
   862  007EFF  54                 	db	84	;'T'
   863  007F00  20                 	db	32
   864  007F01  38                 	db	56	;'8'
   865  007F02  3A                 	db	58	;':'
   866  007F03  0A                 	db	10
   867  007F04  00                 	db	0
   868  007F05                     STR_28:
   869  007F05  43                 	db	67	;'C'
   870  007F06  4F                 	db	79	;'O'
   871  007F07  4F                 	db	79	;'O'
   872  007F08  52                 	db	82	;'R'
   873  007F09  44                 	db	68	;'D'
   874  007F0A  49                 	db	73	;'I'
   875  007F0B  4E                 	db	78	;'N'
   876  007F0C  41                 	db	65	;'A'
   877  007F0D  54                 	db	84	;'T'
   878  007F0E  45                 	db	69	;'E'
   879  007F0F  20                 	db	32
   880  007F10  4F                 	db	79	;'O'
   881  007F11  46                 	db	70	;'F'
   882  007F12  20                 	db	32
   883  007F13  53                 	db	83	;'S'
   884  007F14  45                 	db	69	;'E'
   885  007F15  54                 	db	84	;'T'
   886  007F16  50                 	db	80	;'P'
   887  007F17  4F                 	db	79	;'O'
   888  007F18  49                 	db	73	;'I'
   889  007F19  4E                 	db	78	;'N'
   890  007F1A  54                 	db	84	;'T'
   891  007F1B  20                 	db	32
   892  007F1C  39                 	db	57	;'9'
   893  007F1D  3A                 	db	58	;':'
   894  007F1E  0A                 	db	10
   895  007F1F  00                 	db	0
   896  007F20                     STR_3:
   897  007F20  57                 	db	87	;'W'
   898  007F21  41                 	db	65	;'A'
   899  007F22  49                 	db	73	;'I'
   900  007F23  54                 	db	84	;'T'
   901  007F24  49                 	db	73	;'I'
   902  007F25  4E                 	db	78	;'N'
   903  007F26  47                 	db	71	;'G'
   904  007F27  20                 	db	32
   905  007F28  46                 	db	70	;'F'
   906  007F29  4F                 	db	79	;'O'
   907  007F2A  52                 	db	82	;'R'
   908  007F2B  20                 	db	32
   909  007F2C  49                 	db	73	;'I'
   910  007F2D  4E                 	db	78	;'N'
   911  007F2E  53                 	db	83	;'S'
   912  007F2F  54                 	db	84	;'T'
   913  007F30  52                 	db	82	;'R'
   914  007F31  55                 	db	85	;'U'
   915  007F32  43                 	db	67	;'C'
   916  007F33  54                 	db	84	;'T'
   917  007F34  49                 	db	73	;'I'
   918  007F35  4F                 	db	79	;'O'
   919  007F36  4E                 	db	78	;'N'
   920  007F37  0A                 	db	10
   921  007F38  00                 	db	0
   922  007F39                     STR_13:
   923  007F39  57                 	db	87	;'W'
   924  007F3A  41                 	db	65	;'A'
   925  007F3B  49                 	db	73	;'I'
   926  007F3C  54                 	db	84	;'T'
   927  007F3D  20                 	db	32
   928  007F3E  55                 	db	85	;'U'
   929  007F3F  4E                 	db	78	;'N'
   930  007F40  54                 	db	84	;'T'
   931  007F41  49                 	db	73	;'I'
   932  007F42  4C                 	db	76	;'L'
   933  007F43  20                 	db	32
   934  007F44  43                 	db	67	;'C'
   935  007F45  4F                 	db	79	;'O'
   936  007F46  4D                 	db	77	;'M'
   937  007F47  50                 	db	80	;'P'
   938  007F48  4C                 	db	76	;'L'
   939  007F49  45                 	db	69	;'E'
   940  007F4A  54                 	db	84	;'T'
   941  007F4B  45                 	db	69	;'E'
   942  007F4C  2E                 	db	46
   943  007F4D  2E                 	db	46
   944  007F4E  2E                 	db	46
   945  007F4F  0A                 	db	10
   946  007F50  00                 	db	0
   947  007F51                     STR_4:
   948  007F51  57                 	db	87	;'W'
   949  007F52  41                 	db	65	;'A'
   950  007F53  49                 	db	73	;'I'
   951  007F54  54                 	db	84	;'T'
   952  007F55  20                 	db	32
   953  007F56  55                 	db	85	;'U'
   954  007F57  4E                 	db	78	;'N'
   955  007F58  54                 	db	84	;'T'
   956  007F59  49                 	db	73	;'I'
   957  007F5A  4C                 	db	76	;'L'
   958  007F5B  20                 	db	32
   959  007F5C  43                 	db	67	;'C'
   960  007F5D  4F                 	db	79	;'O'
   961  007F5E  4D                 	db	77	;'M'
   962  007F5F  50                 	db	80	;'P'
   963  007F60  4C                 	db	76	;'L'
   964  007F61  45                 	db	69	;'E'
   965  007F62  54                 	db	84	;'T'
   966  007F63  45                 	db	69	;'E'
   967  007F64  2E                 	db	46
   968  007F65  2E                 	db	46
   969  007F66  2E                 	db	46
   970  007F67  00                 	db	0
   971  007F68                     STR_38:
   972  007F68  43                 	db	67	;'C'
   973  007F69  4F                 	db	79	;'O'
   974  007F6A  4F                 	db	79	;'O'
   975  007F6B  52                 	db	82	;'R'
   976  007F6C  44                 	db	68	;'D'
   977  007F6D  49                 	db	73	;'I'
   978  007F6E  4E                 	db	78	;'N'
   979  007F6F  41                 	db	65	;'A'
   980  007F70  54                 	db	84	;'T'
   981  007F71  45                 	db	69	;'E'
   982  007F72  20                 	db	32
   983  007F73  58                 	db	88	;'X'
   984  007F74  20                 	db	32
   985  007F75  53                 	db	83	;'S'
   986  007F76  41                 	db	65	;'A'
   987  007F77  56                 	db	86	;'V'
   988  007F78  45                 	db	69	;'E'
   989  007F79  44                 	db	68	;'D'
   990  007F7A  0A                 	db	10
   991  007F7B  00                 	db	0
   992  007F7C                     STR_39:
   993  007F7C  43                 	db	67	;'C'
   994  007F7D  4F                 	db	79	;'O'
   995  007F7E  4F                 	db	79	;'O'
   996  007F7F  52                 	db	82	;'R'
   997  007F80  44                 	db	68	;'D'
   998  007F81  49                 	db	73	;'I'
   999  007F82  4E                 	db	78	;'N'
  1000  007F83  41                 	db	65	;'A'
  1001  007F84  54                 	db	84	;'T'
  1002  007F85  45                 	db	69	;'E'
  1003  007F86  20                 	db	32
  1004  007F87  59                 	db	89	;'Y'
  1005  007F88  20                 	db	32
  1006  007F89  53                 	db	83	;'S'
  1007  007F8A  41                 	db	65	;'A'
  1008  007F8B  56                 	db	86	;'V'
  1009  007F8C  45                 	db	69	;'E'
  1010  007F8D  44                 	db	68	;'D'
  1011  007F8E  0A                 	db	10
  1012  007F8F  00                 	db	0
  1013  007F90                     STR_40:
  1014  007F90  43                 	db	67	;'C'
  1015  007F91  4F                 	db	79	;'O'
  1016  007F92  4F                 	db	79	;'O'
  1017  007F93  52                 	db	82	;'R'
  1018  007F94  44                 	db	68	;'D'
  1019  007F95  49                 	db	73	;'I'
  1020  007F96  4E                 	db	78	;'N'
  1021  007F97  41                 	db	65	;'A'
  1022  007F98  54                 	db	84	;'T'
  1023  007F99  45                 	db	69	;'E'
  1024  007F9A  20                 	db	32
  1025  007F9B  5A                 	db	90	;'Z'
  1026  007F9C  20                 	db	32
  1027  007F9D  53                 	db	83	;'S'
  1028  007F9E  41                 	db	65	;'A'
  1029  007F9F  56                 	db	86	;'V'
  1030  007FA0  45                 	db	69	;'E'
  1031  007FA1  44                 	db	68	;'D'
  1032  007FA2  0A                 	db	10
  1033  007FA3  00                 	db	0
  1034  007FA4                     STR_1:
  1035  007FA4  57                 	db	87	;'W'
  1036  007FA5  45                 	db	69	;'E'
  1037  007FA6  4C                 	db	76	;'L'
  1038  007FA7  43                 	db	67	;'C'
  1039  007FA8  4F                 	db	79	;'O'
  1040  007FA9  4D                 	db	77	;'M'
  1041  007FAA  45                 	db	69	;'E'
  1042  007FAB  20                 	db	32
  1043  007FAC  54                 	db	84	;'T'
  1044  007FAD  4F                 	db	79	;'O'
  1045  007FAE  20                 	db	32
  1046  007FAF  53                 	db	83	;'S'
  1047  007FB0  50                 	db	80	;'P'
  1048  007FB1  41                 	db	65	;'A'
  1049  007FB2  52                 	db	82	;'R'
  1050  007FB3  43                 	db	67	;'C'
  1051  007FB4  0A                 	db	10
  1052  007FB5  00                 	db	0
  1053  007FB6                     STR_36:
  1054  007FB6  0A                 	db	10
  1055  007FB7  43                 	db	67	;'C'
  1056  007FB8  4F                 	db	79	;'O'
  1057  007FB9  4F                 	db	79	;'O'
  1058  007FBA  52                 	db	82	;'R'
  1059  007FBB  44                 	db	68	;'D'
  1060  007FBC  49                 	db	73	;'I'
  1061  007FBD  4E                 	db	78	;'N'
  1062  007FBE  41                 	db	65	;'A'
  1063  007FBF  54                 	db	84	;'T'
  1064  007FC0  45                 	db	69	;'E'
  1065  007FC1  20                 	db	32
  1066  007FC2  59                 	db	89	;'Y'
  1067  007FC3  3A                 	db	58	;':'
  1068  007FC4  00                 	db	0
  1069  007FC5                     STR_37:
  1070  007FC5  0A                 	db	10
  1071  007FC6  43                 	db	67	;'C'
  1072  007FC7  4F                 	db	79	;'O'
  1073  007FC8  4F                 	db	79	;'O'
  1074  007FC9  52                 	db	82	;'R'
  1075  007FCA  44                 	db	68	;'D'
  1076  007FCB  49                 	db	73	;'I'
  1077  007FCC  4E                 	db	78	;'N'
  1078  007FCD  41                 	db	65	;'A'
  1079  007FCE  54                 	db	84	;'T'
  1080  007FCF  45                 	db	69	;'E'
  1081  007FD0  20                 	db	32
  1082  007FD1  5A                 	db	90	;'Z'
  1083  007FD2  3A                 	db	58	;':'
  1084  007FD3  00                 	db	0
  1085  007FD4                     STR_35:
  1086  007FD4  43                 	db	67	;'C'
  1087  007FD5  4F                 	db	79	;'O'
  1088  007FD6  4F                 	db	79	;'O'
  1089  007FD7  52                 	db	82	;'R'
  1090  007FD8  44                 	db	68	;'D'
  1091  007FD9  49                 	db	73	;'I'
  1092  007FDA  4E                 	db	78	;'N'
  1093  007FDB  41                 	db	65	;'A'
  1094  007FDC  54                 	db	84	;'T'
  1095  007FDD  45                 	db	69	;'E'
  1096  007FDE  20                 	db	32
  1097  007FDF  58                 	db	88	;'X'
  1098  007FE0  3A                 	db	58	;':'
  1099  007FE1  00                 	db	0
  1100  007FE2                     STR_41:
  1101  007FE2  43                 	db	67	;'C'
  1102  007FE3  4F                 	db	79	;'O'
  1103  007FE4  4D                 	db	77	;'M'
  1104  007FE5  50                 	db	80	;'P'
  1105  007FE6  4C                 	db	76	;'L'
  1106  007FE7  45                 	db	69	;'E'
  1107  007FE8  54                 	db	84	;'T'
  1108  007FE9  45                 	db	69	;'E'
  1109  007FEA  44                 	db	68	;'D'
  1110  007FEB  0A                 	db	10
  1111  007FEC  00                 	db	0
  1112  007FED                     STR_43:
  1113  007FED  43                 	db	67	;'C'
  1114  007FEE  4F                 	db	79	;'O'
  1115  007FEF  4D                 	db	77	;'M'
  1116  007FF0  50                 	db	80	;'P'
  1117  007FF1  4C                 	db	76	;'L'
  1118  007FF2  45                 	db	69	;'E'
  1119  007FF3  54                 	db	84	;'T'
  1120  007FF4  45                 	db	69	;'E'
  1121  007FF5  0A                 	db	10
  1122  007FF6  00                 	db	0
  1123  007FF7                     STR_42:
  1124  007FF7  54                 	db	84	;'T'
  1125  007FF8  4F                 	db	79	;'O'
  1126  007FF9  55                 	db	85	;'U'
  1127  007FFA  43                 	db	67	;'C'
  1128  007FFB  48                 	db	72	;'H'
  1129  007FFC  0A                 	db	10
  1130  007FFD  00                 	db	0
  1131  0000                     
  1132                           ; #config settings
  1133  007FFE  00                 	db	0	; dummy byte at the end
  1134  0000                     
  1135                           	psect	cinit
  1136  00263A                     __pcinit:
  1137                           	opt callstack 0
  1138  00263A                     start_initialization:
  1139                           	opt callstack 0
  1140  00263A                     __initialization:
  1141                           	opt callstack 0
  1142                           
  1143                           ; Clear objects allocated to BANK0 (47 bytes)
  1144  00263A  EE00  F0A0         	lfsr	0,__pbssBANK0
  1145  00263E  0E2F               	movlw	47
  1146  002640                     clear_0:
  1147  002640  6AEE               	clrf	postinc0,c
  1148  002642  06E8               	decf	wreg,f,c
  1149  002644  E1FD               	bnz	clear_0
  1150                           
  1151                           ; Clear objects allocated to COMRAM (27 bytes)
  1152  002646  EE00  F040         	lfsr	0,__pbssCOMRAM
  1153  00264A  0E1B               	movlw	27
  1154  00264C                     clear_1:
  1155  00264C  6AEE               	clrf	postinc0,c
  1156  00264E  06E8               	decf	wreg,f,c
  1157  002650  E1FD               	bnz	clear_1
  1158  002652                     end_of_initialization:
  1159                           	opt callstack 0
  1160  002652                     __end_of__initialization:
  1161                           	opt callstack 0
  1162  002652  905B               	bcf	int$flags,0,c	;clear compiler interrupt flag (level 1)
  1163  002654  925B               	bcf	int$flags,1,c	;clear compiler interrupt flag (level 2)
  1164  002656  0E00               	movlw	low (__Lmediumconst shr (0+16))
  1165  002658  6EF8               	movwf	tblptru,c
  1166  00265A  0100               	movlb	0
  1167  00265C  EFF4  F012         	goto	_main	;jump to C main() function
  1168                           
  1169                           	psect	bssCOMRAM
  1170  000040                     __pbssCOMRAM:
  1171                           	opt callstack 0
  1172  000040                     fabsf@F463:
  1173                           	opt callstack 0
  1174  000040                     	ds	4
  1175  000044                     _Suma:
  1176                           	opt callstack 0
  1177  000044                     	ds	4
  1178  000048                     _C:
  1179                           	opt callstack 0
  1180  000048                     	ds	3
  1181  00004B                     _errno:
  1182                           	opt callstack 0
  1183  00004B                     	ds	2
  1184  00004D                     _CoordenadaYY:
  1185                           	opt callstack 0
  1186  00004D                     	ds	2
  1187  00004F                     _CoordenadaXX:
  1188                           	opt callstack 0
  1189  00004F                     	ds	2
  1190  000051                     _LecturaFiltro:
  1191                           	opt callstack 0
  1192  000051                     	ds	2
  1193  000053                     _Lectura:
  1194                           	opt callstack 0
  1195  000053                     	ds	2
  1196  000055                     _home:
  1197                           	opt callstack 0
  1198  000055                     	ds	1
  1199  000056                     _data:
  1200                           	opt callstack 0
  1201  000056                     	ds	1
  1202  000057                     _bites_masS:
  1203                           	opt callstack 0
  1204  000057                     	ds	1
  1205  000058                     _bites_menosS:
  1206                           	opt callstack 0
  1207  000058                     	ds	1
  1208  000059                     _BanderaY:
  1209                           	opt callstack 0
  1210  000059                     	ds	1
  1211  00005A                     _BanderaX:
  1212                           	opt callstack 0
  1213  00005A                     	ds	1
  1214                           
  1215                           	psect	bssBANK0
  1216  0000A0                     __pbssBANK0:
  1217                           	opt callstack 0
  1218  0000A0                     _Distancia:
  1219                           	opt callstack 0
  1220  0000A0                     	ds	4
  1221  0000A4                     _coordenada_anteriorY:
  1222                           	opt callstack 0
  1223  0000A4                     	ds	2
  1224  0000A6                     _coordenada_anteriorX:
  1225                           	opt callstack 0
  1226  0000A6                     	ds	2
  1227  0000A8                     _DeltaY:
  1228                           	opt callstack 0
  1229  0000A8                     	ds	2
  1230  0000AA                     _DeltaX:
  1231                           	opt callstack 0
  1232  0000AA                     	ds	2
  1233  0000AC                     _PasosY:
  1234                           	opt callstack 0
  1235  0000AC                     	ds	2
  1236  0000AE                     _PasosX:
  1237                           	opt callstack 0
  1238  0000AE                     	ds	2
  1239  0000B0                     _pasos_convertidos:
  1240                           	opt callstack 0
  1241  0000B0                     	ds	2
  1242  0000B2                     _Coordenadas_mal:
  1243                           	opt callstack 0
  1244  0000B2                     	ds	1
  1245  0000B3                     _Coordenadas_fuera:
  1246                           	opt callstack 0
  1247  0000B3                     	ds	1
  1248  0000B4                     _Direccion_Memoria:
  1249                           	opt callstack 0
  1250  0000B4                     	ds	1
  1251  0000B5                     _oneshotY:
  1252                           	opt callstack 0
  1253  0000B5                     	ds	1
  1254  0000B6                     _oneshotX:
  1255                           	opt callstack 0
  1256  0000B6                     	ds	1
  1257  0000B7                     _coordenada_setpoint:
  1258                           	opt callstack 0
  1259  0000B7                     	ds	11
  1260  0000C2                     _coordenada_array:
  1261                           	opt callstack 0
  1262  0000C2                     	ds	7
  1263  0000C9                     _CoordenadaZ:
  1264                           	opt callstack 0
  1265  0000C9                     	ds	2
  1266  0000CB                     _CoordenadaY:
  1267                           	opt callstack 0
  1268  0000CB                     	ds	2
  1269  0000CD                     _CoordenadaX:
  1270                           	opt callstack 0
  1271  0000CD                     	ds	2
  1272                           
  1273                           	psect	cstackBANK0
  1274  000060                     __pcstackBANK0:
  1275                           	opt callstack 0
  1276  000060                     ?_PWM_OneshotX:
  1277                           	opt callstack 0
  1278  000060                     ?_PWM_OneshotY:
  1279                           	opt callstack 0
  1280  000060                     ?_isspace:
  1281                           	opt callstack 0
  1282  000060                     ?_isdigit:
  1283                           	opt callstack 0
  1284  000060                     ?___wmul:
  1285                           	opt callstack 0
  1286  000060                     ?___aldiv:
  1287                           	opt callstack 0
  1288  000060                     ?___xxtofl:
  1289                           	opt callstack 0
  1290  000060                     EEPROM_Rx@direccion:
  1291                           	opt callstack 0
  1292  000060                     EEPROM_Tx@dato:
  1293                           	opt callstack 0
  1294  000060                     PWM_OneshotX@countX:
  1295                           	opt callstack 0
  1296  000060                     PWM_OneshotY@countY:
  1297                           	opt callstack 0
  1298  000060                     USART_TxS@str:
  1299                           	opt callstack 0
  1300  000060                     USART_RxS@pointer:
  1301                           	opt callstack 0
  1302  000060                     Serial_RangosCoordenadas@C:
  1303                           	opt callstack 0
  1304  000060                     Motor_Calcular_PasosX@coordenada_actualX:
  1305                           	opt callstack 0
  1306  000060                     Motor_Calcular_PasosY@coordenada_actualY:
  1307                           	opt callstack 0
  1308  000060                     ___wmul@multiplier:
  1309                           	opt callstack 0
  1310  000060                     isdigit@c:
  1311                           	opt callstack 0
  1312  000060                     isspace@c:
  1313                           	opt callstack 0
  1314  000060                     ___aldiv@dividend:
  1315                           	opt callstack 0
  1316  000060                     ___xxtofl@val:
  1317                           	opt callstack 0
  1318                           
  1319                           ; 4 bytes @ 0x0
  1320  000060                     	ds	1
  1321  000061                     EEPROM_Tx@direccion:
  1322                           	opt callstack 0
  1323                           
  1324                           ; 1 bytes @ 0x1
  1325  000061                     	ds	1
  1326  000062                     ??_Motor_Calcular_PasosX:
  1327  000062                     ??_Motor_Calcular_PasosY:
  1328  000062                     ??_isspace:
  1329  000062                     ??_isdigit:
  1330  000062                     ??_USART_RxS:
  1331  000062                     PWM_GeneratePulsos@pulsosX:
  1332                           	opt callstack 0
  1333  000062                     USART_TxS@length:
  1334                           	opt callstack 0
  1335  000062                     ___wmul@multiplicand:
  1336                           	opt callstack 0
  1337                           
  1338                           ; 2 bytes @ 0x2
  1339  000062                     	ds	2
  1340  000064                     ??_USART_TxS:
  1341  000064                     ??___xxtofl:
  1342  000064                     PWM_GeneratePulsos@pulsosY:
  1343                           	opt callstack 0
  1344  000064                     ___wmul@product:
  1345                           	opt callstack 0
  1346  000064                     ___aldiv@divisor:
  1347                           	opt callstack 0
  1348                           
  1349                           ; 4 bytes @ 0x4
  1350  000064                     	ds	1
  1351  000065                     USART_RxS@length:
  1352                           	opt callstack 0
  1353                           
  1354                           ; 1 bytes @ 0x5
  1355  000065                     	ds	1
  1356  000066                     ??_PWM_GeneratePulsos:
  1357  000066                     _isspace$2399:
  1358                           	opt callstack 0
  1359  000066                     USART_TxS@i:
  1360                           	opt callstack 0
  1361  000066                     USART_RxS@i:
  1362                           	opt callstack 0
  1363                           
  1364                           ; 2 bytes @ 0x6
  1365  000066                     	ds	1
  1366  000067                     ?_atoi:
  1367                           	opt callstack 0
  1368  000067                     PWM_GeneratePulsos@Oupcode:
  1369                           	opt callstack 0
  1370  000067                     atoi@s:
  1371                           	opt callstack 0
  1372                           
  1373                           ; 2 bytes @ 0x7
  1374  000067                     	ds	1
  1375  000068                     ??_Actuator_Touch:
  1376  000068                     ??_Seria_Decodificacion_Memoria:
  1377  000068                     ___aldiv@counter:
  1378                           	opt callstack 0
  1379  000068                     ___xxtofl@sign:
  1380                           	opt callstack 0
  1381  000068                     PWM_GeneratePulsos@countX:
  1382                           	opt callstack 0
  1383  000068                     Serial_Escritura_Memoria@string_setpoint:
  1384                           	opt callstack 0
  1385                           
  1386                           ; 2 bytes @ 0x8
  1387  000068                     	ds	1
  1388  000069                     ??_atoi:
  1389  000069                     ___aldiv@sign:
  1390                           	opt callstack 0
  1391  000069                     ___xxtofl@exp:
  1392                           	opt callstack 0
  1393                           
  1394                           ; 1 bytes @ 0x9
  1395  000069                     	ds	1
  1396  00006A                     ??_Serial_Escritura_Memoria:
  1397  00006A                     Seria_Decodificacion_Memoria@direccion:
  1398                           	opt callstack 0
  1399  00006A                     PWM_GeneratePulsos@countY:
  1400                           	opt callstack 0
  1401  00006A                     ___aldiv@quotient:
  1402                           	opt callstack 0
  1403  00006A                     ___xxtofl@arg:
  1404                           	opt callstack 0
  1405                           
  1406                           ; 4 bytes @ 0xA
  1407  00006A                     	ds	2
  1408  00006C                     Serial_Escritura_Memoria@direccion:
  1409                           	opt callstack 0
  1410                           
  1411                           ; 1 bytes @ 0xC
  1412  00006C                     	ds	1
  1413  00006D                     Serial_Escritura_Memoria@direccionFinal:
  1414                           	opt callstack 0
  1415  00006D                     atoi@neg:
  1416                           	opt callstack 0
  1417                           
  1418                           ; 2 bytes @ 0xD
  1419  00006D                     	ds	1
  1420  00006E                     ?___fldiv:
  1421                           	opt callstack 0
  1422  00006E                     Serial_Escritura_Memoria@i:
  1423                           	opt callstack 0
  1424  00006E                     USART_Init@BAUD:
  1425                           	opt callstack 0
  1426  00006E                     ___fldiv@b:
  1427                           	opt callstack 0
  1428                           
  1429                           ; 4 bytes @ 0xE
  1430  00006E                     	ds	1
  1431  00006F                     _atoi$2381:
  1432                           	opt callstack 0
  1433                           
  1434                           ; 2 bytes @ 0xF
  1435  00006F                     	ds	1
  1436  000070                     Serial_Escritura_Memoria@i_1318:
  1437                           	opt callstack 0
  1438                           
  1439                           ; 2 bytes @ 0x10
  1440  000070                     	ds	1
  1441  000071                     _atoi$2383:
  1442                           	opt callstack 0
  1443                           
  1444                           ; 2 bytes @ 0x11
  1445  000071                     	ds	1
  1446  000072                     Serial_Escritura_Memoria@i_1320:
  1447                           	opt callstack 0
  1448  000072                     ___fldiv@a:
  1449                           	opt callstack 0
  1450  000072                     _USART_Init$2794:
  1451                           	opt callstack 0
  1452                           
  1453                           ; 4 bytes @ 0x12
  1454  000072                     	ds	1
  1455  000073                     _atoi$2382:
  1456                           	opt callstack 0
  1457                           
  1458                           ; 1 bytes @ 0x13
  1459  000073                     	ds	1
  1460  000074                     atoi@n:
  1461                           	opt callstack 0
  1462                           
  1463                           ; 2 bytes @ 0x14
  1464  000074                     	ds	2
  1465  000076                     ??___fldiv:
  1466  000076                     Serial_DecodificacionX@string_coordenada:
  1467                           	opt callstack 0
  1468  000076                     Serial_DecodificacionY@string_coordenada:
  1469                           	opt callstack 0
  1470  000076                     Serial_Lectura_MemoriaX@pointerCX:
  1471                           	opt callstack 0
  1472  000076                     Serial_Lectura_MemoriaY@pointerCY:
  1473                           	opt callstack 0
  1474  000076                     Serial_Lectura_MemoriaZ@pointerCZ:
  1475                           	opt callstack 0
  1476                           
  1477                           ; 2 bytes @ 0x16
  1478  000076                     	ds	2
  1479  000078                     Serial_DecodificacionX@pointerCX:
  1480                           	opt callstack 0
  1481  000078                     Serial_DecodificacionY@pointerCY:
  1482                           	opt callstack 0
  1483                           
  1484                           ; 2 bytes @ 0x18
  1485  000078                     	ds	1
  1486  000079                     Serial_Lectura_MemoriaX@direccion:
  1487                           	opt callstack 0
  1488  000079                     Serial_Lectura_MemoriaY@direccion:
  1489                           	opt callstack 0
  1490  000079                     Serial_Lectura_MemoriaZ@direccion:
  1491                           	opt callstack 0
  1492                           
  1493                           ; 1 bytes @ 0x19
  1494  000079                     	ds	1
  1495  00007A                     ??_Serial_DecodificacionY:
  1496  00007A                     Serial_Lectura_MemoriaX@direccionX:
  1497                           	opt callstack 0
  1498  00007A                     Serial_Lectura_MemoriaY@direccionY:
  1499                           	opt callstack 0
  1500  00007A                     Serial_Lectura_MemoriaZ@direccionZ:
  1501                           	opt callstack 0
  1502  00007A                     ___fldiv@rem:
  1503                           	opt callstack 0
  1504                           
  1505                           ; 4 bytes @ 0x1A
  1506  00007A                     	ds	1
  1507  00007B                     Serial_DecodificacionX@coordenadaX:
  1508                           	opt callstack 0
  1509  00007B                     Serial_Lectura_MemoriaX@coordenadaX:
  1510                           	opt callstack 0
  1511  00007B                     Serial_Lectura_MemoriaY@coordenadaY:
  1512                           	opt callstack 0
  1513  00007B                     Serial_Lectura_MemoriaZ@coordenadaZ:
  1514                           	opt callstack 0
  1515                           
  1516                           ; 3 bytes @ 0x1B
  1517  00007B                     	ds	1
  1518  00007C                     Serial_DecodificacionY@coordenadaY:
  1519                           	opt callstack 0
  1520                           
  1521                           ; 3 bytes @ 0x1C
  1522  00007C                     	ds	2
  1523  00007E                     ___fldiv@sign:
  1524                           	opt callstack 0
  1525  00007E                     Serial_DecodificacionX@i:
  1526                           	opt callstack 0
  1527  00007E                     Serial_Lectura_MemoriaX@i:
  1528                           	opt callstack 0
  1529  00007E                     Serial_Lectura_MemoriaY@i:
  1530                           	opt callstack 0
  1531  00007E                     Serial_Lectura_MemoriaZ@i:
  1532                           	opt callstack 0
  1533                           
  1534                           ; 2 bytes @ 0x1E
  1535  00007E                     	ds	1
  1536  00007F                     Serial_DecodificacionY@i:
  1537                           	opt callstack 0
  1538  00007F                     ___fldiv@new_exp:
  1539                           	opt callstack 0
  1540                           
  1541                           ; 2 bytes @ 0x1F
  1542  00007F                     	ds	1
  1543  000080                     Serial_DecodificacionX@i_1253:
  1544                           	opt callstack 0
  1545  000080                     Serial_Lectura_MemoriaX@i_1293:
  1546                           	opt callstack 0
  1547  000080                     Serial_Lectura_MemoriaY@i_1301:
  1548                           	opt callstack 0
  1549  000080                     Serial_Lectura_MemoriaZ@i_1309:
  1550                           	opt callstack 0
  1551                           
  1552                           ; 2 bytes @ 0x20
  1553  000080                     	ds	1
  1554  000081                     Serial_DecodificacionY@i_1259:
  1555                           	opt callstack 0
  1556  000081                     ___fldiv@grs:
  1557                           	opt callstack 0
  1558                           
  1559                           ; 4 bytes @ 0x21
  1560  000081                     	ds	4
  1561  000085                     ___fldiv@bexp:
  1562                           	opt callstack 0
  1563                           
  1564                           ; 1 bytes @ 0x25
  1565  000085                     	ds	1
  1566  000086                     ___fldiv@aexp:
  1567                           	opt callstack 0
  1568                           
  1569                           ; 1 bytes @ 0x26
  1570  000086                     	ds	1
  1571  000087                     ?___fltol:
  1572                           	opt callstack 0
  1573  000087                     ___fltol@f1:
  1574                           	opt callstack 0
  1575                           
  1576                           ; 4 bytes @ 0x27
  1577  000087                     	ds	4
  1578  00008B                     ??___fltol:
  1579                           
  1580                           ; 1 bytes @ 0x2B
  1581  00008B                     	ds	4
  1582  00008F                     ___fltol@sign1:
  1583                           	opt callstack 0
  1584                           
  1585                           ; 1 bytes @ 0x2F
  1586  00008F                     	ds	1
  1587  000090                     ___fltol@exp1:
  1588                           	opt callstack 0
  1589                           
  1590                           ; 1 bytes @ 0x30
  1591  000090                     	ds	1
  1592  000091                     ?_Motor_Conversion:
  1593                           	opt callstack 0
  1594  000091                     Motor_Conversion@Coordenada:
  1595                           	opt callstack 0
  1596                           
  1597                           ; 2 bytes @ 0x31
  1598  000091                     	ds	2
  1599  000093                     Motor_Conversion@conversion:
  1600                           	opt callstack 0
  1601                           
  1602                           ; 4 bytes @ 0x33
  1603  000093                     	ds	4
  1604  000097                     Motor_Movimiento@Motor_CoordenadaX:
  1605                           	opt callstack 0
  1606                           
  1607                           ; 2 bytes @ 0x37
  1608  000097                     	ds	2
  1609  000099                     Motor_Movimiento@Motor_CoordenadaY:
  1610                           	opt callstack 0
  1611                           
  1612                           ; 2 bytes @ 0x39
  1613  000099                     	ds	2
  1614  00009B                     Motor_Movimiento@Oupcode:
  1615                           	opt callstack 0
  1616                           
  1617                           ; 1 bytes @ 0x3B
  1618  00009B                     	ds	1
  1619  00009C                     ??_Serial_Oupcode:
  1620                           
  1621                           ; 1 bytes @ 0x3C
  1622  00009C                     	ds	2
  1623  00009E                     Serial_Oupcode@instruction_counter:
  1624                           	opt callstack 0
  1625                           
  1626                           ; 1 bytes @ 0x3E
  1627  00009E                     	ds	1
  1628  00009F                     Serial_Oupcode@Oupcode:
  1629                           	opt callstack 0
  1630                           
  1631                           ; 1 bytes @ 0x3F
  1632  00009F                     	ds	1
  1633  0000A0                     
  1634                           ; 1 bytes @ 0x40
  1635                           
  1636                           	psect	cstackCOMRAM
  1637  000001                     __pcstackCOMRAM:
  1638                           	opt callstack 0
  1639  000001                     ?i2_PWM_OneshotX:
  1640                           	opt callstack 0
  1641  000001                     ?i2_PWM_OneshotY:
  1642                           	opt callstack 0
  1643  000001                     ?i2___xxtofl:
  1644                           	opt callstack 0
  1645  000001                     i2PWM_OneshotX@countX:
  1646                           	opt callstack 0
  1647  000001                     i2PWM_OneshotY@countY:
  1648                           	opt callstack 0
  1649  000001                     i2___xxtofl@val:
  1650                           	opt callstack 0
  1651                           
  1652                           ; 4 bytes @ 0x0
  1653  000001                     	ds	2
  1654  000003                     i2PWM_GeneratePulsos@pulsosX:
  1655                           	opt callstack 0
  1656                           
  1657                           ; 2 bytes @ 0x2
  1658  000003                     	ds	2
  1659  000005                     ??i2___xxtofl:
  1660  000005                     i2PWM_GeneratePulsos@pulsosY:
  1661                           	opt callstack 0
  1662                           
  1663                           ; 2 bytes @ 0x4
  1664  000005                     	ds	2
  1665  000007                     ??i2_PWM_GeneratePulsos:
  1666                           
  1667                           ; 1 bytes @ 0x6
  1668  000007                     	ds	1
  1669  000008                     i2PWM_GeneratePulsos@Oupcode:
  1670                           	opt callstack 0
  1671                           
  1672                           ; 1 bytes @ 0x7
  1673  000008                     	ds	1
  1674  000009                     i2___xxtofl@sign:
  1675                           	opt callstack 0
  1676  000009                     i2PWM_GeneratePulsos@countX:
  1677                           	opt callstack 0
  1678                           
  1679                           ; 2 bytes @ 0x8
  1680  000009                     	ds	1
  1681  00000A                     i2___xxtofl@exp:
  1682                           	opt callstack 0
  1683                           
  1684                           ; 1 bytes @ 0x9
  1685  00000A                     	ds	1
  1686  00000B                     i2PWM_GeneratePulsos@countY:
  1687                           	opt callstack 0
  1688  00000B                     i2___xxtofl@arg:
  1689                           	opt callstack 0
  1690                           
  1691                           ; 4 bytes @ 0xA
  1692  00000B                     	ds	4
  1693  00000F                     ?i2___fldiv:
  1694                           	opt callstack 0
  1695  00000F                     i2___fldiv@b:
  1696                           	opt callstack 0
  1697                           
  1698                           ; 4 bytes @ 0xE
  1699  00000F                     	ds	4
  1700  000013                     i2___fldiv@a:
  1701                           	opt callstack 0
  1702                           
  1703                           ; 4 bytes @ 0x12
  1704  000013                     	ds	4
  1705  000017                     ??i2___fldiv:
  1706                           
  1707                           ; 1 bytes @ 0x16
  1708  000017                     	ds	4
  1709  00001B                     i2___fldiv@rem:
  1710                           	opt callstack 0
  1711                           
  1712                           ; 4 bytes @ 0x1A
  1713  00001B                     	ds	4
  1714  00001F                     i2___fldiv@sign:
  1715                           	opt callstack 0
  1716                           
  1717                           ; 1 bytes @ 0x1E
  1718  00001F                     	ds	1
  1719  000020                     i2___fldiv@new_exp:
  1720                           	opt callstack 0
  1721                           
  1722                           ; 2 bytes @ 0x1F
  1723  000020                     	ds	2
  1724  000022                     i2___fldiv@grs:
  1725                           	opt callstack 0
  1726                           
  1727                           ; 4 bytes @ 0x21
  1728  000022                     	ds	4
  1729  000026                     i2___fldiv@bexp:
  1730                           	opt callstack 0
  1731                           
  1732                           ; 1 bytes @ 0x25
  1733  000026                     	ds	1
  1734  000027                     i2___fldiv@aexp:
  1735                           	opt callstack 0
  1736                           
  1737                           ; 1 bytes @ 0x26
  1738  000027                     	ds	1
  1739  000028                     ?i2___fltol:
  1740                           	opt callstack 0
  1741  000028                     i2___fltol@f1:
  1742                           	opt callstack 0
  1743                           
  1744                           ; 4 bytes @ 0x27
  1745  000028                     	ds	4
  1746  00002C                     ??i2___fltol:
  1747                           
  1748                           ; 1 bytes @ 0x2B
  1749  00002C                     	ds	4
  1750  000030                     i2___fltol@sign1:
  1751                           	opt callstack 0
  1752                           
  1753                           ; 1 bytes @ 0x2F
  1754  000030                     	ds	1
  1755  000031                     i2___fltol@exp1:
  1756                           	opt callstack 0
  1757                           
  1758                           ; 1 bytes @ 0x30
  1759  000031                     	ds	1
  1760  000032                     ?i2_Motor_Conversion:
  1761                           	opt callstack 0
  1762  000032                     i2Motor_Conversion@Coordenada:
  1763                           	opt callstack 0
  1764                           
  1765                           ; 2 bytes @ 0x31
  1766  000032                     	ds	2
  1767  000034                     i2Motor_Conversion@conversion:
  1768                           	opt callstack 0
  1769                           
  1770                           ; 4 bytes @ 0x33
  1771  000034                     	ds	4
  1772  000038                     Motor_Movimiento_Home@Motor_CoordenadaX:
  1773                           	opt callstack 0
  1774                           
  1775                           ; 2 bytes @ 0x37
  1776  000038                     	ds	2
  1777  00003A                     Motor_Movimiento_Home@Motor_CoordenadaY:
  1778                           	opt callstack 0
  1779                           
  1780                           ; 2 bytes @ 0x39
  1781  00003A                     	ds	2
  1782  00003C                     Motor_Movimiento_Home@Oupcode:
  1783                           	opt callstack 0
  1784                           
  1785                           ; 1 bytes @ 0x3B
  1786  00003C                     	ds	1
  1787  00003D                     ??_INT1_ACTION:
  1788  00003D                     ??_INT2_ACTION:
  1789                           
  1790                           ; 1 bytes @ 0x3C
  1791  00003D                     	ds	2
  1792  00003F                     ??_INT_isr:
  1793                           
  1794                           ; 1 bytes @ 0x3E
  1795  00003F                     	ds	1
  1796                           
  1797 ;;
  1798 ;;Main: autosize = 0, tempsize = 0, incstack = 0, save=0
  1799 ;;
  1800 ;; *************** function _main *****************
  1801 ;; Defined at:
  1802 ;;		line 18 in file "main.c"
  1803 ;; Parameters:    Size  Location     Type
  1804 ;;		None
  1805 ;; Auto vars:     Size  Location     Type
  1806 ;;		None
  1807 ;; Return value:  Size  Location     Type
  1808 ;;                  1    wreg      void 
  1809 ;; Registers used:
  1810 ;;		wreg, fsr0l, fsr0h, fsr1l, fsr1h, fsr2l, fsr2h, status,2, status,0, tblptrl, tblptrh, tblptru, prodl, prodh, cstack
  1811 ;; Tracked objects:
  1812 ;;		On entry : 0/0
  1813 ;;		On exit  : 0/0
  1814 ;;		Unchanged: 0/0
  1815 ;; Data sizes:     COMRAM   BANK0   BANK1   BANK2   BANK3   BANK4   BANK5   BANK6   BANK7
  1816 ;;      Params:         0       0       0       0       0       0       0       0       0
  1817 ;;      Locals:         0       0       0       0       0       0       0       0       0
  1818 ;;      Temps:          0       0       0       0       0       0       0       0       0
  1819 ;;      Totals:         0       0       0       0       0       0       0       0       0
  1820 ;;Total ram usage:        0 bytes
  1821 ;; Hardware stack levels required when called:    9
  1822 ;; This function calls:
  1823 ;;		_Int_Ext
  1824 ;;		_Serial_Oupcode
  1825 ;;		_USART_Init
  1826 ;;		_main_Home
  1827 ;; This function is called by:
  1828 ;;		Startup code after reset
  1829 ;; This function uses a non-reentrant model
  1830 ;;
  1831                           
  1832                           	psect	text0
  1833  0025E8                     __ptext0:
  1834                           	opt callstack 0
  1835  0025E8                     _main:
  1836                           	opt callstack 22
  1837  0025E8                     
  1838                           ;main.c: 19:     OSCCON = 0x72;
  1839  0025E8  0E72               	movlw	114
  1840  0025EA  6ED3               	movwf	211,c	;volatile
  1841  0025EC                     
  1842                           ;main.c: 20:     USART_Init(9600);
  1843  0025EC  0E80               	movlw	128
  1844  0025EE  0100               	movlb	0	; () banked
  1845  0025F0  6F6E               	movwf	USART_Init@BAUD& (0+255),b
  1846  0025F2  0E25               	movlw	37
  1847  0025F4  6F6F               	movwf	(USART_Init@BAUD+1)& (0+255),b
  1848  0025F6  0E00               	movlw	0
  1849  0025F8  6F70               	movwf	(USART_Init@BAUD+2)& (0+255),b
  1850  0025FA  0E00               	movlw	0
  1851  0025FC  6F71               	movwf	(USART_Init@BAUD+3)& (0+255),b
  1852  0025FE  ECF9  F00F         	call	_USART_Init	;wreg free
  1853  002602                     
  1854                           ;main.c: 21:     Int_Ext();
  1855  002602  EC30  F013         	call	_Int_Ext	;wreg free
  1856  002606                     
  1857                           ;main.c: 22:     main_Home();
  1858  002606  EC71  F011         	call	_main_Home	;wreg free
  1859  00260A                     
  1860                           ;main.c: 24:     Serial_Oupcode();
  1861  00260A  EC09  F000         	call	_Serial_Oupcode	;wreg free
  1862  00260E  EF07  F000         	goto	start
  1863  002612                     __end_of_main:
  1864                           	opt callstack 0
  1865                           
  1866 ;; *************** function _main_Home *****************
  1867 ;; Defined at:
  1868 ;;		line 95 in file "main.c"
  1869 ;; Parameters:    Size  Location     Type
  1870 ;;		None
  1871 ;; Auto vars:     Size  Location     Type
  1872 ;;		None
  1873 ;; Return value:  Size  Location     Type
  1874 ;;                  1    wreg      void 
  1875 ;; Registers used:
  1876 ;;		wreg, status,2, cstack
  1877 ;; Tracked objects:
  1878 ;;		On entry : 0/0
  1879 ;;		On exit  : 0/0
  1880 ;;		Unchanged: 0/0
  1881 ;; Data sizes:     COMRAM   BANK0   BANK1   BANK2   BANK3   BANK4   BANK5   BANK6   BANK7
  1882 ;;      Params:         0       0       0       0       0       0       0       0       0
  1883 ;;      Locals:         0       0       0       0       0       0       0       0       0
  1884 ;;      Temps:          0       0       0       0       0       0       0       0       0
  1885 ;;      Totals:         0       0       0       0       0       0       0       0       0
  1886 ;;Total ram usage:        0 bytes
  1887 ;; Hardware stack levels used:    1
  1888 ;; Hardware stack levels required when called:    7
  1889 ;; This function calls:
  1890 ;;		_Motor_Home
  1891 ;; This function is called by:
  1892 ;;		_main
  1893 ;; This function uses a non-reentrant model
  1894 ;;
  1895                           
  1896                           	psect	text1
  1897  0022E2                     __ptext1:
  1898                           	opt callstack 0
  1899  0022E2                     _main_Home:
  1900                           	opt callstack 23
  1901  0022E2                     
  1902                           ;main.c: 96:     while(BanderaX==0){
  1903  0022E2  EF77  F011         	goto	l4792
  1904  0022E6                     l745:
  1905                           
  1906                           ;main.c: 97:     PORTDbits.RD0 = 0;
  1907  0022E6  9083               	bcf	131,0,c	;volatile
  1908                           
  1909                           ;main.c: 98:     PORTDbits.RD2 = 1;
  1910  0022E8  8483               	bsf	131,2,c	;volatile
  1911  0022EA                     
  1912                           ;main.c: 99:     Motor_Home();
  1913  0022EA  ECBB  F013         	call	_Motor_Home	;wreg free
  1914  0022EE                     l4792:
  1915                           
  1916                           ;main.c: 96:     while(BanderaX==0){
  1917  0022EE  505A               	movf	_BanderaX^0,w,c
  1918  0022F0  B4D8               	btfsc	status,2,c
  1919  0022F2  EF7D  F011         	goto	u3621
  1920  0022F6  EF7F  F011         	goto	u3620
  1921  0022FA                     u3621:
  1922  0022FA  EF73  F011         	goto	l745
  1923  0022FE                     u3620:
  1924  0022FE  EF85  F011         	goto	l4796
  1925  002302                     l748:
  1926                           
  1927                           ;main.c: 102:     PORTDbits.RD0 = 1;
  1928  002302  8083               	bsf	131,0,c	;volatile
  1929                           
  1930                           ;main.c: 103:     PORTDbits.RD2 = 0;
  1931  002304  9483               	bcf	131,2,c	;volatile
  1932  002306                     
  1933                           ;main.c: 104:         Motor_Home();
  1934  002306  ECBB  F013         	call	_Motor_Home	;wreg free
  1935  00230A                     l4796:
  1936                           
  1937                           ;main.c: 101:     while ( BanderaY == 0) {
  1938  00230A  5059               	movf	_BanderaY^0,w,c
  1939  00230C  B4D8               	btfsc	status,2,c
  1940  00230E  EF8B  F011         	goto	u3631
  1941  002312  EF8D  F011         	goto	u3630
  1942  002316                     u3631:
  1943  002316  EF81  F011         	goto	l748
  1944  00231A                     u3630:
  1945  00231A                     
  1946                           ;main.c: 106:     PORTDbits.RD0 = 1;
  1947  00231A  8083               	bsf	131,0,c	;volatile
  1948                           
  1949                           ;main.c: 107:     PORTDbits.RD2 = 1;
  1950  00231C  8483               	bsf	131,2,c	;volatile
  1951                           
  1952                           ;main.c: 108:      T2CONbits.TMR2ON = 0;
  1953  00231E  94CA               	bcf	202,2,c	;volatile
  1954  002320                     
  1955                           ;main.c: 109:     BanderaX = 0;
  1956  002320  0E00               	movlw	0
  1957  002322  6E5A               	movwf	_BanderaX^0,c
  1958                           
  1959                           ;main.c: 110:     BanderaY = 0;
  1960  002324  0E00               	movlw	0
  1961  002326  6E59               	movwf	_BanderaY^0,c
  1962  002328  0012               	return		;funcret
  1963  00232A                     __end_of_main_Home:
  1964                           	opt callstack 0
  1965                           
  1966 ;; *************** function _Motor_Home *****************
  1967 ;; Defined at:
  1968 ;;		line 79 in file "Motor.c"
  1969 ;; Parameters:    Size  Location     Type
  1970 ;;		None
  1971 ;; Auto vars:     Size  Location     Type
  1972 ;;		None
  1973 ;; Return value:  Size  Location     Type
  1974 ;;                  1    wreg      void 
  1975 ;; Registers used:
  1976 ;;		wreg, status,2, cstack
  1977 ;; Tracked objects:
  1978 ;;		On entry : 0/0
  1979 ;;		On exit  : 0/0
  1980 ;;		Unchanged: 0/0
  1981 ;; Data sizes:     COMRAM   BANK0   BANK1   BANK2   BANK3   BANK4   BANK5   BANK6   BANK7
  1982 ;;      Params:         0       0       0       0       0       0       0       0       0
  1983 ;;      Locals:         0       0       0       0       0       0       0       0       0
  1984 ;;      Temps:          0       0       0       0       0       0       0       0       0
  1985 ;;      Totals:         0       0       0       0       0       0       0       0       0
  1986 ;;Total ram usage:        0 bytes
  1987 ;; Hardware stack levels used:    1
  1988 ;; Hardware stack levels required when called:    6
  1989 ;; This function calls:
  1990 ;;		_PWM_InitS
  1991 ;; This function is called by:
  1992 ;;		_main_Home
  1993 ;; This function uses a non-reentrant model
  1994 ;;
  1995                           
  1996                           	psect	text2
  1997  002776                     __ptext2:
  1998                           	opt callstack 0
  1999  002776                     _Motor_Home:
  2000                           	opt callstack 23
  2001  002776                     
  2002                           ;Motor.c: 80:     PORTDbits.RD1 = 1;
  2003  002776  8283               	bsf	131,1,c	;volatile
  2004                           
  2005                           ;Motor.c: 81:     PORTDbits.RD3 = 1;
  2006  002778  8683               	bsf	131,3,c	;volatile
  2007  00277A                     
  2008                           ;Motor.c: 82:     PWM_InitS();
  2009  00277A  EC63  F013         	call	_PWM_InitS	;wreg free
  2010  00277E                     
  2011                           ;Motor.c: 83:     T2CONbits.TMR2ON = 1;
  2012  00277E  84CA               	bsf	202,2,c	;volatile
  2013  002780  0012               	return		;funcret
  2014  002782                     __end_of_Motor_Home:
  2015                           	opt callstack 0
  2016                           
  2017 ;; *************** function _USART_Init *****************
  2018 ;; Defined at:
  2019 ;;		line 6 in file "UART.c"
  2020 ;; Parameters:    Size  Location     Type
  2021 ;;  BAUD            4   14[BANK0 ] long 
  2022 ;; Auto vars:     Size  Location     Type
  2023 ;;		None
  2024 ;; Return value:  Size  Location     Type
  2025 ;;                  1    wreg      void 
  2026 ;; Registers used:
  2027 ;;		wreg, status,2, status,0, cstack
  2028 ;; Tracked objects:
  2029 ;;		On entry : 0/0
  2030 ;;		On exit  : 0/0
  2031 ;;		Unchanged: 0/0
  2032 ;; Data sizes:     COMRAM   BANK0   BANK1   BANK2   BANK3   BANK4   BANK5   BANK6   BANK7
  2033 ;;      Params:         0       4       0       0       0       0       0       0       0
  2034 ;;      Locals:         0       4       0       0       0       0       0       0       0
  2035 ;;      Temps:          0       0       0       0       0       0       0       0       0
  2036 ;;      Totals:         0       8       0       0       0       0       0       0       0
  2037 ;;Total ram usage:        8 bytes
  2038 ;; Hardware stack levels used:    1
  2039 ;; Hardware stack levels required when called:    6
  2040 ;; This function calls:
  2041 ;;		___aldiv
  2042 ;; This function is called by:
  2043 ;;		_main
  2044 ;; This function uses a non-reentrant model
  2045 ;;
  2046                           
  2047                           	psect	text3
  2048  001FF2                     __ptext3:
  2049                           	opt callstack 0
  2050  001FF2                     _USART_Init:
  2051                           	opt callstack 24
  2052  001FF2                     
  2053                           ;UART.c: 7:     TRISCbits.RC6 = 0;
  2054  001FF2  9C94               	bcf	148,6,c	;volatile
  2055                           
  2056                           ;UART.c: 8:     TRISCbits.RC7 = 1;
  2057  001FF4  8E94               	bsf	148,7,c	;volatile
  2058  001FF6                     
  2059                           ;UART.c: 11:     SPBRG = (unsigned char)(((8000000/BAUD)/64)-1);
  2060  001FF6  C06E  F064         	movff	USART_Init@BAUD,___aldiv@divisor
  2061  001FFA  C06F  F065         	movff	USART_Init@BAUD+1,___aldiv@divisor+1
  2062  001FFE  C070  F066         	movff	USART_Init@BAUD+2,___aldiv@divisor+2
  2063  002002  C071  F067         	movff	USART_Init@BAUD+3,___aldiv@divisor+3
  2064  002006  0E00               	movlw	0
  2065  002008  0100               	movlb	0	; () banked
  2066  00200A  6F60               	movwf	___aldiv@dividend& (0+255),b
  2067  00200C  0E12               	movlw	18
  2068  00200E  6F61               	movwf	(___aldiv@dividend+1)& (0+255),b
  2069  002010  0E7A               	movlw	122
  2070  002012  6F62               	movwf	(___aldiv@dividend+2)& (0+255),b
  2071  002014  0E00               	movlw	0
  2072  002016  6F63               	movwf	(___aldiv@dividend+3)& (0+255),b
  2073  002018  EC4D  F00B         	call	___aldiv	;wreg free
  2074  00201C  C060  F072         	movff	?___aldiv,_USART_Init$2794
  2075  002020  C061  F073         	movff	?___aldiv+1,_USART_Init$2794+1
  2076  002024  C062  F074         	movff	?___aldiv+2,_USART_Init$2794+2
  2077  002028  C063  F075         	movff	?___aldiv+3,_USART_Init$2794+3
  2078                           
  2079                           ;UART.c: 11:     SPBRG = (unsigned char)(((8000000/BAUD)/64)-1);
  2080  00202C  C072  F060         	movff	_USART_Init$2794,___aldiv@dividend
  2081  002030  C073  F061         	movff	_USART_Init$2794+1,___aldiv@dividend+1
  2082  002034  C074  F062         	movff	_USART_Init$2794+2,___aldiv@dividend+2
  2083  002038  C075  F063         	movff	_USART_Init$2794+3,___aldiv@dividend+3
  2084  00203C  0E40               	movlw	64
  2085  00203E  0100               	movlb	0	; () banked
  2086  002040  6F64               	movwf	___aldiv@divisor& (0+255),b
  2087  002042  0E00               	movlw	0
  2088  002044  6F65               	movwf	(___aldiv@divisor+1)& (0+255),b
  2089  002046  0E00               	movlw	0
  2090  002048  6F66               	movwf	(___aldiv@divisor+2)& (0+255),b
  2091  00204A  0E00               	movlw	0
  2092  00204C  6F67               	movwf	(___aldiv@divisor+3)& (0+255),b
  2093  00204E  EC4D  F00B         	call	___aldiv	;wreg free
  2094  002052  0100               	movlb	0	; () banked
  2095  002054  0560               	decf	?___aldiv& (0+255),w,b
  2096  002056  6EAF               	movwf	175,c	;volatile
  2097  002058                     
  2098                           ; BSR set to: 0
  2099                           ;UART.c: 13:     TXSTAbits.BRGH = 0;
  2100  002058  94AC               	bcf	172,2,c	;volatile
  2101  00205A                     
  2102                           ; BSR set to: 0
  2103                           ;UART.c: 14:     TXSTAbits.SYNC = 0;
  2104  00205A  98AC               	bcf	172,4,c	;volatile
  2105  00205C                     
  2106                           ; BSR set to: 0
  2107                           ;UART.c: 15:     RCSTAbits.SPEN = 1;
  2108  00205C  8EAB               	bsf	171,7,c	;volatile
  2109  00205E                     
  2110                           ; BSR set to: 0
  2111                           ;UART.c: 17:     TXSTAbits.TX9 = 0;
  2112  00205E  9CAC               	bcf	172,6,c	;volatile
  2113  002060                     
  2114                           ; BSR set to: 0
  2115                           ;UART.c: 18:     TXSTAbits.TXEN = 1;
  2116  002060  8AAC               	bsf	172,5,c	;volatile
  2117  002062                     
  2118                           ; BSR set to: 0
  2119                           ;UART.c: 21:     RCSTAbits.RC9 = 0;
  2120  002062  9CAB               	bcf	171,6,c	;volatile
  2121  002064                     
  2122                           ; BSR set to: 0
  2123                           ;UART.c: 22:     RCSTAbits.CREN = 1;
  2124  002064  88AB               	bsf	171,4,c	;volatile
  2125  002066                     
  2126                           ; BSR set to: 0
  2127  002066  0012               	return		;funcret
  2128  002068                     __end_of_USART_Init:
  2129                           	opt callstack 0
  2130                           
  2131 ;; *************** function ___aldiv *****************
  2132 ;; Defined at:
  2133 ;;		line 7 in file "C:\Program Files (x86)\Microchip\xc8\v2.10\pic\sources\c99\common\aldiv.c"
  2134 ;; Parameters:    Size  Location     Type
  2135 ;;  dividend        4    0[BANK0 ] long 
  2136 ;;  divisor         4    4[BANK0 ] long 
  2137 ;; Auto vars:     Size  Location     Type
  2138 ;;  quotient        4   10[BANK0 ] long 
  2139 ;;  sign            1    9[BANK0 ] unsigned char 
  2140 ;;  counter         1    8[BANK0 ] unsigned char 
  2141 ;; Return value:  Size  Location     Type
  2142 ;;                  4    0[BANK0 ] long 
  2143 ;; Registers used:
  2144 ;;		wreg, status,2, status,0
  2145 ;; Tracked objects:
  2146 ;;		On entry : 0/0
  2147 ;;		On exit  : 0/0
  2148 ;;		Unchanged: 0/0
  2149 ;; Data sizes:     COMRAM   BANK0   BANK1   BANK2   BANK3   BANK4   BANK5   BANK6   BANK7
  2150 ;;      Params:         0       8       0       0       0       0       0       0       0
  2151 ;;      Locals:         0       6       0       0       0       0       0       0       0
  2152 ;;      Temps:          0       0       0       0       0       0       0       0       0
  2153 ;;      Totals:         0      14       0       0       0       0       0       0       0
  2154 ;;Total ram usage:       14 bytes
  2155 ;; Hardware stack levels used:    1
  2156 ;; Hardware stack levels required when called:    5
  2157 ;; This function calls:
  2158 ;;		Nothing
  2159 ;; This function is called by:
  2160 ;;		_USART_Init
  2161 ;;		_ADC_LecturaFiltro
  2162 ;; This function uses a non-reentrant model
  2163 ;;
  2164                           
  2165                           	psect	text4
  2166  00169A                     __ptext4:
  2167                           	opt callstack 0
  2168  00169A                     ___aldiv:
  2169                           	opt callstack 24
  2170  00169A  0E00               	movlw	0
  2171  00169C  0100               	movlb	0	; () banked
  2172  00169E  6F69               	movwf	___aldiv@sign& (0+255),b
  2173  0016A0                     
  2174                           ; BSR set to: 0
  2175  0016A0  BF67               	btfsc	(___aldiv@divisor+3)& (0+255),7,b
  2176  0016A2  EF57  F00B         	goto	u3470
  2177  0016A6  EF55  F00B         	goto	u3471
  2178  0016AA                     u3471:
  2179  0016AA  EF61  F00B         	goto	l4570
  2180  0016AE                     u3470:
  2181  0016AE                     
  2182                           ; BSR set to: 0
  2183  0016AE  1F67               	comf	(___aldiv@divisor+3)& (0+255),f,b
  2184  0016B0  1F66               	comf	(___aldiv@divisor+2)& (0+255),f,b
  2185  0016B2  1F65               	comf	(___aldiv@divisor+1)& (0+255),f,b
  2186  0016B4  6D64               	negf	___aldiv@divisor& (0+255),b
  2187  0016B6  0E00               	movlw	0
  2188  0016B8  2365               	addwfc	(___aldiv@divisor+1)& (0+255),f,b
  2189  0016BA  2366               	addwfc	(___aldiv@divisor+2)& (0+255),f,b
  2190  0016BC  2367               	addwfc	(___aldiv@divisor+3)& (0+255),f,b
  2191  0016BE                     
  2192                           ; BSR set to: 0
  2193  0016BE  0E01               	movlw	1
  2194  0016C0  6F69               	movwf	___aldiv@sign& (0+255),b
  2195  0016C2                     l4570:
  2196                           
  2197                           ; BSR set to: 0
  2198  0016C2  BF63               	btfsc	(___aldiv@dividend+3)& (0+255),7,b
  2199  0016C4  EF68  F00B         	goto	u3480
  2200  0016C8  EF66  F00B         	goto	u3481
  2201  0016CC                     u3481:
  2202  0016CC  EF72  F00B         	goto	l4576
  2203  0016D0                     u3480:
  2204  0016D0                     
  2205                           ; BSR set to: 0
  2206  0016D0  1F63               	comf	(___aldiv@dividend+3)& (0+255),f,b
  2207  0016D2  1F62               	comf	(___aldiv@dividend+2)& (0+255),f,b
  2208  0016D4  1F61               	comf	(___aldiv@dividend+1)& (0+255),f,b
  2209  0016D6  6D60               	negf	___aldiv@dividend& (0+255),b
  2210  0016D8  0E00               	movlw	0
  2211  0016DA  2361               	addwfc	(___aldiv@dividend+1)& (0+255),f,b
  2212  0016DC  2362               	addwfc	(___aldiv@dividend+2)& (0+255),f,b
  2213  0016DE  2363               	addwfc	(___aldiv@dividend+3)& (0+255),f,b
  2214  0016E0                     
  2215                           ; BSR set to: 0
  2216  0016E0  0E01               	movlw	1
  2217  0016E2  1B69               	xorwf	___aldiv@sign& (0+255),f,b
  2218  0016E4                     l4576:
  2219                           
  2220                           ; BSR set to: 0
  2221  0016E4  0E00               	movlw	0
  2222  0016E6  6F6A               	movwf	___aldiv@quotient& (0+255),b
  2223  0016E8  0E00               	movlw	0
  2224  0016EA  6F6B               	movwf	(___aldiv@quotient+1)& (0+255),b
  2225  0016EC  0E00               	movlw	0
  2226  0016EE  6F6C               	movwf	(___aldiv@quotient+2)& (0+255),b
  2227  0016F0  0E00               	movlw	0
  2228  0016F2  6F6D               	movwf	(___aldiv@quotient+3)& (0+255),b
  2229  0016F4                     
  2230                           ; BSR set to: 0
  2231  0016F4  5164               	movf	___aldiv@divisor& (0+255),w,b
  2232  0016F6  1165               	iorwf	(___aldiv@divisor+1)& (0+255),w,b
  2233  0016F8  1166               	iorwf	(___aldiv@divisor+2)& (0+255),w,b
  2234  0016FA  1167               	iorwf	(___aldiv@divisor+3)& (0+255),w,b
  2235  0016FC  B4D8               	btfsc	status,2,c
  2236  0016FE  EF83  F00B         	goto	u3491
  2237  001702  EF85  F00B         	goto	u3490
  2238  001706                     u3491:
  2239  001706  EFBB  F00B         	goto	l4598
  2240  00170A                     u3490:
  2241  00170A                     
  2242                           ; BSR set to: 0
  2243  00170A  0E01               	movlw	1
  2244  00170C  6F68               	movwf	___aldiv@counter& (0+255),b
  2245  00170E  EF8F  F00B         	goto	l4584
  2246  001712                     l4582:
  2247                           
  2248                           ; BSR set to: 0
  2249  001712  90D8               	bcf	status,0,c
  2250  001714  3764               	rlcf	___aldiv@divisor& (0+255),f,b
  2251  001716  3765               	rlcf	(___aldiv@divisor+1)& (0+255),f,b
  2252  001718  3766               	rlcf	(___aldiv@divisor+2)& (0+255),f,b
  2253  00171A  3767               	rlcf	(___aldiv@divisor+3)& (0+255),f,b
  2254  00171C  2B68               	incf	___aldiv@counter& (0+255),f,b
  2255  00171E                     l4584:
  2256                           
  2257                           ; BSR set to: 0
  2258  00171E  AF67               	btfss	(___aldiv@divisor+3)& (0+255),7,b
  2259  001720  EF94  F00B         	goto	u3501
  2260  001724  EF96  F00B         	goto	u3500
  2261  001728                     u3501:
  2262  001728  EF89  F00B         	goto	l4582
  2263  00172C                     u3500:
  2264  00172C                     l4586:
  2265                           
  2266                           ; BSR set to: 0
  2267  00172C  90D8               	bcf	status,0,c
  2268  00172E  376A               	rlcf	___aldiv@quotient& (0+255),f,b
  2269  001730  376B               	rlcf	(___aldiv@quotient+1)& (0+255),f,b
  2270  001732  376C               	rlcf	(___aldiv@quotient+2)& (0+255),f,b
  2271  001734  376D               	rlcf	(___aldiv@quotient+3)& (0+255),f,b
  2272  001736                     
  2273                           ; BSR set to: 0
  2274  001736  5164               	movf	___aldiv@divisor& (0+255),w,b
  2275  001738  5D60               	subwf	___aldiv@dividend& (0+255),w,b
  2276  00173A  5165               	movf	(___aldiv@divisor+1)& (0+255),w,b
  2277  00173C  5961               	subwfb	(___aldiv@dividend+1)& (0+255),w,b
  2278  00173E  5166               	movf	(___aldiv@divisor+2)& (0+255),w,b
  2279  001740  5962               	subwfb	(___aldiv@dividend+2)& (0+255),w,b
  2280  001742  5167               	movf	(___aldiv@divisor+3)& (0+255),w,b
  2281  001744  5963               	subwfb	(___aldiv@dividend+3)& (0+255),w,b
  2282  001746  A0D8               	btfss	status,0,c
  2283  001748  EFA8  F00B         	goto	u3511
  2284  00174C  EFAA  F00B         	goto	u3510
  2285  001750                     u3511:
  2286  001750  EFB3  F00B         	goto	l4594
  2287  001754                     u3510:
  2288  001754                     
  2289                           ; BSR set to: 0
  2290  001754  5164               	movf	___aldiv@divisor& (0+255),w,b
  2291  001756  5F60               	subwf	___aldiv@dividend& (0+255),f,b
  2292  001758  5165               	movf	(___aldiv@divisor+1)& (0+255),w,b
  2293  00175A  5B61               	subwfb	(___aldiv@dividend+1)& (0+255),f,b
  2294  00175C  5166               	movf	(___aldiv@divisor+2)& (0+255),w,b
  2295  00175E  5B62               	subwfb	(___aldiv@dividend+2)& (0+255),f,b
  2296  001760  5167               	movf	(___aldiv@divisor+3)& (0+255),w,b
  2297  001762  5B63               	subwfb	(___aldiv@dividend+3)& (0+255),f,b
  2298  001764                     
  2299                           ; BSR set to: 0
  2300  001764  816A               	bsf	___aldiv@quotient& (0+255),0,b
  2301  001766                     l4594:
  2302                           
  2303                           ; BSR set to: 0
  2304  001766  90D8               	bcf	status,0,c
  2305  001768  3367               	rrcf	(___aldiv@divisor+3)& (0+255),f,b
  2306  00176A  3366               	rrcf	(___aldiv@divisor+2)& (0+255),f,b
  2307  00176C  3365               	rrcf	(___aldiv@divisor+1)& (0+255),f,b
  2308  00176E  3364               	rrcf	___aldiv@divisor& (0+255),f,b
  2309  001770                     
  2310                           ; BSR set to: 0
  2311  001770  2F68               	decfsz	___aldiv@counter& (0+255),f,b
  2312  001772  EF96  F00B         	goto	l4586
  2313  001776                     l4598:
  2314                           
  2315                           ; BSR set to: 0
  2316  001776  5169               	movf	___aldiv@sign& (0+255),w,b
  2317  001778  B4D8               	btfsc	status,2,c
  2318  00177A  EFC1  F00B         	goto	u3521
  2319  00177E  EFC3  F00B         	goto	u3520
  2320  001782                     u3521:
  2321  001782  EFCB  F00B         	goto	l4602
  2322  001786                     u3520:
  2323  001786                     
  2324                           ; BSR set to: 0
  2325  001786  1F6D               	comf	(___aldiv@quotient+3)& (0+255),f,b
  2326  001788  1F6C               	comf	(___aldiv@quotient+2)& (0+255),f,b
  2327  00178A  1F6B               	comf	(___aldiv@quotient+1)& (0+255),f,b
  2328  00178C  6D6A               	negf	___aldiv@quotient& (0+255),b
  2329  00178E  0E00               	movlw	0
  2330  001790  236B               	addwfc	(___aldiv@quotient+1)& (0+255),f,b
  2331  001792  236C               	addwfc	(___aldiv@quotient+2)& (0+255),f,b
  2332  001794  236D               	addwfc	(___aldiv@quotient+3)& (0+255),f,b
  2333  001796                     l4602:
  2334                           
  2335                           ; BSR set to: 0
  2336  001796  C06A  F060         	movff	___aldiv@quotient,?___aldiv
  2337  00179A  C06B  F061         	movff	___aldiv@quotient+1,?___aldiv+1
  2338  00179E  C06C  F062         	movff	___aldiv@quotient+2,?___aldiv+2
  2339  0017A2  C06D  F063         	movff	___aldiv@quotient+3,?___aldiv+3
  2340  0017A6                     
  2341                           ; BSR set to: 0
  2342  0017A6  0012               	return		;funcret
  2343  0017A8                     __end_of___aldiv:
  2344                           	opt callstack 0
  2345                           
  2346 ;; *************** function _Serial_Oupcode *****************
  2347 ;; Defined at:
  2348 ;;		line 21 in file "serial.c"
  2349 ;; Parameters:    Size  Location     Type
  2350 ;;		None
  2351 ;; Auto vars:     Size  Location     Type
  2352 ;;  Oupcode         1   63[BANK0 ] unsigned char 
  2353 ;;  instruction_    1   62[BANK0 ] unsigned char 
  2354 ;; Return value:  Size  Location     Type
  2355 ;;                  1    wreg      void 
  2356 ;; Registers used:
  2357 ;;		wreg, fsr0l, fsr0h, fsr1l, fsr1h, fsr2l, fsr2h, status,2, status,0, tblptrl, tblptrh, tblptru, prodl, prodh, cstack
  2358 ;; Tracked objects:
  2359 ;;		On entry : 0/0
  2360 ;;		On exit  : 0/0
  2361 ;;		Unchanged: 0/0
  2362 ;; Data sizes:     COMRAM   BANK0   BANK1   BANK2   BANK3   BANK4   BANK5   BANK6   BANK7
  2363 ;;      Params:         0       0       0       0       0       0       0       0       0
  2364 ;;      Locals:         0       2       0       0       0       0       0       0       0
  2365 ;;      Temps:          0       2       0       0       0       0       0       0       0
  2366 ;;      Totals:         0       4       0       0       0       0       0       0       0
  2367 ;;Total ram usage:        4 bytes
  2368 ;; Hardware stack levels used:    1
  2369 ;; Hardware stack levels required when called:    8
  2370 ;; This function calls:
  2371 ;;		_Actuator_Hold
  2372 ;;		_Actuator_Retract
  2373 ;;		_Actuator_Touch
  2374 ;;		_Motor_Movimiento
  2375 ;;		_Seria_Decodificacion_Memoria
  2376 ;;		_Serial_DecodificacionX
  2377 ;;		_Serial_DecodificacionY
  2378 ;;		_Serial_Escritura_Memoria
  2379 ;;		_Serial_Lectura_MemoriaX
  2380 ;;		_Serial_Lectura_MemoriaY
  2381 ;;		_Serial_Lectura_MemoriaZ
  2382 ;;		_Serial_RangosCoordenadas
  2383 ;;		_USART_RxC
  2384 ;;		_USART_RxS
  2385 ;;		_USART_TxS
  2386 ;; This function is called by:
  2387 ;;		_main
  2388 ;; This function uses a non-reentrant model
  2389 ;;
  2390                           
  2391                           	psect	text5
  2392  000012                     __ptext5:
  2393                           	opt callstack 0
  2394  000012                     _Serial_Oupcode:
  2395                           	opt callstack 22
  2396  000012                     
  2397                           ;serial.c: 23:     TRISDbits.TRISD0 = 0;
  2398  000012  9095               	bcf	149,0,c	;volatile
  2399                           
  2400                           ;serial.c: 24:     TRISDbits.TRISD2 = 0;
  2401  000014  9495               	bcf	149,2,c	;volatile
  2402                           
  2403                           ;serial.c: 25:     TRISDbits.TRISD1 = 0;
  2404  000016  9295               	bcf	149,1,c	;volatile
  2405                           
  2406                           ;serial.c: 26:     TRISDbits.TRISD3 = 0;
  2407  000018  9695               	bcf	149,3,c	;volatile
  2408                           
  2409                           ;serial.c: 27:     PORTDbits.RD0 = 1;
  2410  00001A  8083               	bsf	131,0,c	;volatile
  2411                           
  2412                           ;serial.c: 28:     PORTDbits.RD0 = 1;
  2413  00001C  8083               	bsf	131,0,c	;volatile
  2414                           
  2415                           ;serial.c: 29:     TRISCbits.RC1 = 0;
  2416  00001E  9294               	bcf	148,1,c	;volatile
  2417                           
  2418                           ;serial.c: 30:     TRISCbits.RC2 = 0;
  2419  000020  9494               	bcf	148,2,c	;volatile
  2420                           
  2421                           ;serial.c: 31:     PORTCbits.RC1 = 0;
  2422  000022  9282               	bcf	130,1,c	;volatile
  2423  000024                     
  2424                           ;serial.c: 32:     char instruction_counter = 0;
  2425  000024  0E00               	movlw	0
  2426  000026  0100               	movlb	0	; () banked
  2427  000028  6F9E               	movwf	Serial_Oupcode@instruction_counter& (0+255),b
  2428  00002A                     
  2429                           ; BSR set to: 0
  2430                           ;serial.c: 33:     USART_TxS("WELCOME TO SPARC\n", sizeof ("WELCOME TO SPARC\n") - 1);
  2431  00002A  0EA4               	movlw	low STR_1
  2432  00002C  6F60               	movwf	USART_TxS@str& (0+255),b
  2433  00002E  0E7F               	movlw	high STR_1
  2434  000030  6F61               	movwf	(USART_TxS@str+1)& (0+255),b
  2435  000032  0E00               	movlw	0
  2436  000034  6F63               	movwf	(USART_TxS@length+1)& (0+255),b
  2437  000036  0E11               	movlw	17
  2438  000038  6F62               	movwf	USART_TxS@length& (0+255),b
  2439  00003A  EC6E  F010         	call	_USART_TxS	;wreg free
  2440  00003E                     
  2441                           ;serial.c: 34:     USART_TxS("PLEASE INSERT THE INSTRUCTION OF SETPOINT\n", sizeof ("PLE
      +                          ASE INSERT THE INSTRUCTION OF SETPOINT\n") - 1);
  2442  00003E  0ED1               	movlw	low STR_2
  2443  000040  0100               	movlb	0	; () banked
  2444  000042  6F60               	movwf	USART_TxS@str& (0+255),b
  2445  000044  0E7C               	movlw	high STR_2
  2446  000046  6F61               	movwf	(USART_TxS@str+1)& (0+255),b
  2447  000048  0E00               	movlw	0
  2448  00004A  6F63               	movwf	(USART_TxS@length+1)& (0+255),b
  2449  00004C  0E2A               	movlw	42
  2450  00004E  6F62               	movwf	USART_TxS@length& (0+255),b
  2451  000050  EC6E  F010         	call	_USART_TxS	;wreg free
  2452  000054                     l383:
  2453                           
  2454                           ;serial.c: 36:         if (instruction_counter == 0) {
  2455  000054  0100               	movlb	0	; () banked
  2456  000056  519E               	movf	Serial_Oupcode@instruction_counter& (0+255),w,b
  2457  000058  A4D8               	btfss	status,2,c
  2458  00005A  EF31  F000         	goto	u3551
  2459  00005E  EF33  F000         	goto	u3550
  2460  000062                     u3551:
  2461  000062  EF40  F000         	goto	l4650
  2462  000066                     u3550:
  2463  000066                     
  2464                           ; BSR set to: 0
  2465                           ;serial.c: 37:             USART_TxS("WAITING FOR INSTRUCTION\n", sizeof ("WAITING FOR I
      +                          NSTRUCTION\n") - 1);
  2466  000066  0E20               	movlw	low STR_3
  2467  000068  6F60               	movwf	USART_TxS@str& (0+255),b
  2468  00006A  0E7F               	movlw	high STR_3
  2469  00006C  6F61               	movwf	(USART_TxS@str+1)& (0+255),b
  2470  00006E  0E00               	movlw	0
  2471  000070  6F63               	movwf	(USART_TxS@length+1)& (0+255),b
  2472  000072  0E18               	movlw	24
  2473  000074  6F62               	movwf	USART_TxS@length& (0+255),b
  2474  000076  EC6E  F010         	call	_USART_TxS	;wreg free
  2475  00007A                     
  2476                           ;serial.c: 38:             instruction_counter = 1;
  2477  00007A  0E01               	movlw	1
  2478  00007C  0100               	movlb	0	; () banked
  2479  00007E  6F9E               	movwf	Serial_Oupcode@instruction_counter& (0+255),b
  2480  000080                     l4650:
  2481                           
  2482                           ; BSR set to: 0
  2483                           ;serial.c: 40:         char Oupcode = USART_RxC();
  2484  000080  ECB2  F013         	call	_USART_RxC	;wreg free
  2485  000084  0100               	movlb	0	; () banked
  2486  000086  6F9F               	movwf	Serial_Oupcode@Oupcode& (0+255),b
  2487                           
  2488                           ;serial.c: 41:         switch (Oupcode) {
  2489  000088  EFE5  F001         	goto	l4748
  2490  00008C                     l4652:
  2491                           
  2492                           ; BSR set to: 0
  2493                           ;serial.c: 43:                 USART_RxS(7, coordenada_array);
  2494  00008C  0EC2               	movlw	low _coordenada_array
  2495  00008E  6F60               	movwf	USART_RxS@pointer& (0+255),b
  2496  000090  0E00               	movlw	high _coordenada_array
  2497  000092  6F61               	movwf	(USART_RxS@pointer+1)& (0+255),b
  2498  000094  0E07               	movlw	7
  2499  000096  EC19  F011         	call	_USART_RxS
  2500  00009A                     
  2501                           ;serial.c: 44:                 USART_TxS("WAIT UNTIL COMPLETE...", sizeof ("WAIT UNTIL C
      +                          OMPLETE...") - 1);
  2502  00009A  0E51               	movlw	low STR_4
  2503  00009C  0100               	movlb	0	; () banked
  2504  00009E  6F60               	movwf	USART_TxS@str& (0+255),b
  2505  0000A0  0E7F               	movlw	high STR_4
  2506  0000A2  6F61               	movwf	(USART_TxS@str+1)& (0+255),b
  2507  0000A4  0E00               	movlw	0
  2508  0000A6  6F63               	movwf	(USART_TxS@length+1)& (0+255),b
  2509  0000A8  0E16               	movlw	22
  2510  0000AA  6F62               	movwf	USART_TxS@length& (0+255),b
  2511  0000AC  EC6E  F010         	call	_USART_TxS	;wreg free
  2512  0000B0                     
  2513                           ;serial.c: 45:                 Serial_DecodificacionX(coordenada_array, &CoordenadaX);
  2514  0000B0  0EC2               	movlw	low _coordenada_array
  2515  0000B2  0100               	movlb	0	; () banked
  2516  0000B4  6F76               	movwf	Serial_DecodificacionX@string_coordenada& (0+255),b
  2517  0000B6  0E00               	movlw	high _coordenada_array
  2518  0000B8  6F77               	movwf	(Serial_DecodificacionX@string_coordenada+1)& (0+255),b
  2519  0000BA  0ECD               	movlw	low _CoordenadaX
  2520  0000BC  6F78               	movwf	Serial_DecodificacionX@pointerCX& (0+255),b
  2521  0000BE  0E00               	movlw	high _CoordenadaX
  2522  0000C0  6F79               	movwf	(Serial_DecodificacionX@pointerCX+1)& (0+255),b
  2523  0000C2  ECCE  F00E         	call	_Serial_DecodificacionX	;wreg free
  2524  0000C6                     
  2525                           ;serial.c: 46:                 Serial_DecodificacionY(coordenada_array, &CoordenadaY);
  2526  0000C6  0EC2               	movlw	low _coordenada_array
  2527  0000C8  0100               	movlb	0	; () banked
  2528  0000CA  6F76               	movwf	Serial_DecodificacionY@string_coordenada& (0+255),b
  2529  0000CC  0E00               	movlw	high _coordenada_array
  2530  0000CE  6F77               	movwf	(Serial_DecodificacionY@string_coordenada+1)& (0+255),b
  2531  0000D0  0ECB               	movlw	low _CoordenadaY
  2532  0000D2  6F78               	movwf	Serial_DecodificacionY@pointerCY& (0+255),b
  2533  0000D4  0E00               	movlw	high _CoordenadaY
  2534  0000D6  6F79               	movwf	(Serial_DecodificacionY@pointerCY+1)& (0+255),b
  2535  0000D8  EC63  F00E         	call	_Serial_DecodificacionY	;wreg free
  2536  0000DC                     
  2537                           ;serial.c: 47:                 Serial_RangosCoordenadas(CoordenadaX);
  2538  0000DC  C0CD  F060         	movff	_CoordenadaX,Serial_RangosCoordenadas@C
  2539  0000E0  C0CE  F061         	movff	_CoordenadaX+1,Serial_RangosCoordenadas@C+1
  2540  0000E4  EC77  F012         	call	_Serial_RangosCoordenadas	;wreg free
  2541  0000E8                     
  2542                           ;serial.c: 48:                 Serial_RangosCoordenadas(CoordenadaY);
  2543  0000E8  C0CB  F060         	movff	_CoordenadaY,Serial_RangosCoordenadas@C
  2544  0000EC  C0CC  F061         	movff	_CoordenadaY+1,Serial_RangosCoordenadas@C+1
  2545  0000F0  EC77  F012         	call	_Serial_RangosCoordenadas	;wreg free
  2546  0000F4                     
  2547                           ;serial.c: 49:                 if (Coordenadas_fuera == 1 ) {
  2548  0000F4  0100               	movlb	0	; () banked
  2549  0000F6  05B3               	decf	_Coordenadas_fuera& (0+255),w,b
  2550  0000F8  A4D8               	btfss	status,2,c
  2551  0000FA  EF81  F000         	goto	u3561
  2552  0000FE  EF83  F000         	goto	u3560
  2553  000102                     u3561:
  2554  000102  EF92  F000         	goto	l4670
  2555  000106                     u3560:
  2556  000106                     
  2557                           ; BSR set to: 0
  2558                           ;serial.c: 50:                      USART_TxS("ERROR CORDINATES OUTSIDE THE RANGE\n", si
      +                          zeof ("ERROR CORDINATES OUTSIDE THE RANGE\n") - 1);
  2559  000106  0E26               	movlw	low STR_5
  2560  000108  6F60               	movwf	USART_TxS@str& (0+255),b
  2561  00010A  0E7D               	movlw	high STR_5
  2562  00010C  6F61               	movwf	(USART_TxS@str+1)& (0+255),b
  2563  00010E  0E00               	movlw	0
  2564  000110  6F63               	movwf	(USART_TxS@length+1)& (0+255),b
  2565  000112  0E23               	movlw	35
  2566  000114  6F62               	movwf	USART_TxS@length& (0+255),b
  2567  000116  EC6E  F010         	call	_USART_TxS	;wreg free
  2568  00011A                     l4668:
  2569                           
  2570                           ;serial.c: 51:                     Coordenadas_fuera = 0;
  2571  00011A  0E00               	movlw	0
  2572  00011C  0100               	movlb	0	; () banked
  2573  00011E  6FB3               	movwf	_Coordenadas_fuera& (0+255),b
  2574                           
  2575                           ;serial.c: 52:                 }else if (Coordenadas_mal==1){
  2576  000120  EF2A  F000         	goto	l383
  2577  000124                     l4670:
  2578                           
  2579                           ; BSR set to: 0
  2580  000124  05B2               	decf	_Coordenadas_mal& (0+255),w,b
  2581  000126  A4D8               	btfss	status,2,c
  2582  000128  EF98  F000         	goto	u3571
  2583  00012C  EF9A  F000         	goto	u3570
  2584  000130                     u3571:
  2585  000130  EFA9  F000         	goto	l4676
  2586  000134                     u3570:
  2587  000134                     
  2588                           ; BSR set to: 0
  2589                           ;serial.c: 53:                     USART_TxS("ERROR CARACTERS INGRESED WRONG\n", sizeof 
      +                          ("ERROR CARACTERS INGRESED WRONG\n") - 1);
  2590  000134  0E4A               	movlw	low STR_6
  2591  000136  6F60               	movwf	USART_TxS@str& (0+255),b
  2592  000138  0E7D               	movlw	high STR_6
  2593  00013A  6F61               	movwf	(USART_TxS@str+1)& (0+255),b
  2594  00013C  0E00               	movlw	0
  2595  00013E  6F63               	movwf	(USART_TxS@length+1)& (0+255),b
  2596  000140  0E1F               	movlw	31
  2597  000142  6F62               	movwf	USART_TxS@length& (0+255),b
  2598  000144  EC6E  F010         	call	_USART_TxS	;wreg free
  2599  000148                     l4674:
  2600                           
  2601                           ;serial.c: 54:                     Coordenadas_mal=0;
  2602  000148  0E00               	movlw	0
  2603  00014A  0100               	movlb	0	; () banked
  2604  00014C  6FB2               	movwf	_Coordenadas_mal& (0+255),b
  2605                           
  2606                           ;serial.c: 55:                 } else {
  2607  00014E  EF2A  F000         	goto	l383
  2608  000152                     l4676:
  2609                           
  2610                           ; BSR set to: 0
  2611                           ;serial.c: 56:                     Motor_Movimiento(Oupcode, CoordenadaX, CoordenadaY);
  2612  000152  C0CD  F097         	movff	_CoordenadaX,Motor_Movimiento@Motor_CoordenadaX
  2613  000156  C0CE  F098         	movff	_CoordenadaX+1,Motor_Movimiento@Motor_CoordenadaX+1
  2614  00015A  C0CB  F099         	movff	_CoordenadaY,Motor_Movimiento@Motor_CoordenadaY
  2615  00015E  C0CC  F09A         	movff	_CoordenadaY+1,Motor_Movimiento@Motor_CoordenadaY+1
  2616  000162  519F               	movf	Serial_Oupcode@Oupcode& (0+255),w,b
  2617  000164  EC33  F00F         	call	_Motor_Movimiento
  2618  000168  EF2A  F000         	goto	l383
  2619  00016C                     l4678:
  2620                           
  2621                           ; BSR set to: 0
  2622                           ;serial.c: 60:                 USART_RxS(7, coordenada_array);
  2623  00016C  0EC2               	movlw	low _coordenada_array
  2624  00016E  6F60               	movwf	USART_RxS@pointer& (0+255),b
  2625  000170  0E00               	movlw	high _coordenada_array
  2626  000172  6F61               	movwf	(USART_RxS@pointer+1)& (0+255),b
  2627  000174  0E07               	movlw	7
  2628  000176  EC19  F011         	call	_USART_RxS
  2629  00017A                     
  2630                           ;serial.c: 61:                 USART_TxS("WAIT UNTIL COMPLETE...", sizeof ("WAIT UNTIL C
      +                          OMPLETE...") - 1);
  2631  00017A  0E51               	movlw	low STR_4
  2632  00017C  0100               	movlb	0	; () banked
  2633  00017E  6F60               	movwf	USART_TxS@str& (0+255),b
  2634  000180  0E7F               	movlw	high STR_4
  2635  000182  6F61               	movwf	(USART_TxS@str+1)& (0+255),b
  2636  000184  0E00               	movlw	0
  2637  000186  6F63               	movwf	(USART_TxS@length+1)& (0+255),b
  2638  000188  0E16               	movlw	22
  2639  00018A  6F62               	movwf	USART_TxS@length& (0+255),b
  2640  00018C  EC6E  F010         	call	_USART_TxS	;wreg free
  2641  000190                     
  2642                           ;serial.c: 62:                 Serial_DecodificacionX(coordenada_array, &CoordenadaX);
  2643  000190  0EC2               	movlw	low _coordenada_array
  2644  000192  0100               	movlb	0	; () banked
  2645  000194  6F76               	movwf	Serial_DecodificacionX@string_coordenada& (0+255),b
  2646  000196  0E00               	movlw	high _coordenada_array
  2647  000198  6F77               	movwf	(Serial_DecodificacionX@string_coordenada+1)& (0+255),b
  2648  00019A  0ECD               	movlw	low _CoordenadaX
  2649  00019C  6F78               	movwf	Serial_DecodificacionX@pointerCX& (0+255),b
  2650  00019E  0E00               	movlw	high _CoordenadaX
  2651  0001A0  6F79               	movwf	(Serial_DecodificacionX@pointerCX+1)& (0+255),b
  2652  0001A2  ECCE  F00E         	call	_Serial_DecodificacionX	;wreg free
  2653  0001A6                     
  2654                           ;serial.c: 63:                 Serial_DecodificacionY(coordenada_array, &CoordenadaY);
  2655  0001A6  0EC2               	movlw	low _coordenada_array
  2656  0001A8  0100               	movlb	0	; () banked
  2657  0001AA  6F76               	movwf	Serial_DecodificacionY@string_coordenada& (0+255),b
  2658  0001AC  0E00               	movlw	high _coordenada_array
  2659  0001AE  6F77               	movwf	(Serial_DecodificacionY@string_coordenada+1)& (0+255),b
  2660  0001B0  0ECB               	movlw	low _CoordenadaY
  2661  0001B2  6F78               	movwf	Serial_DecodificacionY@pointerCY& (0+255),b
  2662  0001B4  0E00               	movlw	high _CoordenadaY
  2663  0001B6  6F79               	movwf	(Serial_DecodificacionY@pointerCY+1)& (0+255),b
  2664  0001B8  EC63  F00E         	call	_Serial_DecodificacionY	;wreg free
  2665  0001BC                     
  2666                           ;serial.c: 64:                 Serial_RangosCoordenadas(CoordenadaX);
  2667  0001BC  C0CD  F060         	movff	_CoordenadaX,Serial_RangosCoordenadas@C
  2668  0001C0  C0CE  F061         	movff	_CoordenadaX+1,Serial_RangosCoordenadas@C+1
  2669  0001C4  EC77  F012         	call	_Serial_RangosCoordenadas	;wreg free
  2670  0001C8                     
  2671                           ;serial.c: 65:                 Serial_RangosCoordenadas(CoordenadaY);
  2672  0001C8  C0CB  F060         	movff	_CoordenadaY,Serial_RangosCoordenadas@C
  2673  0001CC  C0CC  F061         	movff	_CoordenadaY+1,Serial_RangosCoordenadas@C+1
  2674  0001D0  EC77  F012         	call	_Serial_RangosCoordenadas	;wreg free
  2675  0001D4                     
  2676                           ;serial.c: 66:                if (Coordenadas_fuera == 1 ) {
  2677  0001D4  0100               	movlb	0	; () banked
  2678  0001D6  05B3               	decf	_Coordenadas_fuera& (0+255),w,b
  2679  0001D8  A4D8               	btfss	status,2,c
  2680  0001DA  EFF1  F000         	goto	u3581
  2681  0001DE  EFF3  F000         	goto	u3580
  2682  0001E2                     u3581:
  2683  0001E2  EFFF  F000         	goto	l4696
  2684  0001E6                     u3580:
  2685  0001E6                     
  2686                           ; BSR set to: 0
  2687                           ;serial.c: 67:                      USART_TxS("ERROR CORDINATES OUTSIDE THE RANGE\n", si
      +                          zeof ("ERROR CORDINATES OUTSIDE THE RANGE\n") - 1);
  2688  0001E6  0E26               	movlw	low STR_5
  2689  0001E8  6F60               	movwf	USART_TxS@str& (0+255),b
  2690  0001EA  0E7D               	movlw	high STR_5
  2691  0001EC  6F61               	movwf	(USART_TxS@str+1)& (0+255),b
  2692  0001EE  0E00               	movlw	0
  2693  0001F0  6F63               	movwf	(USART_TxS@length+1)& (0+255),b
  2694  0001F2  0E23               	movlw	35
  2695  0001F4  6F62               	movwf	USART_TxS@length& (0+255),b
  2696  0001F6  EC6E  F010         	call	_USART_TxS	;wreg free
  2697  0001FA  EF8D  F000         	goto	l4668
  2698  0001FE                     l4696:
  2699                           
  2700                           ; BSR set to: 0
  2701  0001FE  05B2               	decf	_Coordenadas_mal& (0+255),w,b
  2702  000200  A4D8               	btfss	status,2,c
  2703  000202  EF05  F001         	goto	u3591
  2704  000206  EF07  F001         	goto	u3590
  2705  00020A                     u3591:
  2706  00020A  EF13  F001         	goto	l4702
  2707  00020E                     u3590:
  2708  00020E                     
  2709                           ; BSR set to: 0
  2710                           ;serial.c: 70:                     USART_TxS("ERROR CARACTERS INGRESED WRONG\n", sizeof 
      +                          ("ERROR CARACTERS INGRESED WRONG\n") - 1);
  2711  00020E  0E4A               	movlw	low STR_6
  2712  000210  6F60               	movwf	USART_TxS@str& (0+255),b
  2713  000212  0E7D               	movlw	high STR_6
  2714  000214  6F61               	movwf	(USART_TxS@str+1)& (0+255),b
  2715  000216  0E00               	movlw	0
  2716  000218  6F63               	movwf	(USART_TxS@length+1)& (0+255),b
  2717  00021A  0E1F               	movlw	31
  2718  00021C  6F62               	movwf	USART_TxS@length& (0+255),b
  2719  00021E  EC6E  F010         	call	_USART_TxS	;wreg free
  2720  000222  EFA4  F000         	goto	l4674
  2721  000226                     l4702:
  2722                           
  2723                           ; BSR set to: 0
  2724                           ;serial.c: 73:                     Motor_Movimiento(Oupcode, CoordenadaX, CoordenadaY);
  2725  000226  C0CD  F097         	movff	_CoordenadaX,Motor_Movimiento@Motor_CoordenadaX
  2726  00022A  C0CE  F098         	movff	_CoordenadaX+1,Motor_Movimiento@Motor_CoordenadaX+1
  2727  00022E  C0CB  F099         	movff	_CoordenadaY,Motor_Movimiento@Motor_CoordenadaY
  2728  000232  C0CC  F09A         	movff	_CoordenadaY+1,Motor_Movimiento@Motor_CoordenadaY+1
  2729  000236  519F               	movf	Serial_Oupcode@Oupcode& (0+255),w,b
  2730  000238  EC33  F00F         	call	_Motor_Movimiento
  2731  00023C  EF2A  F000         	goto	l383
  2732  000240                     l4704:
  2733                           
  2734                           ; BSR set to: 0
  2735                           ;serial.c: 77:                 USART_TxS("WAIT UNTIL COMPLETE...", sizeof ("WAIT UNTIL C
      +                          OMPLETE...") - 1);
  2736  000240  0E51               	movlw	low STR_4
  2737  000242  6F60               	movwf	USART_TxS@str& (0+255),b
  2738  000244  0E7F               	movlw	high STR_4
  2739  000246  6F61               	movwf	(USART_TxS@str+1)& (0+255),b
  2740  000248  0E00               	movlw	0
  2741  00024A  6F63               	movwf	(USART_TxS@length+1)& (0+255),b
  2742  00024C  0E16               	movlw	22
  2743  00024E  6F62               	movwf	USART_TxS@length& (0+255),b
  2744  000250  EC6E  F010         	call	_USART_TxS	;wreg free
  2745                           
  2746                           ;serial.c: 78:                 Actuator_Touch();
  2747  000254  EC42  F012         	call	_Actuator_Touch	;wreg free
  2748                           
  2749                           ;serial.c: 79:                 break;
  2750  000258  EF2A  F000         	goto	l383
  2751  00025C                     l4706:
  2752                           
  2753                           ; BSR set to: 0
  2754                           ;serial.c: 81:                 USART_TxS("WAIT UNTIL COMPLETE...", sizeof ("WAIT UNTIL C
      +                          OMPLETE...") - 1);
  2755  00025C  0E51               	movlw	low STR_4
  2756  00025E  6F60               	movwf	USART_TxS@str& (0+255),b
  2757  000260  0E7F               	movlw	high STR_4
  2758  000262  6F61               	movwf	(USART_TxS@str+1)& (0+255),b
  2759  000264  0E00               	movlw	0
  2760  000266  6F63               	movwf	(USART_TxS@length+1)& (0+255),b
  2761  000268  0E16               	movlw	22
  2762  00026A  6F62               	movwf	USART_TxS@length& (0+255),b
  2763  00026C  EC6E  F010         	call	_USART_TxS	;wreg free
  2764                           
  2765                           ;serial.c: 82:                 Actuator_Hold();
  2766  000270  EC8E  F013         	call	_Actuator_Hold	;wreg free
  2767                           
  2768                           ;serial.c: 83:                 break;
  2769  000274  EF2A  F000         	goto	l383
  2770  000278                     l4708:
  2771                           
  2772                           ; BSR set to: 0
  2773                           ;serial.c: 85:                 USART_TxS("WAIT UNTIL COMPLETE...", sizeof ("WAIT UNTIL C
      +                          OMPLETE...") - 1);
  2774  000278  0E51               	movlw	low STR_4
  2775  00027A  6F60               	movwf	USART_TxS@str& (0+255),b
  2776  00027C  0E7F               	movlw	high STR_4
  2777  00027E  6F61               	movwf	(USART_TxS@str+1)& (0+255),b
  2778  000280  0E00               	movlw	0
  2779  000282  6F63               	movwf	(USART_TxS@length+1)& (0+255),b
  2780  000284  0E16               	movlw	22
  2781  000286  6F62               	movwf	USART_TxS@length& (0+255),b
  2782  000288  EC6E  F010         	call	_USART_TxS	;wreg free
  2783                           
  2784                           ;serial.c: 86:                 Actuator_Retract();
  2785  00028C  EC81  F013         	call	_Actuator_Retract	;wreg free
  2786                           
  2787                           ;serial.c: 87:                 break;
  2788  000290  EF2A  F000         	goto	l383
  2789  000294                     l4710:
  2790                           
  2791                           ; BSR set to: 0
  2792                           ;serial.c: 89:                 USART_TxS("WAIT UNTIL COMPLETE...\n", sizeof ("WAIT UNTIL
      +                           COMPLETE...\n") - 1);
  2793  000294  0E39               	movlw	low STR_13
  2794  000296  6F60               	movwf	USART_TxS@str& (0+255),b
  2795  000298  0E7F               	movlw	high STR_13
  2796  00029A  6F61               	movwf	(USART_TxS@str+1)& (0+255),b
  2797  00029C  0E00               	movlw	0
  2798  00029E  6F63               	movwf	(USART_TxS@length+1)& (0+255),b
  2799  0002A0  0E17               	movlw	23
  2800  0002A2  6F62               	movwf	USART_TxS@length& (0+255),b
  2801  0002A4  EC6E  F010         	call	_USART_TxS	;wreg free
  2802  0002A8                     
  2803                           ;serial.c: 90:                 Direccion_Memoria = USART_RxC();
  2804  0002A8  ECB2  F013         	call	_USART_RxC	;wreg free
  2805  0002AC  0100               	movlb	0	; () banked
  2806  0002AE  6FB4               	movwf	_Direccion_Memoria& (0+255),b
  2807  0002B0                     
  2808                           ; BSR set to: 0
  2809                           ;serial.c: 91:                 Direccion_Memoria = Seria_Decodificacion_Memoria(Direccio
      +                          n_Memoria);
  2810  0002B0  51B4               	movf	_Direccion_Memoria& (0+255),w,b
  2811  0002B2  ECAA  F005         	call	_Seria_Decodificacion_Memoria
  2812  0002B6  0100               	movlb	0	; () banked
  2813  0002B8  6FB4               	movwf	_Direccion_Memoria& (0+255),b
  2814  0002BA                     
  2815                           ; BSR set to: 0
  2816                           ;serial.c: 92:                 Serial_Lectura_MemoriaX(Direccion_Memoria,&CoordenadaX);
  2817  0002BA  0ECD               	movlw	low _CoordenadaX
  2818  0002BC  6F76               	movwf	Serial_Lectura_MemoriaX@pointerCX& (0+255),b
  2819  0002BE  0E00               	movlw	high _CoordenadaX
  2820  0002C0  6F77               	movwf	(Serial_Lectura_MemoriaX@pointerCX+1)& (0+255),b
  2821  0002C2  51B4               	movf	_Direccion_Memoria& (0+255),w,b
  2822  0002C4  ECE1  F00D         	call	_Serial_Lectura_MemoriaX
  2823  0002C8                     
  2824                           ;serial.c: 93:                 Serial_Lectura_MemoriaY(Direccion_Memoria,&CoordenadaY);
  2825  0002C8  0ECB               	movlw	low _CoordenadaY
  2826  0002CA  0100               	movlb	0	; () banked
  2827  0002CC  6F76               	movwf	Serial_Lectura_MemoriaY@pointerCY& (0+255),b
  2828  0002CE  0E00               	movlw	high _CoordenadaY
  2829  0002D0  6F77               	movwf	(Serial_Lectura_MemoriaY@pointerCY+1)& (0+255),b
  2830  0002D2  51B4               	movf	_Direccion_Memoria& (0+255),w,b
  2831  0002D4  ECDB  F00C         	call	_Serial_Lectura_MemoriaY
  2832  0002D8                     
  2833                           ;serial.c: 94:                 Serial_Lectura_MemoriaZ(Direccion_Memoria,&CoordenadaZ);
  2834  0002D8  0EC9               	movlw	low _CoordenadaZ
  2835  0002DA  0100               	movlb	0	; () banked
  2836  0002DC  6F76               	movwf	Serial_Lectura_MemoriaZ@pointerCZ& (0+255),b
  2837  0002DE  0E00               	movlw	high _CoordenadaZ
  2838  0002E0  6F77               	movwf	(Serial_Lectura_MemoriaZ@pointerCZ+1)& (0+255),b
  2839  0002E2  51B4               	movf	_Direccion_Memoria& (0+255),w,b
  2840  0002E4  EC58  F00C         	call	_Serial_Lectura_MemoriaZ
  2841  0002E8                     
  2842                           ;serial.c: 95:                 if (Coordenadas_fuera == 1 ) {
  2843  0002E8  0100               	movlb	0	; () banked
  2844  0002EA  05B3               	decf	_Coordenadas_fuera& (0+255),w,b
  2845  0002EC  A4D8               	btfss	status,2,c
  2846  0002EE  EF7B  F001         	goto	u3601
  2847  0002F2  EF7D  F001         	goto	u3600
  2848  0002F6                     u3601:
  2849  0002F6  EF94  F001         	goto	l4728
  2850  0002FA                     u3600:
  2851  0002FA                     
  2852                           ; BSR set to: 0
  2853                           ;serial.c: 96:                      USART_TxS("ERROR CORDINATES OUTSIDE THE RANGE\n", si
      +                          zeof ("ERROR CORDINATES OUTSIDE THE RANGE\n") - 1);
  2854  0002FA  0E26               	movlw	low STR_5
  2855  0002FC  6F60               	movwf	USART_TxS@str& (0+255),b
  2856  0002FE  0E7D               	movlw	high STR_5
  2857  000300  6F61               	movwf	(USART_TxS@str+1)& (0+255),b
  2858  000302  0E00               	movlw	0
  2859  000304  6F63               	movwf	(USART_TxS@length+1)& (0+255),b
  2860  000306  0E23               	movlw	35
  2861  000308  6F62               	movwf	USART_TxS@length& (0+255),b
  2862  00030A  EC6E  F010         	call	_USART_TxS	;wreg free
  2863                           
  2864                           ;serial.c: 97:                     USART_TxS("PLEASE MODIFY THE SETPOINT AND TRY AGAIN\n
      +                          ", sizeof ("PLEASE MODIFY THE SETPOINT AND TRY AGAIN\n") - 1);
  2865  00030E  0EFC               	movlw	low STR_15
  2866  000310  0100               	movlb	0	; () banked
  2867  000312  6F60               	movwf	USART_TxS@str& (0+255),b
  2868  000314  0E7C               	movlw	high STR_15
  2869  000316  6F61               	movwf	(USART_TxS@str+1)& (0+255),b
  2870  000318  0E00               	movlw	0
  2871  00031A  6F63               	movwf	(USART_TxS@length+1)& (0+255),b
  2872  00031C  0E29               	movlw	41
  2873  00031E  6F62               	movwf	USART_TxS@length& (0+255),b
  2874  000320  EC6E  F010         	call	_USART_TxS	;wreg free
  2875  000324  EF8D  F000         	goto	l4668
  2876  000328                     l4728:
  2877                           
  2878                           ; BSR set to: 0
  2879  000328  05B2               	decf	_Coordenadas_mal& (0+255),w,b
  2880  00032A  A4D8               	btfss	status,2,c
  2881  00032C  EF9A  F001         	goto	u3611
  2882  000330  EF9C  F001         	goto	u3610
  2883  000334                     u3611:
  2884  000334  EFB3  F001         	goto	l4734
  2885  000338                     u3610:
  2886  000338                     
  2887                           ; BSR set to: 0
  2888                           ;serial.c: 100:                     USART_TxS("ERROR CARACTERS INGRESED WRONG\n", sizeof
      +                           ("ERROR CARACTERS INGRESED WRONG\n") - 1);
  2889  000338  0E4A               	movlw	low STR_6
  2890  00033A  6F60               	movwf	USART_TxS@str& (0+255),b
  2891  00033C  0E7D               	movlw	high STR_6
  2892  00033E  6F61               	movwf	(USART_TxS@str+1)& (0+255),b
  2893  000340  0E00               	movlw	0
  2894  000342  6F63               	movwf	(USART_TxS@length+1)& (0+255),b
  2895  000344  0E1F               	movlw	31
  2896  000346  6F62               	movwf	USART_TxS@length& (0+255),b
  2897  000348  EC6E  F010         	call	_USART_TxS	;wreg free
  2898                           
  2899                           ;serial.c: 101:                      USART_TxS("PLEASE MODIFY THE SETPOINT AND TRY AGAIN
      +                          \n", sizeof ("PLEASE MODIFY THE SETPOINT AND TRY AGAIN\n") - 1);
  2900  00034C  0EFC               	movlw	low STR_15
  2901  00034E  0100               	movlb	0	; () banked
  2902  000350  6F60               	movwf	USART_TxS@str& (0+255),b
  2903  000352  0E7C               	movlw	high STR_15
  2904  000354  6F61               	movwf	(USART_TxS@str+1)& (0+255),b
  2905  000356  0E00               	movlw	0
  2906  000358  6F63               	movwf	(USART_TxS@length+1)& (0+255),b
  2907  00035A  0E29               	movlw	41
  2908  00035C  6F62               	movwf	USART_TxS@length& (0+255),b
  2909  00035E  EC6E  F010         	call	_USART_TxS	;wreg free
  2910  000362  EFA4  F000         	goto	l4674
  2911  000366                     l4734:
  2912                           
  2913                           ; BSR set to: 0
  2914                           ;serial.c: 105:                     Motor_Movimiento(Oupcode, CoordenadaX, CoordenadaY);
  2915  000366  C0CD  F097         	movff	_CoordenadaX,Motor_Movimiento@Motor_CoordenadaX
  2916  00036A  C0CE  F098         	movff	_CoordenadaX+1,Motor_Movimiento@Motor_CoordenadaX+1
  2917  00036E  C0CB  F099         	movff	_CoordenadaY,Motor_Movimiento@Motor_CoordenadaY
  2918  000372  C0CC  F09A         	movff	_CoordenadaY+1,Motor_Movimiento@Motor_CoordenadaY+1
  2919  000376  519F               	movf	Serial_Oupcode@Oupcode& (0+255),w,b
  2920  000378  EC33  F00F         	call	_Motor_Movimiento
  2921  00037C  EF2A  F000         	goto	l383
  2922  000380                     l4736:
  2923                           
  2924                           ; BSR set to: 0
  2925                           ;serial.c: 109:                 Direccion_Memoria = USART_RxC();
  2926  000380  ECB2  F013         	call	_USART_RxC	;wreg free
  2927  000384  0100               	movlb	0	; () banked
  2928  000386  6FB4               	movwf	_Direccion_Memoria& (0+255),b
  2929  000388                     
  2930                           ; BSR set to: 0
  2931                           ;serial.c: 110:                 USART_RxS(11, coordenada_setpoint);
  2932  000388  0EB7               	movlw	low _coordenada_setpoint
  2933  00038A  6F60               	movwf	USART_RxS@pointer& (0+255),b
  2934  00038C  0E00               	movlw	high _coordenada_setpoint
  2935  00038E  6F61               	movwf	(USART_RxS@pointer+1)& (0+255),b
  2936  000390  0E0B               	movlw	11
  2937  000392  EC19  F011         	call	_USART_RxS
  2938  000396                     
  2939                           ;serial.c: 111:                 USART_TxS("WAIT UNTIL COMPLETE...\n", sizeof ("WAIT UNTI
      +                          L COMPLETE...\n") - 1);
  2940  000396  0E39               	movlw	low STR_13
  2941  000398  0100               	movlb	0	; () banked
  2942  00039A  6F60               	movwf	USART_TxS@str& (0+255),b
  2943  00039C  0E7F               	movlw	high STR_13
  2944  00039E  6F61               	movwf	(USART_TxS@str+1)& (0+255),b
  2945  0003A0  0E00               	movlw	0
  2946  0003A2  6F63               	movwf	(USART_TxS@length+1)& (0+255),b
  2947  0003A4  0E17               	movlw	23
  2948  0003A6  6F62               	movwf	USART_TxS@length& (0+255),b
  2949  0003A8  EC6E  F010         	call	_USART_TxS	;wreg free
  2950  0003AC                     
  2951                           ;serial.c: 112:                 Direccion_Memoria = Seria_Decodificacion_Memoria(Direcci
      +                          on_Memoria);
  2952  0003AC  0100               	movlb	0	; () banked
  2953  0003AE  51B4               	movf	_Direccion_Memoria& (0+255),w,b
  2954  0003B0  ECAA  F005         	call	_Seria_Decodificacion_Memoria
  2955  0003B4  0100               	movlb	0	; () banked
  2956  0003B6  6FB4               	movwf	_Direccion_Memoria& (0+255),b
  2957  0003B8                     
  2958                           ; BSR set to: 0
  2959                           ;serial.c: 113:                 Serial_Escritura_Memoria(Direccion_Memoria, coordenada_s
      +                          etpoint);
  2960  0003B8  0EB7               	movlw	low _coordenada_setpoint
  2961  0003BA  6F68               	movwf	Serial_Escritura_Memoria@string_setpoint& (0+255),b
  2962  0003BC  0E00               	movlw	high _coordenada_setpoint
  2963  0003BE  6F69               	movwf	(Serial_Escritura_Memoria@string_setpoint+1)& (0+255),b
  2964  0003C0  51B4               	movf	_Direccion_Memoria& (0+255),w,b
  2965  0003C2  ECB2  F00A         	call	_Serial_Escritura_Memoria
  2966                           
  2967                           ;serial.c: 114:                 break;
  2968  0003C6  EF2A  F000         	goto	l383
  2969  0003CA                     l4748:
  2970                           
  2971                           ; BSR set to: 0
  2972  0003CA  519F               	movf	Serial_Oupcode@Oupcode& (0+255),w,b
  2973  0003CC  6F9C               	movwf	??_Serial_Oupcode& (0+255),b
  2974  0003CE  6B9D               	clrf	(??_Serial_Oupcode+1)& (0+255),b
  2975                           
  2976                           ; Switch on 2 bytes has been partitioned into a top level switch of size 1, and 1 sub-sw
      +                          itches
  2977                           ; Switch size 1, requested type "simple"
  2978                           ; Number of cases is 1, Range of values is 0 to 0
  2979                           ; switch strategies available:
  2980                           ; Name         Instructions Cycles
  2981                           ; simple_byte            4     3 (average)
  2982                           ;	Chosen strategy is simple_byte
  2983  0003D0  519D               	movf	(??_Serial_Oupcode+1)& (0+255),w,b
  2984  0003D2  0A00               	xorlw	0	; case 0
  2985  0003D4  B4D8               	btfsc	status,2,c
  2986  0003D6  EFEF  F001         	goto	l5946
  2987  0003DA  EF2A  F000         	goto	l383
  2988  0003DE                     l5946:
  2989                           
  2990                           ; BSR set to: 0
  2991                           ; Switch size 1, requested type "simple"
  2992                           ; Number of cases is 7, Range of values is 70 to 84
  2993                           ; switch strategies available:
  2994                           ; Name         Instructions Cycles
  2995                           ; simple_byte           22    12 (average)
  2996                           ;	Chosen strategy is simple_byte
  2997  0003DE  519C               	movf	??_Serial_Oupcode& (0+255),w,b
  2998  0003E0  0A46               	xorlw	70	; case 70
  2999  0003E2  B4D8               	btfsc	status,2,c
  3000  0003E4  EF46  F000         	goto	l4652
  3001  0003E8  0A0E               	xorlw	14	; case 72
  3002  0003EA  B4D8               	btfsc	status,2,c
  3003  0003EC  EF2E  F001         	goto	l4706
  3004  0003F0  0A05               	xorlw	5	; case 77
  3005  0003F2  B4D8               	btfsc	status,2,c
  3006  0003F4  EFC0  F001         	goto	l4736
  3007  0003F8  0A02               	xorlw	2	; case 79
  3008  0003FA  B4D8               	btfsc	status,2,c
  3009  0003FC  EF4A  F001         	goto	l4710
  3010  000400  0A1D               	xorlw	29	; case 82
  3011  000402  B4D8               	btfsc	status,2,c
  3012  000404  EF3C  F001         	goto	l4708
  3013  000408  0A01               	xorlw	1	; case 83
  3014  00040A  B4D8               	btfsc	status,2,c
  3015  00040C  EFB6  F000         	goto	l4678
  3016  000410  0A07               	xorlw	7	; case 84
  3017  000412  B4D8               	btfsc	status,2,c
  3018  000414  EF20  F001         	goto	l4704
  3019  000418  EF2A  F000         	goto	l383
  3020  00041C  0012               	return		;funcret
  3021  00041E                     __end_of_Serial_Oupcode:
  3022                           	opt callstack 0
  3023                           
  3024 ;; *************** function _USART_RxS *****************
  3025 ;; Defined at:
  3026 ;;		line 48 in file "UART.c"
  3027 ;; Parameters:    Size  Location     Type
  3028 ;;  length          1    wreg     unsigned char 
  3029 ;;  pointer         2    0[BANK0 ] PTR unsigned char 
  3030 ;;		 -> coordenada_setpoint(11), coordenada_array(7), 
  3031 ;; Auto vars:     Size  Location     Type
  3032 ;;  length          1    5[BANK0 ] unsigned char 
  3033 ;;  i               2    6[BANK0 ] int 
  3034 ;; Return value:  Size  Location     Type
  3035 ;;                  1    wreg      void 
  3036 ;; Registers used:
  3037 ;;		wreg, fsr2l, fsr2h, status,2, status,0
  3038 ;; Tracked objects:
  3039 ;;		On entry : 0/0
  3040 ;;		On exit  : 0/0
  3041 ;;		Unchanged: 0/0
  3042 ;; Data sizes:     COMRAM   BANK0   BANK1   BANK2   BANK3   BANK4   BANK5   BANK6   BANK7
  3043 ;;      Params:         0       2       0       0       0       0       0       0       0
  3044 ;;      Locals:         0       3       0       0       0       0       0       0       0
  3045 ;;      Temps:          0       3       0       0       0       0       0       0       0
  3046 ;;      Totals:         0       8       0       0       0       0       0       0       0
  3047 ;;Total ram usage:        8 bytes
  3048 ;; Hardware stack levels used:    1
  3049 ;; Hardware stack levels required when called:    5
  3050 ;; This function calls:
  3051 ;;		Nothing
  3052 ;; This function is called by:
  3053 ;;		_Serial_Oupcode
  3054 ;; This function uses a non-reentrant model
  3055 ;;
  3056                           
  3057                           	psect	text6
  3058  002232                     __ptext6:
  3059                           	opt callstack 0
  3060  002232                     _USART_RxS:
  3061                           	opt callstack 24
  3062                           
  3063                           ; BSR set to: 0
  3064                           ;incstack = 0
  3065                           ;USART_RxS@length stored from wreg
  3066  002232  0100               	movlb	0	; () banked
  3067  002234  6F65               	movwf	USART_RxS@length& (0+255),b
  3068  002236                     
  3069                           ;UART.c: 49:     for (int i = 0; i < (length); i++)
  3070  002236  0E00               	movlw	0
  3071  002238  0100               	movlb	0	; () banked
  3072  00223A  6F67               	movwf	(USART_RxS@i+1)& (0+255),b
  3073  00223C  0E00               	movlw	0
  3074  00223E  6F66               	movwf	USART_RxS@i& (0+255),b
  3075  002240  EF34  F011         	goto	l4216
  3076  002244                     l127:
  3077  002244  AA9E               	btfss	3998,5,c	;volatile
  3078  002246  EF27  F011         	goto	u3221
  3079  00224A  EF29  F011         	goto	u3220
  3080  00224E                     u3221:
  3081  00224E  EF22  F011         	goto	l127
  3082  002252                     u3220:
  3083  002252                     
  3084                           ;UART.c: 52:             pointer[i] = RCREG;
  3085  002252  0100               	movlb	0	; () banked
  3086  002254  5166               	movf	USART_RxS@i& (0+255),w,b
  3087  002256  2560               	addwf	USART_RxS@pointer& (0+255),w,b
  3088  002258  6ED9               	movwf	fsr2l,c
  3089  00225A  5167               	movf	(USART_RxS@i+1)& (0+255),w,b
  3090  00225C  2161               	addwfc	(USART_RxS@pointer+1)& (0+255),w,b
  3091  00225E  6EDA               	movwf	fsr2h,c
  3092  002260  CFAE FFDF          	movff	4014,indf2	;volatile
  3093  002264                     
  3094                           ; BSR set to: 0
  3095                           ;UART.c: 53:         }
  3096  002264  4B66               	infsnz	USART_RxS@i& (0+255),f,b
  3097  002266  2B67               	incf	(USART_RxS@i+1)& (0+255),f,b
  3098  002268                     l4216:
  3099                           
  3100                           ; BSR set to: 0
  3101  002268  5165               	movf	USART_RxS@length& (0+255),w,b
  3102  00226A  6F62               	movwf	??_USART_RxS& (0+255),b
  3103  00226C  6B63               	clrf	(??_USART_RxS+1)& (0+255),b
  3104  00226E  5162               	movf	??_USART_RxS& (0+255),w,b
  3105  002270  5D66               	subwf	USART_RxS@i& (0+255),w,b
  3106  002272  5167               	movf	(USART_RxS@i+1)& (0+255),w,b
  3107  002274  0A80               	xorlw	128
  3108  002276  6F64               	movwf	(??_USART_RxS+2)& (0+255),b
  3109  002278  5163               	movf	(??_USART_RxS+1)& (0+255),w,b
  3110  00227A  0A80               	xorlw	128
  3111  00227C  5964               	subwfb	(??_USART_RxS+2)& (0+255),w,b
  3112  00227E  A0D8               	btfss	status,0,c
  3113  002280  EF44  F011         	goto	u3231
  3114  002284  EF46  F011         	goto	u3230
  3115  002288                     u3231:
  3116  002288  EF22  F011         	goto	l127
  3117  00228C                     u3230:
  3118  00228C                     
  3119                           ; BSR set to: 0
  3120  00228C  0012               	return		;funcret
  3121  00228E                     __end_of_USART_RxS:
  3122                           	opt callstack 0
  3123                           
  3124 ;; *************** function _USART_RxC *****************
  3125 ;; Defined at:
  3126 ;;		line 30 in file "UART.c"
  3127 ;; Parameters:    Size  Location     Type
  3128 ;;		None
  3129 ;; Auto vars:     Size  Location     Type
  3130 ;;		None
  3131 ;; Return value:  Size  Location     Type
  3132 ;;                  1    wreg      unsigned char 
  3133 ;; Registers used:
  3134 ;;		wreg, status,2
  3135 ;; Tracked objects:
  3136 ;;		On entry : 0/0
  3137 ;;		On exit  : 0/0
  3138 ;;		Unchanged: 0/0
  3139 ;; Data sizes:     COMRAM   BANK0   BANK1   BANK2   BANK3   BANK4   BANK5   BANK6   BANK7
  3140 ;;      Params:         0       0       0       0       0       0       0       0       0
  3141 ;;      Locals:         0       0       0       0       0       0       0       0       0
  3142 ;;      Temps:          0       0       0       0       0       0       0       0       0
  3143 ;;      Totals:         0       0       0       0       0       0       0       0       0
  3144 ;;Total ram usage:        0 bytes
  3145 ;; Hardware stack levels used:    1
  3146 ;; Hardware stack levels required when called:    5
  3147 ;; This function calls:
  3148 ;;		Nothing
  3149 ;; This function is called by:
  3150 ;;		_Serial_Oupcode
  3151 ;; This function uses a non-reentrant model
  3152 ;;
  3153                           
  3154                           	psect	text7
  3155  002764                     __ptext7:
  3156                           	opt callstack 0
  3157  002764                     _USART_RxC:
  3158                           	opt callstack 24
  3159  002764                     l104:
  3160  002764  AA9E               	btfss	158,5,c	;volatile
  3161  002766  EFB7  F013         	goto	u3211
  3162  00276A  EFB9  F013         	goto	u3210
  3163  00276E                     u3211:
  3164  00276E  EFB2  F013         	goto	l104
  3165  002772                     u3210:
  3166  002772                     
  3167                           ;UART.c: 32:     return RCREG;
  3168  002772  50AE               	movf	174,w,c	;volatile
  3169  002774  0012               	return		;funcret
  3170  002776                     __end_of_USART_RxC:
  3171                           	opt callstack 0
  3172                           
  3173 ;; *************** function _Serial_Lectura_MemoriaZ *****************
  3174 ;; Defined at:
  3175 ;;		line 275 in file "serial.c"
  3176 ;; Parameters:    Size  Location     Type
  3177 ;;  direccion       1    wreg     unsigned char 
  3178 ;;  pointerCZ       2   22[BANK0 ] PTR int 
  3179 ;;		 -> CoordenadaZ(2), 
  3180 ;; Auto vars:     Size  Location     Type
  3181 ;;  direccion       1   25[BANK0 ] unsigned char 
  3182 ;;  i               2   32[BANK0 ] int 
  3183 ;;  i               2   30[BANK0 ] int 
  3184 ;;  coordenadaZ     3   27[BANK0 ] unsigned char [3]
  3185 ;;  direccionZ      1   26[BANK0 ] unsigned char 
  3186 ;; Return value:  Size  Location     Type
  3187 ;;                  1    wreg      void 
  3188 ;; Registers used:
  3189 ;;		wreg, fsr0l, fsr0h, fsr2l, fsr2h, status,2, status,0, tblptrl, tblptrh, tblptru, prodl, prodh, cstack
  3190 ;; Tracked objects:
  3191 ;;		On entry : 0/0
  3192 ;;		On exit  : 0/0
  3193 ;;		Unchanged: 0/0
  3194 ;; Data sizes:     COMRAM   BANK0   BANK1   BANK2   BANK3   BANK4   BANK5   BANK6   BANK7
  3195 ;;      Params:         0       2       0       0       0       0       0       0       0
  3196 ;;      Locals:         0       9       0       0       0       0       0       0       0
  3197 ;;      Temps:          0       1       0       0       0       0       0       0       0
  3198 ;;      Totals:         0      12       0       0       0       0       0       0       0
  3199 ;;Total ram usage:       12 bytes
  3200 ;; Hardware stack levels used:    1
  3201 ;; Hardware stack levels required when called:    7
  3202 ;; This function calls:
  3203 ;;		_EEPROM_Rx
  3204 ;;		_Serial_RangosCoordenadas
  3205 ;;		_USART_TxS
  3206 ;;		_atoi
  3207 ;; This function is called by:
  3208 ;;		_Serial_Oupcode
  3209 ;; This function uses a non-reentrant model
  3210 ;;
  3211                           
  3212                           	psect	text8
  3213  0018B0                     __ptext8:
  3214                           	opt callstack 0
  3215  0018B0                     _Serial_Lectura_MemoriaZ:
  3216                           	opt callstack 22
  3217                           
  3218                           ;incstack = 0
  3219                           ;Serial_Lectura_MemoriaZ@direccion stored from wreg
  3220  0018B0  0100               	movlb	0	; () banked
  3221  0018B2  6F79               	movwf	Serial_Lectura_MemoriaZ@direccion& (0+255),b
  3222  0018B4                     
  3223                           ;serial.c: 276:     char coordenadaZ[3];;serial.c: 277:     char direccionZ;;serial.c: 2
      +                          78:     for (int i = 0; i < 3; i++) {
  3224  0018B4  0E00               	movlw	0
  3225  0018B6  0100               	movlb	0	; () banked
  3226  0018B8  6F7F               	movwf	(Serial_Lectura_MemoriaZ@i+1)& (0+255),b
  3227  0018BA  0E00               	movlw	0
  3228  0018BC  6F7E               	movwf	Serial_Lectura_MemoriaZ@i& (0+255),b
  3229  0018BE                     l4466:
  3230                           
  3231                           ; BSR set to: 0
  3232                           ;serial.c: 279:         direccionZ = direccion + i + 6;
  3233  0018BE  5179               	movf	Serial_Lectura_MemoriaZ@direccion& (0+255),w,b
  3234  0018C0  257E               	addwf	Serial_Lectura_MemoriaZ@i& (0+255),w,b
  3235  0018C2  0F06               	addlw	6
  3236  0018C4  6F7A               	movwf	Serial_Lectura_MemoriaZ@direccionZ& (0+255),b
  3237  0018C6                     
  3238                           ; BSR set to: 0
  3239                           ;serial.c: 280:         coordenadaZ[i] = EEPROM_Rx(direccionZ);
  3240  0018C6  0E7B               	movlw	low Serial_Lectura_MemoriaZ@coordenadaZ
  3241  0018C8  257E               	addwf	Serial_Lectura_MemoriaZ@i& (0+255),w,b
  3242  0018CA  6ED9               	movwf	fsr2l,c
  3243  0018CC  0E00               	movlw	high Serial_Lectura_MemoriaZ@coordenadaZ
  3244  0018CE  217F               	addwfc	(Serial_Lectura_MemoriaZ@i+1)& (0+255),w,b
  3245  0018D0  6EDA               	movwf	fsr2h,c
  3246  0018D2  517A               	movf	Serial_Lectura_MemoriaZ@direccionZ& (0+255),w,b
  3247  0018D4  ECA7  F013         	call	_EEPROM_Rx
  3248  0018D8  6EDF               	movwf	indf2,c
  3249  0018DA                     
  3250                           ;serial.c: 281:     }
  3251  0018DA  0100               	movlb	0	; () banked
  3252  0018DC  4B7E               	infsnz	Serial_Lectura_MemoriaZ@i& (0+255),f,b
  3253  0018DE  2B7F               	incf	(Serial_Lectura_MemoriaZ@i+1)& (0+255),f,b
  3254  0018E0                     
  3255                           ; BSR set to: 0
  3256  0018E0  BF7F               	btfsc	(Serial_Lectura_MemoriaZ@i+1)& (0+255),7,b
  3257  0018E2  EF7C  F00C         	goto	u3401
  3258  0018E6  517F               	movf	(Serial_Lectura_MemoriaZ@i+1)& (0+255),w,b
  3259  0018E8  E109               	bnz	u3400
  3260  0018EA  0E03               	movlw	3
  3261  0018EC  5D7E               	subwf	Serial_Lectura_MemoriaZ@i& (0+255),w,b
  3262  0018EE  A0D8               	btfss	status,0,c
  3263  0018F0  EF7C  F00C         	goto	u3401
  3264  0018F4  EF7E  F00C         	goto	u3400
  3265  0018F8                     u3401:
  3266  0018F8  EF5F  F00C         	goto	l4466
  3267  0018FC                     u3400:
  3268  0018FC                     
  3269                           ; BSR set to: 0
  3270                           ;serial.c: 282:    for (int i=0;i<3;i++){
  3271  0018FC  0E00               	movlw	0
  3272  0018FE  6F81               	movwf	(Serial_Lectura_MemoriaZ@i_1309+1)& (0+255),b
  3273  001900  0E00               	movlw	0
  3274  001902  6F80               	movwf	Serial_Lectura_MemoriaZ@i_1309& (0+255),b
  3275  001904                     l4480:
  3276                           
  3277                           ; BSR set to: 0
  3278                           ;serial.c: 283:     if (!(coordenadaZ[i] >= 48 && coordenadaZ[i] <= 57)) {
  3279  001904  0E7B               	movlw	low Serial_Lectura_MemoriaZ@coordenadaZ
  3280  001906  2580               	addwf	Serial_Lectura_MemoriaZ@i_1309& (0+255),w,b
  3281  001908  6ED9               	movwf	fsr2l,c
  3282  00190A  0E00               	movlw	high Serial_Lectura_MemoriaZ@coordenadaZ
  3283  00190C  2181               	addwfc	(Serial_Lectura_MemoriaZ@i_1309+1)& (0+255),w,b
  3284  00190E  6EDA               	movwf	fsr2h,c
  3285  001910  0E2F               	movlw	47
  3286  001912  64DF               	cpfsgt	indf2,c
  3287  001914  EF8E  F00C         	goto	u3411
  3288  001918  EF90  F00C         	goto	u3410
  3289  00191C                     u3411:
  3290  00191C  EF9E  F00C         	goto	l4484
  3291  001920                     u3410:
  3292  001920                     
  3293                           ; BSR set to: 0
  3294  001920  0E7B               	movlw	low Serial_Lectura_MemoriaZ@coordenadaZ
  3295  001922  2580               	addwf	Serial_Lectura_MemoriaZ@i_1309& (0+255),w,b
  3296  001924  6ED9               	movwf	fsr2l,c
  3297  001926  0E00               	movlw	high Serial_Lectura_MemoriaZ@coordenadaZ
  3298  001928  2181               	addwfc	(Serial_Lectura_MemoriaZ@i_1309+1)& (0+255),w,b
  3299  00192A  6EDA               	movwf	fsr2h,c
  3300  00192C  0E39               	movlw	57
  3301  00192E  64DF               	cpfsgt	indf2,c
  3302  001930  EF9C  F00C         	goto	u3421
  3303  001934  EF9E  F00C         	goto	u3420
  3304  001938                     u3421:
  3305  001938  EFA0  F00C         	goto	l4486
  3306  00193C                     u3420:
  3307  00193C                     l4484:
  3308                           
  3309                           ; BSR set to: 0
  3310                           ;serial.c: 284:         Coordenadas_mal = 1;
  3311  00193C  0E01               	movlw	1
  3312  00193E  6FB2               	movwf	_Coordenadas_mal& (0+255),b
  3313  001940                     l4486:
  3314                           
  3315                           ; BSR set to: 0
  3316                           ;serial.c: 286:     }
  3317  001940  4B80               	infsnz	Serial_Lectura_MemoriaZ@i_1309& (0+255),f,b
  3318  001942  2B81               	incf	(Serial_Lectura_MemoriaZ@i_1309+1)& (0+255),f,b
  3319  001944                     
  3320                           ; BSR set to: 0
  3321  001944  BF81               	btfsc	(Serial_Lectura_MemoriaZ@i_1309+1)& (0+255),7,b
  3322  001946  EFAE  F00C         	goto	u3431
  3323  00194A  5181               	movf	(Serial_Lectura_MemoriaZ@i_1309+1)& (0+255),w,b
  3324  00194C  E109               	bnz	u3430
  3325  00194E  0E03               	movlw	3
  3326  001950  5D80               	subwf	Serial_Lectura_MemoriaZ@i_1309& (0+255),w,b
  3327  001952  A0D8               	btfss	status,0,c
  3328  001954  EFAE  F00C         	goto	u3431
  3329  001958  EFB0  F00C         	goto	u3430
  3330  00195C                     u3431:
  3331  00195C  EF82  F00C         	goto	l4480
  3332  001960                     u3430:
  3333  001960                     
  3334                           ; BSR set to: 0
  3335                           ;serial.c: 287:     *pointerCZ = atoi(coordenadaZ);
  3336  001960  0E7B               	movlw	low Serial_Lectura_MemoriaZ@coordenadaZ
  3337  001962  6F67               	movwf	atoi@s& (0+255),b
  3338  001964  0E00               	movlw	high Serial_Lectura_MemoriaZ@coordenadaZ
  3339  001966  6F68               	movwf	(atoi@s+1)& (0+255),b
  3340  001968  EC95  F008         	call	_atoi	;wreg free
  3341  00196C  C076  FFD9         	movff	Serial_Lectura_MemoriaZ@pointerCZ,fsr2l
  3342  001970  C077  FFDA         	movff	Serial_Lectura_MemoriaZ@pointerCZ+1,fsr2h
  3343  001974  0100               	movlb	0	; () banked
  3344  001976  C067  FFDE         	movff	?_atoi,postinc2
  3345  00197A  C068  FFDD         	movff	?_atoi+1,postdec2
  3346  00197E                     
  3347                           ; BSR set to: 0
  3348                           ;serial.c: 288:     USART_TxS("\nCOORDINATE Z:", sizeof ("\nCOORDINATE Z:") - 1);
  3349  00197E  0EC5               	movlw	low STR_37
  3350  001980  6F60               	movwf	USART_TxS@str& (0+255),b
  3351  001982  0E7F               	movlw	high STR_37
  3352  001984  6F61               	movwf	(USART_TxS@str+1)& (0+255),b
  3353  001986  0E00               	movlw	0
  3354  001988  6F63               	movwf	(USART_TxS@length+1)& (0+255),b
  3355  00198A  0E0E               	movlw	14
  3356  00198C  6F62               	movwf	USART_TxS@length& (0+255),b
  3357  00198E  EC6E  F010         	call	_USART_TxS	;wreg free
  3358  001992                     
  3359                           ;serial.c: 289:     USART_TxS(coordenadaZ, sizeof (coordenadaZ));
  3360  001992  0E7B               	movlw	low Serial_Lectura_MemoriaZ@coordenadaZ
  3361  001994  0100               	movlb	0	; () banked
  3362  001996  6F60               	movwf	USART_TxS@str& (0+255),b
  3363  001998  0E00               	movlw	high Serial_Lectura_MemoriaZ@coordenadaZ
  3364  00199A  6F61               	movwf	(USART_TxS@str+1)& (0+255),b
  3365  00199C  0E00               	movlw	0
  3366  00199E  6F63               	movwf	(USART_TxS@length+1)& (0+255),b
  3367  0019A0  0E03               	movlw	3
  3368  0019A2  6F62               	movwf	USART_TxS@length& (0+255),b
  3369  0019A4  EC6E  F010         	call	_USART_TxS	;wreg free
  3370  0019A8                     
  3371                           ;serial.c: 290:     Serial_RangosCoordenadas(CoordenadaZ);
  3372  0019A8  C0C9  F060         	movff	_CoordenadaZ,Serial_RangosCoordenadas@C
  3373  0019AC  C0CA  F061         	movff	_CoordenadaZ+1,Serial_RangosCoordenadas@C+1
  3374  0019B0  EC77  F012         	call	_Serial_RangosCoordenadas	;wreg free
  3375  0019B4  0012               	return		;funcret
  3376  0019B6                     __end_of_Serial_Lectura_MemoriaZ:
  3377                           	opt callstack 0
  3378                           
  3379 ;; *************** function _Serial_Lectura_MemoriaY *****************
  3380 ;; Defined at:
  3381 ;;		line 256 in file "serial.c"
  3382 ;; Parameters:    Size  Location     Type
  3383 ;;  direccion       1    wreg     unsigned char 
  3384 ;;  pointerCY       2   22[BANK0 ] PTR int 
  3385 ;;		 -> CoordenadaY(2), 
  3386 ;; Auto vars:     Size  Location     Type
  3387 ;;  direccion       1   25[BANK0 ] unsigned char 
  3388 ;;  i               2   32[BANK0 ] int 
  3389 ;;  i               2   30[BANK0 ] int 
  3390 ;;  coordenadaY     3   27[BANK0 ] unsigned char [3]
  3391 ;;  direccionY      1   26[BANK0 ] unsigned char 
  3392 ;; Return value:  Size  Location     Type
  3393 ;;                  1    wreg      void 
  3394 ;; Registers used:
  3395 ;;		wreg, fsr0l, fsr0h, fsr2l, fsr2h, status,2, status,0, tblptrl, tblptrh, tblptru, prodl, prodh, cstack
  3396 ;; Tracked objects:
  3397 ;;		On entry : 0/0
  3398 ;;		On exit  : 0/0
  3399 ;;		Unchanged: 0/0
  3400 ;; Data sizes:     COMRAM   BANK0   BANK1   BANK2   BANK3   BANK4   BANK5   BANK6   BANK7
  3401 ;;      Params:         0       2       0       0       0       0       0       0       0
  3402 ;;      Locals:         0       9       0       0       0       0       0       0       0
  3403 ;;      Temps:          0       1       0       0       0       0       0       0       0
  3404 ;;      Totals:         0      12       0       0       0       0       0       0       0
  3405 ;;Total ram usage:       12 bytes
  3406 ;; Hardware stack levels used:    1
  3407 ;; Hardware stack levels required when called:    7
  3408 ;; This function calls:
  3409 ;;		_EEPROM_Rx
  3410 ;;		_Serial_RangosCoordenadas
  3411 ;;		_USART_TxS
  3412 ;;		_atoi
  3413 ;; This function is called by:
  3414 ;;		_Serial_Oupcode
  3415 ;; This function uses a non-reentrant model
  3416 ;;
  3417                           
  3418                           	psect	text9
  3419  0019B6                     __ptext9:
  3420                           	opt callstack 0
  3421  0019B6                     _Serial_Lectura_MemoriaY:
  3422                           	opt callstack 22
  3423                           
  3424                           ;incstack = 0
  3425                           ;Serial_Lectura_MemoriaY@direccion stored from wreg
  3426  0019B6  0100               	movlb	0	; () banked
  3427  0019B8  6F79               	movwf	Serial_Lectura_MemoriaY@direccion& (0+255),b
  3428  0019BA                     
  3429                           ;serial.c: 257:     char coordenadaY[3];;serial.c: 258:     char direccionY;;serial.c: 2
      +                          59:     for (int i = 0; i < 3; i++) {
  3430  0019BA  0E00               	movlw	0
  3431  0019BC  0100               	movlb	0	; () banked
  3432  0019BE  6F7F               	movwf	(Serial_Lectura_MemoriaY@i+1)& (0+255),b
  3433  0019C0  0E00               	movlw	0
  3434  0019C2  6F7E               	movwf	Serial_Lectura_MemoriaY@i& (0+255),b
  3435  0019C4                     l4426:
  3436                           
  3437                           ; BSR set to: 0
  3438                           ;serial.c: 260:         direccionY = direccion + i + 3;
  3439  0019C4  5179               	movf	Serial_Lectura_MemoriaY@direccion& (0+255),w,b
  3440  0019C6  257E               	addwf	Serial_Lectura_MemoriaY@i& (0+255),w,b
  3441  0019C8  0F03               	addlw	3
  3442  0019CA  6F7A               	movwf	Serial_Lectura_MemoriaY@direccionY& (0+255),b
  3443  0019CC                     
  3444                           ; BSR set to: 0
  3445                           ;serial.c: 261:         coordenadaY[i] = EEPROM_Rx(direccionY);
  3446  0019CC  0E7B               	movlw	low Serial_Lectura_MemoriaY@coordenadaY
  3447  0019CE  257E               	addwf	Serial_Lectura_MemoriaY@i& (0+255),w,b
  3448  0019D0  6ED9               	movwf	fsr2l,c
  3449  0019D2  0E00               	movlw	high Serial_Lectura_MemoriaY@coordenadaY
  3450  0019D4  217F               	addwfc	(Serial_Lectura_MemoriaY@i+1)& (0+255),w,b
  3451  0019D6  6EDA               	movwf	fsr2h,c
  3452  0019D8  517A               	movf	Serial_Lectura_MemoriaY@direccionY& (0+255),w,b
  3453  0019DA  ECA7  F013         	call	_EEPROM_Rx
  3454  0019DE  6EDF               	movwf	indf2,c
  3455  0019E0                     
  3456                           ;serial.c: 262:     }
  3457  0019E0  0100               	movlb	0	; () banked
  3458  0019E2  4B7E               	infsnz	Serial_Lectura_MemoriaY@i& (0+255),f,b
  3459  0019E4  2B7F               	incf	(Serial_Lectura_MemoriaY@i+1)& (0+255),f,b
  3460  0019E6                     
  3461                           ; BSR set to: 0
  3462  0019E6  BF7F               	btfsc	(Serial_Lectura_MemoriaY@i+1)& (0+255),7,b
  3463  0019E8  EFFF  F00C         	goto	u3361
  3464  0019EC  517F               	movf	(Serial_Lectura_MemoriaY@i+1)& (0+255),w,b
  3465  0019EE  E109               	bnz	u3360
  3466  0019F0  0E03               	movlw	3
  3467  0019F2  5D7E               	subwf	Serial_Lectura_MemoriaY@i& (0+255),w,b
  3468  0019F4  A0D8               	btfss	status,0,c
  3469  0019F6  EFFF  F00C         	goto	u3361
  3470  0019FA  EF01  F00D         	goto	u3360
  3471  0019FE                     u3361:
  3472  0019FE  EFE2  F00C         	goto	l4426
  3473  001A02                     u3360:
  3474  001A02                     
  3475                           ; BSR set to: 0
  3476                           ;serial.c: 263:     for (int i=0;i<3;i++){
  3477  001A02  0E00               	movlw	0
  3478  001A04  6F81               	movwf	(Serial_Lectura_MemoriaY@i_1301+1)& (0+255),b
  3479  001A06  0E00               	movlw	0
  3480  001A08  6F80               	movwf	Serial_Lectura_MemoriaY@i_1301& (0+255),b
  3481  001A0A                     l4440:
  3482                           
  3483                           ; BSR set to: 0
  3484                           ;serial.c: 264:     if (!(coordenadaY[i] >= 48 && coordenadaY[i] <= 57)) {
  3485  001A0A  0E7B               	movlw	low Serial_Lectura_MemoriaY@coordenadaY
  3486  001A0C  2580               	addwf	Serial_Lectura_MemoriaY@i_1301& (0+255),w,b
  3487  001A0E  6ED9               	movwf	fsr2l,c
  3488  001A10  0E00               	movlw	high Serial_Lectura_MemoriaY@coordenadaY
  3489  001A12  2181               	addwfc	(Serial_Lectura_MemoriaY@i_1301+1)& (0+255),w,b
  3490  001A14  6EDA               	movwf	fsr2h,c
  3491  001A16  0E2F               	movlw	47
  3492  001A18  64DF               	cpfsgt	indf2,c
  3493  001A1A  EF11  F00D         	goto	u3371
  3494  001A1E  EF13  F00D         	goto	u3370
  3495  001A22                     u3371:
  3496  001A22  EF21  F00D         	goto	l4444
  3497  001A26                     u3370:
  3498  001A26                     
  3499                           ; BSR set to: 0
  3500  001A26  0E7B               	movlw	low Serial_Lectura_MemoriaY@coordenadaY
  3501  001A28  2580               	addwf	Serial_Lectura_MemoriaY@i_1301& (0+255),w,b
  3502  001A2A  6ED9               	movwf	fsr2l,c
  3503  001A2C  0E00               	movlw	high Serial_Lectura_MemoriaY@coordenadaY
  3504  001A2E  2181               	addwfc	(Serial_Lectura_MemoriaY@i_1301+1)& (0+255),w,b
  3505  001A30  6EDA               	movwf	fsr2h,c
  3506  001A32  0E39               	movlw	57
  3507  001A34  64DF               	cpfsgt	indf2,c
  3508  001A36  EF1F  F00D         	goto	u3381
  3509  001A3A  EF21  F00D         	goto	u3380
  3510  001A3E                     u3381:
  3511  001A3E  EF23  F00D         	goto	l4446
  3512  001A42                     u3380:
  3513  001A42                     l4444:
  3514                           
  3515                           ; BSR set to: 0
  3516                           ;serial.c: 265:         Coordenadas_mal = 1;
  3517  001A42  0E01               	movlw	1
  3518  001A44  6FB2               	movwf	_Coordenadas_mal& (0+255),b
  3519  001A46                     l4446:
  3520                           
  3521                           ; BSR set to: 0
  3522                           ;serial.c: 267:     }
  3523  001A46  4B80               	infsnz	Serial_Lectura_MemoriaY@i_1301& (0+255),f,b
  3524  001A48  2B81               	incf	(Serial_Lectura_MemoriaY@i_1301+1)& (0+255),f,b
  3525  001A4A                     
  3526                           ; BSR set to: 0
  3527  001A4A  BF81               	btfsc	(Serial_Lectura_MemoriaY@i_1301+1)& (0+255),7,b
  3528  001A4C  EF31  F00D         	goto	u3391
  3529  001A50  5181               	movf	(Serial_Lectura_MemoriaY@i_1301+1)& (0+255),w,b
  3530  001A52  E109               	bnz	u3390
  3531  001A54  0E03               	movlw	3
  3532  001A56  5D80               	subwf	Serial_Lectura_MemoriaY@i_1301& (0+255),w,b
  3533  001A58  A0D8               	btfss	status,0,c
  3534  001A5A  EF31  F00D         	goto	u3391
  3535  001A5E  EF33  F00D         	goto	u3390
  3536  001A62                     u3391:
  3537  001A62  EF05  F00D         	goto	l4440
  3538  001A66                     u3390:
  3539  001A66                     
  3540                           ; BSR set to: 0
  3541                           ;serial.c: 268:     *pointerCY = atoi(coordenadaY);
  3542  001A66  0E7B               	movlw	low Serial_Lectura_MemoriaY@coordenadaY
  3543  001A68  6F67               	movwf	atoi@s& (0+255),b
  3544  001A6A  0E00               	movlw	high Serial_Lectura_MemoriaY@coordenadaY
  3545  001A6C  6F68               	movwf	(atoi@s+1)& (0+255),b
  3546  001A6E  EC95  F008         	call	_atoi	;wreg free
  3547  001A72  C076  FFD9         	movff	Serial_Lectura_MemoriaY@pointerCY,fsr2l
  3548  001A76  C077  FFDA         	movff	Serial_Lectura_MemoriaY@pointerCY+1,fsr2h
  3549  001A7A  0100               	movlb	0	; () banked
  3550  001A7C  C067  FFDE         	movff	?_atoi,postinc2
  3551  001A80  C068  FFDD         	movff	?_atoi+1,postdec2
  3552  001A84                     
  3553                           ; BSR set to: 0
  3554                           ;serial.c: 269:     USART_TxS("\nCOORDINATE Y:", sizeof ("\nCOORDINATE Y:") - 1);
  3555  001A84  0EB6               	movlw	low STR_36
  3556  001A86  6F60               	movwf	USART_TxS@str& (0+255),b
  3557  001A88  0E7F               	movlw	high STR_36
  3558  001A8A  6F61               	movwf	(USART_TxS@str+1)& (0+255),b
  3559  001A8C  0E00               	movlw	0
  3560  001A8E  6F63               	movwf	(USART_TxS@length+1)& (0+255),b
  3561  001A90  0E0E               	movlw	14
  3562  001A92  6F62               	movwf	USART_TxS@length& (0+255),b
  3563  001A94  EC6E  F010         	call	_USART_TxS	;wreg free
  3564  001A98                     
  3565                           ;serial.c: 270:     USART_TxS(coordenadaY, sizeof (coordenadaY));
  3566  001A98  0E7B               	movlw	low Serial_Lectura_MemoriaY@coordenadaY
  3567  001A9A  0100               	movlb	0	; () banked
  3568  001A9C  6F60               	movwf	USART_TxS@str& (0+255),b
  3569  001A9E  0E00               	movlw	high Serial_Lectura_MemoriaY@coordenadaY
  3570  001AA0  6F61               	movwf	(USART_TxS@str+1)& (0+255),b
  3571  001AA2  0E00               	movlw	0
  3572  001AA4  6F63               	movwf	(USART_TxS@length+1)& (0+255),b
  3573  001AA6  0E03               	movlw	3
  3574  001AA8  6F62               	movwf	USART_TxS@length& (0+255),b
  3575  001AAA  EC6E  F010         	call	_USART_TxS	;wreg free
  3576  001AAE                     
  3577                           ;serial.c: 271:     Serial_RangosCoordenadas(CoordenadaY);
  3578  001AAE  C0CB  F060         	movff	_CoordenadaY,Serial_RangosCoordenadas@C
  3579  001AB2  C0CC  F061         	movff	_CoordenadaY+1,Serial_RangosCoordenadas@C+1
  3580  001AB6  EC77  F012         	call	_Serial_RangosCoordenadas	;wreg free
  3581  001ABA  0012               	return		;funcret
  3582  001ABC                     __end_of_Serial_Lectura_MemoriaY:
  3583                           	opt callstack 0
  3584                           
  3585 ;; *************** function _Serial_Lectura_MemoriaX *****************
  3586 ;; Defined at:
  3587 ;;		line 237 in file "serial.c"
  3588 ;; Parameters:    Size  Location     Type
  3589 ;;  direccion       1    wreg     unsigned char 
  3590 ;;  pointerCX       2   22[BANK0 ] PTR int 
  3591 ;;		 -> CoordenadaX(2), 
  3592 ;; Auto vars:     Size  Location     Type
  3593 ;;  direccion       1   25[BANK0 ] unsigned char 
  3594 ;;  i               2   32[BANK0 ] int 
  3595 ;;  i               2   30[BANK0 ] int 
  3596 ;;  coordenadaX     3   27[BANK0 ] unsigned char [3]
  3597 ;;  direccionX      1   26[BANK0 ] unsigned char 
  3598 ;; Return value:  Size  Location     Type
  3599 ;;                  1    wreg      void 
  3600 ;; Registers used:
  3601 ;;		wreg, fsr0l, fsr0h, fsr2l, fsr2h, status,2, status,0, tblptrl, tblptrh, tblptru, prodl, prodh, cstack
  3602 ;; Tracked objects:
  3603 ;;		On entry : 0/0
  3604 ;;		On exit  : 0/0
  3605 ;;		Unchanged: 0/0
  3606 ;; Data sizes:     COMRAM   BANK0   BANK1   BANK2   BANK3   BANK4   BANK5   BANK6   BANK7
  3607 ;;      Params:         0       2       0       0       0       0       0       0       0
  3608 ;;      Locals:         0       9       0       0       0       0       0       0       0
  3609 ;;      Temps:          0       1       0       0       0       0       0       0       0
  3610 ;;      Totals:         0      12       0       0       0       0       0       0       0
  3611 ;;Total ram usage:       12 bytes
  3612 ;; Hardware stack levels used:    1
  3613 ;; Hardware stack levels required when called:    7
  3614 ;; This function calls:
  3615 ;;		_EEPROM_Rx
  3616 ;;		_Serial_RangosCoordenadas
  3617 ;;		_USART_TxS
  3618 ;;		_atoi
  3619 ;; This function is called by:
  3620 ;;		_Serial_Oupcode
  3621 ;; This function uses a non-reentrant model
  3622 ;;
  3623                           
  3624                           	psect	text10
  3625  001BC2                     __ptext10:
  3626                           	opt callstack 0
  3627  001BC2                     _Serial_Lectura_MemoriaX:
  3628                           	opt callstack 22
  3629                           
  3630                           ;incstack = 0
  3631                           ;Serial_Lectura_MemoriaX@direccion stored from wreg
  3632  001BC2  0100               	movlb	0	; () banked
  3633  001BC4  6F79               	movwf	Serial_Lectura_MemoriaX@direccion& (0+255),b
  3634  001BC6                     
  3635                           ;serial.c: 238:     char coordenadaX[3];;serial.c: 239:     char direccionX;;serial.c: 2
      +                          40:     for (int i = 0; i < 3; i++) {
  3636  001BC6  0E00               	movlw	0
  3637  001BC8  0100               	movlb	0	; () banked
  3638  001BCA  6F7F               	movwf	(Serial_Lectura_MemoriaX@i+1)& (0+255),b
  3639  001BCC  0E00               	movlw	0
  3640  001BCE  6F7E               	movwf	Serial_Lectura_MemoriaX@i& (0+255),b
  3641  001BD0                     l4386:
  3642                           
  3643                           ; BSR set to: 0
  3644                           ;serial.c: 241:         direccionX = direccion + i;
  3645  001BD0  5179               	movf	Serial_Lectura_MemoriaX@direccion& (0+255),w,b
  3646  001BD2  257E               	addwf	Serial_Lectura_MemoriaX@i& (0+255),w,b
  3647  001BD4  6F7A               	movwf	Serial_Lectura_MemoriaX@direccionX& (0+255),b
  3648  001BD6                     
  3649                           ; BSR set to: 0
  3650                           ;serial.c: 242:         coordenadaX[i] = EEPROM_Rx(direccionX);
  3651  001BD6  0E7B               	movlw	low Serial_Lectura_MemoriaX@coordenadaX
  3652  001BD8  257E               	addwf	Serial_Lectura_MemoriaX@i& (0+255),w,b
  3653  001BDA  6ED9               	movwf	fsr2l,c
  3654  001BDC  0E00               	movlw	high Serial_Lectura_MemoriaX@coordenadaX
  3655  001BDE  217F               	addwfc	(Serial_Lectura_MemoriaX@i+1)& (0+255),w,b
  3656  001BE0  6EDA               	movwf	fsr2h,c
  3657  001BE2  517A               	movf	Serial_Lectura_MemoriaX@direccionX& (0+255),w,b
  3658  001BE4  ECA7  F013         	call	_EEPROM_Rx
  3659  001BE8  6EDF               	movwf	indf2,c
  3660  001BEA                     
  3661                           ;serial.c: 243:     }
  3662  001BEA  0100               	movlb	0	; () banked
  3663  001BEC  4B7E               	infsnz	Serial_Lectura_MemoriaX@i& (0+255),f,b
  3664  001BEE  2B7F               	incf	(Serial_Lectura_MemoriaX@i+1)& (0+255),f,b
  3665  001BF0                     
  3666                           ; BSR set to: 0
  3667  001BF0  BF7F               	btfsc	(Serial_Lectura_MemoriaX@i+1)& (0+255),7,b
  3668  001BF2  EF04  F00E         	goto	u3321
  3669  001BF6  517F               	movf	(Serial_Lectura_MemoriaX@i+1)& (0+255),w,b
  3670  001BF8  E109               	bnz	u3320
  3671  001BFA  0E03               	movlw	3
  3672  001BFC  5D7E               	subwf	Serial_Lectura_MemoriaX@i& (0+255),w,b
  3673  001BFE  A0D8               	btfss	status,0,c
  3674  001C00  EF04  F00E         	goto	u3321
  3675  001C04  EF06  F00E         	goto	u3320
  3676  001C08                     u3321:
  3677  001C08  EFE8  F00D         	goto	l4386
  3678  001C0C                     u3320:
  3679  001C0C                     
  3680                           ; BSR set to: 0
  3681                           ;serial.c: 244:    for (int i=0;i<3;i++){
  3682  001C0C  0E00               	movlw	0
  3683  001C0E  6F81               	movwf	(Serial_Lectura_MemoriaX@i_1293+1)& (0+255),b
  3684  001C10  0E00               	movlw	0
  3685  001C12  6F80               	movwf	Serial_Lectura_MemoriaX@i_1293& (0+255),b
  3686  001C14                     l4400:
  3687                           
  3688                           ; BSR set to: 0
  3689                           ;serial.c: 245:     if (!(coordenadaX[i] >= 48 && coordenadaX[i] <= 57)) {
  3690  001C14  0E7B               	movlw	low Serial_Lectura_MemoriaX@coordenadaX
  3691  001C16  2580               	addwf	Serial_Lectura_MemoriaX@i_1293& (0+255),w,b
  3692  001C18  6ED9               	movwf	fsr2l,c
  3693  001C1A  0E00               	movlw	high Serial_Lectura_MemoriaX@coordenadaX
  3694  001C1C  2181               	addwfc	(Serial_Lectura_MemoriaX@i_1293+1)& (0+255),w,b
  3695  001C1E  6EDA               	movwf	fsr2h,c
  3696  001C20  0E2F               	movlw	47
  3697  001C22  64DF               	cpfsgt	indf2,c
  3698  001C24  EF16  F00E         	goto	u3331
  3699  001C28  EF18  F00E         	goto	u3330
  3700  001C2C                     u3331:
  3701  001C2C  EF26  F00E         	goto	l4404
  3702  001C30                     u3330:
  3703  001C30                     
  3704                           ; BSR set to: 0
  3705  001C30  0E7B               	movlw	low Serial_Lectura_MemoriaX@coordenadaX
  3706  001C32  2580               	addwf	Serial_Lectura_MemoriaX@i_1293& (0+255),w,b
  3707  001C34  6ED9               	movwf	fsr2l,c
  3708  001C36  0E00               	movlw	high Serial_Lectura_MemoriaX@coordenadaX
  3709  001C38  2181               	addwfc	(Serial_Lectura_MemoriaX@i_1293+1)& (0+255),w,b
  3710  001C3A  6EDA               	movwf	fsr2h,c
  3711  001C3C  0E39               	movlw	57
  3712  001C3E  64DF               	cpfsgt	indf2,c
  3713  001C40  EF24  F00E         	goto	u3341
  3714  001C44  EF26  F00E         	goto	u3340
  3715  001C48                     u3341:
  3716  001C48  EF28  F00E         	goto	l4406
  3717  001C4C                     u3340:
  3718  001C4C                     l4404:
  3719                           
  3720                           ; BSR set to: 0
  3721                           ;serial.c: 246:         Coordenadas_mal = 1;
  3722  001C4C  0E01               	movlw	1
  3723  001C4E  6FB2               	movwf	_Coordenadas_mal& (0+255),b
  3724  001C50                     l4406:
  3725                           
  3726                           ; BSR set to: 0
  3727                           ;serial.c: 248:     }
  3728  001C50  4B80               	infsnz	Serial_Lectura_MemoriaX@i_1293& (0+255),f,b
  3729  001C52  2B81               	incf	(Serial_Lectura_MemoriaX@i_1293+1)& (0+255),f,b
  3730  001C54                     
  3731                           ; BSR set to: 0
  3732  001C54  BF81               	btfsc	(Serial_Lectura_MemoriaX@i_1293+1)& (0+255),7,b
  3733  001C56  EF36  F00E         	goto	u3351
  3734  001C5A  5181               	movf	(Serial_Lectura_MemoriaX@i_1293+1)& (0+255),w,b
  3735  001C5C  E109               	bnz	u3350
  3736  001C5E  0E03               	movlw	3
  3737  001C60  5D80               	subwf	Serial_Lectura_MemoriaX@i_1293& (0+255),w,b
  3738  001C62  A0D8               	btfss	status,0,c
  3739  001C64  EF36  F00E         	goto	u3351
  3740  001C68  EF38  F00E         	goto	u3350
  3741  001C6C                     u3351:
  3742  001C6C  EF0A  F00E         	goto	l4400
  3743  001C70                     u3350:
  3744  001C70                     
  3745                           ; BSR set to: 0
  3746                           ;serial.c: 249:     *pointerCX = atoi(coordenadaX);
  3747  001C70  0E7B               	movlw	low Serial_Lectura_MemoriaX@coordenadaX
  3748  001C72  6F67               	movwf	atoi@s& (0+255),b
  3749  001C74  0E00               	movlw	high Serial_Lectura_MemoriaX@coordenadaX
  3750  001C76  6F68               	movwf	(atoi@s+1)& (0+255),b
  3751  001C78  EC95  F008         	call	_atoi	;wreg free
  3752  001C7C  C076  FFD9         	movff	Serial_Lectura_MemoriaX@pointerCX,fsr2l
  3753  001C80  C077  FFDA         	movff	Serial_Lectura_MemoriaX@pointerCX+1,fsr2h
  3754  001C84  0100               	movlb	0	; () banked
  3755  001C86  C067  FFDE         	movff	?_atoi,postinc2
  3756  001C8A  C068  FFDD         	movff	?_atoi+1,postdec2
  3757  001C8E                     
  3758                           ; BSR set to: 0
  3759                           ;serial.c: 250:     USART_TxS("COORDINATE X:", sizeof ("COORDINATE X:") - 1);
  3760  001C8E  0ED4               	movlw	low STR_35
  3761  001C90  6F60               	movwf	USART_TxS@str& (0+255),b
  3762  001C92  0E7F               	movlw	high STR_35
  3763  001C94  6F61               	movwf	(USART_TxS@str+1)& (0+255),b
  3764  001C96  0E00               	movlw	0
  3765  001C98  6F63               	movwf	(USART_TxS@length+1)& (0+255),b
  3766  001C9A  0E0D               	movlw	13
  3767  001C9C  6F62               	movwf	USART_TxS@length& (0+255),b
  3768  001C9E  EC6E  F010         	call	_USART_TxS	;wreg free
  3769  001CA2                     
  3770                           ;serial.c: 251:     USART_TxS(coordenadaX, sizeof (coordenadaX));
  3771  001CA2  0E7B               	movlw	low Serial_Lectura_MemoriaX@coordenadaX
  3772  001CA4  0100               	movlb	0	; () banked
  3773  001CA6  6F60               	movwf	USART_TxS@str& (0+255),b
  3774  001CA8  0E00               	movlw	high Serial_Lectura_MemoriaX@coordenadaX
  3775  001CAA  6F61               	movwf	(USART_TxS@str+1)& (0+255),b
  3776  001CAC  0E00               	movlw	0
  3777  001CAE  6F63               	movwf	(USART_TxS@length+1)& (0+255),b
  3778  001CB0  0E03               	movlw	3
  3779  001CB2  6F62               	movwf	USART_TxS@length& (0+255),b
  3780  001CB4  EC6E  F010         	call	_USART_TxS	;wreg free
  3781  001CB8                     
  3782                           ;serial.c: 252:     Serial_RangosCoordenadas(CoordenadaX);
  3783  001CB8  C0CD  F060         	movff	_CoordenadaX,Serial_RangosCoordenadas@C
  3784  001CBC  C0CE  F061         	movff	_CoordenadaX+1,Serial_RangosCoordenadas@C+1
  3785  001CC0  EC77  F012         	call	_Serial_RangosCoordenadas	;wreg free
  3786  001CC4  0012               	return		;funcret
  3787  001CC6                     __end_of_Serial_Lectura_MemoriaX:
  3788                           	opt callstack 0
  3789                           
  3790 ;; *************** function _Serial_RangosCoordenadas *****************
  3791 ;; Defined at:
  3792 ;;		line 160 in file "serial.c"
  3793 ;; Parameters:    Size  Location     Type
  3794 ;;  C               2    0[BANK0 ] int 
  3795 ;; Auto vars:     Size  Location     Type
  3796 ;;		None
  3797 ;; Return value:  Size  Location     Type
  3798 ;;                  1    wreg      void 
  3799 ;; Registers used:
  3800 ;;		wreg, status,2, status,0
  3801 ;; Tracked objects:
  3802 ;;		On entry : 0/0
  3803 ;;		On exit  : 0/0
  3804 ;;		Unchanged: 0/0
  3805 ;; Data sizes:     COMRAM   BANK0   BANK1   BANK2   BANK3   BANK4   BANK5   BANK6   BANK7
  3806 ;;      Params:         0       2       0       0       0       0       0       0       0
  3807 ;;      Locals:         0       0       0       0       0       0       0       0       0
  3808 ;;      Temps:          0       0       0       0       0       0       0       0       0
  3809 ;;      Totals:         0       2       0       0       0       0       0       0       0
  3810 ;;Total ram usage:        2 bytes
  3811 ;; Hardware stack levels used:    1
  3812 ;; Hardware stack levels required when called:    5
  3813 ;; This function calls:
  3814 ;;		Nothing
  3815 ;; This function is called by:
  3816 ;;		_Serial_Oupcode
  3817 ;;		_Serial_Lectura_MemoriaX
  3818 ;;		_Serial_Lectura_MemoriaY
  3819 ;;		_Serial_Lectura_MemoriaZ
  3820 ;; This function uses a non-reentrant model
  3821 ;;
  3822                           
  3823                           	psect	text11
  3824  0024EE                     __ptext11:
  3825                           	opt callstack 0
  3826  0024EE                     _Serial_RangosCoordenadas:
  3827                           	opt callstack 24
  3828  0024EE                     
  3829                           ;serial.c: 161:     if (C > 300 || C < 0) {
  3830  0024EE  0100               	movlb	0	; () banked
  3831  0024F0  BF61               	btfsc	(Serial_RangosCoordenadas@C+1)& (0+255),7,b
  3832  0024F2  EF86  F012         	goto	u2970
  3833  0024F6  0E2D               	movlw	45
  3834  0024F8  5D60               	subwf	Serial_RangosCoordenadas@C& (0+255),w,b
  3835  0024FA  0E01               	movlw	1
  3836  0024FC  5961               	subwfb	(Serial_RangosCoordenadas@C+1)& (0+255),w,b
  3837  0024FE  B0D8               	btfsc	status,0,c
  3838  002500  EF84  F012         	goto	u2971
  3839  002504  EF86  F012         	goto	u2970
  3840  002508                     u2971:
  3841  002508  EF8D  F012         	goto	l4056
  3842  00250C                     u2970:
  3843  00250C                     
  3844                           ; BSR set to: 0
  3845  00250C  BF61               	btfsc	(Serial_RangosCoordenadas@C+1)& (0+255),7,b
  3846  00250E  EF8D  F012         	goto	u2980
  3847  002512  EF8B  F012         	goto	u2981
  3848  002516                     u2981:
  3849  002516  EF8F  F012         	goto	l444
  3850  00251A                     u2980:
  3851  00251A                     l4056:
  3852                           
  3853                           ; BSR set to: 0
  3854                           ;serial.c: 162:         Coordenadas_fuera = 1;
  3855  00251A  0E01               	movlw	1
  3856  00251C  6FB3               	movwf	_Coordenadas_fuera& (0+255),b
  3857  00251E                     l444:
  3858                           
  3859                           ; BSR set to: 0
  3860  00251E  0012               	return		;funcret
  3861  002520                     __end_of_Serial_RangosCoordenadas:
  3862                           	opt callstack 0
  3863                           
  3864 ;; *************** function _EEPROM_Rx *****************
  3865 ;; Defined at:
  3866 ;;		line 16 in file "EEPROM.c"
  3867 ;; Parameters:    Size  Location     Type
  3868 ;;  direccion       1    wreg     unsigned char 
  3869 ;; Auto vars:     Size  Location     Type
  3870 ;;  direccion       1    0[BANK0 ] unsigned char 
  3871 ;; Return value:  Size  Location     Type
  3872 ;;                  1    wreg      unsigned char 
  3873 ;; Registers used:
  3874 ;;		wreg, status,2
  3875 ;; Tracked objects:
  3876 ;;		On entry : 0/0
  3877 ;;		On exit  : 0/0
  3878 ;;		Unchanged: 0/0
  3879 ;; Data sizes:     COMRAM   BANK0   BANK1   BANK2   BANK3   BANK4   BANK5   BANK6   BANK7
  3880 ;;      Params:         0       0       0       0       0       0       0       0       0
  3881 ;;      Locals:         0       1       0       0       0       0       0       0       0
  3882 ;;      Temps:          0       0       0       0       0       0       0       0       0
  3883 ;;      Totals:         0       1       0       0       0       0       0       0       0
  3884 ;;Total ram usage:        1 bytes
  3885 ;; Hardware stack levels used:    1
  3886 ;; Hardware stack levels required when called:    5
  3887 ;; This function calls:
  3888 ;;		Nothing
  3889 ;; This function is called by:
  3890 ;;		_Serial_Lectura_MemoriaX
  3891 ;;		_Serial_Lectura_MemoriaY
  3892 ;;		_Serial_Lectura_MemoriaZ
  3893 ;; This function uses a non-reentrant model
  3894 ;;
  3895                           
  3896                           	psect	text12
  3897  00274E                     __ptext12:
  3898                           	opt callstack 0
  3899  00274E                     _EEPROM_Rx:
  3900                           	opt callstack 23
  3901                           
  3902                           ; BSR set to: 0
  3903                           ;incstack = 0
  3904                           ;EEPROM_Rx@direccion stored from wreg
  3905  00274E  0100               	movlb	0	; () banked
  3906  002750  6F60               	movwf	EEPROM_Rx@direccion& (0+255),b
  3907  002752                     
  3908                           ;EEPROM.c: 17:     EEADR=direccion;
  3909  002752  C060  FFA9         	movff	EEPROM_Rx@direccion,4009	;volatile
  3910  002756                     
  3911                           ;EEPROM.c: 18:     EECON1bits.EEPGD=0;
  3912  002756  9EA6               	bcf	166,7,c	;volsfr
  3913  002758                     
  3914                           ;EEPROM.c: 19:       EECON1bits.CFGS=0;
  3915  002758  9CA6               	bcf	166,6,c	;volsfr
  3916  00275A                     
  3917                           ;EEPROM.c: 20:       EECON1bits.RD=1;
  3918  00275A  80A6               	bsf	166,0,c	;volsfr
  3919  00275C                     
  3920                           ;EEPROM.c: 21:       data=EEDATA;
  3921  00275C  CFA8 F056          	movff	4008,_data	;volatile
  3922  002760                     
  3923                           ;EEPROM.c: 22:       return data;
  3924  002760  5056               	movf	_data^0,w,c
  3925  002762  0012               	return		;funcret
  3926  002764                     __end_of_EEPROM_Rx:
  3927                           	opt callstack 0
  3928                           
  3929 ;; *************** function _Serial_Escritura_Memoria *****************
  3930 ;; Defined at:
  3931 ;;		line 294 in file "serial.c"
  3932 ;; Parameters:    Size  Location     Type
  3933 ;;  direccion       1    wreg     unsigned char 
  3934 ;;  string_setpo    2    8[BANK0 ] PTR unsigned char 
  3935 ;;		 -> coordenada_setpoint(11), 
  3936 ;; Auto vars:     Size  Location     Type
  3937 ;;  direccion       1   12[BANK0 ] unsigned char 
  3938 ;;  i               2   18[BANK0 ] int 
  3939 ;;  i               2   16[BANK0 ] int 
  3940 ;;  i               2   14[BANK0 ] int 
  3941 ;;  direccionFin    1   13[BANK0 ] unsigned char 
  3942 ;; Return value:  Size  Location     Type
  3943 ;;                  1    wreg      void 
  3944 ;; Registers used:
  3945 ;;		wreg, fsr0l, fsr0h, fsr2l, fsr2h, status,2, status,0, tblptrl, tblptrh, tblptru, cstack
  3946 ;; Tracked objects:
  3947 ;;		On entry : 0/0
  3948 ;;		On exit  : 0/0
  3949 ;;		Unchanged: 0/0
  3950 ;; Data sizes:     COMRAM   BANK0   BANK1   BANK2   BANK3   BANK4   BANK5   BANK6   BANK7
  3951 ;;      Params:         0       2       0       0       0       0       0       0       0
  3952 ;;      Locals:         0       8       0       0       0       0       0       0       0
  3953 ;;      Temps:          0       2       0       0       0       0       0       0       0
  3954 ;;      Totals:         0      12       0       0       0       0       0       0       0
  3955 ;;Total ram usage:       12 bytes
  3956 ;; Hardware stack levels used:    1
  3957 ;; Hardware stack levels required when called:    6
  3958 ;; This function calls:
  3959 ;;		_EEPROM_Tx
  3960 ;;		_USART_TxS
  3961 ;; This function is called by:
  3962 ;;		_Serial_Oupcode
  3963 ;; This function uses a non-reentrant model
  3964 ;;
  3965                           
  3966                           	psect	text13
  3967  001564                     __ptext13:
  3968                           	opt callstack 0
  3969  001564                     _Serial_Escritura_Memoria:
  3970                           	opt callstack 23
  3971                           
  3972                           ;incstack = 0
  3973                           ;Serial_Escritura_Memoria@direccion stored from wreg
  3974  001564  0100               	movlb	0	; () banked
  3975  001566  6F6C               	movwf	Serial_Escritura_Memoria@direccion& (0+255),b
  3976  001568                     
  3977                           ;serial.c: 295:     char direccionFinal;;serial.c: 296:     for (int i = 0; i < 3; i++) 
      +                          {
  3978  001568  0E00               	movlw	0
  3979  00156A  0100               	movlb	0	; () banked
  3980  00156C  6F6F               	movwf	(Serial_Escritura_Memoria@i+1)& (0+255),b
  3981  00156E  0E00               	movlw	0
  3982  001570  6F6E               	movwf	Serial_Escritura_Memoria@i& (0+255),b
  3983  001572                     l4506:
  3984                           
  3985                           ; BSR set to: 0
  3986                           ;serial.c: 297:         direccionFinal = direccion + i;
  3987  001572  516C               	movf	Serial_Escritura_Memoria@direccion& (0+255),w,b
  3988  001574  256E               	addwf	Serial_Escritura_Memoria@i& (0+255),w,b
  3989  001576  6F6D               	movwf	Serial_Escritura_Memoria@direccionFinal& (0+255),b
  3990  001578                     
  3991                           ; BSR set to: 0
  3992                           ;serial.c: 298:         EEPROM_Tx(direccionFinal, string_setpoint[i]);
  3993  001578  516E               	movf	Serial_Escritura_Memoria@i& (0+255),w,b
  3994  00157A  2568               	addwf	Serial_Escritura_Memoria@string_setpoint& (0+255),w,b
  3995  00157C  6ED9               	movwf	fsr2l,c
  3996  00157E  516F               	movf	(Serial_Escritura_Memoria@i+1)& (0+255),w,b
  3997  001580  2169               	addwfc	(Serial_Escritura_Memoria@string_setpoint+1)& (0+255),w,b
  3998  001582  6EDA               	movwf	fsr2h,c
  3999  001584  50DF               	movf	indf2,w,c
  4000  001586  6F60               	movwf	EEPROM_Tx@dato& (0+255),b
  4001  001588  516D               	movf	Serial_Escritura_Memoria@direccionFinal& (0+255),w,b
  4002  00158A  EC5D  F012         	call	_EEPROM_Tx
  4003  00158E                     
  4004                           ;serial.c: 299:     }
  4005  00158E  0100               	movlb	0	; () banked
  4006  001590  4B6E               	infsnz	Serial_Escritura_Memoria@i& (0+255),f,b
  4007  001592  2B6F               	incf	(Serial_Escritura_Memoria@i+1)& (0+255),f,b
  4008  001594                     
  4009                           ; BSR set to: 0
  4010  001594  BF6F               	btfsc	(Serial_Escritura_Memoria@i+1)& (0+255),7,b
  4011  001596  EFD6  F00A         	goto	u3441
  4012  00159A  516F               	movf	(Serial_Escritura_Memoria@i+1)& (0+255),w,b
  4013  00159C  E109               	bnz	u3440
  4014  00159E  0E03               	movlw	3
  4015  0015A0  5D6E               	subwf	Serial_Escritura_Memoria@i& (0+255),w,b
  4016  0015A2  A0D8               	btfss	status,0,c
  4017  0015A4  EFD6  F00A         	goto	u3441
  4018  0015A8  EFD8  F00A         	goto	u3440
  4019  0015AC                     u3441:
  4020  0015AC  EFB9  F00A         	goto	l4506
  4021  0015B0                     u3440:
  4022  0015B0                     
  4023                           ; BSR set to: 0
  4024                           ;serial.c: 300:     USART_TxS("COORDINATE X SAVED\n", sizeof ("COORDINATE X SAVED\n") - 
      +                          1);
  4025  0015B0  0E68               	movlw	low STR_38
  4026  0015B2  6F60               	movwf	USART_TxS@str& (0+255),b
  4027  0015B4  0E7F               	movlw	high STR_38
  4028  0015B6  6F61               	movwf	(USART_TxS@str+1)& (0+255),b
  4029  0015B8  0E00               	movlw	0
  4030  0015BA  6F63               	movwf	(USART_TxS@length+1)& (0+255),b
  4031  0015BC  0E13               	movlw	19
  4032  0015BE  6F62               	movwf	USART_TxS@length& (0+255),b
  4033  0015C0  EC6E  F010         	call	_USART_TxS	;wreg free
  4034  0015C4                     
  4035                           ;serial.c: 301:     for (int i = 0; i < 3; i++) {
  4036  0015C4  0E00               	movlw	0
  4037  0015C6  0100               	movlb	0	; () banked
  4038  0015C8  6F71               	movwf	(Serial_Escritura_Memoria@i_1318+1)& (0+255),b
  4039  0015CA  0E00               	movlw	0
  4040  0015CC  6F70               	movwf	Serial_Escritura_Memoria@i_1318& (0+255),b
  4041  0015CE                     l4522:
  4042                           
  4043                           ; BSR set to: 0
  4044                           ;serial.c: 302:         direccionFinal = direccion + i + 3;
  4045  0015CE  516C               	movf	Serial_Escritura_Memoria@direccion& (0+255),w,b
  4046  0015D0  2570               	addwf	Serial_Escritura_Memoria@i_1318& (0+255),w,b
  4047  0015D2  0F03               	addlw	3
  4048  0015D4  6F6D               	movwf	Serial_Escritura_Memoria@direccionFinal& (0+255),b
  4049  0015D6                     
  4050                           ; BSR set to: 0
  4051                           ;serial.c: 303:         EEPROM_Tx(direccionFinal, string_setpoint[i + 4]);
  4052  0015D6  5170               	movf	Serial_Escritura_Memoria@i_1318& (0+255),w,b
  4053  0015D8  2568               	addwf	Serial_Escritura_Memoria@string_setpoint& (0+255),w,b
  4054  0015DA  6F6A               	movwf	??_Serial_Escritura_Memoria& (0+255),b
  4055  0015DC  5171               	movf	(Serial_Escritura_Memoria@i_1318+1)& (0+255),w,b
  4056  0015DE  2169               	addwfc	(Serial_Escritura_Memoria@string_setpoint+1)& (0+255),w,b
  4057  0015E0  6F6B               	movwf	(??_Serial_Escritura_Memoria+1)& (0+255),b
  4058  0015E2  0E04               	movlw	4
  4059  0015E4  256A               	addwf	??_Serial_Escritura_Memoria& (0+255),w,b
  4060  0015E6  6ED9               	movwf	fsr2l,c
  4061  0015E8  0E00               	movlw	0
  4062  0015EA  216B               	addwfc	(??_Serial_Escritura_Memoria+1)& (0+255),w,b
  4063  0015EC  6EDA               	movwf	fsr2h,c
  4064  0015EE  50DF               	movf	indf2,w,c
  4065  0015F0  6F60               	movwf	EEPROM_Tx@dato& (0+255),b
  4066  0015F2  516D               	movf	Serial_Escritura_Memoria@direccionFinal& (0+255),w,b
  4067  0015F4  EC5D  F012         	call	_EEPROM_Tx
  4068  0015F8                     
  4069                           ;serial.c: 304:     }
  4070  0015F8  0100               	movlb	0	; () banked
  4071  0015FA  4B70               	infsnz	Serial_Escritura_Memoria@i_1318& (0+255),f,b
  4072  0015FC  2B71               	incf	(Serial_Escritura_Memoria@i_1318+1)& (0+255),f,b
  4073  0015FE                     
  4074                           ; BSR set to: 0
  4075  0015FE  BF71               	btfsc	(Serial_Escritura_Memoria@i_1318+1)& (0+255),7,b
  4076  001600  EF0B  F00B         	goto	u3451
  4077  001604  5171               	movf	(Serial_Escritura_Memoria@i_1318+1)& (0+255),w,b
  4078  001606  E109               	bnz	u3450
  4079  001608  0E03               	movlw	3
  4080  00160A  5D70               	subwf	Serial_Escritura_Memoria@i_1318& (0+255),w,b
  4081  00160C  A0D8               	btfss	status,0,c
  4082  00160E  EF0B  F00B         	goto	u3451
  4083  001612  EF0D  F00B         	goto	u3450
  4084  001616                     u3451:
  4085  001616  EFE7  F00A         	goto	l4522
  4086  00161A                     u3450:
  4087  00161A                     
  4088                           ; BSR set to: 0
  4089                           ;serial.c: 305:     USART_TxS("COORDINATE Y SAVED\n", sizeof ("COORDINATE Y SAVED\n") - 
      +                          1);
  4090  00161A  0E7C               	movlw	low STR_39
  4091  00161C  6F60               	movwf	USART_TxS@str& (0+255),b
  4092  00161E  0E7F               	movlw	high STR_39
  4093  001620  6F61               	movwf	(USART_TxS@str+1)& (0+255),b
  4094  001622  0E00               	movlw	0
  4095  001624  6F63               	movwf	(USART_TxS@length+1)& (0+255),b
  4096  001626  0E13               	movlw	19
  4097  001628  6F62               	movwf	USART_TxS@length& (0+255),b
  4098  00162A  EC6E  F010         	call	_USART_TxS	;wreg free
  4099  00162E                     
  4100                           ;serial.c: 306:     for (int i = 0; i < 3; i++) {
  4101  00162E  0E00               	movlw	0
  4102  001630  0100               	movlb	0	; () banked
  4103  001632  6F73               	movwf	(Serial_Escritura_Memoria@i_1320+1)& (0+255),b
  4104  001634  0E00               	movlw	0
  4105  001636  6F72               	movwf	Serial_Escritura_Memoria@i_1320& (0+255),b
  4106  001638                     l4538:
  4107                           
  4108                           ; BSR set to: 0
  4109                           ;serial.c: 307:         direccionFinal = direccion + i + 6;
  4110  001638  516C               	movf	Serial_Escritura_Memoria@direccion& (0+255),w,b
  4111  00163A  2572               	addwf	Serial_Escritura_Memoria@i_1320& (0+255),w,b
  4112  00163C  0F06               	addlw	6
  4113  00163E  6F6D               	movwf	Serial_Escritura_Memoria@direccionFinal& (0+255),b
  4114  001640                     
  4115                           ; BSR set to: 0
  4116                           ;serial.c: 308:         EEPROM_Tx(direccionFinal, string_setpoint[i + 8]);
  4117  001640  5172               	movf	Serial_Escritura_Memoria@i_1320& (0+255),w,b
  4118  001642  2568               	addwf	Serial_Escritura_Memoria@string_setpoint& (0+255),w,b
  4119  001644  6F6A               	movwf	??_Serial_Escritura_Memoria& (0+255),b
  4120  001646  5173               	movf	(Serial_Escritura_Memoria@i_1320+1)& (0+255),w,b
  4121  001648  2169               	addwfc	(Serial_Escritura_Memoria@string_setpoint+1)& (0+255),w,b
  4122  00164A  6F6B               	movwf	(??_Serial_Escritura_Memoria+1)& (0+255),b
  4123  00164C  0E08               	movlw	8
  4124  00164E  256A               	addwf	??_Serial_Escritura_Memoria& (0+255),w,b
  4125  001650  6ED9               	movwf	fsr2l,c
  4126  001652  0E00               	movlw	0
  4127  001654  216B               	addwfc	(??_Serial_Escritura_Memoria+1)& (0+255),w,b
  4128  001656  6EDA               	movwf	fsr2h,c
  4129  001658  50DF               	movf	indf2,w,c
  4130  00165A  6F60               	movwf	EEPROM_Tx@dato& (0+255),b
  4131  00165C  516D               	movf	Serial_Escritura_Memoria@direccionFinal& (0+255),w,b
  4132  00165E  EC5D  F012         	call	_EEPROM_Tx
  4133  001662                     
  4134                           ;serial.c: 309:     }
  4135  001662  0100               	movlb	0	; () banked
  4136  001664  4B72               	infsnz	Serial_Escritura_Memoria@i_1320& (0+255),f,b
  4137  001666  2B73               	incf	(Serial_Escritura_Memoria@i_1320+1)& (0+255),f,b
  4138  001668                     
  4139                           ; BSR set to: 0
  4140  001668  BF73               	btfsc	(Serial_Escritura_Memoria@i_1320+1)& (0+255),7,b
  4141  00166A  EF40  F00B         	goto	u3461
  4142  00166E  5173               	movf	(Serial_Escritura_Memoria@i_1320+1)& (0+255),w,b
  4143  001670  E109               	bnz	u3460
  4144  001672  0E03               	movlw	3
  4145  001674  5D72               	subwf	Serial_Escritura_Memoria@i_1320& (0+255),w,b
  4146  001676  A0D8               	btfss	status,0,c
  4147  001678  EF40  F00B         	goto	u3461
  4148  00167C  EF42  F00B         	goto	u3460
  4149  001680                     u3461:
  4150  001680  EF1C  F00B         	goto	l4538
  4151  001684                     u3460:
  4152  001684                     
  4153                           ; BSR set to: 0
  4154                           ;serial.c: 310:     USART_TxS("COORDINATE Z SAVED\n", sizeof ("COORDINATE Z SAVED\n") - 
      +                          1);
  4155  001684  0E90               	movlw	low STR_40
  4156  001686  6F60               	movwf	USART_TxS@str& (0+255),b
  4157  001688  0E7F               	movlw	high STR_40
  4158  00168A  6F61               	movwf	(USART_TxS@str+1)& (0+255),b
  4159  00168C  0E00               	movlw	0
  4160  00168E  6F63               	movwf	(USART_TxS@length+1)& (0+255),b
  4161  001690  0E13               	movlw	19
  4162  001692  6F62               	movwf	USART_TxS@length& (0+255),b
  4163  001694  EC6E  F010         	call	_USART_TxS	;wreg free
  4164  001698  0012               	return		;funcret
  4165  00169A                     __end_of_Serial_Escritura_Memoria:
  4166                           	opt callstack 0
  4167                           
  4168 ;; *************** function _EEPROM_Tx *****************
  4169 ;; Defined at:
  4170 ;;		line 24 in file "EEPROM.c"
  4171 ;; Parameters:    Size  Location     Type
  4172 ;;  direccion       1    wreg     unsigned char 
  4173 ;;  dato            1    0[BANK0 ] unsigned char 
  4174 ;; Auto vars:     Size  Location     Type
  4175 ;;  direccion       1    1[BANK0 ] unsigned char 
  4176 ;; Return value:  Size  Location     Type
  4177 ;;                  1    wreg      void 
  4178 ;; Registers used:
  4179 ;;		wreg, status,2
  4180 ;; Tracked objects:
  4181 ;;		On entry : 0/0
  4182 ;;		On exit  : 0/0
  4183 ;;		Unchanged: 0/0
  4184 ;; Data sizes:     COMRAM   BANK0   BANK1   BANK2   BANK3   BANK4   BANK5   BANK6   BANK7
  4185 ;;      Params:         0       1       0       0       0       0       0       0       0
  4186 ;;      Locals:         0       1       0       0       0       0       0       0       0
  4187 ;;      Temps:          0       0       0       0       0       0       0       0       0
  4188 ;;      Totals:         0       2       0       0       0       0       0       0       0
  4189 ;;Total ram usage:        2 bytes
  4190 ;; Hardware stack levels used:    1
  4191 ;; Hardware stack levels required when called:    5
  4192 ;; This function calls:
  4193 ;;		Nothing
  4194 ;; This function is called by:
  4195 ;;		_Serial_Escritura_Memoria
  4196 ;; This function uses a non-reentrant model
  4197 ;;
  4198                           
  4199                           	psect	text14
  4200  0024BA                     __ptext14:
  4201                           	opt callstack 0
  4202  0024BA                     _EEPROM_Tx:
  4203                           	opt callstack 23
  4204                           
  4205                           ;incstack = 0
  4206                           ;EEPROM_Tx@direccion stored from wreg
  4207  0024BA  0100               	movlb	0	; () banked
  4208  0024BC  6F61               	movwf	EEPROM_Tx@direccion& (0+255),b
  4209  0024BE                     
  4210                           ;EEPROM.c: 25:     EEADR=direccion;
  4211  0024BE  C061  FFA9         	movff	EEPROM_Tx@direccion,4009	;volatile
  4212  0024C2                     
  4213                           ;EEPROM.c: 26:     EEDATA=dato;
  4214  0024C2  C060  FFA8         	movff	EEPROM_Tx@dato,4008	;volatile
  4215  0024C6                     
  4216                           ;EEPROM.c: 27:      EECON1bits.EEPGD=0;
  4217  0024C6  9EA6               	bcf	166,7,c	;volsfr
  4218  0024C8                     
  4219                           ;EEPROM.c: 28:       EECON1bits.CFGS=0;
  4220  0024C8  9CA6               	bcf	166,6,c	;volsfr
  4221  0024CA                     
  4222                           ;EEPROM.c: 29:       EECON1bits.WREN=1;
  4223  0024CA  84A6               	bsf	166,2,c	;volsfr
  4224  0024CC                     
  4225                           ;EEPROM.c: 30:       INTCONbits.GIE=0;
  4226  0024CC  9EF2               	bcf	242,7,c	;volatile
  4227  0024CE                     
  4228                           ;EEPROM.c: 32:       EECON2=0x55;
  4229  0024CE  0E55               	movlw	85
  4230  0024D0  6EA7               	movwf	167,c	;volsfr
  4231  0024D2                     
  4232                           ;EEPROM.c: 33:       EECON2=0x0AA;
  4233  0024D2  0EAA               	movlw	170
  4234  0024D4  6EA7               	movwf	167,c	;volsfr
  4235  0024D6                     
  4236                           ;EEPROM.c: 34:       EECON1bits.WR=1;
  4237  0024D6  82A6               	bsf	166,1,c	;volsfr
  4238  0024D8                     
  4239                           ;EEPROM.c: 35:       INTCONbits.GIE=1;
  4240  0024D8  8EF2               	bsf	242,7,c	;volatile
  4241  0024DA                     l287:
  4242  0024DA  A8A1               	btfss	161,4,c	;volatile
  4243  0024DC  EF72  F012         	goto	u2961
  4244  0024E0  EF74  F012         	goto	u2960
  4245  0024E4                     u2961:
  4246  0024E4  EF6D  F012         	goto	l287
  4247  0024E8                     u2960:
  4248  0024E8                     
  4249                           ;EEPROM.c: 37:       PIR2bits.EEIF=0;
  4250  0024E8  98A1               	bcf	161,4,c	;volatile
  4251                           
  4252                           ;EEPROM.c: 38:       EECON1bits.WREN=0 ;
  4253  0024EA  94A6               	bcf	166,2,c	;volsfr
  4254  0024EC  0012               	return		;funcret
  4255  0024EE                     __end_of_EEPROM_Tx:
  4256                           	opt callstack 0
  4257                           
  4258 ;; *************** function _Serial_DecodificacionY *****************
  4259 ;; Defined at:
  4260 ;;		line 133 in file "serial.c"
  4261 ;; Parameters:    Size  Location     Type
  4262 ;;  string_coord    2   22[BANK0 ] PTR unsigned char 
  4263 ;;		 -> coordenada_array(7), 
  4264 ;;  pointerCY       2   24[BANK0 ] PTR int 
  4265 ;;		 -> CoordenadaY(2), 
  4266 ;; Auto vars:     Size  Location     Type
  4267 ;;  i               2   33[BANK0 ] int 
  4268 ;;  i               2   31[BANK0 ] int 
  4269 ;;  coordenadaY     3   28[BANK0 ] unsigned char [3]
  4270 ;; Return value:  Size  Location     Type
  4271 ;;                  1    wreg      void 
  4272 ;; Registers used:
  4273 ;;		wreg, fsr1l, fsr1h, fsr2l, fsr2h, status,2, status,0, prodl, prodh, cstack
  4274 ;; Tracked objects:
  4275 ;;		On entry : 0/0
  4276 ;;		On exit  : 0/0
  4277 ;;		Unchanged: 0/0
  4278 ;; Data sizes:     COMRAM   BANK0   BANK1   BANK2   BANK3   BANK4   BANK5   BANK6   BANK7
  4279 ;;      Params:         0       4       0       0       0       0       0       0       0
  4280 ;;      Locals:         0       7       0       0       0       0       0       0       0
  4281 ;;      Temps:          0       2       0       0       0       0       0       0       0
  4282 ;;      Totals:         0      13       0       0       0       0       0       0       0
  4283 ;;Total ram usage:       13 bytes
  4284 ;; Hardware stack levels used:    1
  4285 ;; Hardware stack levels required when called:    7
  4286 ;; This function calls:
  4287 ;;		_atoi
  4288 ;; This function is called by:
  4289 ;;		_Serial_Oupcode
  4290 ;; This function uses a non-reentrant model
  4291 ;;
  4292                           
  4293                           	psect	text15
  4294  001CC6                     __ptext15:
  4295                           	opt callstack 0
  4296  001CC6                     _Serial_DecodificacionY:
  4297                           	opt callstack 22
  4298  001CC6                     
  4299                           ;serial.c: 134:    char coordenadaY[3];;serial.c: 135:     for (int i = 0; i < 3; i++) {
  4300  001CC6  0E00               	movlw	0
  4301  001CC8  0100               	movlb	0	; () banked
  4302  001CCA  6F80               	movwf	(Serial_DecodificacionY@i+1)& (0+255),b
  4303  001CCC  0E00               	movlw	0
  4304  001CCE  6F7F               	movwf	Serial_DecodificacionY@i& (0+255),b
  4305  001CD0                     l4256:
  4306                           
  4307                           ; BSR set to: 0
  4308                           ;serial.c: 136:         coordenadaY[i] = string_coordenada[4 + i];
  4309  001CD0  517F               	movf	Serial_DecodificacionY@i& (0+255),w,b
  4310  001CD2  2576               	addwf	Serial_DecodificacionY@string_coordenada& (0+255),w,b
  4311  001CD4  6F7A               	movwf	??_Serial_DecodificacionY& (0+255),b
  4312  001CD6  5180               	movf	(Serial_DecodificacionY@i+1)& (0+255),w,b
  4313  001CD8  2177               	addwfc	(Serial_DecodificacionY@string_coordenada+1)& (0+255),w,b
  4314  001CDA  6F7B               	movwf	(??_Serial_DecodificacionY+1)& (0+255),b
  4315  001CDC  0E04               	movlw	4
  4316  001CDE  257A               	addwf	??_Serial_DecodificacionY& (0+255),w,b
  4317  001CE0  6ED9               	movwf	fsr2l,c
  4318  001CE2  0E00               	movlw	0
  4319  001CE4  217B               	addwfc	(??_Serial_DecodificacionY+1)& (0+255),w,b
  4320  001CE6  6EDA               	movwf	fsr2h,c
  4321  001CE8  0E7C               	movlw	low Serial_DecodificacionY@coordenadaY
  4322  001CEA  257F               	addwf	Serial_DecodificacionY@i& (0+255),w,b
  4323  001CEC  6EE1               	movwf	fsr1l,c
  4324  001CEE  0E00               	movlw	high Serial_DecodificacionY@coordenadaY
  4325  001CF0  2180               	addwfc	(Serial_DecodificacionY@i+1)& (0+255),w,b
  4326  001CF2  6EE2               	movwf	fsr1h,c
  4327  001CF4  CFDF FFE7          	movff	indf2,indf1
  4328  001CF8                     
  4329                           ; BSR set to: 0
  4330                           ;serial.c: 137:     }
  4331  001CF8  4B7F               	infsnz	Serial_DecodificacionY@i& (0+255),f,b
  4332  001CFA  2B80               	incf	(Serial_DecodificacionY@i+1)& (0+255),f,b
  4333  001CFC                     
  4334                           ; BSR set to: 0
  4335  001CFC  BF80               	btfsc	(Serial_DecodificacionY@i+1)& (0+255),7,b
  4336  001CFE  EF8A  F00E         	goto	u3281
  4337  001D02  5180               	movf	(Serial_DecodificacionY@i+1)& (0+255),w,b
  4338  001D04  E109               	bnz	u3280
  4339  001D06  0E03               	movlw	3
  4340  001D08  5D7F               	subwf	Serial_DecodificacionY@i& (0+255),w,b
  4341  001D0A  A0D8               	btfss	status,0,c
  4342  001D0C  EF8A  F00E         	goto	u3281
  4343  001D10  EF8C  F00E         	goto	u3280
  4344  001D14                     u3281:
  4345  001D14  EF68  F00E         	goto	l4256
  4346  001D18                     u3280:
  4347  001D18                     
  4348                           ; BSR set to: 0
  4349                           ;serial.c: 138:    for (int i=0;i<3;i++){
  4350  001D18  0E00               	movlw	0
  4351  001D1A  6F82               	movwf	(Serial_DecodificacionY@i_1259+1)& (0+255),b
  4352  001D1C  0E00               	movlw	0
  4353  001D1E  6F81               	movwf	Serial_DecodificacionY@i_1259& (0+255),b
  4354  001D20                     l4268:
  4355                           
  4356                           ; BSR set to: 0
  4357                           ;serial.c: 139:     if (!(coordenadaY[i] >= 48 && coordenadaY[i] <= 57)) {
  4358  001D20  0E7C               	movlw	low Serial_DecodificacionY@coordenadaY
  4359  001D22  2581               	addwf	Serial_DecodificacionY@i_1259& (0+255),w,b
  4360  001D24  6ED9               	movwf	fsr2l,c
  4361  001D26  0E00               	movlw	high Serial_DecodificacionY@coordenadaY
  4362  001D28  2182               	addwfc	(Serial_DecodificacionY@i_1259+1)& (0+255),w,b
  4363  001D2A  6EDA               	movwf	fsr2h,c
  4364  001D2C  0E2F               	movlw	47
  4365  001D2E  64DF               	cpfsgt	indf2,c
  4366  001D30  EF9C  F00E         	goto	u3291
  4367  001D34  EF9E  F00E         	goto	u3290
  4368  001D38                     u3291:
  4369  001D38  EFAC  F00E         	goto	l4272
  4370  001D3C                     u3290:
  4371  001D3C                     
  4372                           ; BSR set to: 0
  4373  001D3C  0E7C               	movlw	low Serial_DecodificacionY@coordenadaY
  4374  001D3E  2581               	addwf	Serial_DecodificacionY@i_1259& (0+255),w,b
  4375  001D40  6ED9               	movwf	fsr2l,c
  4376  001D42  0E00               	movlw	high Serial_DecodificacionY@coordenadaY
  4377  001D44  2182               	addwfc	(Serial_DecodificacionY@i_1259+1)& (0+255),w,b
  4378  001D46  6EDA               	movwf	fsr2h,c
  4379  001D48  0E39               	movlw	57
  4380  001D4A  64DF               	cpfsgt	indf2,c
  4381  001D4C  EFAA  F00E         	goto	u3301
  4382  001D50  EFAC  F00E         	goto	u3300
  4383  001D54                     u3301:
  4384  001D54  EFAE  F00E         	goto	l4274
  4385  001D58                     u3300:
  4386  001D58                     l4272:
  4387                           
  4388                           ; BSR set to: 0
  4389                           ;serial.c: 140:         Coordenadas_mal = 1;
  4390  001D58  0E01               	movlw	1
  4391  001D5A  6FB2               	movwf	_Coordenadas_mal& (0+255),b
  4392  001D5C                     l4274:
  4393                           
  4394                           ; BSR set to: 0
  4395                           ;serial.c: 142:     }
  4396  001D5C  4B81               	infsnz	Serial_DecodificacionY@i_1259& (0+255),f,b
  4397  001D5E  2B82               	incf	(Serial_DecodificacionY@i_1259+1)& (0+255),f,b
  4398  001D60                     
  4399                           ; BSR set to: 0
  4400  001D60  BF82               	btfsc	(Serial_DecodificacionY@i_1259+1)& (0+255),7,b
  4401  001D62  EFBC  F00E         	goto	u3311
  4402  001D66  5182               	movf	(Serial_DecodificacionY@i_1259+1)& (0+255),w,b
  4403  001D68  E109               	bnz	u3310
  4404  001D6A  0E03               	movlw	3
  4405  001D6C  5D81               	subwf	Serial_DecodificacionY@i_1259& (0+255),w,b
  4406  001D6E  A0D8               	btfss	status,0,c
  4407  001D70  EFBC  F00E         	goto	u3311
  4408  001D74  EFBE  F00E         	goto	u3310
  4409  001D78                     u3311:
  4410  001D78  EF90  F00E         	goto	l4268
  4411  001D7C                     u3310:
  4412  001D7C                     
  4413                           ; BSR set to: 0
  4414                           ;serial.c: 143:     *pointerCY = atoi(coordenadaY);
  4415  001D7C  0E7C               	movlw	low Serial_DecodificacionY@coordenadaY
  4416  001D7E  6F67               	movwf	atoi@s& (0+255),b
  4417  001D80  0E00               	movlw	high Serial_DecodificacionY@coordenadaY
  4418  001D82  6F68               	movwf	(atoi@s+1)& (0+255),b
  4419  001D84  EC95  F008         	call	_atoi	;wreg free
  4420  001D88  C078  FFD9         	movff	Serial_DecodificacionY@pointerCY,fsr2l
  4421  001D8C  C079  FFDA         	movff	Serial_DecodificacionY@pointerCY+1,fsr2h
  4422  001D90  0100               	movlb	0	; () banked
  4423  001D92  C067  FFDE         	movff	?_atoi,postinc2
  4424  001D96  C068  FFDD         	movff	?_atoi+1,postdec2
  4425  001D9A                     
  4426                           ; BSR set to: 0
  4427  001D9A  0012               	return		;funcret
  4428  001D9C                     __end_of_Serial_DecodificacionY:
  4429                           	opt callstack 0
  4430                           
  4431 ;; *************** function _Serial_DecodificacionX *****************
  4432 ;; Defined at:
  4433 ;;		line 119 in file "serial.c"
  4434 ;; Parameters:    Size  Location     Type
  4435 ;;  string_coord    2   22[BANK0 ] PTR unsigned char 
  4436 ;;		 -> coordenada_array(7), 
  4437 ;;  pointerCX       2   24[BANK0 ] PTR int 
  4438 ;;		 -> CoordenadaX(2), 
  4439 ;; Auto vars:     Size  Location     Type
  4440 ;;  i               2   32[BANK0 ] int 
  4441 ;;  i               2   30[BANK0 ] int 
  4442 ;;  coordenadaX     3   27[BANK0 ] unsigned char [3]
  4443 ;; Return value:  Size  Location     Type
  4444 ;;                  1    wreg      void 
  4445 ;; Registers used:
  4446 ;;		wreg, fsr1l, fsr1h, fsr2l, fsr2h, status,2, status,0, prodl, prodh, cstack
  4447 ;; Tracked objects:
  4448 ;;		On entry : 0/0
  4449 ;;		On exit  : 0/0
  4450 ;;		Unchanged: 0/0
  4451 ;; Data sizes:     COMRAM   BANK0   BANK1   BANK2   BANK3   BANK4   BANK5   BANK6   BANK7
  4452 ;;      Params:         0       4       0       0       0       0       0       0       0
  4453 ;;      Locals:         0       7       0       0       0       0       0       0       0
  4454 ;;      Temps:          0       1       0       0       0       0       0       0       0
  4455 ;;      Totals:         0      12       0       0       0       0       0       0       0
  4456 ;;Total ram usage:       12 bytes
  4457 ;; Hardware stack levels used:    1
  4458 ;; Hardware stack levels required when called:    7
  4459 ;; This function calls:
  4460 ;;		_atoi
  4461 ;; This function is called by:
  4462 ;;		_Serial_Oupcode
  4463 ;; This function uses a non-reentrant model
  4464 ;;
  4465                           
  4466                           	psect	text16
  4467  001D9C                     __ptext16:
  4468                           	opt callstack 0
  4469  001D9C                     _Serial_DecodificacionX:
  4470                           	opt callstack 22
  4471  001D9C                     
  4472                           ;serial.c: 120:     char coordenadaX[3];;serial.c: 121:     for (int i = 0; i < 3; i++) 
      +                          {
  4473  001D9C  0E00               	movlw	0
  4474  001D9E  0100               	movlb	0	; () banked
  4475  001DA0  6F7F               	movwf	(Serial_DecodificacionX@i+1)& (0+255),b
  4476  001DA2  0E00               	movlw	0
  4477  001DA4  6F7E               	movwf	Serial_DecodificacionX@i& (0+255),b
  4478  001DA6                     l4224:
  4479                           
  4480                           ; BSR set to: 0
  4481                           ;serial.c: 122:         coordenadaX[i] = string_coordenada[i];
  4482  001DA6  517E               	movf	Serial_DecodificacionX@i& (0+255),w,b
  4483  001DA8  2576               	addwf	Serial_DecodificacionX@string_coordenada& (0+255),w,b
  4484  001DAA  6ED9               	movwf	fsr2l,c
  4485  001DAC  517F               	movf	(Serial_DecodificacionX@i+1)& (0+255),w,b
  4486  001DAE  2177               	addwfc	(Serial_DecodificacionX@string_coordenada+1)& (0+255),w,b
  4487  001DB0  6EDA               	movwf	fsr2h,c
  4488  001DB2  0E7B               	movlw	low Serial_DecodificacionX@coordenadaX
  4489  001DB4  257E               	addwf	Serial_DecodificacionX@i& (0+255),w,b
  4490  001DB6  6EE1               	movwf	fsr1l,c
  4491  001DB8  0E00               	movlw	high Serial_DecodificacionX@coordenadaX
  4492  001DBA  217F               	addwfc	(Serial_DecodificacionX@i+1)& (0+255),w,b
  4493  001DBC  6EE2               	movwf	fsr1h,c
  4494  001DBE  CFDF FFE7          	movff	indf2,indf1
  4495  001DC2                     
  4496                           ; BSR set to: 0
  4497                           ;serial.c: 123:     }
  4498  001DC2  4B7E               	infsnz	Serial_DecodificacionX@i& (0+255),f,b
  4499  001DC4  2B7F               	incf	(Serial_DecodificacionX@i+1)& (0+255),f,b
  4500  001DC6                     
  4501                           ; BSR set to: 0
  4502  001DC6  BF7F               	btfsc	(Serial_DecodificacionX@i+1)& (0+255),7,b
  4503  001DC8  EFEF  F00E         	goto	u3241
  4504  001DCC  517F               	movf	(Serial_DecodificacionX@i+1)& (0+255),w,b
  4505  001DCE  E109               	bnz	u3240
  4506  001DD0  0E03               	movlw	3
  4507  001DD2  5D7E               	subwf	Serial_DecodificacionX@i& (0+255),w,b
  4508  001DD4  A0D8               	btfss	status,0,c
  4509  001DD6  EFEF  F00E         	goto	u3241
  4510  001DDA  EFF1  F00E         	goto	u3240
  4511  001DDE                     u3241:
  4512  001DDE  EFD3  F00E         	goto	l4224
  4513  001DE2                     u3240:
  4514  001DE2                     
  4515                           ; BSR set to: 0
  4516                           ;serial.c: 124:     for (int i=0;i<3;i++){
  4517  001DE2  0E00               	movlw	0
  4518  001DE4  6F81               	movwf	(Serial_DecodificacionX@i_1253+1)& (0+255),b
  4519  001DE6  0E00               	movlw	0
  4520  001DE8  6F80               	movwf	Serial_DecodificacionX@i_1253& (0+255),b
  4521  001DEA                     l4236:
  4522                           
  4523                           ; BSR set to: 0
  4524                           ;serial.c: 125:     if (!(coordenadaX[i] >= 48 && coordenadaX[i] <= 57)) {
  4525  001DEA  0E7B               	movlw	low Serial_DecodificacionX@coordenadaX
  4526  001DEC  2580               	addwf	Serial_DecodificacionX@i_1253& (0+255),w,b
  4527  001DEE  6ED9               	movwf	fsr2l,c
  4528  001DF0  0E00               	movlw	high Serial_DecodificacionX@coordenadaX
  4529  001DF2  2181               	addwfc	(Serial_DecodificacionX@i_1253+1)& (0+255),w,b
  4530  001DF4  6EDA               	movwf	fsr2h,c
  4531  001DF6  0E2F               	movlw	47
  4532  001DF8  64DF               	cpfsgt	indf2,c
  4533  001DFA  EF01  F00F         	goto	u3251
  4534  001DFE  EF03  F00F         	goto	u3250
  4535  001E02                     u3251:
  4536  001E02  EF11  F00F         	goto	l4240
  4537  001E06                     u3250:
  4538  001E06                     
  4539                           ; BSR set to: 0
  4540  001E06  0E7B               	movlw	low Serial_DecodificacionX@coordenadaX
  4541  001E08  2580               	addwf	Serial_DecodificacionX@i_1253& (0+255),w,b
  4542  001E0A  6ED9               	movwf	fsr2l,c
  4543  001E0C  0E00               	movlw	high Serial_DecodificacionX@coordenadaX
  4544  001E0E  2181               	addwfc	(Serial_DecodificacionX@i_1253+1)& (0+255),w,b
  4545  001E10  6EDA               	movwf	fsr2h,c
  4546  001E12  0E39               	movlw	57
  4547  001E14  64DF               	cpfsgt	indf2,c
  4548  001E16  EF0F  F00F         	goto	u3261
  4549  001E1A  EF11  F00F         	goto	u3260
  4550  001E1E                     u3261:
  4551  001E1E  EF13  F00F         	goto	l4242
  4552  001E22                     u3260:
  4553  001E22                     l4240:
  4554                           
  4555                           ; BSR set to: 0
  4556                           ;serial.c: 126:         Coordenadas_mal = 1;
  4557  001E22  0E01               	movlw	1
  4558  001E24  6FB2               	movwf	_Coordenadas_mal& (0+255),b
  4559  001E26                     l4242:
  4560                           
  4561                           ; BSR set to: 0
  4562                           ;serial.c: 128:     }
  4563  001E26  4B80               	infsnz	Serial_DecodificacionX@i_1253& (0+255),f,b
  4564  001E28  2B81               	incf	(Serial_DecodificacionX@i_1253+1)& (0+255),f,b
  4565  001E2A                     
  4566                           ; BSR set to: 0
  4567  001E2A  BF81               	btfsc	(Serial_DecodificacionX@i_1253+1)& (0+255),7,b
  4568  001E2C  EF21  F00F         	goto	u3271
  4569  001E30  5181               	movf	(Serial_DecodificacionX@i_1253+1)& (0+255),w,b
  4570  001E32  E109               	bnz	u3270
  4571  001E34  0E03               	movlw	3
  4572  001E36  5D80               	subwf	Serial_DecodificacionX@i_1253& (0+255),w,b
  4573  001E38  A0D8               	btfss	status,0,c
  4574  001E3A  EF21  F00F         	goto	u3271
  4575  001E3E  EF23  F00F         	goto	u3270
  4576  001E42                     u3271:
  4577  001E42  EFF5  F00E         	goto	l4236
  4578  001E46                     u3270:
  4579  001E46                     
  4580                           ; BSR set to: 0
  4581                           ;serial.c: 129:     *pointerCX = atoi(coordenadaX);
  4582  001E46  0E7B               	movlw	low Serial_DecodificacionX@coordenadaX
  4583  001E48  6F67               	movwf	atoi@s& (0+255),b
  4584  001E4A  0E00               	movlw	high Serial_DecodificacionX@coordenadaX
  4585  001E4C  6F68               	movwf	(atoi@s+1)& (0+255),b
  4586  001E4E  EC95  F008         	call	_atoi	;wreg free
  4587  001E52  C078  FFD9         	movff	Serial_DecodificacionX@pointerCX,fsr2l
  4588  001E56  C079  FFDA         	movff	Serial_DecodificacionX@pointerCX+1,fsr2h
  4589  001E5A  0100               	movlb	0	; () banked
  4590  001E5C  C067  FFDE         	movff	?_atoi,postinc2
  4591  001E60  C068  FFDD         	movff	?_atoi+1,postdec2
  4592  001E64                     
  4593                           ; BSR set to: 0
  4594  001E64  0012               	return		;funcret
  4595  001E66                     __end_of_Serial_DecodificacionX:
  4596                           	opt callstack 0
  4597                           
  4598 ;; *************** function _atoi *****************
  4599 ;; Defined at:
  4600 ;;		line 4 in file "C:\Program Files (x86)\Microchip\xc8\v2.10\pic\sources\c99\common\atoi.c"
  4601 ;; Parameters:    Size  Location     Type
  4602 ;;  s               2    7[BANK0 ] PTR const unsigned char 
  4603 ;;		 -> Serial_Lectura_MemoriaZ@coordenadaZ(3), Serial_Lectura_MemoriaY@coordenadaY(3), Serial_Lectura_MemoriaX@coordena
      +daX(3), Serial_DecodificacionZ@coordenadaZ(3), 
  4604 ;;		 -> Serial_DecodificacionY@coordenadaY(3), Serial_DecodificacionX@coordenadaX(3), 
  4605 ;; Auto vars:     Size  Location     Type
  4606 ;;  n               2   20[BANK0 ] int 
  4607 ;;  neg             2   13[BANK0 ] int 
  4608 ;; Return value:  Size  Location     Type
  4609 ;;                  2    7[BANK0 ] int 
  4610 ;; Registers used:
  4611 ;;		wreg, fsr2l, fsr2h, status,2, status,0, prodl, prodh, cstack
  4612 ;; Tracked objects:
  4613 ;;		On entry : 0/0
  4614 ;;		On exit  : 0/0
  4615 ;;		Unchanged: 0/0
  4616 ;; Data sizes:     COMRAM   BANK0   BANK1   BANK2   BANK3   BANK4   BANK5   BANK6   BANK7
  4617 ;;      Params:         0       2       0       0       0       0       0       0       0
  4618 ;;      Locals:         0       9       0       0       0       0       0       0       0
  4619 ;;      Temps:          0       4       0       0       0       0       0       0       0
  4620 ;;      Totals:         0      15       0       0       0       0       0       0       0
  4621 ;;Total ram usage:       15 bytes
  4622 ;; Hardware stack levels used:    1
  4623 ;; Hardware stack levels required when called:    6
  4624 ;; This function calls:
  4625 ;;		___wmul
  4626 ;;		_isdigit
  4627 ;;		_isspace
  4628 ;; This function is called by:
  4629 ;;		_Serial_DecodificacionX
  4630 ;;		_Serial_DecodificacionY
  4631 ;;		_Serial_Lectura_MemoriaX
  4632 ;;		_Serial_Lectura_MemoriaY
  4633 ;;		_Serial_Lectura_MemoriaZ
  4634 ;;		_Serial_DecodificacionZ
  4635 ;; This function uses a non-reentrant model
  4636 ;;
  4637                           
  4638                           	psect	text17
  4639  00112A                     __ptext17:
  4640                           	opt callstack 0
  4641  00112A                     _atoi:
  4642                           	opt callstack 22
  4643  00112A  0E00               	movlw	0
  4644  00112C  0100               	movlb	0	; () banked
  4645  00112E  6F75               	movwf	(atoi@n+1)& (0+255),b
  4646  001130  0E00               	movlw	0
  4647  001132  6F74               	movwf	atoi@n& (0+255),b
  4648  001134  0E00               	movlw	0
  4649  001136  6F6E               	movwf	(atoi@neg+1)& (0+255),b
  4650  001138  0E00               	movlw	0
  4651  00113A  6F6D               	movwf	atoi@neg& (0+255),b
  4652  00113C  EFA2  F008         	goto	l4064
  4653  001140                     l4062:
  4654                           
  4655                           ; BSR set to: 0
  4656  001140  4B67               	infsnz	atoi@s& (0+255),f,b
  4657  001142  2B68               	incf	(atoi@s+1)& (0+255),f,b
  4658  001144                     l4064:
  4659                           
  4660                           ; BSR set to: 0
  4661  001144  0E01               	movlw	1
  4662  001146  6F73               	movwf	_atoi$2382& (0+255),b
  4663  001148                     
  4664                           ; BSR set to: 0
  4665  001148  C067  FFD9         	movff	atoi@s,fsr2l
  4666  00114C  C068  FFDA         	movff	atoi@s+1,fsr2h
  4667  001150  0E20               	movlw	32
  4668  001152  18DE               	xorwf	postinc2,w,c
  4669  001154  B4D8               	btfsc	status,2,c
  4670  001156  EFAF  F008         	goto	u2991
  4671  00115A  EFB1  F008         	goto	u2990
  4672  00115E                     u2991:
  4673  00115E  EFCD  F008         	goto	l4072
  4674  001162                     u2990:
  4675  001162                     
  4676                           ; BSR set to: 0
  4677  001162  0EF7               	movlw	247
  4678  001164  6F69               	movwf	??_atoi& (0+255),b
  4679  001166  0EFF               	movlw	255
  4680  001168  6F6A               	movwf	(??_atoi+1)& (0+255),b
  4681  00116A  C067  FFD9         	movff	atoi@s,fsr2l
  4682  00116E  C068  FFDA         	movff	atoi@s+1,fsr2h
  4683  001172  50DF               	movf	indf2,w,c
  4684  001174  6F6B               	movwf	(??_atoi+2)& (0+255),b
  4685  001176  6B6C               	clrf	(??_atoi+3)& (0+255),b
  4686  001178  5169               	movf	??_atoi& (0+255),w,b
  4687  00117A  276B               	addwf	(??_atoi+2)& (0+255),f,b
  4688  00117C  516A               	movf	(??_atoi+1)& (0+255),w,b
  4689  00117E  236C               	addwfc	(??_atoi+3)& (0+255),f,b
  4690  001180  516C               	movf	(??_atoi+3)& (0+255),w,b
  4691  001182  E109               	bnz	u3000
  4692  001184  0E05               	movlw	5
  4693  001186  5D6B               	subwf	(??_atoi+2)& (0+255),w,b
  4694  001188  A0D8               	btfss	status,0,c
  4695  00118A  EFC9  F008         	goto	u3001
  4696  00118E  EFCB  F008         	goto	u3000
  4697  001192                     u3001:
  4698  001192  EFCD  F008         	goto	l4072
  4699  001196                     u3000:
  4700  001196                     
  4701                           ; BSR set to: 0
  4702  001196  0E00               	movlw	0
  4703  001198  6F73               	movwf	_atoi$2382& (0+255),b
  4704  00119A                     l4072:
  4705                           
  4706                           ; BSR set to: 0
  4707  00119A  C073  F06F         	movff	_atoi$2382,_atoi$2381
  4708  00119E  6B70               	clrf	(_atoi$2381+1)& (0+255),b
  4709  0011A0                     
  4710                           ; BSR set to: 0
  4711  0011A0  516F               	movf	_atoi$2381& (0+255),w,b
  4712  0011A2  1170               	iorwf	(_atoi$2381+1)& (0+255),w,b
  4713  0011A4  A4D8               	btfss	status,2,c
  4714  0011A6  EFD7  F008         	goto	u3011
  4715  0011AA  EFD9  F008         	goto	u3010
  4716  0011AE                     u3011:
  4717  0011AE  EFA0  F008         	goto	l4062
  4718  0011B2                     u3010:
  4719  0011B2  EFE3  F008         	goto	l4082
  4720  0011B6                     l4078:
  4721                           
  4722                           ; BSR set to: 0
  4723  0011B6  0E00               	movlw	0
  4724  0011B8  6F6E               	movwf	(atoi@neg+1)& (0+255),b
  4725  0011BA  0E01               	movlw	1
  4726  0011BC  6F6D               	movwf	atoi@neg& (0+255),b
  4727  0011BE                     l4080:
  4728                           
  4729                           ; BSR set to: 0
  4730  0011BE  4B67               	infsnz	atoi@s& (0+255),f,b
  4731  0011C0  2B68               	incf	(atoi@s+1)& (0+255),f,b
  4732  0011C2  EF19  F009         	goto	l4088
  4733  0011C6                     l4082:
  4734                           
  4735                           ; BSR set to: 0
  4736  0011C6  C067  FFD9         	movff	atoi@s,fsr2l
  4737  0011CA  C068  FFDA         	movff	atoi@s+1,fsr2h
  4738  0011CE  50DF               	movf	indf2,w,c
  4739  0011D0  6F69               	movwf	??_atoi& (0+255),b
  4740  0011D2  6B6A               	clrf	(??_atoi+1)& (0+255),b
  4741                           
  4742                           ; Switch on 2 bytes has been partitioned into a top level switch of size 1, and 1 sub-sw
      +                          itches
  4743                           ; Switch size 1, requested type "simple"
  4744                           ; Number of cases is 1, Range of values is 0 to 0
  4745                           ; switch strategies available:
  4746                           ; Name         Instructions Cycles
  4747                           ; simple_byte            4     3 (average)
  4748                           ;	Chosen strategy is simple_byte
  4749  0011D4  516A               	movf	(??_atoi+1)& (0+255),w,b
  4750  0011D6  0A00               	xorlw	0	; case 0
  4751  0011D8  B4D8               	btfsc	status,2,c
  4752  0011DA  EFF1  F008         	goto	l5948
  4753  0011DE  EF19  F009         	goto	l4088
  4754  0011E2                     l5948:
  4755                           
  4756                           ; BSR set to: 0
  4757                           ; Switch size 1, requested type "simple"
  4758                           ; Number of cases is 2, Range of values is 43 to 45
  4759                           ; switch strategies available:
  4760                           ; Name         Instructions Cycles
  4761                           ; simple_byte            7     4 (average)
  4762                           ;	Chosen strategy is simple_byte
  4763  0011E2  5169               	movf	??_atoi& (0+255),w,b
  4764  0011E4  0A2B               	xorlw	43	; case 43
  4765  0011E6  B4D8               	btfsc	status,2,c
  4766  0011E8  EFDF  F008         	goto	l4080
  4767  0011EC  0A06               	xorlw	6	; case 45
  4768  0011EE  B4D8               	btfsc	status,2,c
  4769  0011F0  EFDB  F008         	goto	l4078
  4770  0011F4  EF19  F009         	goto	l4088
  4771  0011F8                     l4084:
  4772                           
  4773                           ; BSR set to: 0
  4774  0011F8  C074  F060         	movff	atoi@n,___wmul@multiplier
  4775  0011FC  C075  F061         	movff	atoi@n+1,___wmul@multiplier+1
  4776  001200  0E00               	movlw	0
  4777  001202  6F63               	movwf	(___wmul@multiplicand+1)& (0+255),b
  4778  001204  0E0A               	movlw	10
  4779  001206  6F62               	movwf	___wmul@multiplicand& (0+255),b
  4780  001208  EC09  F013         	call	___wmul	;wreg free
  4781  00120C  C067  FFD9         	movff	atoi@s,fsr2l
  4782  001210  C068  FFDA         	movff	atoi@s+1,fsr2h
  4783  001214  50DF               	movf	indf2,w,c
  4784  001216  0100               	movlb	0	; () banked
  4785  001218  6F69               	movwf	??_atoi& (0+255),b
  4786  00121A  5169               	movf	??_atoi& (0+255),w,b
  4787  00121C  5F60               	subwf	?___wmul& (0+255),f,b
  4788  00121E  0E00               	movlw	0
  4789  001220  5B61               	subwfb	(?___wmul+1)& (0+255),f,b
  4790  001222  0E30               	movlw	48
  4791  001224  2560               	addwf	?___wmul& (0+255),w,b
  4792  001226  6F74               	movwf	atoi@n& (0+255),b
  4793  001228  0E00               	movlw	0
  4794  00122A  2161               	addwfc	(?___wmul+1)& (0+255),w,b
  4795  00122C  6F75               	movwf	(atoi@n+1)& (0+255),b
  4796  00122E  EFDF  F008         	goto	l4080
  4797  001232                     l4088:
  4798                           
  4799                           ; BSR set to: 0
  4800  001232  0ED0               	movlw	208
  4801  001234  6F69               	movwf	??_atoi& (0+255),b
  4802  001236  0EFF               	movlw	255
  4803  001238  6F6A               	movwf	(??_atoi+1)& (0+255),b
  4804  00123A  C067  FFD9         	movff	atoi@s,fsr2l
  4805  00123E  C068  FFDA         	movff	atoi@s+1,fsr2h
  4806  001242  50DF               	movf	indf2,w,c
  4807  001244  6F6B               	movwf	(??_atoi+2)& (0+255),b
  4808  001246  6B6C               	clrf	(??_atoi+3)& (0+255),b
  4809  001248  5169               	movf	??_atoi& (0+255),w,b
  4810  00124A  276B               	addwf	(??_atoi+2)& (0+255),f,b
  4811  00124C  516A               	movf	(??_atoi+1)& (0+255),w,b
  4812  00124E  236C               	addwfc	(??_atoi+3)& (0+255),f,b
  4813  001250  516C               	movf	(??_atoi+3)& (0+255),w,b
  4814  001252  E10A               	bnz	u3020
  4815  001254  0E0A               	movlw	10
  4816  001256  5D6B               	subwf	(??_atoi+2)& (0+255),w,b
  4817  001258  A0D8               	btfss	status,0,c
  4818  00125A  EF31  F009         	goto	u3021
  4819  00125E  EF34  F009         	goto	u3020
  4820  001262                     u3021:
  4821  001262  0E01               	movlw	1
  4822  001264  EF35  F009         	goto	u3030
  4823  001268                     u3020:
  4824  001268  0E00               	movlw	0
  4825  00126A                     u3030:
  4826  00126A  6F71               	movwf	_atoi$2383& (0+255),b
  4827  00126C  6B72               	clrf	(_atoi$2383+1)& (0+255),b
  4828  00126E                     
  4829                           ; BSR set to: 0
  4830  00126E  5171               	movf	_atoi$2383& (0+255),w,b
  4831  001270  1172               	iorwf	(_atoi$2383+1)& (0+255),w,b
  4832  001272  A4D8               	btfss	status,2,c
  4833  001274  EF3E  F009         	goto	u3041
  4834  001278  EF40  F009         	goto	u3040
  4835  00127C                     u3041:
  4836  00127C  EFFC  F008         	goto	l4084
  4837  001280                     u3040:
  4838  001280                     
  4839                           ; BSR set to: 0
  4840  001280  516D               	movf	atoi@neg& (0+255),w,b
  4841  001282  116E               	iorwf	(atoi@neg+1)& (0+255),w,b
  4842  001284  A4D8               	btfss	status,2,c
  4843  001286  EF47  F009         	goto	u3051
  4844  00128A  EF49  F009         	goto	u3050
  4845  00128E                     u3051:
  4846  00128E  EF57  F009         	goto	l1452
  4847  001292                     u3050:
  4848  001292                     
  4849                           ; BSR set to: 0
  4850  001292  C074  F069         	movff	atoi@n,??_atoi
  4851  001296  C075  F06A         	movff	atoi@n+1,??_atoi+1
  4852  00129A  1F69               	comf	??_atoi& (0+255),f,b
  4853  00129C  1F6A               	comf	(??_atoi+1)& (0+255),f,b
  4854  00129E  4B69               	infsnz	??_atoi& (0+255),f,b
  4855  0012A0  2B6A               	incf	(??_atoi+1)& (0+255),f,b
  4856  0012A2  C069  F067         	movff	??_atoi,?_atoi
  4857  0012A6  C06A  F068         	movff	??_atoi+1,?_atoi+1
  4858  0012AA  EF5B  F009         	goto	l1455
  4859  0012AE                     l1452:
  4860                           
  4861                           ; BSR set to: 0
  4862  0012AE  C074  F067         	movff	atoi@n,?_atoi
  4863  0012B2  C075  F068         	movff	atoi@n+1,?_atoi+1
  4864  0012B6                     l1455:
  4865                           
  4866                           ; BSR set to: 0
  4867  0012B6  0012               	return		;funcret
  4868  0012B8                     __end_of_atoi:
  4869                           	opt callstack 0
  4870                           
  4871 ;; *************** function _isspace *****************
  4872 ;; Defined at:
  4873 ;;		line 5 in file "C:\Program Files (x86)\Microchip\xc8\v2.10\pic\sources\c99\common\isspace.c"
  4874 ;; Parameters:    Size  Location     Type
  4875 ;;  c               2    0[BANK0 ] int 
  4876 ;; Auto vars:     Size  Location     Type
  4877 ;;		None
  4878 ;; Return value:  Size  Location     Type
  4879 ;;                  2    0[BANK0 ] int 
  4880 ;; Registers used:
  4881 ;;		wreg, status,2, status,0
  4882 ;; Tracked objects:
  4883 ;;		On entry : 0/0
  4884 ;;		On exit  : 0/0
  4885 ;;		Unchanged: 0/0
  4886 ;; Data sizes:     COMRAM   BANK0   BANK1   BANK2   BANK3   BANK4   BANK5   BANK6   BANK7
  4887 ;;      Params:         0       2       0       0       0       0       0       0       0
  4888 ;;      Locals:         0       1       0       0       0       0       0       0       0
  4889 ;;      Temps:          0       4       0       0       0       0       0       0       0
  4890 ;;      Totals:         0       7       0       0       0       0       0       0       0
  4891 ;;Total ram usage:        7 bytes
  4892 ;; Hardware stack levels used:    1
  4893 ;; Hardware stack levels required when called:    5
  4894 ;; This function calls:
  4895 ;;		Nothing
  4896 ;; This function is called by:
  4897 ;;		_atoi
  4898 ;; This function uses a non-reentrant model
  4899 ;;
  4900                           
  4901                           	psect	text18
  4902  00228E                     __ptext18:
  4903                           	opt callstack 0
  4904  00228E                     _isspace:
  4905                           	opt callstack 22
  4906  00228E  0E01               	movlw	1
  4907  002290  0100               	movlb	0	; () banked
  4908  002292  6F66               	movwf	_isspace$2399& (0+255),b
  4909  002294                     
  4910                           ; BSR set to: 0
  4911  002294  0E20               	movlw	32
  4912  002296  1960               	xorwf	isspace@c& (0+255),w,b
  4913  002298  1161               	iorwf	(isspace@c+1)& (0+255),w,b
  4914  00229A  B4D8               	btfsc	status,2,c
  4915  00229C  EF52  F011         	goto	u2361
  4916  0022A0  EF54  F011         	goto	u2360
  4917  0022A4                     u2361:
  4918  0022A4  EF6D  F011         	goto	l3680
  4919  0022A8                     u2360:
  4920  0022A8                     
  4921                           ; BSR set to: 0
  4922  0022A8  0EF7               	movlw	247
  4923  0022AA  6F62               	movwf	??_isspace& (0+255),b
  4924  0022AC  0EFF               	movlw	255
  4925  0022AE  6F63               	movwf	(??_isspace+1)& (0+255),b
  4926  0022B0  C060  F064         	movff	isspace@c,??_isspace+2
  4927  0022B4  C061  F065         	movff	isspace@c+1,??_isspace+3
  4928  0022B8  5162               	movf	??_isspace& (0+255),w,b
  4929  0022BA  2764               	addwf	(??_isspace+2)& (0+255),f,b
  4930  0022BC  5163               	movf	(??_isspace+1)& (0+255),w,b
  4931  0022BE  2365               	addwfc	(??_isspace+3)& (0+255),f,b
  4932  0022C0  5165               	movf	(??_isspace+3)& (0+255),w,b
  4933  0022C2  E109               	bnz	u2370
  4934  0022C4  0E05               	movlw	5
  4935  0022C6  5D64               	subwf	(??_isspace+2)& (0+255),w,b
  4936  0022C8  A0D8               	btfss	status,0,c
  4937  0022CA  EF69  F011         	goto	u2371
  4938  0022CE  EF6B  F011         	goto	u2370
  4939  0022D2                     u2371:
  4940  0022D2  EF6D  F011         	goto	l3680
  4941  0022D6                     u2370:
  4942  0022D6                     
  4943                           ; BSR set to: 0
  4944  0022D6  0E00               	movlw	0
  4945  0022D8  6F66               	movwf	_isspace$2399& (0+255),b
  4946  0022DA                     l3680:
  4947                           
  4948                           ; BSR set to: 0
  4949  0022DA  C066  F060         	movff	_isspace$2399,?_isspace
  4950  0022DE  6B61               	clrf	(?_isspace+1)& (0+255),b
  4951  0022E0                     
  4952                           ; BSR set to: 0
  4953  0022E0  0012               	return		;funcret
  4954  0022E2                     __end_of_isspace:
  4955                           	opt callstack 0
  4956                           
  4957 ;; *************** function _isdigit *****************
  4958 ;; Defined at:
  4959 ;;		line 5 in file "C:\Program Files (x86)\Microchip\xc8\v2.10\pic\sources\c99\common\isdigit.c"
  4960 ;; Parameters:    Size  Location     Type
  4961 ;;  c               2    0[BANK0 ] int 
  4962 ;; Auto vars:     Size  Location     Type
  4963 ;;		None
  4964 ;; Return value:  Size  Location     Type
  4965 ;;                  2    0[BANK0 ] int 
  4966 ;; Registers used:
  4967 ;;		wreg, status,2, status,0
  4968 ;; Tracked objects:
  4969 ;;		On entry : 0/0
  4970 ;;		On exit  : 0/0
  4971 ;;		Unchanged: 0/0
  4972 ;; Data sizes:     COMRAM   BANK0   BANK1   BANK2   BANK3   BANK4   BANK5   BANK6   BANK7
  4973 ;;      Params:         0       2       0       0       0       0       0       0       0
  4974 ;;      Locals:         0       0       0       0       0       0       0       0       0
  4975 ;;      Temps:          0       4       0       0       0       0       0       0       0
  4976 ;;      Totals:         0       6       0       0       0       0       0       0       0
  4977 ;;Total ram usage:        6 bytes
  4978 ;; Hardware stack levels used:    1
  4979 ;; Hardware stack levels required when called:    5
  4980 ;; This function calls:
  4981 ;;		Nothing
  4982 ;; This function is called by:
  4983 ;;		_atoi
  4984 ;; This function uses a non-reentrant model
  4985 ;;
  4986                           
  4987                           	psect	text19
  4988  00244A                     __ptext19:
  4989                           	opt callstack 0
  4990  00244A                     _isdigit:
  4991                           	opt callstack 22
  4992  00244A  0ED0               	movlw	208
  4993  00244C  0100               	movlb	0	; () banked
  4994  00244E  6F62               	movwf	??_isdigit& (0+255),b
  4995  002450  0EFF               	movlw	255
  4996  002452  6F63               	movwf	(??_isdigit+1)& (0+255),b
  4997  002454  C060  F064         	movff	isdigit@c,??_isdigit+2
  4998  002458  C061  F065         	movff	isdigit@c+1,??_isdigit+3
  4999  00245C  5162               	movf	??_isdigit& (0+255),w,b
  5000  00245E  2764               	addwf	(??_isdigit+2)& (0+255),f,b
  5001  002460  5163               	movf	(??_isdigit+1)& (0+255),w,b
  5002  002462  2365               	addwfc	(??_isdigit+3)& (0+255),f,b
  5003  002464  5165               	movf	(??_isdigit+3)& (0+255),w,b
  5004  002466  E10A               	bnz	u2380
  5005  002468  0E0A               	movlw	10
  5006  00246A  5D64               	subwf	(??_isdigit+2)& (0+255),w,b
  5007  00246C  A0D8               	btfss	status,0,c
  5008  00246E  EF3B  F012         	goto	u2381
  5009  002472  EF3E  F012         	goto	u2380
  5010  002476                     u2381:
  5011  002476  0E01               	movlw	1
  5012  002478  EF3F  F012         	goto	u2390
  5013  00247C                     u2380:
  5014  00247C  0E00               	movlw	0
  5015  00247E                     u2390:
  5016  00247E  6F60               	movwf	?_isdigit& (0+255),b
  5017  002480  6B61               	clrf	(?_isdigit+1)& (0+255),b
  5018  002482                     
  5019                           ; BSR set to: 0
  5020  002482  0012               	return		;funcret
  5021  002484                     __end_of_isdigit:
  5022                           	opt callstack 0
  5023                           
  5024 ;; *************** function ___wmul *****************
  5025 ;; Defined at:
  5026 ;;		line 15 in file "C:\Program Files (x86)\Microchip\xc8\v2.10\pic\sources\c99\common\Umul16.c"
  5027 ;; Parameters:    Size  Location     Type
  5028 ;;  multiplier      2    0[BANK0 ] unsigned int 
  5029 ;;  multiplicand    2    2[BANK0 ] unsigned int 
  5030 ;; Auto vars:     Size  Location     Type
  5031 ;;  product         2    4[BANK0 ] unsigned int 
  5032 ;; Return value:  Size  Location     Type
  5033 ;;                  2    0[BANK0 ] unsigned int 
  5034 ;; Registers used:
  5035 ;;		wreg, status,2, status,0, prodl, prodh
  5036 ;; Tracked objects:
  5037 ;;		On entry : 0/0
  5038 ;;		On exit  : 0/0
  5039 ;;		Unchanged: 0/0
  5040 ;; Data sizes:     COMRAM   BANK0   BANK1   BANK2   BANK3   BANK4   BANK5   BANK6   BANK7
  5041 ;;      Params:         0       4       0       0       0       0       0       0       0
  5042 ;;      Locals:         0       2       0       0       0       0       0       0       0
  5043 ;;      Temps:          0       0       0       0       0       0       0       0       0
  5044 ;;      Totals:         0       6       0       0       0       0       0       0       0
  5045 ;;Total ram usage:        6 bytes
  5046 ;; Hardware stack levels used:    1
  5047 ;; Hardware stack levels required when called:    5
  5048 ;; This function calls:
  5049 ;;		Nothing
  5050 ;; This function is called by:
  5051 ;;		_atoi
  5052 ;; This function uses a non-reentrant model
  5053 ;;
  5054                           
  5055                           	psect	text20
  5056  002612                     __ptext20:
  5057                           	opt callstack 0
  5058  002612                     ___wmul:
  5059                           	opt callstack 22
  5060  002612  0100               	movlb	0	; () banked
  5061  002614  5160               	movf	___wmul@multiplier& (0+255),w,b
  5062  002616  0362               	mulwf	___wmul@multiplicand& (0+255),b
  5063  002618  CFF3 F064          	movff	prodl,___wmul@product
  5064  00261C  CFF4 F065          	movff	prodh,___wmul@product+1
  5065  002620  5160               	movf	___wmul@multiplier& (0+255),w,b
  5066  002622  0363               	mulwf	(___wmul@multiplicand+1)& (0+255),b
  5067  002624  50F3               	movf	243,w,c
  5068  002626  2765               	addwf	(___wmul@product+1)& (0+255),f,b
  5069  002628  5161               	movf	(___wmul@multiplier+1)& (0+255),w,b
  5070  00262A  0362               	mulwf	___wmul@multiplicand& (0+255),b
  5071  00262C  50F3               	movf	243,w,c
  5072  00262E  2765               	addwf	(___wmul@product+1)& (0+255),f,b
  5073  002630                     
  5074                           ; BSR set to: 0
  5075  002630  C064  F060         	movff	___wmul@product,?___wmul
  5076  002634  C065  F061         	movff	___wmul@product+1,?___wmul+1
  5077  002638                     
  5078                           ; BSR set to: 0
  5079  002638  0012               	return		;funcret
  5080  00263A                     __end_of___wmul:
  5081                           	opt callstack 0
  5082                           
  5083 ;; *************** function _Seria_Decodificacion_Memoria *****************
  5084 ;; Defined at:
  5085 ;;		line 167 in file "serial.c"
  5086 ;; Parameters:    Size  Location     Type
  5087 ;;  direccion       1    wreg     unsigned char 
  5088 ;; Auto vars:     Size  Location     Type
  5089 ;;  direccion       1   10[BANK0 ] unsigned char 
  5090 ;; Return value:  Size  Location     Type
  5091 ;;                  1    wreg      unsigned char 
  5092 ;; Registers used:
  5093 ;;		wreg, fsr0l, fsr0h, status,2, status,0, tblptrl, tblptrh, tblptru, cstack
  5094 ;; Tracked objects:
  5095 ;;		On entry : 0/0
  5096 ;;		On exit  : 0/0
  5097 ;;		Unchanged: 0/0
  5098 ;; Data sizes:     COMRAM   BANK0   BANK1   BANK2   BANK3   BANK4   BANK5   BANK6   BANK7
  5099 ;;      Params:         0       0       0       0       0       0       0       0       0
  5100 ;;      Locals:         0       1       0       0       0       0       0       0       0
  5101 ;;      Temps:          0       2       0       0       0       0       0       0       0
  5102 ;;      Totals:         0       3       0       0       0       0       0       0       0
  5103 ;;Total ram usage:        3 bytes
  5104 ;; Hardware stack levels used:    1
  5105 ;; Hardware stack levels required when called:    6
  5106 ;; This function calls:
  5107 ;;		_USART_TxS
  5108 ;; This function is called by:
  5109 ;;		_Serial_Oupcode
  5110 ;; This function uses a non-reentrant model
  5111 ;;
  5112                           
  5113                           	psect	text21
  5114  000B54                     __ptext21:
  5115                           	opt callstack 0
  5116  000B54                     _Seria_Decodificacion_Memoria:
  5117                           	opt callstack 23
  5118                           
  5119                           ; BSR set to: 0
  5120                           ;incstack = 0
  5121                           ;Seria_Decodificacion_Memoria@direccion stored from wreg
  5122  000B54  0100               	movlb	0	; () banked
  5123  000B56  6F6A               	movwf	Seria_Decodificacion_Memoria@direccion& (0+255),b
  5124  000B58                     
  5125                           ;serial.c: 168:     switch (direccion) {
  5126  000B58  EF8E  F006         	goto	l4370
  5127  000B5C                     l4304:
  5128                           
  5129                           ; BSR set to: 0
  5130                           ;serial.c: 170:             direccion = 0x00;
  5131  000B5C  0E00               	movlw	0
  5132  000B5E  6F6A               	movwf	Seria_Decodificacion_Memoria@direccion& (0+255),b
  5133  000B60                     
  5134                           ; BSR set to: 0
  5135                           ;serial.c: 171:             USART_TxS("COORDINATE OF SETPOINT 0:\n", sizeof ("COORDINATE
      +                           OF SETPOINT 0:\n") - 1);
  5136  000B60  0E12               	movlw	low STR_19
  5137  000B62  6F60               	movwf	USART_TxS@str& (0+255),b
  5138  000B64  0E7E               	movlw	high STR_19
  5139  000B66  6F61               	movwf	(USART_TxS@str+1)& (0+255),b
  5140  000B68  0E00               	movlw	0
  5141  000B6A  6F63               	movwf	(USART_TxS@length+1)& (0+255),b
  5142  000B6C  0E1A               	movlw	26
  5143  000B6E  6F62               	movwf	USART_TxS@length& (0+255),b
  5144  000B70  EC6E  F010         	call	_USART_TxS	;wreg free
  5145                           
  5146                           ;serial.c: 172:             break;
  5147  000B74  EFDC  F006         	goto	l4372
  5148  000B78                     l4308:
  5149                           
  5150                           ; BSR set to: 0
  5151                           ;serial.c: 174:             direccion = 0x10;
  5152  000B78  0E10               	movlw	16
  5153  000B7A  6F6A               	movwf	Seria_Decodificacion_Memoria@direccion& (0+255),b
  5154  000B7C                     
  5155                           ; BSR set to: 0
  5156                           ;serial.c: 175:             USART_TxS("COORDINATE OF SETPOINT 1:\n", sizeof ("COORDINATE
      +                           OF SETPOINT 1\n") - 1);
  5157  000B7C  0E2D               	movlw	low STR_20
  5158  000B7E  6F60               	movwf	USART_TxS@str& (0+255),b
  5159  000B80  0E7E               	movlw	high STR_20
  5160  000B82  6F61               	movwf	(USART_TxS@str+1)& (0+255),b
  5161  000B84  0E00               	movlw	0
  5162  000B86  6F63               	movwf	(USART_TxS@length+1)& (0+255),b
  5163  000B88  0E19               	movlw	25
  5164  000B8A  6F62               	movwf	USART_TxS@length& (0+255),b
  5165  000B8C  EC6E  F010         	call	_USART_TxS	;wreg free
  5166                           
  5167                           ;serial.c: 176:             break;
  5168  000B90  EFDC  F006         	goto	l4372
  5169  000B94                     l4312:
  5170                           
  5171                           ; BSR set to: 0
  5172                           ;serial.c: 178:             direccion = 0x20;
  5173  000B94  0E20               	movlw	32
  5174  000B96  6F6A               	movwf	Seria_Decodificacion_Memoria@direccion& (0+255),b
  5175  000B98                     
  5176                           ; BSR set to: 0
  5177                           ;serial.c: 179:             USART_TxS("COORDINATE OF SETPOINT 2:\n", sizeof ("COORDINATE
      +                           OF SETPOINT 2:\n") - 1);
  5178  000B98  0E48               	movlw	low STR_21
  5179  000B9A  6F60               	movwf	USART_TxS@str& (0+255),b
  5180  000B9C  0E7E               	movlw	high STR_21
  5181  000B9E  6F61               	movwf	(USART_TxS@str+1)& (0+255),b
  5182  000BA0  0E00               	movlw	0
  5183  000BA2  6F63               	movwf	(USART_TxS@length+1)& (0+255),b
  5184  000BA4  0E1A               	movlw	26
  5185  000BA6  6F62               	movwf	USART_TxS@length& (0+255),b
  5186  000BA8  EC6E  F010         	call	_USART_TxS	;wreg free
  5187                           
  5188                           ;serial.c: 180:             break;
  5189  000BAC  EFDC  F006         	goto	l4372
  5190  000BB0                     l4316:
  5191                           
  5192                           ; BSR set to: 0
  5193                           ;serial.c: 182:             direccion = 0x30;
  5194  000BB0  0E30               	movlw	48
  5195  000BB2  6F6A               	movwf	Seria_Decodificacion_Memoria@direccion& (0+255),b
  5196  000BB4                     
  5197                           ; BSR set to: 0
  5198                           ;serial.c: 183:             USART_TxS("COORDINATE OF SETPOINT 3:\n", sizeof ("COORDINATE
      +                           OF SETPOINT 3:\n") - 1);
  5199  000BB4  0E63               	movlw	low STR_22
  5200  000BB6  6F60               	movwf	USART_TxS@str& (0+255),b
  5201  000BB8  0E7E               	movlw	high STR_22
  5202  000BBA  6F61               	movwf	(USART_TxS@str+1)& (0+255),b
  5203  000BBC  0E00               	movlw	0
  5204  000BBE  6F63               	movwf	(USART_TxS@length+1)& (0+255),b
  5205  000BC0  0E1A               	movlw	26
  5206  000BC2  6F62               	movwf	USART_TxS@length& (0+255),b
  5207  000BC4  EC6E  F010         	call	_USART_TxS	;wreg free
  5208                           
  5209                           ;serial.c: 184:             break;
  5210  000BC8  EFDC  F006         	goto	l4372
  5211  000BCC                     l4320:
  5212                           
  5213                           ; BSR set to: 0
  5214                           ;serial.c: 186:             direccion = 0x40;
  5215  000BCC  0E40               	movlw	64
  5216  000BCE  6F6A               	movwf	Seria_Decodificacion_Memoria@direccion& (0+255),b
  5217  000BD0                     
  5218                           ; BSR set to: 0
  5219                           ;serial.c: 187:             USART_TxS("COORDINATE OF SETPOINT 4:\n", sizeof ("COORDINATE
      +                           OF SETPOINT 4:\n") - 1);
  5220  000BD0  0E7E               	movlw	low STR_23
  5221  000BD2  6F60               	movwf	USART_TxS@str& (0+255),b
  5222  000BD4  0E7E               	movlw	high STR_23
  5223  000BD6  6F61               	movwf	(USART_TxS@str+1)& (0+255),b
  5224  000BD8  0E00               	movlw	0
  5225  000BDA  6F63               	movwf	(USART_TxS@length+1)& (0+255),b
  5226  000BDC  0E1A               	movlw	26
  5227  000BDE  6F62               	movwf	USART_TxS@length& (0+255),b
  5228  000BE0  EC6E  F010         	call	_USART_TxS	;wreg free
  5229                           
  5230                           ;serial.c: 188:             break;
  5231  000BE4  EFDC  F006         	goto	l4372
  5232  000BE8                     l4324:
  5233                           
  5234                           ; BSR set to: 0
  5235                           ;serial.c: 190:             direccion = 0x50;
  5236  000BE8  0E50               	movlw	80
  5237  000BEA  6F6A               	movwf	Seria_Decodificacion_Memoria@direccion& (0+255),b
  5238  000BEC                     
  5239                           ; BSR set to: 0
  5240                           ;serial.c: 191:             USART_TxS("COORDINATE OF SETPOINT 5:\n", sizeof ("COORDINATE
      +                           OF SETPOINT 5:\n") - 1);
  5241  000BEC  0E99               	movlw	low STR_24
  5242  000BEE  6F60               	movwf	USART_TxS@str& (0+255),b
  5243  000BF0  0E7E               	movlw	high STR_24
  5244  000BF2  6F61               	movwf	(USART_TxS@str+1)& (0+255),b
  5245  000BF4  0E00               	movlw	0
  5246  000BF6  6F63               	movwf	(USART_TxS@length+1)& (0+255),b
  5247  000BF8  0E1A               	movlw	26
  5248  000BFA  6F62               	movwf	USART_TxS@length& (0+255),b
  5249  000BFC  EC6E  F010         	call	_USART_TxS	;wreg free
  5250                           
  5251                           ;serial.c: 192:             break;
  5252  000C00  EFDC  F006         	goto	l4372
  5253  000C04                     l4328:
  5254                           
  5255                           ; BSR set to: 0
  5256                           ;serial.c: 194:             direccion = 0x60;
  5257  000C04  0E60               	movlw	96
  5258  000C06  6F6A               	movwf	Seria_Decodificacion_Memoria@direccion& (0+255),b
  5259  000C08                     
  5260                           ; BSR set to: 0
  5261                           ;serial.c: 195:             USART_TxS("COORDINATE OF SETPOINT 6:\n", sizeof ("COORDINATE
      +                           OF SETPOINT 6:\n") - 1);
  5262  000C08  0EB4               	movlw	low STR_25
  5263  000C0A  6F60               	movwf	USART_TxS@str& (0+255),b
  5264  000C0C  0E7E               	movlw	high STR_25
  5265  000C0E  6F61               	movwf	(USART_TxS@str+1)& (0+255),b
  5266  000C10  0E00               	movlw	0
  5267  000C12  6F63               	movwf	(USART_TxS@length+1)& (0+255),b
  5268  000C14  0E1A               	movlw	26
  5269  000C16  6F62               	movwf	USART_TxS@length& (0+255),b
  5270  000C18  EC6E  F010         	call	_USART_TxS	;wreg free
  5271                           
  5272                           ;serial.c: 196:             break;
  5273  000C1C  EFDC  F006         	goto	l4372
  5274  000C20                     l4332:
  5275                           
  5276                           ; BSR set to: 0
  5277                           ;serial.c: 198:             direccion = 0x70;
  5278  000C20  0E70               	movlw	112
  5279  000C22  6F6A               	movwf	Seria_Decodificacion_Memoria@direccion& (0+255),b
  5280  000C24                     
  5281                           ; BSR set to: 0
  5282                           ;serial.c: 199:             USART_TxS("COORDINATE OF SETPOINT 7:\n", sizeof ("COORDINATE
      +                           OF SETPOINT 7:\n") - 1);
  5283  000C24  0ECF               	movlw	low STR_26
  5284  000C26  6F60               	movwf	USART_TxS@str& (0+255),b
  5285  000C28  0E7E               	movlw	high STR_26
  5286  000C2A  6F61               	movwf	(USART_TxS@str+1)& (0+255),b
  5287  000C2C  0E00               	movlw	0
  5288  000C2E  6F63               	movwf	(USART_TxS@length+1)& (0+255),b
  5289  000C30  0E1A               	movlw	26
  5290  000C32  6F62               	movwf	USART_TxS@length& (0+255),b
  5291  000C34  EC6E  F010         	call	_USART_TxS	;wreg free
  5292                           
  5293                           ;serial.c: 200:             break;
  5294  000C38  EFDC  F006         	goto	l4372
  5295  000C3C                     l4336:
  5296                           
  5297                           ; BSR set to: 0
  5298                           ;serial.c: 202:             direccion = 0x80;
  5299  000C3C  0E80               	movlw	128
  5300  000C3E  6F6A               	movwf	Seria_Decodificacion_Memoria@direccion& (0+255),b
  5301  000C40                     
  5302                           ; BSR set to: 0
  5303                           ;serial.c: 203:             USART_TxS("COORDINATE OF SETPOINT 8:\n", sizeof ("COORDINATE
      +                           OF SETPOINT 8:\n") - 1);
  5304  000C40  0EEA               	movlw	low STR_27
  5305  000C42  6F60               	movwf	USART_TxS@str& (0+255),b
  5306  000C44  0E7E               	movlw	high STR_27
  5307  000C46  6F61               	movwf	(USART_TxS@str+1)& (0+255),b
  5308  000C48  0E00               	movlw	0
  5309  000C4A  6F63               	movwf	(USART_TxS@length+1)& (0+255),b
  5310  000C4C  0E1A               	movlw	26
  5311  000C4E  6F62               	movwf	USART_TxS@length& (0+255),b
  5312  000C50  EC6E  F010         	call	_USART_TxS	;wreg free
  5313                           
  5314                           ;serial.c: 204:             break;
  5315  000C54  EFDC  F006         	goto	l4372
  5316  000C58                     l4340:
  5317                           
  5318                           ; BSR set to: 0
  5319                           ;serial.c: 206:             direccion = 0x90;
  5320  000C58  0E90               	movlw	144
  5321  000C5A  6F6A               	movwf	Seria_Decodificacion_Memoria@direccion& (0+255),b
  5322  000C5C                     
  5323                           ; BSR set to: 0
  5324                           ;serial.c: 207:             USART_TxS("COORDINATE OF SETPOINT 9:\n", sizeof ("COORDINATE
      +                           OF SETPOINT 9:\n") - 1);
  5325  000C5C  0E05               	movlw	low STR_28
  5326  000C5E  6F60               	movwf	USART_TxS@str& (0+255),b
  5327  000C60  0E7F               	movlw	high STR_28
  5328  000C62  6F61               	movwf	(USART_TxS@str+1)& (0+255),b
  5329  000C64  0E00               	movlw	0
  5330  000C66  6F63               	movwf	(USART_TxS@length+1)& (0+255),b
  5331  000C68  0E1A               	movlw	26
  5332  000C6A  6F62               	movwf	USART_TxS@length& (0+255),b
  5333  000C6C  EC6E  F010         	call	_USART_TxS	;wreg free
  5334                           
  5335                           ;serial.c: 208:             break;
  5336  000C70  EFDC  F006         	goto	l4372
  5337  000C74                     l4344:
  5338                           
  5339                           ; BSR set to: 0
  5340                           ;serial.c: 210:             direccion = 0xA0;
  5341  000C74  0EA0               	movlw	160
  5342  000C76  6F6A               	movwf	Seria_Decodificacion_Memoria@direccion& (0+255),b
  5343  000C78                     
  5344                           ; BSR set to: 0
  5345                           ;serial.c: 211:             USART_TxS("COORDINATE OF SETPOINT 10:\n", sizeof ("COORDINAT
      +                          E OF SETPOINT 10:\n") - 1);
  5346  000C78  0E6A               	movlw	low STR_29
  5347  000C7A  6F60               	movwf	USART_TxS@str& (0+255),b
  5348  000C7C  0E7D               	movlw	high STR_29
  5349  000C7E  6F61               	movwf	(USART_TxS@str+1)& (0+255),b
  5350  000C80  0E00               	movlw	0
  5351  000C82  6F63               	movwf	(USART_TxS@length+1)& (0+255),b
  5352  000C84  0E1B               	movlw	27
  5353  000C86  6F62               	movwf	USART_TxS@length& (0+255),b
  5354  000C88  EC6E  F010         	call	_USART_TxS	;wreg free
  5355                           
  5356                           ;serial.c: 212:             break;
  5357  000C8C  EFDC  F006         	goto	l4372
  5358  000C90                     l4348:
  5359                           
  5360                           ; BSR set to: 0
  5361                           ;serial.c: 214:             direccion = 0xB0;
  5362  000C90  0EB0               	movlw	176
  5363  000C92  6F6A               	movwf	Seria_Decodificacion_Memoria@direccion& (0+255),b
  5364  000C94                     
  5365                           ; BSR set to: 0
  5366                           ;serial.c: 215:             USART_TxS("COORDINATE OF SETPOINT 11:\n", sizeof ("COORDINAT
      +                          E OF SETPOINT 11:\n") - 1);
  5367  000C94  0E86               	movlw	low STR_30
  5368  000C96  6F60               	movwf	USART_TxS@str& (0+255),b
  5369  000C98  0E7D               	movlw	high STR_30
  5370  000C9A  6F61               	movwf	(USART_TxS@str+1)& (0+255),b
  5371  000C9C  0E00               	movlw	0
  5372  000C9E  6F63               	movwf	(USART_TxS@length+1)& (0+255),b
  5373  000CA0  0E1B               	movlw	27
  5374  000CA2  6F62               	movwf	USART_TxS@length& (0+255),b
  5375  000CA4  EC6E  F010         	call	_USART_TxS	;wreg free
  5376                           
  5377                           ;serial.c: 216:             break;
  5378  000CA8  EFDC  F006         	goto	l4372
  5379  000CAC                     l4352:
  5380                           
  5381                           ; BSR set to: 0
  5382                           ;serial.c: 218:             direccion = 0xC0;
  5383  000CAC  0EC0               	movlw	192
  5384  000CAE  6F6A               	movwf	Seria_Decodificacion_Memoria@direccion& (0+255),b
  5385  000CB0                     
  5386                           ; BSR set to: 0
  5387                           ;serial.c: 219:             USART_TxS("COORDINATE OF SETPOINT 12:\n", sizeof ("COORDINAT
      +                          E OF SETPOINT 12:\n") - 1);
  5388  000CB0  0EA2               	movlw	low STR_31
  5389  000CB2  6F60               	movwf	USART_TxS@str& (0+255),b
  5390  000CB4  0E7D               	movlw	high STR_31
  5391  000CB6  6F61               	movwf	(USART_TxS@str+1)& (0+255),b
  5392  000CB8  0E00               	movlw	0
  5393  000CBA  6F63               	movwf	(USART_TxS@length+1)& (0+255),b
  5394  000CBC  0E1B               	movlw	27
  5395  000CBE  6F62               	movwf	USART_TxS@length& (0+255),b
  5396  000CC0  EC6E  F010         	call	_USART_TxS	;wreg free
  5397                           
  5398                           ;serial.c: 220:             break;
  5399  000CC4  EFDC  F006         	goto	l4372
  5400  000CC8                     l4356:
  5401                           
  5402                           ; BSR set to: 0
  5403                           ;serial.c: 222:             direccion = 0xD0;
  5404  000CC8  0ED0               	movlw	208
  5405  000CCA  6F6A               	movwf	Seria_Decodificacion_Memoria@direccion& (0+255),b
  5406  000CCC                     
  5407                           ; BSR set to: 0
  5408                           ;serial.c: 223:             USART_TxS("COORDINATE OF SETPOINT 13:\n", sizeof ("COORDINAT
      +                          E OF SETPOINT 13:\n") - 1);
  5409  000CCC  0EBE               	movlw	low STR_32
  5410  000CCE  6F60               	movwf	USART_TxS@str& (0+255),b
  5411  000CD0  0E7D               	movlw	high STR_32
  5412  000CD2  6F61               	movwf	(USART_TxS@str+1)& (0+255),b
  5413  000CD4  0E00               	movlw	0
  5414  000CD6  6F63               	movwf	(USART_TxS@length+1)& (0+255),b
  5415  000CD8  0E1B               	movlw	27
  5416  000CDA  6F62               	movwf	USART_TxS@length& (0+255),b
  5417  000CDC  EC6E  F010         	call	_USART_TxS	;wreg free
  5418                           
  5419                           ;serial.c: 224:             break;
  5420  000CE0  EFDC  F006         	goto	l4372
  5421  000CE4                     l4360:
  5422                           
  5423                           ; BSR set to: 0
  5424                           ;serial.c: 226:             direccion = 0xE0;
  5425  000CE4  0EE0               	movlw	224
  5426  000CE6  6F6A               	movwf	Seria_Decodificacion_Memoria@direccion& (0+255),b
  5427  000CE8                     
  5428                           ; BSR set to: 0
  5429                           ;serial.c: 227:             USART_TxS("COORDINATE OF SETPOINT 14:\n", sizeof ("COORDINAT
      +                          E OF SETPOINT 14:\n") - 1);
  5430  000CE8  0EDA               	movlw	low STR_33
  5431  000CEA  6F60               	movwf	USART_TxS@str& (0+255),b
  5432  000CEC  0E7D               	movlw	high STR_33
  5433  000CEE  6F61               	movwf	(USART_TxS@str+1)& (0+255),b
  5434  000CF0  0E00               	movlw	0
  5435  000CF2  6F63               	movwf	(USART_TxS@length+1)& (0+255),b
  5436  000CF4  0E1B               	movlw	27
  5437  000CF6  6F62               	movwf	USART_TxS@length& (0+255),b
  5438  000CF8  EC6E  F010         	call	_USART_TxS	;wreg free
  5439                           
  5440                           ;serial.c: 228:             break;
  5441  000CFC  EFDC  F006         	goto	l4372
  5442  000D00                     l4364:
  5443                           
  5444                           ; BSR set to: 0
  5445                           ;serial.c: 230:             direccion = 0xF0;
  5446  000D00  0EF0               	movlw	240
  5447  000D02  6F6A               	movwf	Seria_Decodificacion_Memoria@direccion& (0+255),b
  5448  000D04                     
  5449                           ; BSR set to: 0
  5450                           ;serial.c: 231:             USART_TxS("COORDINATE OF SETPOINT 15:\n", sizeof ("COORDINAT
      +                          E OF SETPOINT 15:\n") - 1);
  5451  000D04  0EF6               	movlw	low STR_34
  5452  000D06  6F60               	movwf	USART_TxS@str& (0+255),b
  5453  000D08  0E7D               	movlw	high STR_34
  5454  000D0A  6F61               	movwf	(USART_TxS@str+1)& (0+255),b
  5455  000D0C  0E00               	movlw	0
  5456  000D0E  6F63               	movwf	(USART_TxS@length+1)& (0+255),b
  5457  000D10  0E1B               	movlw	27
  5458  000D12  6F62               	movwf	USART_TxS@length& (0+255),b
  5459  000D14  EC6E  F010         	call	_USART_TxS	;wreg free
  5460                           
  5461                           ;serial.c: 232:             break;
  5462  000D18  EFDC  F006         	goto	l4372
  5463  000D1C                     l4370:
  5464  000D1C  0100               	movlb	0	; () banked
  5465  000D1E  516A               	movf	Seria_Decodificacion_Memoria@direccion& (0+255),w,b
  5466  000D20  6F68               	movwf	??_Seria_Decodificacion_Memoria& (0+255),b
  5467  000D22  6B69               	clrf	(??_Seria_Decodificacion_Memoria+1)& (0+255),b
  5468                           
  5469                           ; Switch on 2 bytes has been partitioned into a top level switch of size 1, and 1 sub-sw
      +                          itches
  5470                           ; Switch size 1, requested type "simple"
  5471                           ; Number of cases is 1, Range of values is 0 to 0
  5472                           ; switch strategies available:
  5473                           ; Name         Instructions Cycles
  5474                           ; simple_byte            4     3 (average)
  5475                           ;	Chosen strategy is simple_byte
  5476  000D24  5169               	movf	(??_Seria_Decodificacion_Memoria+1)& (0+255),w,b
  5477  000D26  0A00               	xorlw	0	; case 0
  5478  000D28  B4D8               	btfsc	status,2,c
  5479  000D2A  EF99  F006         	goto	l5950
  5480  000D2E  EFDC  F006         	goto	l4372
  5481  000D32                     l5950:
  5482                           
  5483                           ; BSR set to: 0
  5484                           ; Switch size 1, requested type "simple"
  5485                           ; Number of cases is 16, Range of values is 48 to 70
  5486                           ; switch strategies available:
  5487                           ; Name         Instructions Cycles
  5488                           ; simple_byte           49    25 (average)
  5489                           ;	Chosen strategy is simple_byte
  5490  000D32  5168               	movf	??_Seria_Decodificacion_Memoria& (0+255),w,b
  5491  000D34  0A30               	xorlw	48	; case 48
  5492  000D36  B4D8               	btfsc	status,2,c
  5493  000D38  EFAE  F005         	goto	l4304
  5494  000D3C  0A01               	xorlw	1	; case 49
  5495  000D3E  B4D8               	btfsc	status,2,c
  5496  000D40  EFBC  F005         	goto	l4308
  5497  000D44  0A03               	xorlw	3	; case 50
  5498  000D46  B4D8               	btfsc	status,2,c
  5499  000D48  EFCA  F005         	goto	l4312
  5500  000D4C  0A01               	xorlw	1	; case 51
  5501  000D4E  B4D8               	btfsc	status,2,c
  5502  000D50  EFD8  F005         	goto	l4316
  5503  000D54  0A07               	xorlw	7	; case 52
  5504  000D56  B4D8               	btfsc	status,2,c
  5505  000D58  EFE6  F005         	goto	l4320
  5506  000D5C  0A01               	xorlw	1	; case 53
  5507  000D5E  B4D8               	btfsc	status,2,c
  5508  000D60  EFF4  F005         	goto	l4324
  5509  000D64  0A03               	xorlw	3	; case 54
  5510  000D66  B4D8               	btfsc	status,2,c
  5511  000D68  EF02  F006         	goto	l4328
  5512  000D6C  0A01               	xorlw	1	; case 55
  5513  000D6E  B4D8               	btfsc	status,2,c
  5514  000D70  EF10  F006         	goto	l4332
  5515  000D74  0A0F               	xorlw	15	; case 56
  5516  000D76  B4D8               	btfsc	status,2,c
  5517  000D78  EF1E  F006         	goto	l4336
  5518  000D7C  0A01               	xorlw	1	; case 57
  5519  000D7E  B4D8               	btfsc	status,2,c
  5520  000D80  EF2C  F006         	goto	l4340
  5521  000D84  0A78               	xorlw	120	; case 65
  5522  000D86  B4D8               	btfsc	status,2,c
  5523  000D88  EF3A  F006         	goto	l4344
  5524  000D8C  0A03               	xorlw	3	; case 66
  5525  000D8E  B4D8               	btfsc	status,2,c
  5526  000D90  EF48  F006         	goto	l4348
  5527  000D94  0A01               	xorlw	1	; case 67
  5528  000D96  B4D8               	btfsc	status,2,c
  5529  000D98  EF56  F006         	goto	l4352
  5530  000D9C  0A07               	xorlw	7	; case 68
  5531  000D9E  B4D8               	btfsc	status,2,c
  5532  000DA0  EF64  F006         	goto	l4356
  5533  000DA4  0A01               	xorlw	1	; case 69
  5534  000DA6  B4D8               	btfsc	status,2,c
  5535  000DA8  EF72  F006         	goto	l4360
  5536  000DAC  0A03               	xorlw	3	; case 70
  5537  000DAE  B4D8               	btfsc	status,2,c
  5538  000DB0  EF80  F006         	goto	l4364
  5539  000DB4  EFDC  F006         	goto	l4372
  5540  000DB8                     l4372:
  5541                           
  5542                           ;serial.c: 234:     return direccion;
  5543  000DB8  0100               	movlb	0	; () banked
  5544  000DBA  516A               	movf	Seria_Decodificacion_Memoria@direccion& (0+255),w,b
  5545  000DBC                     
  5546                           ; BSR set to: 0
  5547  000DBC  0012               	return		;funcret
  5548  000DBE                     __end_of_Seria_Decodificacion_Memoria:
  5549                           	opt callstack 0
  5550                           
  5551 ;; *************** function _Motor_Movimiento *****************
  5552 ;; Defined at:
  5553 ;;		line 24 in file "Motor.c"
  5554 ;; Parameters:    Size  Location     Type
  5555 ;;  Oupcode         1    wreg     unsigned char 
  5556 ;;  Motor_Coorde    2   55[BANK0 ] int 
  5557 ;;  Motor_Coorde    2   57[BANK0 ] int 
  5558 ;; Auto vars:     Size  Location     Type
  5559 ;;  Oupcode         1   59[BANK0 ] unsigned char 
  5560 ;; Return value:  Size  Location     Type
  5561 ;;                  1    wreg      void 
  5562 ;; Registers used:
  5563 ;;		wreg, fsr0l, fsr0h, status,2, status,0, tblptrl, tblptrh, tblptru, cstack
  5564 ;; Tracked objects:
  5565 ;;		On entry : 0/0
  5566 ;;		On exit  : 0/0
  5567 ;;		Unchanged: 0/0
  5568 ;; Data sizes:     COMRAM   BANK0   BANK1   BANK2   BANK3   BANK4   BANK5   BANK6   BANK7
  5569 ;;      Params:         0       4       0       0       0       0       0       0       0
  5570 ;;      Locals:         0       1       0       0       0       0       0       0       0
  5571 ;;      Temps:          0       0       0       0       0       0       0       0       0
  5572 ;;      Totals:         0       5       0       0       0       0       0       0       0
  5573 ;;Total ram usage:        5 bytes
  5574 ;; Hardware stack levels used:    1
  5575 ;; Hardware stack levels required when called:    7
  5576 ;; This function calls:
  5577 ;;		_Motor_Calcular_PasosX
  5578 ;;		_Motor_Calcular_PasosY
  5579 ;;		_Motor_Conversion
  5580 ;;		_PWM_GeneratePulsos
  5581 ;;		_USART_TxS
  5582 ;; This function is called by:
  5583 ;;		_Serial_Oupcode
  5584 ;; This function uses a non-reentrant model
  5585 ;;
  5586                           
  5587                           	psect	text22
  5588  001E66                     __ptext22:
  5589                           	opt callstack 0
  5590  001E66                     _Motor_Movimiento:
  5591                           	opt callstack 22
  5592                           
  5593                           ; BSR set to: 0
  5594                           ;incstack = 0
  5595                           ;Motor_Movimiento@Oupcode stored from wreg
  5596  001E66  0100               	movlb	0	; () banked
  5597  001E68  6F9B               	movwf	Motor_Movimiento@Oupcode& (0+255),b
  5598  001E6A                     
  5599                           ;Motor.c: 25:     Motor_Calcular_PasosX(Motor_CoordenadaX);
  5600  001E6A  C097  F060         	movff	Motor_Movimiento@Motor_CoordenadaX,Motor_Calcular_PasosX@coordenada_actualX
  5601  001E6E  C098  F061         	movff	Motor_Movimiento@Motor_CoordenadaX+1,Motor_Calcular_PasosX@coordenada_actualX+1
  5602  001E72  ECB7  F00F         	call	_Motor_Calcular_PasosX	;wreg free
  5603                           
  5604                           ;Motor.c: 26:     Motor_Calcular_PasosY(Motor_CoordenadaY);
  5605  001E76  C099  F060         	movff	Motor_Movimiento@Motor_CoordenadaY,Motor_Calcular_PasosY@coordenada_actualY
  5606  001E7A  C09A  F061         	movff	Motor_Movimiento@Motor_CoordenadaY+1,Motor_Calcular_PasosY@coordenada_actualY+1
  5607  001E7E  EC75  F00F         	call	_Motor_Calcular_PasosY	;wreg free
  5608                           
  5609                           ;Motor.c: 27:     PasosX = Motor_Conversion(DeltaX);
  5610  001E82  C0AA  F091         	movff	_DeltaX,Motor_Conversion@Coordenada
  5611  001E86  C0AB  F092         	movff	_DeltaX+1,Motor_Conversion@Coordenada+1
  5612  001E8A  EC34  F010         	call	_Motor_Conversion	;wreg free
  5613  001E8E  C091  F0AE         	movff	?_Motor_Conversion,_PasosX
  5614  001E92  C092  F0AF         	movff	?_Motor_Conversion+1,_PasosX+1
  5615                           
  5616                           ;Motor.c: 28:     PasosY = Motor_Conversion(DeltaY);
  5617  001E96  C0A8  F091         	movff	_DeltaY,Motor_Conversion@Coordenada
  5618  001E9A  C0A9  F092         	movff	_DeltaY+1,Motor_Conversion@Coordenada+1
  5619  001E9E  EC34  F010         	call	_Motor_Conversion	;wreg free
  5620  001EA2  C091  F0AC         	movff	?_Motor_Conversion,_PasosY
  5621  001EA6  C092  F0AD         	movff	?_Motor_Conversion+1,_PasosY+1
  5622  001EAA                     
  5623                           ;Motor.c: 29:     coordenada_anteriorX=Motor_CoordenadaX;
  5624  001EAA  C097  F0A6         	movff	Motor_Movimiento@Motor_CoordenadaX,_coordenada_anteriorX
  5625  001EAE  C098  F0A7         	movff	Motor_Movimiento@Motor_CoordenadaX+1,_coordenada_anteriorX+1
  5626  001EB2                     
  5627                           ;Motor.c: 30:     coordenada_anteriorY=Motor_CoordenadaY;
  5628  001EB2  C099  F0A4         	movff	Motor_Movimiento@Motor_CoordenadaY,_coordenada_anteriorY
  5629  001EB6  C09A  F0A5         	movff	Motor_Movimiento@Motor_CoordenadaY+1,_coordenada_anteriorY+1
  5630                           
  5631                           ;Motor.c: 31:     PWM_GeneratePulsos(Oupcode, PasosX, PasosY);
  5632  001EBA  C0AE  F062         	movff	_PasosX,PWM_GeneratePulsos@pulsosX
  5633  001EBE  C0AF  F063         	movff	_PasosX+1,PWM_GeneratePulsos@pulsosX+1
  5634  001EC2  C0AC  F064         	movff	_PasosY,PWM_GeneratePulsos@pulsosY
  5635  001EC6  C0AD  F065         	movff	_PasosY+1,PWM_GeneratePulsos@pulsosY+1
  5636  001ECA  0100               	movlb	0	; () banked
  5637  001ECC  519B               	movf	Motor_Movimiento@Oupcode& (0+255),w,b
  5638  001ECE  EC5C  F009         	call	_PWM_GeneratePulsos
  5639  001ED2                     
  5640                           ;Motor.c: 32:     USART_TxS("COMPLETED\n",sizeof("COMPLETED\n")-1);
  5641  001ED2  0EE2               	movlw	low STR_41
  5642  001ED4  0100               	movlb	0	; () banked
  5643  001ED6  6F60               	movwf	USART_TxS@str& (0+255),b
  5644  001ED8  0E7F               	movlw	high STR_41
  5645  001EDA  6F61               	movwf	(USART_TxS@str+1)& (0+255),b
  5646  001EDC  0E00               	movlw	0
  5647  001EDE  6F63               	movwf	(USART_TxS@length+1)& (0+255),b
  5648  001EE0  0E0A               	movlw	10
  5649  001EE2  6F62               	movwf	USART_TxS@length& (0+255),b
  5650  001EE4  EC6E  F010         	call	_USART_TxS	;wreg free
  5651  001EE8  0012               	return		;funcret
  5652  001EEA                     __end_of_Motor_Movimiento:
  5653                           	opt callstack 0
  5654                           
  5655 ;; *************** function _PWM_GeneratePulsos *****************
  5656 ;; Defined at:
  5657 ;;		line 6 in file "PWM.c"
  5658 ;; Parameters:    Size  Location     Type
  5659 ;;  Oupcode         1    wreg     unsigned char 
  5660 ;;  pulsosX         2    2[BANK0 ] int 
  5661 ;;  pulsosY         2    4[BANK0 ] int 
  5662 ;; Auto vars:     Size  Location     Type
  5663 ;;  Oupcode         1    7[BANK0 ] unsigned char 
  5664 ;;  countY          2   10[BANK0 ] int 
  5665 ;;  countX          2    8[BANK0 ] int 
  5666 ;; Return value:  Size  Location     Type
  5667 ;;                  1    wreg      void 
  5668 ;; Registers used:
  5669 ;;		wreg, status,2, status,0, cstack
  5670 ;; Tracked objects:
  5671 ;;		On entry : 0/0
  5672 ;;		On exit  : 0/0
  5673 ;;		Unchanged: 0/0
  5674 ;; Data sizes:     COMRAM   BANK0   BANK1   BANK2   BANK3   BANK4   BANK5   BANK6   BANK7
  5675 ;;      Params:         0       4       0       0       0       0       0       0       0
  5676 ;;      Locals:         0       5       0       0       0       0       0       0       0
  5677 ;;      Temps:          0       1       0       0       0       0       0       0       0
  5678 ;;      Totals:         0      10       0       0       0       0       0       0       0
  5679 ;;Total ram usage:       10 bytes
  5680 ;; Hardware stack levels used:    1
  5681 ;; Hardware stack levels required when called:    6
  5682 ;; This function calls:
  5683 ;;		_PWM_InitF
  5684 ;;		_PWM_InitS
  5685 ;;		_PWM_OneshotX
  5686 ;;		_PWM_OneshotY
  5687 ;; This function is called by:
  5688 ;;		_Motor_Movimiento
  5689 ;; This function uses a non-reentrant model
  5690 ;;
  5691                           
  5692                           	psect	text23
  5693  0012B8                     __ptext23:
  5694                           	opt callstack 0
  5695  0012B8                     _PWM_GeneratePulsos:
  5696                           	opt callstack 22
  5697                           
  5698                           ;incstack = 0
  5699                           ;PWM_GeneratePulsos@Oupcode stored from wreg
  5700  0012B8  0100               	movlb	0	; () banked
  5701  0012BA  6F67               	movwf	PWM_GeneratePulsos@Oupcode& (0+255),b
  5702  0012BC                     
  5703                           ;PWM.c: 7:     if (Oupcode == 'S') {
  5704  0012BC  0E53               	movlw	83
  5705  0012BE  0100               	movlb	0	; () banked
  5706  0012C0  1967               	xorwf	PWM_GeneratePulsos@Oupcode& (0+255),w,b
  5707  0012C2  A4D8               	btfss	status,2,c
  5708  0012C4  EF66  F009         	goto	u2841
  5709  0012C8  EF68  F009         	goto	u2840
  5710  0012CC                     u2841:
  5711  0012CC  EF6C  F009         	goto	l3966
  5712  0012D0                     u2840:
  5713  0012D0                     
  5714                           ; BSR set to: 0
  5715                           ;PWM.c: 8:         PWM_InitS();
  5716  0012D0  EC63  F013         	call	_PWM_InitS	;wreg free
  5717                           
  5718                           ;PWM.c: 9:     } else {
  5719  0012D4  EF6E  F009         	goto	l3968
  5720  0012D8                     l3966:
  5721                           
  5722                           ; BSR set to: 0
  5723                           ;PWM.c: 10:         PWM_InitF();
  5724  0012D8  EC43  F013         	call	_PWM_InitF	;wreg free
  5725  0012DC                     l3968:
  5726                           
  5727                           ;PWM.c: 12:     PORTDbits.RD0 = 0;
  5728  0012DC  9083               	bcf	131,0,c	;volatile
  5729  0012DE                     
  5730                           ;PWM.c: 13:     PORTDbits.RD2 = 0;
  5731  0012DE  9483               	bcf	131,2,c	;volatile
  5732  0012E0                     
  5733                           ;PWM.c: 14:     int countX = 0;
  5734  0012E0  0E00               	movlw	0
  5735  0012E2  0100               	movlb	0	; () banked
  5736  0012E4  6F69               	movwf	(PWM_GeneratePulsos@countX+1)& (0+255),b
  5737  0012E6  0E00               	movlw	0
  5738  0012E8  6F68               	movwf	PWM_GeneratePulsos@countX& (0+255),b
  5739  0012EA                     
  5740                           ; BSR set to: 0
  5741                           ;PWM.c: 15:     int countY = 0;
  5742  0012EA  0E00               	movlw	0
  5743  0012EC  6F6B               	movwf	(PWM_GeneratePulsos@countY+1)& (0+255),b
  5744  0012EE  0E00               	movlw	0
  5745  0012F0  6F6A               	movwf	PWM_GeneratePulsos@countY& (0+255),b
  5746  0012F2                     
  5747                           ; BSR set to: 0
  5748                           ;PWM.c: 16:     if (pulsosX==0){
  5749  0012F2  5162               	movf	PWM_GeneratePulsos@pulsosX& (0+255),w,b
  5750  0012F4  1163               	iorwf	(PWM_GeneratePulsos@pulsosX+1)& (0+255),w,b
  5751  0012F6  A4D8               	btfss	status,2,c
  5752  0012F8  EF80  F009         	goto	u2851
  5753  0012FC  EF82  F009         	goto	u2850
  5754  001300                     u2851:
  5755  001300  EF83  F009         	goto	l3980
  5756  001304                     u2850:
  5757  001304                     
  5758                           ; BSR set to: 0
  5759                           ;PWM.c: 17:         PORTDbits.RD0 = 1;
  5760  001304  8083               	bsf	131,0,c	;volatile
  5761  001306                     l3980:
  5762                           
  5763                           ; BSR set to: 0
  5764                           ;PWM.c: 19:     if (pulsosY==0){
  5765  001306  5164               	movf	PWM_GeneratePulsos@pulsosY& (0+255),w,b
  5766  001308  1165               	iorwf	(PWM_GeneratePulsos@pulsosY+1)& (0+255),w,b
  5767  00130A  A4D8               	btfss	status,2,c
  5768  00130C  EF8A  F009         	goto	u2861
  5769  001310  EF8C  F009         	goto	u2860
  5770  001314                     u2861:
  5771  001314  EF8D  F009         	goto	l42
  5772  001318                     u2860:
  5773  001318                     
  5774                           ; BSR set to: 0
  5775                           ;PWM.c: 20:         PORTDbits.RD2 = 1;
  5776  001318  8483               	bsf	131,2,c	;volatile
  5777  00131A                     l42:
  5778                           
  5779                           ; BSR set to: 0
  5780                           ;PWM.c: 22:     T2CONbits.TMR2ON = 1;
  5781  00131A  84CA               	bsf	202,2,c	;volatile
  5782                           
  5783                           ;PWM.c: 23:     while ((countX < pulsosX) || (countY < pulsosY)) {
  5784  00131C  EFDF  F009         	goto	l4000
  5785  001320                     l3984:
  5786                           
  5787                           ; BSR set to: 0
  5788                           ;PWM.c: 24:         if (countX < pulsosX) {
  5789  001320  5162               	movf	PWM_GeneratePulsos@pulsosX& (0+255),w,b
  5790  001322  5D68               	subwf	PWM_GeneratePulsos@countX& (0+255),w,b
  5791  001324  5169               	movf	(PWM_GeneratePulsos@countX+1)& (0+255),w,b
  5792  001326  0A80               	xorlw	128
  5793  001328  6F66               	movwf	??_PWM_GeneratePulsos& (0+255),b
  5794  00132A  5163               	movf	(PWM_GeneratePulsos@pulsosX+1)& (0+255),w,b
  5795  00132C  0A80               	xorlw	128
  5796  00132E  5966               	subwfb	??_PWM_GeneratePulsos& (0+255),w,b
  5797  001330  B0D8               	btfsc	status,0,c
  5798  001332  EF9D  F009         	goto	u2871
  5799  001336  EF9F  F009         	goto	u2870
  5800  00133A                     u2871:
  5801  00133A  EFB6  F009         	goto	l45
  5802  00133E                     u2870:
  5803  00133E                     
  5804                           ; BSR set to: 0
  5805                           ;PWM.c: 25:             if (PORTCbits.RC1 == 1) {
  5806  00133E  A282               	btfss	130,1,c	;volatile
  5807  001340  EFA4  F009         	goto	u2881
  5808  001344  EFA6  F009         	goto	u2880
  5809  001348                     u2881:
  5810  001348  EFB2  F009         	goto	l3990
  5811  00134C                     u2880:
  5812  00134C                     
  5813                           ; BSR set to: 0
  5814                           ;PWM.c: 26:                 countX = PWM_OneshotX(countX);
  5815  00134C  C068  F060         	movff	PWM_GeneratePulsos@countX,PWM_OneshotX@countX
  5816  001350  C069  F061         	movff	PWM_GeneratePulsos@countX+1,PWM_OneshotX@countX+1
  5817  001354  ECA9  F012         	call	_PWM_OneshotX	;wreg free
  5818  001358  C060  F068         	movff	?_PWM_OneshotX,PWM_GeneratePulsos@countX
  5819  00135C  C061  F069         	movff	?_PWM_OneshotX+1,PWM_GeneratePulsos@countX+1
  5820                           
  5821                           ;PWM.c: 27:             } else {
  5822  001360  EFB7  F009         	goto	l3992
  5823  001364                     l3990:
  5824                           
  5825                           ; BSR set to: 0
  5826                           ;PWM.c: 28:                 oneshotX = 0;
  5827  001364  0E00               	movlw	0
  5828  001366  6FB6               	movwf	_oneshotX& (0+255),b
  5829  001368  EFB7  F009         	goto	l3992
  5830  00136C                     l45:
  5831                           
  5832                           ; BSR set to: 0
  5833                           ;PWM.c: 31:             PORTDbits.RD0 = 1;
  5834  00136C  8083               	bsf	131,0,c	;volatile
  5835  00136E                     l3992:
  5836                           
  5837                           ;PWM.c: 33:         if (countY < pulsosY) {
  5838  00136E  0100               	movlb	0	; () banked
  5839  001370  5164               	movf	PWM_GeneratePulsos@pulsosY& (0+255),w,b
  5840  001372  5D6A               	subwf	PWM_GeneratePulsos@countY& (0+255),w,b
  5841  001374  516B               	movf	(PWM_GeneratePulsos@countY+1)& (0+255),w,b
  5842  001376  0A80               	xorlw	128
  5843  001378  6F66               	movwf	??_PWM_GeneratePulsos& (0+255),b
  5844  00137A  5165               	movf	(PWM_GeneratePulsos@pulsosY+1)& (0+255),w,b
  5845  00137C  0A80               	xorlw	128
  5846  00137E  5966               	subwfb	??_PWM_GeneratePulsos& (0+255),w,b
  5847  001380  B0D8               	btfsc	status,0,c
  5848  001382  EFC5  F009         	goto	u2891
  5849  001386  EFC7  F009         	goto	u2890
  5850  00138A                     u2891:
  5851  00138A  EFDE  F009         	goto	l49
  5852  00138E                     u2890:
  5853  00138E                     
  5854                           ; BSR set to: 0
  5855                           ;PWM.c: 34:             if (PORTCbits.RC2 == 1) {
  5856  00138E  A482               	btfss	130,2,c	;volatile
  5857  001390  EFCC  F009         	goto	u2901
  5858  001394  EFCE  F009         	goto	u2900
  5859  001398                     u2901:
  5860  001398  EFDA  F009         	goto	l3998
  5861  00139C                     u2900:
  5862  00139C                     
  5863                           ; BSR set to: 0
  5864                           ;PWM.c: 35:                 countY = PWM_OneshotY(countY);
  5865  00139C  C06A  F060         	movff	PWM_GeneratePulsos@countY,PWM_OneshotY@countY
  5866  0013A0  C06B  F061         	movff	PWM_GeneratePulsos@countY+1,PWM_OneshotY@countY+1
  5867  0013A4  EC90  F012         	call	_PWM_OneshotY	;wreg free
  5868  0013A8  C060  F06A         	movff	?_PWM_OneshotY,PWM_GeneratePulsos@countY
  5869  0013AC  C061  F06B         	movff	?_PWM_OneshotY+1,PWM_GeneratePulsos@countY+1
  5870                           
  5871                           ;PWM.c: 36:             } else {
  5872  0013B0  EFDF  F009         	goto	l4000
  5873  0013B4                     l3998:
  5874                           
  5875                           ; BSR set to: 0
  5876                           ;PWM.c: 37:                 oneshotY = 0;
  5877  0013B4  0E00               	movlw	0
  5878  0013B6  6FB5               	movwf	_oneshotY& (0+255),b
  5879  0013B8  EFDF  F009         	goto	l4000
  5880  0013BC                     l49:
  5881                           
  5882                           ; BSR set to: 0
  5883                           ;PWM.c: 40:             PORTDbits.RD2 = 1;
  5884  0013BC  8483               	bsf	131,2,c	;volatile
  5885  0013BE                     l4000:
  5886                           
  5887                           ;PWM.c: 23:     while ((countX < pulsosX) || (countY < pulsosY)) {
  5888  0013BE  0100               	movlb	0	; () banked
  5889  0013C0  5162               	movf	PWM_GeneratePulsos@pulsosX& (0+255),w,b
  5890  0013C2  5D68               	subwf	PWM_GeneratePulsos@countX& (0+255),w,b
  5891  0013C4  5169               	movf	(PWM_GeneratePulsos@countX+1)& (0+255),w,b
  5892  0013C6  0A80               	xorlw	128
  5893  0013C8  6F66               	movwf	??_PWM_GeneratePulsos& (0+255),b
  5894  0013CA  5163               	movf	(PWM_GeneratePulsos@pulsosX+1)& (0+255),w,b
  5895  0013CC  0A80               	xorlw	128
  5896  0013CE  5966               	subwfb	??_PWM_GeneratePulsos& (0+255),w,b
  5897  0013D0  A0D8               	btfss	status,0,c
  5898  0013D2  EFED  F009         	goto	u2911
  5899  0013D6  EFEF  F009         	goto	u2910
  5900  0013DA                     u2911:
  5901  0013DA  EF90  F009         	goto	l3984
  5902  0013DE                     u2910:
  5903  0013DE                     
  5904                           ; BSR set to: 0
  5905  0013DE  5164               	movf	PWM_GeneratePulsos@pulsosY& (0+255),w,b
  5906  0013E0  5D6A               	subwf	PWM_GeneratePulsos@countY& (0+255),w,b
  5907  0013E2  516B               	movf	(PWM_GeneratePulsos@countY+1)& (0+255),w,b
  5908  0013E4  0A80               	xorlw	128
  5909  0013E6  6F66               	movwf	??_PWM_GeneratePulsos& (0+255),b
  5910  0013E8  5165               	movf	(PWM_GeneratePulsos@pulsosY+1)& (0+255),w,b
  5911  0013EA  0A80               	xorlw	128
  5912  0013EC  5966               	subwfb	??_PWM_GeneratePulsos& (0+255),w,b
  5913  0013EE  A0D8               	btfss	status,0,c
  5914  0013F0  EFFC  F009         	goto	u2921
  5915  0013F4  EFFE  F009         	goto	u2920
  5916  0013F8                     u2921:
  5917  0013F8  EF90  F009         	goto	l3984
  5918  0013FC                     u2920:
  5919  0013FC                     
  5920                           ; BSR set to: 0
  5921                           ;PWM.c: 44:     oneshotX = 0;
  5922  0013FC  0E00               	movlw	0
  5923  0013FE  6FB6               	movwf	_oneshotX& (0+255),b
  5924                           
  5925                           ;PWM.c: 45:     countY = 0;
  5926  001400  0E00               	movlw	0
  5927  001402  6F6B               	movwf	(PWM_GeneratePulsos@countY+1)& (0+255),b
  5928  001404  0E00               	movlw	0
  5929  001406  6F6A               	movwf	PWM_GeneratePulsos@countY& (0+255),b
  5930                           
  5931                           ;PWM.c: 46:     oneshotY = 0;
  5932  001408  0E00               	movlw	0
  5933  00140A  6FB5               	movwf	_oneshotY& (0+255),b
  5934  00140C                     
  5935                           ; BSR set to: 0
  5936                           ;PWM.c: 47:     T2CONbits.TMR2ON = 0;
  5937  00140C  94CA               	bcf	202,2,c	;volatile
  5938  00140E                     
  5939                           ; BSR set to: 0
  5940  00140E  0012               	return		;funcret
  5941  001410                     __end_of_PWM_GeneratePulsos:
  5942                           	opt callstack 0
  5943                           
  5944 ;; *************** function _PWM_OneshotY *****************
  5945 ;; Defined at:
  5946 ;;		line 108 in file "PWM.c"
  5947 ;; Parameters:    Size  Location     Type
  5948 ;;  countY          2    0[BANK0 ] int 
  5949 ;; Auto vars:     Size  Location     Type
  5950 ;;		None
  5951 ;; Return value:  Size  Location     Type
  5952 ;;                  2    0[BANK0 ] int 
  5953 ;; Registers used:
  5954 ;;		wreg, status,2, status,0
  5955 ;; Tracked objects:
  5956 ;;		On entry : 0/0
  5957 ;;		On exit  : 0/0
  5958 ;;		Unchanged: 0/0
  5959 ;; Data sizes:     COMRAM   BANK0   BANK1   BANK2   BANK3   BANK4   BANK5   BANK6   BANK7
  5960 ;;      Params:         0       2       0       0       0       0       0       0       0
  5961 ;;      Locals:         0       0       0       0       0       0       0       0       0
  5962 ;;      Temps:          0       0       0       0       0       0       0       0       0
  5963 ;;      Totals:         0       2       0       0       0       0       0       0       0
  5964 ;;Total ram usage:        2 bytes
  5965 ;; Hardware stack levels used:    1
  5966 ;; Hardware stack levels required when called:    5
  5967 ;; This function calls:
  5968 ;;		Nothing
  5969 ;; This function is called by:
  5970 ;;		_PWM_GeneratePulsos
  5971 ;; This function uses a non-reentrant model
  5972 ;;
  5973                           
  5974                           	psect	text24
  5975  002520                     __ptext24:
  5976                           	opt callstack 0
  5977  002520                     _PWM_OneshotY:
  5978                           	opt callstack 22
  5979  002520                     
  5980                           ;PWM.c: 109:     if (PORTCbits.RC2 == 1 & oneshotY == 0) {
  5981  002520  A482               	btfss	130,2,c	;volatile
  5982  002522  EF95  F012         	goto	u1941
  5983  002526  EF97  F012         	goto	u1940
  5984  00252A                     u1941:
  5985  00252A  EFA4  F012         	goto	l3434
  5986  00252E                     u1940:
  5987  00252E  0100               	movlb	0	; () banked
  5988  002530  51B5               	movf	_oneshotY& (0+255),w,b
  5989  002532  A4D8               	btfss	status,2,c
  5990  002534  EF9E  F012         	goto	u1951
  5991  002538  EFA0  F012         	goto	u1950
  5992  00253C                     u1951:
  5993  00253C  EFA4  F012         	goto	l3434
  5994  002540                     u1950:
  5995  002540                     
  5996                           ; BSR set to: 0
  5997                           ;PWM.c: 110:         countY++;
  5998  002540  4B60               	infsnz	PWM_OneshotY@countY& (0+255),f,b
  5999  002542  2B61               	incf	(PWM_OneshotY@countY+1)& (0+255),f,b
  6000  002544                     
  6001                           ; BSR set to: 0
  6002                           ;PWM.c: 111:         oneshotY = 1;
  6003  002544  0E01               	movlw	1
  6004  002546  6FB5               	movwf	_oneshotY& (0+255),b
  6005  002548                     l3434:
  6006                           
  6007                           ;PWM.c: 113:     return countY;
  6008  002548  C060  F060         	movff	PWM_OneshotY@countY,?_PWM_OneshotY
  6009  00254C  C061  F061         	movff	PWM_OneshotY@countY+1,?_PWM_OneshotY+1
  6010  002550  0012               	return		;funcret
  6011  002552                     __end_of_PWM_OneshotY:
  6012                           	opt callstack 0
  6013                           
  6014 ;; *************** function _PWM_OneshotX *****************
  6015 ;; Defined at:
  6016 ;;		line 100 in file "PWM.c"
  6017 ;; Parameters:    Size  Location     Type
  6018 ;;  countX          2    0[BANK0 ] int 
  6019 ;; Auto vars:     Size  Location     Type
  6020 ;;		None
  6021 ;; Return value:  Size  Location     Type
  6022 ;;                  2    0[BANK0 ] int 
  6023 ;; Registers used:
  6024 ;;		wreg, status,2, status,0
  6025 ;; Tracked objects:
  6026 ;;		On entry : 0/0
  6027 ;;		On exit  : 0/0
  6028 ;;		Unchanged: 0/0
  6029 ;; Data sizes:     COMRAM   BANK0   BANK1   BANK2   BANK3   BANK4   BANK5   BANK6   BANK7
  6030 ;;      Params:         0       2       0       0       0       0       0       0       0
  6031 ;;      Locals:         0       0       0       0       0       0       0       0       0
  6032 ;;      Temps:          0       0       0       0       0       0       0       0       0
  6033 ;;      Totals:         0       2       0       0       0       0       0       0       0
  6034 ;;Total ram usage:        2 bytes
  6035 ;; Hardware stack levels used:    1
  6036 ;; Hardware stack levels required when called:    5
  6037 ;; This function calls:
  6038 ;;		Nothing
  6039 ;; This function is called by:
  6040 ;;		_PWM_GeneratePulsos
  6041 ;; This function uses a non-reentrant model
  6042 ;;
  6043                           
  6044                           	psect	text25
  6045  002552                     __ptext25:
  6046                           	opt callstack 0
  6047  002552                     _PWM_OneshotX:
  6048                           	opt callstack 22
  6049  002552                     
  6050                           ;PWM.c: 101:     if (PORTCbits.RC1 == 1 & oneshotX == 0) {
  6051  002552  A282               	btfss	130,1,c	;volatile
  6052  002554  EFAE  F012         	goto	u1921
  6053  002558  EFB0  F012         	goto	u1920
  6054  00255C                     u1921:
  6055  00255C  EFBD  F012         	goto	l3422
  6056  002560                     u1920:
  6057  002560  0100               	movlb	0	; () banked
  6058  002562  51B6               	movf	_oneshotX& (0+255),w,b
  6059  002564  A4D8               	btfss	status,2,c
  6060  002566  EFB7  F012         	goto	u1931
  6061  00256A  EFB9  F012         	goto	u1930
  6062  00256E                     u1931:
  6063  00256E  EFBD  F012         	goto	l3422
  6064  002572                     u1930:
  6065  002572                     
  6066                           ; BSR set to: 0
  6067                           ;PWM.c: 102:         countX++;
  6068  002572  4B60               	infsnz	PWM_OneshotX@countX& (0+255),f,b
  6069  002574  2B61               	incf	(PWM_OneshotX@countX+1)& (0+255),f,b
  6070  002576                     
  6071                           ; BSR set to: 0
  6072                           ;PWM.c: 103:         oneshotX = 1;
  6073  002576  0E01               	movlw	1
  6074  002578  6FB6               	movwf	_oneshotX& (0+255),b
  6075  00257A                     l3422:
  6076                           
  6077                           ;PWM.c: 105:     return countX;
  6078  00257A  C060  F060         	movff	PWM_OneshotX@countX,?_PWM_OneshotX
  6079  00257E  C061  F061         	movff	PWM_OneshotX@countX+1,?_PWM_OneshotX+1
  6080  002582  0012               	return		;funcret
  6081  002584                     __end_of_PWM_OneshotX:
  6082                           	opt callstack 0
  6083                           
  6084 ;; *************** function _PWM_InitS *****************
  6085 ;; Defined at:
  6086 ;;		line 86 in file "PWM.c"
  6087 ;; Parameters:    Size  Location     Type
  6088 ;;		None
  6089 ;; Auto vars:     Size  Location     Type
  6090 ;;		None
  6091 ;; Return value:  Size  Location     Type
  6092 ;;                  1    wreg      void 
  6093 ;; Registers used:
  6094 ;;		wreg, status,2
  6095 ;; Tracked objects:
  6096 ;;		On entry : 0/0
  6097 ;;		On exit  : 0/0
  6098 ;;		Unchanged: 0/0
  6099 ;; Data sizes:     COMRAM   BANK0   BANK1   BANK2   BANK3   BANK4   BANK5   BANK6   BANK7
  6100 ;;      Params:         0       0       0       0       0       0       0       0       0
  6101 ;;      Locals:         0       0       0       0       0       0       0       0       0
  6102 ;;      Temps:          0       0       0       0       0       0       0       0       0
  6103 ;;      Totals:         0       0       0       0       0       0       0       0       0
  6104 ;;Total ram usage:        0 bytes
  6105 ;; Hardware stack levels used:    1
  6106 ;; Hardware stack levels required when called:    5
  6107 ;; This function calls:
  6108 ;;		Nothing
  6109 ;; This function is called by:
  6110 ;;		_PWM_GeneratePulsos
  6111 ;;		_Motor_Home
  6112 ;;		_PWM_Pulsos_Home
  6113 ;; This function uses a non-reentrant model
  6114 ;;
  6115                           
  6116                           	psect	text26
  6117  0026C6                     __ptext26:
  6118                           	opt callstack 0
  6119  0026C6                     _PWM_InitS:
  6120                           	opt callstack 23
  6121  0026C6                     
  6122                           ;PWM.c: 88:     PR2 = 0XFF;
  6123  0026C6  68CB               	setf	203,c	;volatile
  6124  0026C8                     
  6125                           ;PWM.c: 89:     CCPR1L = 0X3E;
  6126  0026C8  0E3E               	movlw	62
  6127  0026CA  6EBE               	movwf	190,c	;volatile
  6128                           
  6129                           ;PWM.c: 90:     CCPR2L = 0X3E;
  6130  0026CC  0E3E               	movlw	62
  6131  0026CE  6EBB               	movwf	187,c	;volatile
  6132  0026D0                     
  6133                           ;PWM.c: 91:     TRISCbits.RC1 = 0;
  6134  0026D0  9294               	bcf	148,1,c	;volatile
  6135  0026D2                     
  6136                           ;PWM.c: 92:     TRISCbits.RC2 = 0;
  6137  0026D2  9494               	bcf	148,2,c	;volatile
  6138                           
  6139                           ;PWM.c: 93:     T2CON = 0X03;
  6140  0026D4  0E03               	movlw	3
  6141  0026D6  6ECA               	movwf	202,c	;volatile
  6142                           
  6143                           ;PWM.c: 94:     CCP1CON = 0X0C;
  6144  0026D8  0E0C               	movlw	12
  6145  0026DA  6EBD               	movwf	189,c	;volatile
  6146                           
  6147                           ;PWM.c: 95:     CCP2CON = 0X0C;
  6148  0026DC  0E0C               	movlw	12
  6149  0026DE  6EBA               	movwf	186,c	;volatile
  6150  0026E0                     
  6151                           ;PWM.c: 96:     T2CONbits.TMR2ON = 0;
  6152  0026E0  94CA               	bcf	202,2,c	;volatile
  6153  0026E2  0012               	return		;funcret
  6154  0026E4                     __end_of_PWM_InitS:
  6155                           	opt callstack 0
  6156                           
  6157 ;; *************** function _PWM_InitF *****************
  6158 ;; Defined at:
  6159 ;;		line 72 in file "PWM.c"
  6160 ;; Parameters:    Size  Location     Type
  6161 ;;		None
  6162 ;; Auto vars:     Size  Location     Type
  6163 ;;		None
  6164 ;; Return value:  Size  Location     Type
  6165 ;;                  1    wreg      void 
  6166 ;; Registers used:
  6167 ;;		wreg, status,2
  6168 ;; Tracked objects:
  6169 ;;		On entry : 0/0
  6170 ;;		On exit  : 0/0
  6171 ;;		Unchanged: 0/0
  6172 ;; Data sizes:     COMRAM   BANK0   BANK1   BANK2   BANK3   BANK4   BANK5   BANK6   BANK7
  6173 ;;      Params:         0       0       0       0       0       0       0       0       0
  6174 ;;      Locals:         0       0       0       0       0       0       0       0       0
  6175 ;;      Temps:          0       0       0       0       0       0       0       0       0
  6176 ;;      Totals:         0       0       0       0       0       0       0       0       0
  6177 ;;Total ram usage:        0 bytes
  6178 ;; Hardware stack levels used:    1
  6179 ;; Hardware stack levels required when called:    5
  6180 ;; This function calls:
  6181 ;;		Nothing
  6182 ;; This function is called by:
  6183 ;;		_PWM_GeneratePulsos
  6184 ;; This function uses a non-reentrant model
  6185 ;;
  6186                           
  6187                           	psect	text27
  6188  002686                     __ptext27:
  6189                           	opt callstack 0
  6190  002686                     _PWM_InitF:
  6191                           	opt callstack 22
  6192  002686                     
  6193                           ;PWM.c: 74:     PR2 = 0X7C;
  6194  002686  0E7C               	movlw	124
  6195  002688  6ECB               	movwf	203,c	;volatile
  6196                           
  6197                           ;PWM.c: 75:     CCPR1L = 0X3E;
  6198  00268A  0E3E               	movlw	62
  6199  00268C  6EBE               	movwf	190,c	;volatile
  6200                           
  6201                           ;PWM.c: 76:     CCPR2L = 0X3E;
  6202  00268E  0E3E               	movlw	62
  6203  002690  6EBB               	movwf	187,c	;volatile
  6204  002692                     
  6205                           ;PWM.c: 77:     TRISCbits.RC1 = 0;
  6206  002692  9294               	bcf	148,1,c	;volatile
  6207  002694                     
  6208                           ;PWM.c: 78:     TRISCbits.RC2 = 0;
  6209  002694  9494               	bcf	148,2,c	;volatile
  6210                           
  6211                           ;PWM.c: 79:     T2CON = 0X03;
  6212  002696  0E03               	movlw	3
  6213  002698  6ECA               	movwf	202,c	;volatile
  6214                           
  6215                           ;PWM.c: 80:     CCP1CON = 0X0C;
  6216  00269A  0E0C               	movlw	12
  6217  00269C  6EBD               	movwf	189,c	;volatile
  6218                           
  6219                           ;PWM.c: 81:     CCP2CON = 0X0C;
  6220  00269E  0E0C               	movlw	12
  6221  0026A0  6EBA               	movwf	186,c	;volatile
  6222  0026A2                     
  6223                           ;PWM.c: 82:     T2CONbits.TMR2ON = 0;
  6224  0026A2  94CA               	bcf	202,2,c	;volatile
  6225  0026A4  0012               	return		;funcret
  6226  0026A6                     __end_of_PWM_InitF:
  6227                           	opt callstack 0
  6228                           
  6229 ;; *************** function _Motor_Conversion *****************
  6230 ;; Defined at:
  6231 ;;		line 18 in file "Motor.c"
  6232 ;; Parameters:    Size  Location     Type
  6233 ;;  Coordenada      2   49[BANK0 ] int 
  6234 ;; Auto vars:     Size  Location     Type
  6235 ;;  conversion      4   51[BANK0 ] float 
  6236 ;; Return value:  Size  Location     Type
  6237 ;;                  2   49[BANK0 ] int 
  6238 ;; Registers used:
  6239 ;;		wreg, status,2, status,0, cstack
  6240 ;; Tracked objects:
  6241 ;;		On entry : 0/0
  6242 ;;		On exit  : 0/0
  6243 ;;		Unchanged: 0/0
  6244 ;; Data sizes:     COMRAM   BANK0   BANK1   BANK2   BANK3   BANK4   BANK5   BANK6   BANK7
  6245 ;;      Params:         0       2       0       0       0       0       0       0       0
  6246 ;;      Locals:         0       4       0       0       0       0       0       0       0
  6247 ;;      Temps:          0       0       0       0       0       0       0       0       0
  6248 ;;      Totals:         0       6       0       0       0       0       0       0       0
  6249 ;;Total ram usage:        6 bytes
  6250 ;; Hardware stack levels used:    1
  6251 ;; Hardware stack levels required when called:    6
  6252 ;; This function calls:
  6253 ;;		___fldiv
  6254 ;;		___fltol
  6255 ;;		___xxtofl
  6256 ;; This function is called by:
  6257 ;;		_Motor_Movimiento
  6258 ;; This function uses a non-reentrant model
  6259 ;;
  6260                           
  6261                           	psect	text28
  6262  002068                     __ptext28:
  6263                           	opt callstack 0
  6264  002068                     _Motor_Conversion:
  6265                           	opt callstack 22
  6266  002068                     
  6267                           ;Motor.c: 19:     float conversion = 0.2;
  6268  002068  0ECD               	movlw	205
  6269  00206A  0100               	movlb	0	; () banked
  6270  00206C  6F93               	movwf	Motor_Conversion@conversion& (0+255),b
  6271  00206E  0ECC               	movlw	204
  6272  002070  6F94               	movwf	(Motor_Conversion@conversion+1)& (0+255),b
  6273  002072  0E4C               	movlw	76
  6274  002074  6F95               	movwf	(Motor_Conversion@conversion+2)& (0+255),b
  6275  002076  0E3E               	movlw	62
  6276  002078  6F96               	movwf	(Motor_Conversion@conversion+3)& (0+255),b
  6277  00207A                     
  6278                           ; BSR set to: 0
  6279                           ;Motor.c: 20:     pasos_convertidos = Coordenada / conversion;
  6280  00207A  C093  F072         	movff	Motor_Conversion@conversion,___fldiv@a
  6281  00207E  C094  F073         	movff	Motor_Conversion@conversion+1,___fldiv@a+1
  6282  002082  C095  F074         	movff	Motor_Conversion@conversion+2,___fldiv@a+2
  6283  002086  C096  F075         	movff	Motor_Conversion@conversion+3,___fldiv@a+3
  6284  00208A  C091  F060         	movff	Motor_Conversion@Coordenada,___xxtofl@val
  6285  00208E  C092  F061         	movff	Motor_Conversion@Coordenada+1,___xxtofl@val+1
  6286  002092  0E00               	movlw	0
  6287  002094  BF61               	btfsc	(___xxtofl@val+1)& (0+255),7,b
  6288  002096  0EFF               	movlw	-1
  6289  002098  6F62               	movwf	(___xxtofl@val+2)& (0+255),b
  6290  00209A  6F63               	movwf	(___xxtofl@val+3)& (0+255),b
  6291  00209C  0E01               	movlw	1
  6292  00209E  ECDF  F006         	call	___xxtofl
  6293  0020A2  C060  F06E         	movff	?___xxtofl,___fldiv@b
  6294  0020A6  C061  F06F         	movff	?___xxtofl+1,___fldiv@b+1
  6295  0020AA  C062  F070         	movff	?___xxtofl+2,___fldiv@b+2
  6296  0020AE  C063  F071         	movff	?___xxtofl+3,___fldiv@b+3
  6297  0020B2  EC0F  F002         	call	___fldiv	;wreg free
  6298  0020B6  C06E  F087         	movff	?___fldiv,___fltol@f1
  6299  0020BA  C06F  F088         	movff	?___fldiv+1,___fltol@f1+1
  6300  0020BE  C070  F089         	movff	?___fldiv+2,___fltol@f1+2
  6301  0020C2  C071  F08A         	movff	?___fldiv+3,___fltol@f1+3
  6302  0020C6  ECD4  F00B         	call	___fltol	;wreg free
  6303  0020CA  C087  F0B0         	movff	?___fltol,_pasos_convertidos
  6304  0020CE  C088  F0B1         	movff	?___fltol+1,_pasos_convertidos+1
  6305  0020D2                     
  6306                           ;Motor.c: 21:     return pasos_convertidos;
  6307  0020D2  C0B0  F091         	movff	_pasos_convertidos,?_Motor_Conversion
  6308  0020D6  C0B1  F092         	movff	_pasos_convertidos+1,?_Motor_Conversion+1
  6309  0020DA  0012               	return		;funcret
  6310  0020DC                     __end_of_Motor_Conversion:
  6311                           	opt callstack 0
  6312                           
  6313 ;; *************** function ___xxtofl *****************
  6314 ;; Defined at:
  6315 ;;		line 10 in file "C:\Program Files (x86)\Microchip\xc8\v2.10\pic\sources\c99\common\xxtofl.c"
  6316 ;; Parameters:    Size  Location     Type
  6317 ;;  sign            1    wreg     unsigned char 
  6318 ;;  val             4    0[BANK0 ] long 
  6319 ;; Auto vars:     Size  Location     Type
  6320 ;;  sign            1    8[BANK0 ] unsigned char 
  6321 ;;  arg             4   10[BANK0 ] unsigned long 
  6322 ;;  exp             1    9[BANK0 ] unsigned char 
  6323 ;; Return value:  Size  Location     Type
  6324 ;;                  4    0[BANK0 ] unsigned char 
  6325 ;; Registers used:
  6326 ;;		wreg, status,2, status,0
  6327 ;; Tracked objects:
  6328 ;;		On entry : 0/0
  6329 ;;		On exit  : 0/0
  6330 ;;		Unchanged: 0/0
  6331 ;; Data sizes:     COMRAM   BANK0   BANK1   BANK2   BANK3   BANK4   BANK5   BANK6   BANK7
  6332 ;;      Params:         0       4       0       0       0       0       0       0       0
  6333 ;;      Locals:         0       6       0       0       0       0       0       0       0
  6334 ;;      Temps:          0       4       0       0       0       0       0       0       0
  6335 ;;      Totals:         0      14       0       0       0       0       0       0       0
  6336 ;;Total ram usage:       14 bytes
  6337 ;; Hardware stack levels used:    1
  6338 ;; Hardware stack levels required when called:    5
  6339 ;; This function calls:
  6340 ;;		Nothing
  6341 ;; This function is called by:
  6342 ;;		_Motor_Conversion
  6343 ;;		_ADC_ConvertirDistancia
  6344 ;;		_powf
  6345 ;; This function uses a non-reentrant model
  6346 ;;
  6347                           
  6348                           	psect	text29
  6349  000DBE                     __ptext29:
  6350                           	opt callstack 0
  6351  000DBE                     ___xxtofl:
  6352                           	opt callstack 22
  6353                           
  6354                           ;incstack = 0
  6355                           ;___xxtofl@sign stored from wreg
  6356  000DBE  0100               	movlb	0	; () banked
  6357  000DC0  6F68               	movwf	___xxtofl@sign& (0+255),b
  6358  000DC2  0100               	movlb	0	; () banked
  6359  000DC4  5168               	movf	___xxtofl@sign& (0+255),w,b
  6360  000DC6  B4D8               	btfsc	status,2,c
  6361  000DC8  EFE8  F006         	goto	u2261
  6362  000DCC  EFEA  F006         	goto	u2260
  6363  000DD0                     u2261:
  6364  000DD0  EF0C  F007         	goto	l1408
  6365  000DD4                     u2260:
  6366  000DD4                     
  6367                           ; BSR set to: 0
  6368  000DD4  BF63               	btfsc	(___xxtofl@val+3)& (0+255),7,b
  6369  000DD6  EFF1  F006         	goto	u2270
  6370  000DDA  EFEF  F006         	goto	u2271
  6371  000DDE                     u2271:
  6372  000DDE  EF0C  F007         	goto	l1408
  6373  000DE2                     u2270:
  6374  000DE2                     
  6375                           ; BSR set to: 0
  6376  000DE2  C060  F064         	movff	___xxtofl@val,??___xxtofl
  6377  000DE6  C061  F065         	movff	___xxtofl@val+1,??___xxtofl+1
  6378  000DEA  C062  F066         	movff	___xxtofl@val+2,??___xxtofl+2
  6379  000DEE  C063  F067         	movff	___xxtofl@val+3,??___xxtofl+3
  6380  000DF2  1F64               	comf	??___xxtofl& (0+255),f,b
  6381  000DF4  1F65               	comf	(??___xxtofl+1)& (0+255),f,b
  6382  000DF6  1F66               	comf	(??___xxtofl+2)& (0+255),f,b
  6383  000DF8  1F67               	comf	(??___xxtofl+3)& (0+255),f,b
  6384  000DFA  2B64               	incf	??___xxtofl& (0+255),f,b
  6385  000DFC  0E00               	movlw	0
  6386  000DFE  2365               	addwfc	(??___xxtofl+1)& (0+255),f,b
  6387  000E00  2366               	addwfc	(??___xxtofl+2)& (0+255),f,b
  6388  000E02  2367               	addwfc	(??___xxtofl+3)& (0+255),f,b
  6389  000E04  C064  F06A         	movff	??___xxtofl,___xxtofl@arg
  6390  000E08  C065  F06B         	movff	??___xxtofl+1,___xxtofl@arg+1
  6391  000E0C  C066  F06C         	movff	??___xxtofl+2,___xxtofl@arg+2
  6392  000E10  C067  F06D         	movff	??___xxtofl+3,___xxtofl@arg+3
  6393  000E14  EF14  F007         	goto	l3632
  6394  000E18                     l1408:
  6395                           
  6396                           ; BSR set to: 0
  6397  000E18  C060  F06A         	movff	___xxtofl@val,___xxtofl@arg
  6398  000E1C  C061  F06B         	movff	___xxtofl@val+1,___xxtofl@arg+1
  6399  000E20  C062  F06C         	movff	___xxtofl@val+2,___xxtofl@arg+2
  6400  000E24  C063  F06D         	movff	___xxtofl@val+3,___xxtofl@arg+3
  6401  000E28                     l3632:
  6402                           
  6403                           ; BSR set to: 0
  6404  000E28  5160               	movf	___xxtofl@val& (0+255),w,b
  6405  000E2A  1161               	iorwf	(___xxtofl@val+1)& (0+255),w,b
  6406  000E2C  1162               	iorwf	(___xxtofl@val+2)& (0+255),w,b
  6407  000E2E  1163               	iorwf	(___xxtofl@val+3)& (0+255),w,b
  6408  000E30  A4D8               	btfss	status,2,c
  6409  000E32  EF1D  F007         	goto	u2281
  6410  000E36  EF1F  F007         	goto	u2280
  6411  000E3A                     u2281:
  6412  000E3A  EF29  F007         	goto	l3638
  6413  000E3E                     u2280:
  6414  000E3E                     
  6415                           ; BSR set to: 0
  6416  000E3E  0E00               	movlw	0
  6417  000E40  6F60               	movwf	?___xxtofl& (0+255),b
  6418  000E42  0E00               	movlw	0
  6419  000E44  6F61               	movwf	(?___xxtofl+1)& (0+255),b
  6420  000E46  0E00               	movlw	0
  6421  000E48  6F62               	movwf	(?___xxtofl+2)& (0+255),b
  6422  000E4A  0E00               	movlw	0
  6423  000E4C  6F63               	movwf	(?___xxtofl+3)& (0+255),b
  6424  000E4E  EFBA  F007         	goto	l1411
  6425  000E52                     l3638:
  6426                           
  6427                           ; BSR set to: 0
  6428  000E52  0E96               	movlw	150
  6429  000E54  6F69               	movwf	___xxtofl@exp& (0+255),b
  6430  000E56  EF33  F007         	goto	l3642
  6431  000E5A                     l3640:
  6432                           
  6433                           ; BSR set to: 0
  6434  000E5A  2B69               	incf	___xxtofl@exp& (0+255),f,b
  6435  000E5C  90D8               	bcf	status,0,c
  6436  000E5E  336D               	rrcf	(___xxtofl@arg+3)& (0+255),f,b
  6437  000E60  336C               	rrcf	(___xxtofl@arg+2)& (0+255),f,b
  6438  000E62  336B               	rrcf	(___xxtofl@arg+1)& (0+255),f,b
  6439  000E64  336A               	rrcf	___xxtofl@arg& (0+255),f,b
  6440  000E66                     l3642:
  6441                           
  6442                           ; BSR set to: 0
  6443  000E66  0E00               	movlw	0
  6444  000E68  156A               	andwf	___xxtofl@arg& (0+255),w,b
  6445  000E6A  6F64               	movwf	??___xxtofl& (0+255),b
  6446  000E6C  0E00               	movlw	0
  6447  000E6E  156B               	andwf	(___xxtofl@arg+1)& (0+255),w,b
  6448  000E70  6F65               	movwf	(??___xxtofl+1)& (0+255),b
  6449  000E72  0E00               	movlw	0
  6450  000E74  156C               	andwf	(___xxtofl@arg+2)& (0+255),w,b
  6451  000E76  6F66               	movwf	(??___xxtofl+2)& (0+255),b
  6452  000E78  0EFE               	movlw	254
  6453  000E7A  156D               	andwf	(___xxtofl@arg+3)& (0+255),w,b
  6454  000E7C  6F67               	movwf	(??___xxtofl+3)& (0+255),b
  6455  000E7E  5164               	movf	??___xxtofl& (0+255),w,b
  6456  000E80  1165               	iorwf	(??___xxtofl+1)& (0+255),w,b
  6457  000E82  1166               	iorwf	(??___xxtofl+2)& (0+255),w,b
  6458  000E84  1167               	iorwf	(??___xxtofl+3)& (0+255),w,b
  6459  000E86  A4D8               	btfss	status,2,c
  6460  000E88  EF48  F007         	goto	u2291
  6461  000E8C  EF4A  F007         	goto	u2290
  6462  000E90                     u2291:
  6463  000E90  EF2D  F007         	goto	l3640
  6464  000E94                     u2290:
  6465  000E94  EF58  F007         	goto	l1415
  6466  000E98                     l3644:
  6467                           
  6468                           ; BSR set to: 0
  6469  000E98  2B69               	incf	___xxtofl@exp& (0+255),f,b
  6470  000E9A                     
  6471                           ; BSR set to: 0
  6472  000E9A  0E01               	movlw	1
  6473  000E9C  276A               	addwf	___xxtofl@arg& (0+255),f,b
  6474  000E9E  0E00               	movlw	0
  6475  000EA0  236B               	addwfc	(___xxtofl@arg+1)& (0+255),f,b
  6476  000EA2  236C               	addwfc	(___xxtofl@arg+2)& (0+255),f,b
  6477  000EA4  236D               	addwfc	(___xxtofl@arg+3)& (0+255),f,b
  6478  000EA6                     
  6479                           ; BSR set to: 0
  6480  000EA6  90D8               	bcf	status,0,c
  6481  000EA8  336D               	rrcf	(___xxtofl@arg+3)& (0+255),f,b
  6482  000EAA  336C               	rrcf	(___xxtofl@arg+2)& (0+255),f,b
  6483  000EAC  336B               	rrcf	(___xxtofl@arg+1)& (0+255),f,b
  6484  000EAE  336A               	rrcf	___xxtofl@arg& (0+255),f,b
  6485  000EB0                     l1415:
  6486                           
  6487                           ; BSR set to: 0
  6488  000EB0  0E00               	movlw	0
  6489  000EB2  156A               	andwf	___xxtofl@arg& (0+255),w,b
  6490  000EB4  6F64               	movwf	??___xxtofl& (0+255),b
  6491  000EB6  0E00               	movlw	0
  6492  000EB8  156B               	andwf	(___xxtofl@arg+1)& (0+255),w,b
  6493  000EBA  6F65               	movwf	(??___xxtofl+1)& (0+255),b
  6494  000EBC  0E00               	movlw	0
  6495  000EBE  156C               	andwf	(___xxtofl@arg+2)& (0+255),w,b
  6496  000EC0  6F66               	movwf	(??___xxtofl+2)& (0+255),b
  6497  000EC2  0EFF               	movlw	255
  6498  000EC4  156D               	andwf	(___xxtofl@arg+3)& (0+255),w,b
  6499  000EC6  6F67               	movwf	(??___xxtofl+3)& (0+255),b
  6500  000EC8  5164               	movf	??___xxtofl& (0+255),w,b
  6501  000ECA  1165               	iorwf	(??___xxtofl+1)& (0+255),w,b
  6502  000ECC  1166               	iorwf	(??___xxtofl+2)& (0+255),w,b
  6503  000ECE  1167               	iorwf	(??___xxtofl+3)& (0+255),w,b
  6504  000ED0  A4D8               	btfss	status,2,c
  6505  000ED2  EF6D  F007         	goto	u2301
  6506  000ED6  EF6F  F007         	goto	u2300
  6507  000EDA                     u2301:
  6508  000EDA  EF4C  F007         	goto	l3644
  6509  000EDE                     u2300:
  6510  000EDE  EF77  F007         	goto	l3652
  6511  000EE2                     l3650:
  6512                           
  6513                           ; BSR set to: 0
  6514  000EE2  0769               	decf	___xxtofl@exp& (0+255),f,b
  6515  000EE4  90D8               	bcf	status,0,c
  6516  000EE6  376A               	rlcf	___xxtofl@arg& (0+255),f,b
  6517  000EE8  376B               	rlcf	(___xxtofl@arg+1)& (0+255),f,b
  6518  000EEA  376C               	rlcf	(___xxtofl@arg+2)& (0+255),f,b
  6519  000EEC  376D               	rlcf	(___xxtofl@arg+3)& (0+255),f,b
  6520  000EEE                     l3652:
  6521                           
  6522                           ; BSR set to: 0
  6523  000EEE  BF6C               	btfsc	(___xxtofl@arg+2)& (0+255),7,b
  6524  000EF0  EF7C  F007         	goto	u2311
  6525  000EF4  EF7E  F007         	goto	u2310
  6526  000EF8                     u2311:
  6527  000EF8  EF86  F007         	goto	l1422
  6528  000EFC                     u2310:
  6529  000EFC                     
  6530                           ; BSR set to: 0
  6531  000EFC  0E02               	movlw	2
  6532  000EFE  6169               	cpfslt	___xxtofl@exp& (0+255),b
  6533  000F00  EF84  F007         	goto	u2321
  6534  000F04  EF86  F007         	goto	u2320
  6535  000F08                     u2321:
  6536  000F08  EF71  F007         	goto	l3650
  6537  000F0C                     u2320:
  6538  000F0C                     l1422:
  6539                           
  6540                           ; BSR set to: 0
  6541  000F0C  B169               	btfsc	___xxtofl@exp& (0+255),0,b
  6542  000F0E  EF8B  F007         	goto	u2331
  6543  000F12  EF8D  F007         	goto	u2330
  6544  000F16                     u2331:
  6545  000F16  EF8E  F007         	goto	l3658
  6546  000F1A                     u2330:
  6547  000F1A                     
  6548                           ; BSR set to: 0
  6549  000F1A  9F6C               	bcf	(___xxtofl@arg+2)& (0+255),7,b
  6550  000F1C                     l3658:
  6551                           
  6552                           ; BSR set to: 0
  6553  000F1C  90D8               	bcf	status,0,c
  6554  000F1E  3369               	rrcf	___xxtofl@exp& (0+255),f,b
  6555  000F20                     
  6556                           ; BSR set to: 0
  6557  000F20  C069  F064         	movff	___xxtofl@exp,??___xxtofl
  6558  000F24  6B65               	clrf	(??___xxtofl+1)& (0+255),b
  6559  000F26  6B66               	clrf	(??___xxtofl+2)& (0+255),b
  6560  000F28  6B67               	clrf	(??___xxtofl+3)& (0+255),b
  6561  000F2A  C064  F067         	movff	??___xxtofl,??___xxtofl+3
  6562  000F2E  6B66               	clrf	(??___xxtofl+2)& (0+255),b
  6563  000F30  6B65               	clrf	(??___xxtofl+1)& (0+255),b
  6564  000F32  6B64               	clrf	??___xxtofl& (0+255),b
  6565  000F34  5164               	movf	??___xxtofl& (0+255),w,b
  6566  000F36  136A               	iorwf	___xxtofl@arg& (0+255),f,b
  6567  000F38  5165               	movf	(??___xxtofl+1)& (0+255),w,b
  6568  000F3A  136B               	iorwf	(___xxtofl@arg+1)& (0+255),f,b
  6569  000F3C  5166               	movf	(??___xxtofl+2)& (0+255),w,b
  6570  000F3E  136C               	iorwf	(___xxtofl@arg+2)& (0+255),f,b
  6571  000F40  5167               	movf	(??___xxtofl+3)& (0+255),w,b
  6572  000F42  136D               	iorwf	(___xxtofl@arg+3)& (0+255),f,b
  6573  000F44                     
  6574                           ; BSR set to: 0
  6575  000F44  5168               	movf	___xxtofl@sign& (0+255),w,b
  6576  000F46  B4D8               	btfsc	status,2,c
  6577  000F48  EFA8  F007         	goto	u2341
  6578  000F4C  EFAA  F007         	goto	u2340
  6579  000F50                     u2341:
  6580  000F50  EFB2  F007         	goto	l3668
  6581  000F54                     u2340:
  6582  000F54                     
  6583                           ; BSR set to: 0
  6584  000F54  BF63               	btfsc	(___xxtofl@val+3)& (0+255),7,b
  6585  000F56  EFB1  F007         	goto	u2350
  6586  000F5A  EFAF  F007         	goto	u2351
  6587  000F5E                     u2351:
  6588  000F5E  EFB2  F007         	goto	l3668
  6589  000F62                     u2350:
  6590  000F62                     
  6591                           ; BSR set to: 0
  6592  000F62  8F6D               	bsf	(___xxtofl@arg+3)& (0+255),7,b
  6593  000F64                     l3668:
  6594                           
  6595                           ; BSR set to: 0
  6596  000F64  C06A  F060         	movff	___xxtofl@arg,?___xxtofl
  6597  000F68  C06B  F061         	movff	___xxtofl@arg+1,?___xxtofl+1
  6598  000F6C  C06C  F062         	movff	___xxtofl@arg+2,?___xxtofl+2
  6599  000F70  C06D  F063         	movff	___xxtofl@arg+3,?___xxtofl+3
  6600  000F74                     l1411:
  6601                           
  6602                           ; BSR set to: 0
  6603  000F74  0012               	return		;funcret
  6604  000F76                     __end_of___xxtofl:
  6605                           	opt callstack 0
  6606                           
  6607 ;; *************** function ___fltol *****************
  6608 ;; Defined at:
  6609 ;;		line 43 in file "C:\Program Files (x86)\Microchip\xc8\v2.10\pic\sources\c99\common\fltol.c"
  6610 ;; Parameters:    Size  Location     Type
  6611 ;;  f1              4   39[BANK0 ] unsigned char 
  6612 ;; Auto vars:     Size  Location     Type
  6613 ;;  exp1            1   48[BANK0 ] unsigned char 
  6614 ;;  sign1           1   47[BANK0 ] unsigned char 
  6615 ;; Return value:  Size  Location     Type
  6616 ;;                  4   39[BANK0 ] long 
  6617 ;; Registers used:
  6618 ;;		wreg, status,2, status,0
  6619 ;; Tracked objects:
  6620 ;;		On entry : 0/0
  6621 ;;		On exit  : 0/0
  6622 ;;		Unchanged: 0/0
  6623 ;; Data sizes:     COMRAM   BANK0   BANK1   BANK2   BANK3   BANK4   BANK5   BANK6   BANK7
  6624 ;;      Params:         0       4       0       0       0       0       0       0       0
  6625 ;;      Locals:         0       2       0       0       0       0       0       0       0
  6626 ;;      Temps:          0       4       0       0       0       0       0       0       0
  6627 ;;      Totals:         0      10       0       0       0       0       0       0       0
  6628 ;;Total ram usage:       10 bytes
  6629 ;; Hardware stack levels used:    1
  6630 ;; Hardware stack levels required when called:    5
  6631 ;; This function calls:
  6632 ;;		Nothing
  6633 ;; This function is called by:
  6634 ;;		_Motor_Conversion
  6635 ;; This function uses a non-reentrant model
  6636 ;;
  6637                           
  6638                           	psect	text30
  6639  0017A8                     __ptext30:
  6640                           	opt callstack 0
  6641  0017A8                     ___fltol:
  6642                           	opt callstack 22
  6643  0017A8  0100               	movlb	0	; () banked
  6644  0017AA  3589               	rlcf	(___fltol@f1+2)& (0+255),w,b
  6645  0017AC  358A               	rlcf	(___fltol@f1+3)& (0+255),w,b
  6646  0017AE  6F90               	movwf	___fltol@exp1& (0+255),b
  6647  0017B0  5190               	movf	___fltol@exp1& (0+255),w,b
  6648  0017B2  A4D8               	btfss	status,2,c
  6649  0017B4  EFDE  F00B         	goto	u2191
  6650  0017B8  EFE0  F00B         	goto	u2190
  6651  0017BC                     u2191:
  6652  0017BC  EFEA  F00B         	goto	l3588
  6653  0017C0                     u2190:
  6654  0017C0                     l3584:
  6655                           
  6656                           ; BSR set to: 0
  6657  0017C0  0E00               	movlw	0
  6658  0017C2  6F87               	movwf	?___fltol& (0+255),b
  6659  0017C4  0E00               	movlw	0
  6660  0017C6  6F88               	movwf	(?___fltol+1)& (0+255),b
  6661  0017C8  0E00               	movlw	0
  6662  0017CA  6F89               	movwf	(?___fltol+2)& (0+255),b
  6663  0017CC  0E00               	movlw	0
  6664  0017CE  6F8A               	movwf	(?___fltol+3)& (0+255),b
  6665  0017D0  EF57  F00C         	goto	l1050
  6666  0017D4                     l3588:
  6667                           
  6668                           ; BSR set to: 0
  6669  0017D4  C087  F08B         	movff	___fltol@f1,??___fltol
  6670  0017D8  C088  F08C         	movff	___fltol@f1+1,??___fltol+1
  6671  0017DC  C089  F08D         	movff	___fltol@f1+2,??___fltol+2
  6672  0017E0  C08A  F08E         	movff	___fltol@f1+3,??___fltol+3
  6673  0017E4  0E20               	movlw	32
  6674  0017E6  EFFA  F00B         	goto	u2200
  6675  0017EA                     u2205:
  6676  0017EA  90D8               	bcf	status,0,c
  6677  0017EC  338E               	rrcf	(??___fltol+3)& (0+255),f,b
  6678  0017EE  338D               	rrcf	(??___fltol+2)& (0+255),f,b
  6679  0017F0  338C               	rrcf	(??___fltol+1)& (0+255),f,b
  6680  0017F2  338B               	rrcf	??___fltol& (0+255),f,b
  6681  0017F4                     u2200:
  6682  0017F4  2EE8               	decfsz	wreg,f,c
  6683  0017F6  EFF5  F00B         	goto	u2205
  6684  0017FA  518B               	movf	??___fltol& (0+255),w,b
  6685  0017FC  6F8F               	movwf	___fltol@sign1& (0+255),b
  6686  0017FE                     
  6687                           ; BSR set to: 0
  6688  0017FE  8F89               	bsf	(___fltol@f1+2)& (0+255),7,b
  6689  001800                     
  6690                           ; BSR set to: 0
  6691  001800  0EFF               	movlw	255
  6692  001802  1787               	andwf	___fltol@f1& (0+255),f,b
  6693  001804  0EFF               	movlw	255
  6694  001806  1788               	andwf	(___fltol@f1+1)& (0+255),f,b
  6695  001808  0EFF               	movlw	255
  6696  00180A  1789               	andwf	(___fltol@f1+2)& (0+255),f,b
  6697  00180C  0E00               	movlw	0
  6698  00180E  178A               	andwf	(___fltol@f1+3)& (0+255),f,b
  6699  001810                     
  6700                           ; BSR set to: 0
  6701  001810  0E96               	movlw	150
  6702  001812  5F90               	subwf	___fltol@exp1& (0+255),f,b
  6703  001814                     
  6704                           ; BSR set to: 0
  6705  001814  BF90               	btfsc	___fltol@exp1& (0+255),7,b
  6706  001816  EF11  F00C         	goto	u2210
  6707  00181A  EF0F  F00C         	goto	u2211
  6708  00181E                     u2211:
  6709  00181E  EF27  F00C         	goto	l3608
  6710  001822                     u2210:
  6711  001822                     
  6712                           ; BSR set to: 0
  6713  001822  5190               	movf	___fltol@exp1& (0+255),w,b
  6714  001824  0A80               	xorlw	128
  6715  001826  0F97               	addlw	151
  6716  001828  B0D8               	btfsc	status,0,c
  6717  00182A  EF19  F00C         	goto	u2221
  6718  00182E  EF1B  F00C         	goto	u2220
  6719  001832                     u2221:
  6720  001832  EF1D  F00C         	goto	l3604
  6721  001836                     u2220:
  6722  001836  EFE0  F00B         	goto	l3584
  6723  00183A                     l3604:
  6724                           
  6725                           ; BSR set to: 0
  6726  00183A  90D8               	bcf	status,0,c
  6727  00183C  338A               	rrcf	(___fltol@f1+3)& (0+255),f,b
  6728  00183E  3389               	rrcf	(___fltol@f1+2)& (0+255),f,b
  6729  001840  3388               	rrcf	(___fltol@f1+1)& (0+255),f,b
  6730  001842  3387               	rrcf	___fltol@f1& (0+255),f,b
  6731  001844                     
  6732                           ; BSR set to: 0
  6733  001844  3F90               	incfsz	___fltol@exp1& (0+255),f,b
  6734  001846  EF1D  F00C         	goto	l3604
  6735  00184A  EF3F  F00C         	goto	l3618
  6736  00184E                     l3608:
  6737                           
  6738                           ; BSR set to: 0
  6739  00184E  0E1F               	movlw	31
  6740  001850  6590               	cpfsgt	___fltol@exp1& (0+255),b
  6741  001852  EF2D  F00C         	goto	u2231
  6742  001856  EF2F  F00C         	goto	u2230
  6743  00185A                     u2231:
  6744  00185A  EF37  F00C         	goto	l3616
  6745  00185E                     u2230:
  6746  00185E  EFE0  F00B         	goto	l3584
  6747  001862                     l3614:
  6748                           
  6749                           ; BSR set to: 0
  6750  001862  90D8               	bcf	status,0,c
  6751  001864  3787               	rlcf	___fltol@f1& (0+255),f,b
  6752  001866  3788               	rlcf	(___fltol@f1+1)& (0+255),f,b
  6753  001868  3789               	rlcf	(___fltol@f1+2)& (0+255),f,b
  6754  00186A  378A               	rlcf	(___fltol@f1+3)& (0+255),f,b
  6755  00186C  0790               	decf	___fltol@exp1& (0+255),f,b
  6756  00186E                     l3616:
  6757                           
  6758                           ; BSR set to: 0
  6759  00186E  5190               	movf	___fltol@exp1& (0+255),w,b
  6760  001870  A4D8               	btfss	status,2,c
  6761  001872  EF3D  F00C         	goto	u2241
  6762  001876  EF3F  F00C         	goto	u2240
  6763  00187A                     u2241:
  6764  00187A  EF31  F00C         	goto	l3614
  6765  00187E                     u2240:
  6766  00187E                     l3618:
  6767                           
  6768                           ; BSR set to: 0
  6769  00187E  518F               	movf	___fltol@sign1& (0+255),w,b
  6770  001880  B4D8               	btfsc	status,2,c
  6771  001882  EF45  F00C         	goto	u2251
  6772  001886  EF47  F00C         	goto	u2250
  6773  00188A                     u2251:
  6774  00188A  EF4F  F00C         	goto	l3622
  6775  00188E                     u2250:
  6776  00188E                     
  6777                           ; BSR set to: 0
  6778  00188E  1F8A               	comf	(___fltol@f1+3)& (0+255),f,b
  6779  001890  1F89               	comf	(___fltol@f1+2)& (0+255),f,b
  6780  001892  1F88               	comf	(___fltol@f1+1)& (0+255),f,b
  6781  001894  6D87               	negf	___fltol@f1& (0+255),b
  6782  001896  0E00               	movlw	0
  6783  001898  2388               	addwfc	(___fltol@f1+1)& (0+255),f,b
  6784  00189A  2389               	addwfc	(___fltol@f1+2)& (0+255),f,b
  6785  00189C  238A               	addwfc	(___fltol@f1+3)& (0+255),f,b
  6786  00189E                     l3622:
  6787                           
  6788                           ; BSR set to: 0
  6789  00189E  C087  F087         	movff	___fltol@f1,?___fltol
  6790  0018A2  C088  F088         	movff	___fltol@f1+1,?___fltol+1
  6791  0018A6  C089  F089         	movff	___fltol@f1+2,?___fltol+2
  6792  0018AA  C08A  F08A         	movff	___fltol@f1+3,?___fltol+3
  6793  0018AE                     l1050:
  6794                           
  6795                           ; BSR set to: 0
  6796  0018AE  0012               	return		;funcret
  6797  0018B0                     __end_of___fltol:
  6798                           	opt callstack 0
  6799                           
  6800 ;; *************** function ___fldiv *****************
  6801 ;; Defined at:
  6802 ;;		line 11 in file "C:\Program Files (x86)\Microchip\xc8\v2.10\pic\sources\c99\common\sprcdiv.c"
  6803 ;; Parameters:    Size  Location     Type
  6804 ;;  b               4   14[BANK0 ] long 
  6805 ;;  a               4   18[BANK0 ] long 
  6806 ;; Auto vars:     Size  Location     Type
  6807 ;;  grs             4   33[BANK0 ] unsigned long 
  6808 ;;  rem             4   26[BANK0 ] unsigned long 
  6809 ;;  new_exp         2   31[BANK0 ] short 
  6810 ;;  aexp            1   38[BANK0 ] unsigned char 
  6811 ;;  bexp            1   37[BANK0 ] unsigned char 
  6812 ;;  sign            1   30[BANK0 ] unsigned char 
  6813 ;; Return value:  Size  Location     Type
  6814 ;;                  4   14[BANK0 ] unsigned char 
  6815 ;; Registers used:
  6816 ;;		wreg, status,2, status,0
  6817 ;; Tracked objects:
  6818 ;;		On entry : 0/0
  6819 ;;		On exit  : 0/0
  6820 ;;		Unchanged: 0/0
  6821 ;; Data sizes:     COMRAM   BANK0   BANK1   BANK2   BANK3   BANK4   BANK5   BANK6   BANK7
  6822 ;;      Params:         0       8       0       0       0       0       0       0       0
  6823 ;;      Locals:         0      13       0       0       0       0       0       0       0
  6824 ;;      Temps:          0       4       0       0       0       0       0       0       0
  6825 ;;      Totals:         0      25       0       0       0       0       0       0       0
  6826 ;;Total ram usage:       25 bytes
  6827 ;; Hardware stack levels used:    1
  6828 ;; Hardware stack levels required when called:    5
  6829 ;; This function calls:
  6830 ;;		Nothing
  6831 ;; This function is called by:
  6832 ;;		_Motor_Conversion
  6833 ;;		_powf
  6834 ;; This function uses a non-reentrant model
  6835 ;;
  6836                           
  6837                           	psect	text31
  6838  00041E                     __ptext31:
  6839                           	opt callstack 0
  6840  00041E                     ___fldiv:
  6841                           	opt callstack 22
  6842  00041E  0100               	movlb	0	; () banked
  6843  000420  5171               	movf	(___fldiv@b+3)& (0+255),w,b
  6844  000422  0B80               	andlw	128
  6845  000424  6F7E               	movwf	___fldiv@sign& (0+255),b
  6846  000426  5171               	movf	(___fldiv@b+3)& (0+255),w,b
  6847  000428  2571               	addwf	(___fldiv@b+3)& (0+255),w,b
  6848  00042A  6F85               	movwf	___fldiv@bexp& (0+255),b
  6849  00042C                     
  6850                           ; BSR set to: 0
  6851  00042C  AF70               	btfss	(___fldiv@b+2)& (0+255),7,b
  6852  00042E  EF1B  F002         	goto	u1961
  6853  000432  EF1D  F002         	goto	u1960
  6854  000436                     u1961:
  6855  000436  EF1E  F002         	goto	l3450
  6856  00043A                     u1960:
  6857  00043A                     
  6858                           ; BSR set to: 0
  6859  00043A  8185               	bsf	___fldiv@bexp& (0+255),0,b
  6860  00043C                     l3450:
  6861                           
  6862                           ; BSR set to: 0
  6863  00043C  5185               	movf	___fldiv@bexp& (0+255),w,b
  6864  00043E  B4D8               	btfsc	status,2,c
  6865  000440  EF24  F002         	goto	u1971
  6866  000444  EF26  F002         	goto	u1970
  6867  000448                     u1971:
  6868  000448  EF3B  F002         	goto	l3460
  6869  00044C                     u1970:
  6870  00044C                     
  6871                           ; BSR set to: 0
  6872  00044C  2985               	incf	___fldiv@bexp& (0+255),w,b
  6873  00044E  A4D8               	btfss	status,2,c
  6874  000450  EF2C  F002         	goto	u1981
  6875  000454  EF2E  F002         	goto	u1980
  6876  000458                     u1981:
  6877  000458  EF36  F002         	goto	l3456
  6878  00045C                     u1980:
  6879  00045C                     
  6880                           ; BSR set to: 0
  6881  00045C  0E00               	movlw	0
  6882  00045E  6F6E               	movwf	___fldiv@b& (0+255),b
  6883  000460  0E00               	movlw	0
  6884  000462  6F6F               	movwf	(___fldiv@b+1)& (0+255),b
  6885  000464  0E00               	movlw	0
  6886  000466  6F70               	movwf	(___fldiv@b+2)& (0+255),b
  6887  000468  0E00               	movlw	0
  6888  00046A  6F71               	movwf	(___fldiv@b+3)& (0+255),b
  6889  00046C                     l3456:
  6890                           
  6891                           ; BSR set to: 0
  6892  00046C  8F70               	bsf	(___fldiv@b+2)& (0+255),7,b
  6893  00046E                     
  6894                           ; BSR set to: 0
  6895  00046E  0E00               	movlw	0
  6896  000470  6F71               	movwf	(___fldiv@b+3)& (0+255),b
  6897  000472  EF43  F002         	goto	l3462
  6898  000476                     l3460:
  6899                           
  6900                           ; BSR set to: 0
  6901  000476  0E00               	movlw	0
  6902  000478  6F6E               	movwf	___fldiv@b& (0+255),b
  6903  00047A  0E00               	movlw	0
  6904  00047C  6F6F               	movwf	(___fldiv@b+1)& (0+255),b
  6905  00047E  0E00               	movlw	0
  6906  000480  6F70               	movwf	(___fldiv@b+2)& (0+255),b
  6907  000482  0E00               	movlw	0
  6908  000484  6F71               	movwf	(___fldiv@b+3)& (0+255),b
  6909  000486                     l3462:
  6910                           
  6911                           ; BSR set to: 0
  6912  000486  5175               	movf	(___fldiv@a+3)& (0+255),w,b
  6913  000488  0B80               	andlw	128
  6914  00048A  1B7E               	xorwf	___fldiv@sign& (0+255),f,b
  6915  00048C                     
  6916                           ; BSR set to: 0
  6917  00048C  5175               	movf	(___fldiv@a+3)& (0+255),w,b
  6918  00048E  2575               	addwf	(___fldiv@a+3)& (0+255),w,b
  6919  000490  6F86               	movwf	___fldiv@aexp& (0+255),b
  6920  000492                     
  6921                           ; BSR set to: 0
  6922  000492  AF74               	btfss	(___fldiv@a+2)& (0+255),7,b
  6923  000494  EF4E  F002         	goto	u1991
  6924  000498  EF50  F002         	goto	u1990
  6925  00049C                     u1991:
  6926  00049C  EF51  F002         	goto	l3470
  6927  0004A0                     u1990:
  6928  0004A0                     
  6929                           ; BSR set to: 0
  6930  0004A0  8186               	bsf	___fldiv@aexp& (0+255),0,b
  6931  0004A2                     l3470:
  6932                           
  6933                           ; BSR set to: 0
  6934  0004A2  5186               	movf	___fldiv@aexp& (0+255),w,b
  6935  0004A4  B4D8               	btfsc	status,2,c
  6936  0004A6  EF57  F002         	goto	u2001
  6937  0004AA  EF59  F002         	goto	u2000
  6938  0004AE                     u2001:
  6939  0004AE  EF6E  F002         	goto	l3480
  6940  0004B2                     u2000:
  6941  0004B2                     
  6942                           ; BSR set to: 0
  6943  0004B2  2986               	incf	___fldiv@aexp& (0+255),w,b
  6944  0004B4  A4D8               	btfss	status,2,c
  6945  0004B6  EF5F  F002         	goto	u2011
  6946  0004BA  EF61  F002         	goto	u2010
  6947  0004BE                     u2011:
  6948  0004BE  EF69  F002         	goto	l3476
  6949  0004C2                     u2010:
  6950  0004C2                     
  6951                           ; BSR set to: 0
  6952  0004C2  0E00               	movlw	0
  6953  0004C4  6F72               	movwf	___fldiv@a& (0+255),b
  6954  0004C6  0E00               	movlw	0
  6955  0004C8  6F73               	movwf	(___fldiv@a+1)& (0+255),b
  6956  0004CA  0E00               	movlw	0
  6957  0004CC  6F74               	movwf	(___fldiv@a+2)& (0+255),b
  6958  0004CE  0E00               	movlw	0
  6959  0004D0  6F75               	movwf	(___fldiv@a+3)& (0+255),b
  6960  0004D2                     l3476:
  6961                           
  6962                           ; BSR set to: 0
  6963  0004D2  8F74               	bsf	(___fldiv@a+2)& (0+255),7,b
  6964  0004D4                     
  6965                           ; BSR set to: 0
  6966  0004D4  0E00               	movlw	0
  6967  0004D6  6F75               	movwf	(___fldiv@a+3)& (0+255),b
  6968  0004D8  EF76  F002         	goto	l3482
  6969  0004DC                     l3480:
  6970                           
  6971                           ; BSR set to: 0
  6972  0004DC  0E00               	movlw	0
  6973  0004DE  6F72               	movwf	___fldiv@a& (0+255),b
  6974  0004E0  0E00               	movlw	0
  6975  0004E2  6F73               	movwf	(___fldiv@a+1)& (0+255),b
  6976  0004E4  0E00               	movlw	0
  6977  0004E6  6F74               	movwf	(___fldiv@a+2)& (0+255),b
  6978  0004E8  0E00               	movlw	0
  6979  0004EA  6F75               	movwf	(___fldiv@a+3)& (0+255),b
  6980  0004EC                     l3482:
  6981                           
  6982                           ; BSR set to: 0
  6983  0004EC  5172               	movf	___fldiv@a& (0+255),w,b
  6984  0004EE  1173               	iorwf	(___fldiv@a+1)& (0+255),w,b
  6985  0004F0  1174               	iorwf	(___fldiv@a+2)& (0+255),w,b
  6986  0004F2  1175               	iorwf	(___fldiv@a+3)& (0+255),w,b
  6987  0004F4  A4D8               	btfss	status,2,c
  6988  0004F6  EF7F  F002         	goto	u2021
  6989  0004FA  EF81  F002         	goto	u2020
  6990  0004FE                     u2021:
  6991  0004FE  EF99  F002         	goto	l3494
  6992  000502                     u2020:
  6993  000502                     
  6994                           ; BSR set to: 0
  6995  000502  0E00               	movlw	0
  6996  000504  6F6E               	movwf	___fldiv@b& (0+255),b
  6997  000506  0E00               	movlw	0
  6998  000508  6F6F               	movwf	(___fldiv@b+1)& (0+255),b
  6999  00050A  0E00               	movlw	0
  7000  00050C  6F70               	movwf	(___fldiv@b+2)& (0+255),b
  7001  00050E  0E00               	movlw	0
  7002  000510  6F71               	movwf	(___fldiv@b+3)& (0+255),b
  7003  000512                     
  7004                           ; BSR set to: 0
  7005  000512  0E80               	movlw	128
  7006  000514  1370               	iorwf	(___fldiv@b+2)& (0+255),f,b
  7007  000516  0E7F               	movlw	127
  7008  000518  1371               	iorwf	(___fldiv@b+3)& (0+255),f,b
  7009  00051A                     l3488:
  7010                           
  7011                           ; BSR set to: 0
  7012  00051A  517E               	movf	___fldiv@sign& (0+255),w,b
  7013  00051C  1371               	iorwf	(___fldiv@b+3)& (0+255),f,b
  7014  00051E                     
  7015                           ; BSR set to: 0
  7016  00051E  C06E  F06E         	movff	___fldiv@b,?___fldiv
  7017  000522  C06F  F06F         	movff	___fldiv@b+1,?___fldiv+1
  7018  000526  C070  F070         	movff	___fldiv@b+2,?___fldiv+2
  7019  00052A  C071  F071         	movff	___fldiv@b+3,?___fldiv+3
  7020  00052E  EFDC  F003         	goto	l1335
  7021  000532                     l3494:
  7022                           
  7023                           ; BSR set to: 0
  7024  000532  5185               	movf	___fldiv@bexp& (0+255),w,b
  7025  000534  A4D8               	btfss	status,2,c
  7026  000536  EF9F  F002         	goto	u2031
  7027  00053A  EFA1  F002         	goto	u2030
  7028  00053E                     u2031:
  7029  00053E  EFAB  F002         	goto	l3502
  7030  000542                     u2030:
  7031  000542                     
  7032                           ; BSR set to: 0
  7033  000542  0E00               	movlw	0
  7034  000544  6F6E               	movwf	?___fldiv& (0+255),b
  7035  000546  0E00               	movlw	0
  7036  000548  6F6F               	movwf	(?___fldiv+1)& (0+255),b
  7037  00054A  0E00               	movlw	0
  7038  00054C  6F70               	movwf	(?___fldiv+2)& (0+255),b
  7039  00054E  0E00               	movlw	0
  7040  000550  6F71               	movwf	(?___fldiv+3)& (0+255),b
  7041  000552  EFDC  F003         	goto	l1335
  7042  000556                     l3502:
  7043                           
  7044                           ; BSR set to: 0
  7045  000556  5186               	movf	___fldiv@aexp& (0+255),w,b
  7046  000558  C085  F076         	movff	___fldiv@bexp,??___fldiv
  7047  00055C  6B77               	clrf	(??___fldiv+1)& (0+255),b
  7048  00055E  5F76               	subwf	??___fldiv& (0+255),f,b
  7049  000560  0E00               	movlw	0
  7050  000562  5B77               	subwfb	(??___fldiv+1)& (0+255),f,b
  7051  000564  0E7F               	movlw	127
  7052  000566  2576               	addwf	??___fldiv& (0+255),w,b
  7053  000568  6F7F               	movwf	___fldiv@new_exp& (0+255),b
  7054  00056A  0E00               	movlw	0
  7055  00056C  2177               	addwfc	(??___fldiv+1)& (0+255),w,b
  7056  00056E  6F80               	movwf	(___fldiv@new_exp+1)& (0+255),b
  7057  000570                     
  7058                           ; BSR set to: 0
  7059  000570  C06E  F07A         	movff	___fldiv@b,___fldiv@rem
  7060  000574  C06F  F07B         	movff	___fldiv@b+1,___fldiv@rem+1
  7061  000578  C070  F07C         	movff	___fldiv@b+2,___fldiv@rem+2
  7062  00057C  C071  F07D         	movff	___fldiv@b+3,___fldiv@rem+3
  7063  000580                     
  7064                           ; BSR set to: 0
  7065  000580  0E00               	movlw	0
  7066  000582  6F6E               	movwf	___fldiv@b& (0+255),b
  7067  000584  0E00               	movlw	0
  7068  000586  6F6F               	movwf	(___fldiv@b+1)& (0+255),b
  7069  000588  0E00               	movlw	0
  7070  00058A  6F70               	movwf	(___fldiv@b+2)& (0+255),b
  7071  00058C  0E00               	movlw	0
  7072  00058E  6F71               	movwf	(___fldiv@b+3)& (0+255),b
  7073  000590                     
  7074                           ; BSR set to: 0
  7075  000590  0E00               	movlw	0
  7076  000592  6F81               	movwf	___fldiv@grs& (0+255),b
  7077  000594  0E00               	movlw	0
  7078  000596  6F82               	movwf	(___fldiv@grs+1)& (0+255),b
  7079  000598  0E00               	movlw	0
  7080  00059A  6F83               	movwf	(___fldiv@grs+2)& (0+255),b
  7081  00059C  0E00               	movlw	0
  7082  00059E  6F84               	movwf	(___fldiv@grs+3)& (0+255),b
  7083  0005A0                     
  7084                           ; BSR set to: 0
  7085  0005A0  0E00               	movlw	0
  7086  0005A2  6F86               	movwf	___fldiv@aexp& (0+255),b
  7087  0005A4  EF0C  F003         	goto	l1337
  7088  0005A8                     l3512:
  7089                           
  7090                           ; BSR set to: 0
  7091  0005A8  5186               	movf	___fldiv@aexp& (0+255),w,b
  7092  0005AA  B4D8               	btfsc	status,2,c
  7093  0005AC  EFDA  F002         	goto	u2041
  7094  0005B0  EFDC  F002         	goto	u2040
  7095  0005B4                     u2041:
  7096  0005B4  EFF3  F002         	goto	l3520
  7097  0005B8                     u2040:
  7098  0005B8                     
  7099                           ; BSR set to: 0
  7100  0005B8  90D8               	bcf	status,0,c
  7101  0005BA  377A               	rlcf	___fldiv@rem& (0+255),f,b
  7102  0005BC  377B               	rlcf	(___fldiv@rem+1)& (0+255),f,b
  7103  0005BE  377C               	rlcf	(___fldiv@rem+2)& (0+255),f,b
  7104  0005C0  377D               	rlcf	(___fldiv@rem+3)& (0+255),f,b
  7105  0005C2  90D8               	bcf	status,0,c
  7106  0005C4  376E               	rlcf	___fldiv@b& (0+255),f,b
  7107  0005C6  376F               	rlcf	(___fldiv@b+1)& (0+255),f,b
  7108  0005C8  3770               	rlcf	(___fldiv@b+2)& (0+255),f,b
  7109  0005CA  3771               	rlcf	(___fldiv@b+3)& (0+255),f,b
  7110  0005CC                     
  7111                           ; BSR set to: 0
  7112  0005CC  AF84               	btfss	(___fldiv@grs+3)& (0+255),7,b
  7113  0005CE  EFEB  F002         	goto	u2051
  7114  0005D2  EFED  F002         	goto	u2050
  7115  0005D6                     u2051:
  7116  0005D6  EFEE  F002         	goto	l1340
  7117  0005DA                     u2050:
  7118  0005DA                     
  7119                           ; BSR set to: 0
  7120  0005DA  816E               	bsf	___fldiv@b& (0+255),0,b
  7121  0005DC                     l1340:
  7122                           
  7123                           ; BSR set to: 0
  7124  0005DC  90D8               	bcf	status,0,c
  7125  0005DE  3781               	rlcf	___fldiv@grs& (0+255),f,b
  7126  0005E0  3782               	rlcf	(___fldiv@grs+1)& (0+255),f,b
  7127  0005E2  3783               	rlcf	(___fldiv@grs+2)& (0+255),f,b
  7128  0005E4  3784               	rlcf	(___fldiv@grs+3)& (0+255),f,b
  7129  0005E6                     l3520:
  7130                           
  7131                           ; BSR set to: 0
  7132  0005E6  5172               	movf	___fldiv@a& (0+255),w,b
  7133  0005E8  5D7A               	subwf	___fldiv@rem& (0+255),w,b
  7134  0005EA  5173               	movf	(___fldiv@a+1)& (0+255),w,b
  7135  0005EC  597B               	subwfb	(___fldiv@rem+1)& (0+255),w,b
  7136  0005EE  5174               	movf	(___fldiv@a+2)& (0+255),w,b
  7137  0005F0  597C               	subwfb	(___fldiv@rem+2)& (0+255),w,b
  7138  0005F2  5175               	movf	(___fldiv@a+3)& (0+255),w,b
  7139  0005F4  597D               	subwfb	(___fldiv@rem+3)& (0+255),w,b
  7140  0005F6  A0D8               	btfss	status,0,c
  7141  0005F8  EF00  F003         	goto	u2061
  7142  0005FC  EF02  F003         	goto	u2060
  7143  000600                     u2061:
  7144  000600  EF0B  F003         	goto	l3526
  7145  000604                     u2060:
  7146  000604                     
  7147                           ; BSR set to: 0
  7148  000604  8D84               	bsf	(___fldiv@grs+3)& (0+255),6,b
  7149  000606                     
  7150                           ; BSR set to: 0
  7151  000606  5172               	movf	___fldiv@a& (0+255),w,b
  7152  000608  5F7A               	subwf	___fldiv@rem& (0+255),f,b
  7153  00060A  5173               	movf	(___fldiv@a+1)& (0+255),w,b
  7154  00060C  5B7B               	subwfb	(___fldiv@rem+1)& (0+255),f,b
  7155  00060E  5174               	movf	(___fldiv@a+2)& (0+255),w,b
  7156  000610  5B7C               	subwfb	(___fldiv@rem+2)& (0+255),f,b
  7157  000612  5175               	movf	(___fldiv@a+3)& (0+255),w,b
  7158  000614  5B7D               	subwfb	(___fldiv@rem+3)& (0+255),f,b
  7159  000616                     l3526:
  7160                           
  7161                           ; BSR set to: 0
  7162  000616  2B86               	incf	___fldiv@aexp& (0+255),f,b
  7163  000618                     l1337:
  7164                           
  7165                           ; BSR set to: 0
  7166  000618  0E19               	movlw	25
  7167  00061A  6586               	cpfsgt	___fldiv@aexp& (0+255),b
  7168  00061C  EF12  F003         	goto	u2071
  7169  000620  EF14  F003         	goto	u2070
  7170  000624                     u2071:
  7171  000624  EFD4  F002         	goto	l3512
  7172  000628                     u2070:
  7173  000628                     
  7174                           ; BSR set to: 0
  7175  000628  517A               	movf	___fldiv@rem& (0+255),w,b
  7176  00062A  117B               	iorwf	(___fldiv@rem+1)& (0+255),w,b
  7177  00062C  117C               	iorwf	(___fldiv@rem+2)& (0+255),w,b
  7178  00062E  117D               	iorwf	(___fldiv@rem+3)& (0+255),w,b
  7179  000630  B4D8               	btfsc	status,2,c
  7180  000632  EF1D  F003         	goto	u2081
  7181  000636  EF1F  F003         	goto	u2080
  7182  00063A                     u2081:
  7183  00063A  EF37  F003         	goto	l3538
  7184  00063E                     u2080:
  7185  00063E                     
  7186                           ; BSR set to: 0
  7187  00063E  8181               	bsf	___fldiv@grs& (0+255),0,b
  7188  000640  EF37  F003         	goto	l3538
  7189  000644                     l3532:
  7190                           
  7191                           ; BSR set to: 0
  7192  000644  90D8               	bcf	status,0,c
  7193  000646  376E               	rlcf	___fldiv@b& (0+255),f,b
  7194  000648  376F               	rlcf	(___fldiv@b+1)& (0+255),f,b
  7195  00064A  3770               	rlcf	(___fldiv@b+2)& (0+255),f,b
  7196  00064C  3771               	rlcf	(___fldiv@b+3)& (0+255),f,b
  7197  00064E                     
  7198                           ; BSR set to: 0
  7199  00064E  AF84               	btfss	(___fldiv@grs+3)& (0+255),7,b
  7200  000650  EF2C  F003         	goto	u2091
  7201  000654  EF2E  F003         	goto	u2090
  7202  000658                     u2091:
  7203  000658  EF2F  F003         	goto	l1346
  7204  00065C                     u2090:
  7205  00065C                     
  7206                           ; BSR set to: 0
  7207  00065C  816E               	bsf	___fldiv@b& (0+255),0,b
  7208  00065E                     l1346:
  7209                           
  7210                           ; BSR set to: 0
  7211  00065E  90D8               	bcf	status,0,c
  7212  000660  3781               	rlcf	___fldiv@grs& (0+255),f,b
  7213  000662  3782               	rlcf	(___fldiv@grs+1)& (0+255),f,b
  7214  000664  3783               	rlcf	(___fldiv@grs+2)& (0+255),f,b
  7215  000666  3784               	rlcf	(___fldiv@grs+3)& (0+255),f,b
  7216  000668  077F               	decf	___fldiv@new_exp& (0+255),f,b
  7217  00066A  A0D8               	btfss	status,0,c
  7218  00066C  0780               	decf	(___fldiv@new_exp+1)& (0+255),f,b
  7219  00066E                     l3538:
  7220                           
  7221                           ; BSR set to: 0
  7222  00066E  AF70               	btfss	(___fldiv@b+2)& (0+255),7,b
  7223  000670  EF3C  F003         	goto	u2101
  7224  000674  EF3E  F003         	goto	u2100
  7225  000678                     u2101:
  7226  000678  EF22  F003         	goto	l3532
  7227  00067C                     u2100:
  7228  00067C                     
  7229                           ; BSR set to: 0
  7230  00067C  0E00               	movlw	0
  7231  00067E  6F86               	movwf	___fldiv@aexp& (0+255),b
  7232  000680                     
  7233                           ; BSR set to: 0
  7234  000680  AF84               	btfss	(___fldiv@grs+3)& (0+255),7,b
  7235  000682  EF45  F003         	goto	u2111
  7236  000686  EF47  F003         	goto	u2110
  7237  00068A                     u2111:
  7238  00068A  EF6B  F003         	goto	l1348
  7239  00068E                     u2110:
  7240  00068E                     
  7241                           ; BSR set to: 0
  7242  00068E  0EFF               	movlw	255
  7243  000690  1581               	andwf	___fldiv@grs& (0+255),w,b
  7244  000692  6F76               	movwf	??___fldiv& (0+255),b
  7245  000694  0EFF               	movlw	255
  7246  000696  1582               	andwf	(___fldiv@grs+1)& (0+255),w,b
  7247  000698  6F77               	movwf	(??___fldiv+1)& (0+255),b
  7248  00069A  0EFF               	movlw	255
  7249  00069C  1583               	andwf	(___fldiv@grs+2)& (0+255),w,b
  7250  00069E  6F78               	movwf	(??___fldiv+2)& (0+255),b
  7251  0006A0  0E7F               	movlw	127
  7252  0006A2  1584               	andwf	(___fldiv@grs+3)& (0+255),w,b
  7253  0006A4  6F79               	movwf	(??___fldiv+3)& (0+255),b
  7254  0006A6  5176               	movf	??___fldiv& (0+255),w,b
  7255  0006A8  1177               	iorwf	(??___fldiv+1)& (0+255),w,b
  7256  0006AA  1178               	iorwf	(??___fldiv+2)& (0+255),w,b
  7257  0006AC  1179               	iorwf	(??___fldiv+3)& (0+255),w,b
  7258  0006AE  B4D8               	btfsc	status,2,c
  7259  0006B0  EF5C  F003         	goto	u2121
  7260  0006B4  EF5E  F003         	goto	u2120
  7261  0006B8                     u2121:
  7262  0006B8  EF62  F003         	goto	l1349
  7263  0006BC                     u2120:
  7264  0006BC                     l3546:
  7265                           
  7266                           ; BSR set to: 0
  7267  0006BC  0E01               	movlw	1
  7268  0006BE  6F86               	movwf	___fldiv@aexp& (0+255),b
  7269  0006C0  EF6B  F003         	goto	l1348
  7270  0006C4                     l1349:
  7271                           
  7272                           ; BSR set to: 0
  7273  0006C4  A16E               	btfss	___fldiv@b& (0+255),0,b
  7274  0006C6  EF67  F003         	goto	u2131
  7275  0006CA  EF69  F003         	goto	u2130
  7276  0006CE                     u2131:
  7277  0006CE  EF6B  F003         	goto	l1348
  7278  0006D2                     u2130:
  7279  0006D2  EF5E  F003         	goto	l3546
  7280  0006D6                     l1348:
  7281                           
  7282                           ; BSR set to: 0
  7283  0006D6  5186               	movf	___fldiv@aexp& (0+255),w,b
  7284  0006D8  B4D8               	btfsc	status,2,c
  7285  0006DA  EF71  F003         	goto	u2141
  7286  0006DE  EF73  F003         	goto	u2140
  7287  0006E2                     u2141:
  7288  0006E2  EF97  F003         	goto	l3558
  7289  0006E6                     u2140:
  7290  0006E6                     
  7291                           ; BSR set to: 0
  7292  0006E6  0E01               	movlw	1
  7293  0006E8  276E               	addwf	___fldiv@b& (0+255),f,b
  7294  0006EA  0E00               	movlw	0
  7295  0006EC  236F               	addwfc	(___fldiv@b+1)& (0+255),f,b
  7296  0006EE  2370               	addwfc	(___fldiv@b+2)& (0+255),f,b
  7297  0006F0  2371               	addwfc	(___fldiv@b+3)& (0+255),f,b
  7298  0006F2                     
  7299                           ; BSR set to: 0
  7300  0006F2  A171               	btfss	(___fldiv@b+3)& (0+255),0,b
  7301  0006F4  EF7E  F003         	goto	u2151
  7302  0006F8  EF80  F003         	goto	u2150
  7303  0006FC                     u2151:
  7304  0006FC  EF97  F003         	goto	l3558
  7305  000700                     u2150:
  7306  000700                     
  7307                           ; BSR set to: 0
  7308  000700  C06E  F076         	movff	___fldiv@b,??___fldiv
  7309  000704  C06F  F077         	movff	___fldiv@b+1,??___fldiv+1
  7310  000708  C070  F078         	movff	___fldiv@b+2,??___fldiv+2
  7311  00070C  C071  F079         	movff	___fldiv@b+3,??___fldiv+3
  7312  000710  3579               	rlcf	(??___fldiv+3)& (0+255),w,b
  7313  000712  3379               	rrcf	(??___fldiv+3)& (0+255),f,b
  7314  000714  3378               	rrcf	(??___fldiv+2)& (0+255),f,b
  7315  000716  3377               	rrcf	(??___fldiv+1)& (0+255),f,b
  7316  000718  3376               	rrcf	??___fldiv& (0+255),f,b
  7317  00071A  C076  F06E         	movff	??___fldiv,___fldiv@b
  7318  00071E  C077  F06F         	movff	??___fldiv+1,___fldiv@b+1
  7319  000722  C078  F070         	movff	??___fldiv+2,___fldiv@b+2
  7320  000726  C079  F071         	movff	??___fldiv+3,___fldiv@b+3
  7321  00072A                     
  7322                           ; BSR set to: 0
  7323  00072A  4B7F               	infsnz	___fldiv@new_exp& (0+255),f,b
  7324  00072C  2B80               	incf	(___fldiv@new_exp+1)& (0+255),f,b
  7325  00072E                     l3558:
  7326                           
  7327                           ; BSR set to: 0
  7328  00072E  BF80               	btfsc	(___fldiv@new_exp+1)& (0+255),7,b
  7329  000730  EFA2  F003         	goto	u2161
  7330  000734  5180               	movf	(___fldiv@new_exp+1)& (0+255),w,b
  7331  000736  E108               	bnz	u2160
  7332  000738  297F               	incf	___fldiv@new_exp& (0+255),w,b
  7333  00073A  A0D8               	btfss	status,0,c
  7334  00073C  EFA2  F003         	goto	u2161
  7335  000740  EFA4  F003         	goto	u2160
  7336  000744                     u2161:
  7337  000744  EFAF  F003         	goto	l3562
  7338  000748                     u2160:
  7339  000748                     
  7340                           ; BSR set to: 0
  7341  000748  0E00               	movlw	0
  7342  00074A  6F80               	movwf	(___fldiv@new_exp+1)& (0+255),b
  7343  00074C  697F               	setf	___fldiv@new_exp& (0+255),b
  7344  00074E  0E00               	movlw	0
  7345  000750  6F6E               	movwf	___fldiv@b& (0+255),b
  7346  000752  0E00               	movlw	0
  7347  000754  6F6F               	movwf	(___fldiv@b+1)& (0+255),b
  7348  000756  0E00               	movlw	0
  7349  000758  6F70               	movwf	(___fldiv@b+2)& (0+255),b
  7350  00075A  0E00               	movlw	0
  7351  00075C  6F71               	movwf	(___fldiv@b+3)& (0+255),b
  7352  00075E                     l3562:
  7353                           
  7354                           ; BSR set to: 0
  7355  00075E  BF80               	btfsc	(___fldiv@new_exp+1)& (0+255),7,b
  7356  000760  EFBC  F003         	goto	u2170
  7357  000764  5180               	movf	(___fldiv@new_exp+1)& (0+255),w,b
  7358  000766  E106               	bnz	u2171
  7359  000768  057F               	decf	___fldiv@new_exp& (0+255),w,b
  7360  00076A  B0D8               	btfsc	status,0,c
  7361  00076C  EFBA  F003         	goto	u2171
  7362  000770  EFBC  F003         	goto	u2170
  7363  000774                     u2171:
  7364  000774  EFCA  F003         	goto	l3566
  7365  000778                     u2170:
  7366  000778                     
  7367                           ; BSR set to: 0
  7368  000778  0E00               	movlw	0
  7369  00077A  6F80               	movwf	(___fldiv@new_exp+1)& (0+255),b
  7370  00077C  0E00               	movlw	0
  7371  00077E  6F7F               	movwf	___fldiv@new_exp& (0+255),b
  7372  000780  0E00               	movlw	0
  7373  000782  6F6E               	movwf	___fldiv@b& (0+255),b
  7374  000784  0E00               	movlw	0
  7375  000786  6F6F               	movwf	(___fldiv@b+1)& (0+255),b
  7376  000788  0E00               	movlw	0
  7377  00078A  6F70               	movwf	(___fldiv@b+2)& (0+255),b
  7378  00078C  0E00               	movlw	0
  7379  00078E  6F71               	movwf	(___fldiv@b+3)& (0+255),b
  7380  000790  0E00               	movlw	0
  7381  000792  6F7E               	movwf	___fldiv@sign& (0+255),b
  7382  000794                     l3566:
  7383                           
  7384                           ; BSR set to: 0
  7385  000794  C07F  F085         	movff	___fldiv@new_exp,___fldiv@bexp
  7386  000798                     
  7387                           ; BSR set to: 0
  7388  000798  A185               	btfss	___fldiv@bexp& (0+255),0,b
  7389  00079A  EFD1  F003         	goto	u2181
  7390  00079E  EFD3  F003         	goto	u2180
  7391  0007A2                     u2181:
  7392  0007A2  EFD6  F003         	goto	l3572
  7393  0007A6                     u2180:
  7394  0007A6                     
  7395                           ; BSR set to: 0
  7396  0007A6  8F70               	bsf	(___fldiv@b+2)& (0+255),7,b
  7397  0007A8  EFD7  F003         	goto	l3574
  7398  0007AC                     l3572:
  7399                           
  7400                           ; BSR set to: 0
  7401  0007AC  9F70               	bcf	(___fldiv@b+2)& (0+255),7,b
  7402  0007AE                     l3574:
  7403                           
  7404                           ; BSR set to: 0
  7405  0007AE  90D8               	bcf	status,0,c
  7406  0007B0  3185               	rrcf	___fldiv@bexp& (0+255),w,b
  7407  0007B2  6F71               	movwf	(___fldiv@b+3)& (0+255),b
  7408  0007B4  EF8D  F002         	goto	l3488
  7409  0007B8                     l1335:
  7410                           
  7411                           ; BSR set to: 0
  7412  0007B8  0012               	return		;funcret
  7413  0007BA                     __end_of___fldiv:
  7414                           	opt callstack 0
  7415                           
  7416 ;; *************** function _Motor_Calcular_PasosY *****************
  7417 ;; Defined at:
  7418 ;;		line 50 in file "Motor.c"
  7419 ;; Parameters:    Size  Location     Type
  7420 ;;  coordenada_a    2    0[BANK0 ] int 
  7421 ;; Auto vars:     Size  Location     Type
  7422 ;;		None
  7423 ;; Return value:  Size  Location     Type
  7424 ;;                  1    wreg      void 
  7425 ;; Registers used:
  7426 ;;		wreg, status,2, status,0
  7427 ;; Tracked objects:
  7428 ;;		On entry : 0/0
  7429 ;;		On exit  : 0/0
  7430 ;;		Unchanged: 0/0
  7431 ;; Data sizes:     COMRAM   BANK0   BANK1   BANK2   BANK3   BANK4   BANK5   BANK6   BANK7
  7432 ;;      Params:         0       2       0       0       0       0       0       0       0
  7433 ;;      Locals:         0       0       0       0       0       0       0       0       0
  7434 ;;      Temps:          0       1       0       0       0       0       0       0       0
  7435 ;;      Totals:         0       3       0       0       0       0       0       0       0
  7436 ;;Total ram usage:        3 bytes
  7437 ;; Hardware stack levels used:    1
  7438 ;; Hardware stack levels required when called:    5
  7439 ;; This function calls:
  7440 ;;		Nothing
  7441 ;; This function is called by:
  7442 ;;		_Motor_Movimiento
  7443 ;; This function uses a non-reentrant model
  7444 ;;
  7445                           
  7446                           	psect	text32
  7447  001EEA                     __ptext32:
  7448                           	opt callstack 0
  7449  001EEA                     _Motor_Calcular_PasosY:
  7450                           	opt callstack 23
  7451  001EEA                     
  7452                           ;Motor.c: 51:     if (coordenada_actualY < coordenada_anteriorY) {
  7453  001EEA  0100               	movlb	0	; () banked
  7454  001EEC  51A4               	movf	_coordenada_anteriorY& (0+255),w,b
  7455  001EEE  5D60               	subwf	Motor_Calcular_PasosY@coordenada_actualY& (0+255),w,b
  7456  001EF0  5161               	movf	(Motor_Calcular_PasosY@coordenada_actualY+1)& (0+255),w,b
  7457  001EF2  0A80               	xorlw	128
  7458  001EF4  6F62               	movwf	??_Motor_Calcular_PasosY& (0+255),b
  7459  001EF6  51A5               	movf	(_coordenada_anteriorY+1)& (0+255),w,b
  7460  001EF8  0A80               	xorlw	128
  7461  001EFA  5962               	subwfb	??_Motor_Calcular_PasosY& (0+255),w,b
  7462  001EFC  B0D8               	btfsc	status,0,c
  7463  001EFE  EF83  F00F         	goto	u3091
  7464  001F02  EF85  F00F         	goto	u3090
  7465  001F06                     u3091:
  7466  001F06  EF8E  F00F         	goto	l4132
  7467  001F0A                     u3090:
  7468  001F0A                     
  7469                           ; BSR set to: 0
  7470                           ;Motor.c: 53:         PORTDbits.RD3 = 1;
  7471  001F0A  8683               	bsf	131,3,c	;volatile
  7472  001F0C                     
  7473                           ; BSR set to: 0
  7474                           ;Motor.c: 54:         DeltaY = coordenada_anteriorY - coordenada_actualY;
  7475  001F0C  5160               	movf	Motor_Calcular_PasosY@coordenada_actualY& (0+255),w,b
  7476  001F0E  5DA4               	subwf	_coordenada_anteriorY& (0+255),w,b
  7477  001F10  6FA8               	movwf	_DeltaY& (0+255),b
  7478  001F12  5161               	movf	(Motor_Calcular_PasosY@coordenada_actualY+1)& (0+255),w,b
  7479  001F14  59A5               	subwfb	(_coordenada_anteriorY+1)& (0+255),w,b
  7480  001F16  6FA9               	movwf	(_DeltaY+1)& (0+255),b
  7481                           
  7482                           ;Motor.c: 55:     } else if (coordenada_actualY > coordenada_anteriorY) {
  7483  001F18  EFB6  F00F         	goto	l570
  7484  001F1C                     l4132:
  7485                           
  7486                           ; BSR set to: 0
  7487  001F1C  5160               	movf	Motor_Calcular_PasosY@coordenada_actualY& (0+255),w,b
  7488  001F1E  5DA4               	subwf	_coordenada_anteriorY& (0+255),w,b
  7489  001F20  51A5               	movf	(_coordenada_anteriorY+1)& (0+255),w,b
  7490  001F22  0A80               	xorlw	128
  7491  001F24  6F62               	movwf	??_Motor_Calcular_PasosY& (0+255),b
  7492  001F26  5161               	movf	(Motor_Calcular_PasosY@coordenada_actualY+1)& (0+255),w,b
  7493  001F28  0A80               	xorlw	128
  7494  001F2A  5962               	subwfb	??_Motor_Calcular_PasosY& (0+255),w,b
  7495  001F2C  B0D8               	btfsc	status,0,c
  7496  001F2E  EF9B  F00F         	goto	u3101
  7497  001F32  EF9D  F00F         	goto	u3100
  7498  001F36                     u3101:
  7499  001F36  EFA6  F00F         	goto	l4138
  7500  001F3A                     u3100:
  7501  001F3A                     
  7502                           ; BSR set to: 0
  7503                           ;Motor.c: 57:         PORTDbits.RD3 = 0;
  7504  001F3A  9683               	bcf	131,3,c	;volatile
  7505  001F3C                     
  7506                           ; BSR set to: 0
  7507                           ;Motor.c: 58:         DeltaY = coordenada_actualY - coordenada_anteriorY;
  7508  001F3C  51A4               	movf	_coordenada_anteriorY& (0+255),w,b
  7509  001F3E  5D60               	subwf	Motor_Calcular_PasosY@coordenada_actualY& (0+255),w,b
  7510  001F40  6FA8               	movwf	_DeltaY& (0+255),b
  7511  001F42  51A5               	movf	(_coordenada_anteriorY+1)& (0+255),w,b
  7512  001F44  5961               	subwfb	(Motor_Calcular_PasosY@coordenada_actualY+1)& (0+255),w,b
  7513  001F46  6FA9               	movwf	(_DeltaY+1)& (0+255),b
  7514                           
  7515                           ;Motor.c: 59:     } else if (coordenada_actualY == coordenada_anteriorY) {
  7516  001F48  EFB6  F00F         	goto	l570
  7517  001F4C                     l4138:
  7518                           
  7519                           ; BSR set to: 0
  7520  001F4C  51A4               	movf	_coordenada_anteriorY& (0+255),w,b
  7521  001F4E  1960               	xorwf	Motor_Calcular_PasosY@coordenada_actualY& (0+255),w,b
  7522  001F50  E107               	bnz	u3111
  7523  001F52  51A5               	movf	(_coordenada_anteriorY+1)& (0+255),w,b
  7524  001F54  1961               	xorwf	(Motor_Calcular_PasosY@coordenada_actualY+1)& (0+255),w,b
  7525  001F56  A4D8               	btfss	status,2,c
  7526  001F58  EFB0  F00F         	goto	u3111
  7527  001F5C  EFB2  F00F         	goto	u3110
  7528  001F60                     u3111:
  7529  001F60  EFB6  F00F         	goto	l570
  7530  001F64                     u3110:
  7531  001F64                     
  7532                           ; BSR set to: 0
  7533                           ;Motor.c: 60:         DeltaY=0;
  7534  001F64  0E00               	movlw	0
  7535  001F66  6FA9               	movwf	(_DeltaY+1)& (0+255),b
  7536  001F68  0E00               	movlw	0
  7537  001F6A  6FA8               	movwf	_DeltaY& (0+255),b
  7538  001F6C                     l570:
  7539                           
  7540                           ; BSR set to: 0
  7541  001F6C  0012               	return		;funcret
  7542  001F6E                     __end_of_Motor_Calcular_PasosY:
  7543                           	opt callstack 0
  7544                           
  7545 ;; *************** function _Motor_Calcular_PasosX *****************
  7546 ;; Defined at:
  7547 ;;		line 36 in file "Motor.c"
  7548 ;; Parameters:    Size  Location     Type
  7549 ;;  coordenada_a    2    0[BANK0 ] int 
  7550 ;; Auto vars:     Size  Location     Type
  7551 ;;		None
  7552 ;; Return value:  Size  Location     Type
  7553 ;;                  1    wreg      void 
  7554 ;; Registers used:
  7555 ;;		wreg, status,2, status,0
  7556 ;; Tracked objects:
  7557 ;;		On entry : 0/0
  7558 ;;		On exit  : 0/0
  7559 ;;		Unchanged: 0/0
  7560 ;; Data sizes:     COMRAM   BANK0   BANK1   BANK2   BANK3   BANK4   BANK5   BANK6   BANK7
  7561 ;;      Params:         0       2       0       0       0       0       0       0       0
  7562 ;;      Locals:         0       0       0       0       0       0       0       0       0
  7563 ;;      Temps:          0       1       0       0       0       0       0       0       0
  7564 ;;      Totals:         0       3       0       0       0       0       0       0       0
  7565 ;;Total ram usage:        3 bytes
  7566 ;; Hardware stack levels used:    1
  7567 ;; Hardware stack levels required when called:    5
  7568 ;; This function calls:
  7569 ;;		Nothing
  7570 ;; This function is called by:
  7571 ;;		_Motor_Movimiento
  7572 ;; This function uses a non-reentrant model
  7573 ;;
  7574                           
  7575                           	psect	text33
  7576  001F6E                     __ptext33:
  7577                           	opt callstack 0
  7578  001F6E                     _Motor_Calcular_PasosX:
  7579                           	opt callstack 23
  7580  001F6E                     
  7581                           ;Motor.c: 37:     if (coordenada_actualX < coordenada_anteriorX) {
  7582  001F6E  0100               	movlb	0	; () banked
  7583  001F70  51A6               	movf	_coordenada_anteriorX& (0+255),w,b
  7584  001F72  5D60               	subwf	Motor_Calcular_PasosX@coordenada_actualX& (0+255),w,b
  7585  001F74  5161               	movf	(Motor_Calcular_PasosX@coordenada_actualX+1)& (0+255),w,b
  7586  001F76  0A80               	xorlw	128
  7587  001F78  6F62               	movwf	??_Motor_Calcular_PasosX& (0+255),b
  7588  001F7A  51A7               	movf	(_coordenada_anteriorX+1)& (0+255),w,b
  7589  001F7C  0A80               	xorlw	128
  7590  001F7E  5962               	subwfb	??_Motor_Calcular_PasosX& (0+255),w,b
  7591  001F80  B0D8               	btfsc	status,0,c
  7592  001F82  EFC5  F00F         	goto	u3061
  7593  001F86  EFC7  F00F         	goto	u3060
  7594  001F8A                     u3061:
  7595  001F8A  EFD0  F00F         	goto	l4116
  7596  001F8E                     u3060:
  7597  001F8E                     
  7598                           ; BSR set to: 0
  7599                           ;Motor.c: 39:         PORTDbits.RD1 = 1;
  7600  001F8E  8283               	bsf	131,1,c	;volatile
  7601  001F90                     
  7602                           ; BSR set to: 0
  7603                           ;Motor.c: 40:         DeltaX = coordenada_anteriorX - coordenada_actualX;
  7604  001F90  5160               	movf	Motor_Calcular_PasosX@coordenada_actualX& (0+255),w,b
  7605  001F92  5DA6               	subwf	_coordenada_anteriorX& (0+255),w,b
  7606  001F94  6FAA               	movwf	_DeltaX& (0+255),b
  7607  001F96  5161               	movf	(Motor_Calcular_PasosX@coordenada_actualX+1)& (0+255),w,b
  7608  001F98  59A7               	subwfb	(_coordenada_anteriorX+1)& (0+255),w,b
  7609  001F9A  6FAB               	movwf	(_DeltaX+1)& (0+255),b
  7610                           
  7611                           ;Motor.c: 41:     } else if (coordenada_actualX > coordenada_anteriorX) {
  7612  001F9C  EFF8  F00F         	goto	l562
  7613  001FA0                     l4116:
  7614                           
  7615                           ; BSR set to: 0
  7616  001FA0  5160               	movf	Motor_Calcular_PasosX@coordenada_actualX& (0+255),w,b
  7617  001FA2  5DA6               	subwf	_coordenada_anteriorX& (0+255),w,b
  7618  001FA4  51A7               	movf	(_coordenada_anteriorX+1)& (0+255),w,b
  7619  001FA6  0A80               	xorlw	128
  7620  001FA8  6F62               	movwf	??_Motor_Calcular_PasosX& (0+255),b
  7621  001FAA  5161               	movf	(Motor_Calcular_PasosX@coordenada_actualX+1)& (0+255),w,b
  7622  001FAC  0A80               	xorlw	128
  7623  001FAE  5962               	subwfb	??_Motor_Calcular_PasosX& (0+255),w,b
  7624  001FB0  B0D8               	btfsc	status,0,c
  7625  001FB2  EFDD  F00F         	goto	u3071
  7626  001FB6  EFDF  F00F         	goto	u3070
  7627  001FBA                     u3071:
  7628  001FBA  EFE8  F00F         	goto	l4122
  7629  001FBE                     u3070:
  7630  001FBE                     
  7631                           ; BSR set to: 0
  7632                           ;Motor.c: 43:         PORTDbits.RD1 = 0;
  7633  001FBE  9283               	bcf	131,1,c	;volatile
  7634  001FC0                     
  7635                           ; BSR set to: 0
  7636                           ;Motor.c: 44:         DeltaX = coordenada_actualX - coordenada_anteriorX;
  7637  001FC0  51A6               	movf	_coordenada_anteriorX& (0+255),w,b
  7638  001FC2  5D60               	subwf	Motor_Calcular_PasosX@coordenada_actualX& (0+255),w,b
  7639  001FC4  6FAA               	movwf	_DeltaX& (0+255),b
  7640  001FC6  51A7               	movf	(_coordenada_anteriorX+1)& (0+255),w,b
  7641  001FC8  5961               	subwfb	(Motor_Calcular_PasosX@coordenada_actualX+1)& (0+255),w,b
  7642  001FCA  6FAB               	movwf	(_DeltaX+1)& (0+255),b
  7643                           
  7644                           ;Motor.c: 45:     } else if (coordenada_actualX == coordenada_anteriorX) {
  7645  001FCC  EFF8  F00F         	goto	l562
  7646  001FD0                     l4122:
  7647                           
  7648                           ; BSR set to: 0
  7649  001FD0  51A6               	movf	_coordenada_anteriorX& (0+255),w,b
  7650  001FD2  1960               	xorwf	Motor_Calcular_PasosX@coordenada_actualX& (0+255),w,b
  7651  001FD4  E107               	bnz	u3081
  7652  001FD6  51A7               	movf	(_coordenada_anteriorX+1)& (0+255),w,b
  7653  001FD8  1961               	xorwf	(Motor_Calcular_PasosX@coordenada_actualX+1)& (0+255),w,b
  7654  001FDA  A4D8               	btfss	status,2,c
  7655  001FDC  EFF2  F00F         	goto	u3081
  7656  001FE0  EFF4  F00F         	goto	u3080
  7657  001FE4                     u3081:
  7658  001FE4  EFF8  F00F         	goto	l562
  7659  001FE8                     u3080:
  7660  001FE8                     
  7661                           ; BSR set to: 0
  7662                           ;Motor.c: 46:         DeltaX = 0;
  7663  001FE8  0E00               	movlw	0
  7664  001FEA  6FAB               	movwf	(_DeltaX+1)& (0+255),b
  7665  001FEC  0E00               	movlw	0
  7666  001FEE  6FAA               	movwf	_DeltaX& (0+255),b
  7667  001FF0                     l562:
  7668                           
  7669                           ; BSR set to: 0
  7670  001FF0  0012               	return		;funcret
  7671  001FF2                     __end_of_Motor_Calcular_PasosX:
  7672                           	opt callstack 0
  7673                           
  7674 ;; *************** function _Actuator_Touch *****************
  7675 ;; Defined at:
  7676 ;;		line 20 in file "Actuator.c"
  7677 ;; Parameters:    Size  Location     Type
  7678 ;;		None
  7679 ;; Auto vars:     Size  Location     Type
  7680 ;;		None
  7681 ;; Return value:  Size  Location     Type
  7682 ;;                  1    wreg      void 
  7683 ;; Registers used:
  7684 ;;		wreg, fsr0l, fsr0h, status,2, status,0, tblptrl, tblptrh, tblptru, cstack
  7685 ;; Tracked objects:
  7686 ;;		On entry : 0/0
  7687 ;;		On exit  : 0/0
  7688 ;;		Unchanged: 0/0
  7689 ;; Data sizes:     COMRAM   BANK0   BANK1   BANK2   BANK3   BANK4   BANK5   BANK6   BANK7
  7690 ;;      Params:         0       0       0       0       0       0       0       0       0
  7691 ;;      Locals:         0       0       0       0       0       0       0       0       0
  7692 ;;      Temps:          0       2       0       0       0       0       0       0       0
  7693 ;;      Totals:         0       2       0       0       0       0       0       0       0
  7694 ;;Total ram usage:        2 bytes
  7695 ;; Hardware stack levels used:    1
  7696 ;; Hardware stack levels required when called:    6
  7697 ;; This function calls:
  7698 ;;		_USART_TxS
  7699 ;; This function is called by:
  7700 ;;		_Serial_Oupcode
  7701 ;; This function uses a non-reentrant model
  7702 ;;
  7703                           
  7704                           	psect	text34
  7705  002484                     __ptext34:
  7706                           	opt callstack 0
  7707  002484                     _Actuator_Touch:
  7708                           	opt callstack 23
  7709  002484  808B               	bsf	139,0,c	;volatile
  7710  002486                     
  7711                           ;Actuator.c: 22:     _delay((unsigned long)((100)*(8000000/4000.0)));
  7712  002486  0E02               	movlw	2
  7713  002488  0100               	movlb	0	; () banked
  7714  00248A  6F69               	movwf	(??_Actuator_Touch+1)& (0+255),b
  7715  00248C  0E04               	movlw	4
  7716  00248E  6F68               	movwf	??_Actuator_Touch& (0+255),b
  7717  002490  0EBA               	movlw	186
  7718  002492                     u5217:
  7719  002492  2EE8               	decfsz	wreg,f,c
  7720  002494  D7FE               	bra	u5217
  7721  002496  2F68               	decfsz	??_Actuator_Touch& (0+255),f,b
  7722  002498  D7FC               	bra	u5217
  7723  00249A  2F69               	decfsz	(??_Actuator_Touch+1)& (0+255),f,b
  7724  00249C  D7FA               	bra	u5217
  7725  00249E  F000               	nop	
  7726  0024A0  908B               	bcf	139,0,c	;volatile
  7727  0024A2                     
  7728                           ;Actuator.c: 24:     USART_TxS("TOUCH\n",sizeof("TOUCH\n")-1);
  7729  0024A2  0EF7               	movlw	low STR_42
  7730  0024A4  0100               	movlb	0	; () banked
  7731  0024A6  6F60               	movwf	USART_TxS@str& (0+255),b
  7732  0024A8  0E7F               	movlw	high STR_42
  7733  0024AA  6F61               	movwf	(USART_TxS@str+1)& (0+255),b
  7734  0024AC  0E00               	movlw	0
  7735  0024AE  6F63               	movwf	(USART_TxS@length+1)& (0+255),b
  7736  0024B0  0E06               	movlw	6
  7737  0024B2  6F62               	movwf	USART_TxS@length& (0+255),b
  7738  0024B4  EC6E  F010         	call	_USART_TxS	;wreg free
  7739  0024B8  0012               	return		;funcret
  7740  0024BA                     __end_of_Actuator_Touch:
  7741                           	opt callstack 0
  7742                           
  7743 ;; *************** function _Actuator_Retract *****************
  7744 ;; Defined at:
  7745 ;;		line 30 in file "Actuator.c"
  7746 ;; Parameters:    Size  Location     Type
  7747 ;;		None
  7748 ;; Auto vars:     Size  Location     Type
  7749 ;;		None
  7750 ;; Return value:  Size  Location     Type
  7751 ;;                  1    wreg      void 
  7752 ;; Registers used:
  7753 ;;		wreg, fsr0l, fsr0h, status,2, status,0, tblptrl, tblptrh, tblptru, cstack
  7754 ;; Tracked objects:
  7755 ;;		On entry : 0/0
  7756 ;;		On exit  : 0/0
  7757 ;;		Unchanged: 0/0
  7758 ;; Data sizes:     COMRAM   BANK0   BANK1   BANK2   BANK3   BANK4   BANK5   BANK6   BANK7
  7759 ;;      Params:         0       0       0       0       0       0       0       0       0
  7760 ;;      Locals:         0       0       0       0       0       0       0       0       0
  7761 ;;      Temps:          0       0       0       0       0       0       0       0       0
  7762 ;;      Totals:         0       0       0       0       0       0       0       0       0
  7763 ;;Total ram usage:        0 bytes
  7764 ;; Hardware stack levels used:    1
  7765 ;; Hardware stack levels required when called:    6
  7766 ;; This function calls:
  7767 ;;		_USART_TxS
  7768 ;; This function is called by:
  7769 ;;		_Serial_Oupcode
  7770 ;; This function uses a non-reentrant model
  7771 ;;
  7772                           
  7773                           	psect	text35
  7774  002702                     __ptext35:
  7775                           	opt callstack 0
  7776  002702                     _Actuator_Retract:
  7777                           	opt callstack 23
  7778  002702  908B               	bcf	139,0,c	;volatile
  7779  002704                     
  7780                           ;Actuator.c: 32:      USART_TxS("COMPLETE\n",sizeof("COMPLETE\n")-1);
  7781  002704  0EED               	movlw	low STR_43
  7782  002706  0100               	movlb	0	; () banked
  7783  002708  6F60               	movwf	USART_TxS@str& (0+255),b
  7784  00270A  0E7F               	movlw	high STR_43
  7785  00270C  6F61               	movwf	(USART_TxS@str+1)& (0+255),b
  7786  00270E  0E00               	movlw	0
  7787  002710  6F63               	movwf	(USART_TxS@length+1)& (0+255),b
  7788  002712  0E09               	movlw	9
  7789  002714  6F62               	movwf	USART_TxS@length& (0+255),b
  7790  002716  EC6E  F010         	call	_USART_TxS	;wreg free
  7791  00271A  0012               	return		;funcret
  7792  00271C                     __end_of_Actuator_Retract:
  7793                           	opt callstack 0
  7794                           
  7795 ;; *************** function _Actuator_Hold *****************
  7796 ;; Defined at:
  7797 ;;		line 26 in file "Actuator.c"
  7798 ;; Parameters:    Size  Location     Type
  7799 ;;		None
  7800 ;; Auto vars:     Size  Location     Type
  7801 ;;		None
  7802 ;; Return value:  Size  Location     Type
  7803 ;;                  1    wreg      void 
  7804 ;; Registers used:
  7805 ;;		wreg, fsr0l, fsr0h, status,2, status,0, tblptrl, tblptrh, tblptru, cstack
  7806 ;; Tracked objects:
  7807 ;;		On entry : 0/0
  7808 ;;		On exit  : 0/0
  7809 ;;		Unchanged: 0/0
  7810 ;; Data sizes:     COMRAM   BANK0   BANK1   BANK2   BANK3   BANK4   BANK5   BANK6   BANK7
  7811 ;;      Params:         0       0       0       0       0       0       0       0       0
  7812 ;;      Locals:         0       0       0       0       0       0       0       0       0
  7813 ;;      Temps:          0       0       0       0       0       0       0       0       0
  7814 ;;      Totals:         0       0       0       0       0       0       0       0       0
  7815 ;;Total ram usage:        0 bytes
  7816 ;; Hardware stack levels used:    1
  7817 ;; Hardware stack levels required when called:    6
  7818 ;; This function calls:
  7819 ;;		_USART_TxS
  7820 ;; This function is called by:
  7821 ;;		_Serial_Oupcode
  7822 ;; This function uses a non-reentrant model
  7823 ;;
  7824                           
  7825                           	psect	text36
  7826  00271C                     __ptext36:
  7827                           	opt callstack 0
  7828  00271C                     _Actuator_Hold:
  7829                           	opt callstack 23
  7830  00271C  808B               	bsf	139,0,c	;volatile
  7831  00271E                     
  7832                           ;Actuator.c: 28:     USART_TxS("COMPLETE\n",sizeof("COMPLETE\n")-1);
  7833  00271E  0EED               	movlw	low STR_43
  7834  002720  0100               	movlb	0	; () banked
  7835  002722  6F60               	movwf	USART_TxS@str& (0+255),b
  7836  002724  0E7F               	movlw	high STR_43
  7837  002726  6F61               	movwf	(USART_TxS@str+1)& (0+255),b
  7838  002728  0E00               	movlw	0
  7839  00272A  6F63               	movwf	(USART_TxS@length+1)& (0+255),b
  7840  00272C  0E09               	movlw	9
  7841  00272E  6F62               	movwf	USART_TxS@length& (0+255),b
  7842  002730  EC6E  F010         	call	_USART_TxS	;wreg free
  7843  002734  0012               	return		;funcret
  7844  002736                     __end_of_Actuator_Hold:
  7845                           	opt callstack 0
  7846                           
  7847 ;; *************** function _USART_TxS *****************
  7848 ;; Defined at:
  7849 ;;		line 34 in file "UART.c"
  7850 ;; Parameters:    Size  Location     Type
  7851 ;;  str             2    0[BANK0 ] PTR unsigned char 
  7852 ;;		 -> STR_44(10), STR_43(10), STR_42(7), STR_41(11), 
  7853 ;;		 -> STR_40(20), STR_39(20), STR_38(20), STR_37(15), 
  7854 ;;		 -> Serial_Lectura_MemoriaZ@coordenadaZ(3), STR_36(15), Serial_Lectura_MemoriaY@coordenadaY(3), STR_35(14), 
  7855 ;;		 -> Serial_Lectura_MemoriaX@coordenadaX(3), STR_34(28), STR_33(28), STR_32(28), 
  7856 ;;		 -> STR_31(28), STR_30(28), STR_29(28), STR_28(27), 
  7857 ;;		 -> STR_27(27), STR_26(27), STR_25(27), STR_24(27), 
  7858 ;;		 -> STR_23(27), STR_22(27), STR_21(27), STR_20(27), 
  7859 ;;		 -> STR_19(27), STR_18(24), STR_17(42), STR_16(32), 
  7860 ;;		 -> STR_15(42), STR_14(36), STR_13(24), STR_12(23), 
  7861 ;;		 -> STR_11(23), STR_10(23), STR_9(32), STR_8(36), 
  7862 ;;		 -> STR_7(23), STR_6(32), STR_5(36), STR_4(23), 
  7863 ;;		 -> STR_3(25), STR_2(43), STR_1(18), 
  7864 ;;  length          2    2[BANK0 ] int 
  7865 ;; Auto vars:     Size  Location     Type
  7866 ;;  i               2    6[BANK0 ] int 
  7867 ;; Return value:  Size  Location     Type
  7868 ;;                  1    wreg      unsigned char 
  7869 ;; Registers used:
  7870 ;;		wreg, fsr0l, fsr0h, status,2, status,0, tblptrl, tblptrh, tblptru
  7871 ;; Tracked objects:
  7872 ;;		On entry : 0/0
  7873 ;;		On exit  : 0/0
  7874 ;;		Unchanged: 0/0
  7875 ;; Data sizes:     COMRAM   BANK0   BANK1   BANK2   BANK3   BANK4   BANK5   BANK6   BANK7
  7876 ;;      Params:         0       4       0       0       0       0       0       0       0
  7877 ;;      Locals:         0       2       0       0       0       0       0       0       0
  7878 ;;      Temps:          0       2       0       0       0       0       0       0       0
  7879 ;;      Totals:         0       8       0       0       0       0       0       0       0
  7880 ;;Total ram usage:        8 bytes
  7881 ;; Hardware stack levels used:    1
  7882 ;; Hardware stack levels required when called:    5
  7883 ;; This function calls:
  7884 ;;		Nothing
  7885 ;; This function is called by:
  7886 ;;		_Serial_Oupcode
  7887 ;;		_Seria_Decodificacion_Memoria
  7888 ;;		_Serial_Lectura_MemoriaX
  7889 ;;		_Serial_Lectura_MemoriaY
  7890 ;;		_Serial_Lectura_MemoriaZ
  7891 ;;		_Serial_Escritura_Memoria
  7892 ;;		_Motor_Movimiento
  7893 ;;		_Actuator_Touch
  7894 ;;		_Actuator_Hold
  7895 ;;		_Actuator_Retract
  7896 ;; This function uses a non-reentrant model
  7897 ;;
  7898                           
  7899                           	psect	text37
  7900  0020DC                     __ptext37:
  7901                           	opt callstack 0
  7902  0020DC                     _USART_TxS:
  7903                           	opt callstack 24
  7904  0020DC                     
  7905                           ;UART.c: 35:     for (int i=0;i<length;i++){
  7906  0020DC  0E00               	movlw	0
  7907  0020DE  0100               	movlb	0	; () banked
  7908  0020E0  6F67               	movwf	(USART_TxS@i+1)& (0+255),b
  7909  0020E2  0E00               	movlw	0
  7910  0020E4  6F66               	movwf	USART_TxS@i& (0+255),b
  7911  0020E6  EF97  F010         	goto	l4016
  7912  0020EA                     l112:
  7913  0020EA  A89E               	btfss	158,4,c	;volatile
  7914  0020EC  EF7A  F010         	goto	u2931
  7915  0020F0  EF7C  F010         	goto	u2930
  7916  0020F4                     u2931:
  7917  0020F4  EF75  F010         	goto	l112
  7918  0020F8                     u2930:
  7919  0020F8                     
  7920                           ;UART.c: 37:     TXREG = str[i];
  7921  0020F8  0100               	movlb	0	; () banked
  7922  0020FA  5166               	movf	USART_TxS@i& (0+255),w,b
  7923  0020FC  2560               	addwf	USART_TxS@str& (0+255),w,b
  7924  0020FE  6F64               	movwf	??_USART_TxS& (0+255),b
  7925  002100  5167               	movf	(USART_TxS@i+1)& (0+255),w,b
  7926  002102  2161               	addwfc	(USART_TxS@str+1)& (0+255),w,b
  7927  002104  6F65               	movwf	(??_USART_TxS+1)& (0+255),b
  7928  002106  C064  FFF6         	movff	??_USART_TxS,tblptrl
  7929  00210A  C065  FFF7         	movff	??_USART_TxS+1,tblptrh
  7930  00210E  6AF8               	clrf	tblptru,c
  7931  002110  0E07               	movlw	(high __ramtop+-1)
  7932  002112  64F7               	cpfsgt	tblptrh,c
  7933  002114  D003               	bra	u2947
  7934  002116  0008               	tblrd		*
  7935  002118  50F5               	movf	tablat,w,c
  7936  00211A  D005               	bra	u2940
  7937  00211C                     u2947:
  7938  00211C  CFF6 FFE9          	movff	tblptrl,fsr0l
  7939  002120  CFF7 FFEA          	movff	tblptrh,fsr0h
  7940  002124  50EF               	movf	indf0,w,c
  7941  002126                     u2940:
  7942  002126  6EAD               	movwf	173,c	;volatile
  7943  002128                     
  7944                           ;UART.c: 38:     }
  7945  002128  0100               	movlb	0	; () banked
  7946  00212A  4B66               	infsnz	USART_TxS@i& (0+255),f,b
  7947  00212C  2B67               	incf	(USART_TxS@i+1)& (0+255),f,b
  7948  00212E                     l4016:
  7949                           
  7950                           ; BSR set to: 0
  7951  00212E  5162               	movf	USART_TxS@length& (0+255),w,b
  7952  002130  5D66               	subwf	USART_TxS@i& (0+255),w,b
  7953  002132  5167               	movf	(USART_TxS@i+1)& (0+255),w,b
  7954  002134  0A80               	xorlw	128
  7955  002136  6F64               	movwf	??_USART_TxS& (0+255),b
  7956  002138  5163               	movf	(USART_TxS@length+1)& (0+255),w,b
  7957  00213A  0A80               	xorlw	128
  7958  00213C  5964               	subwfb	??_USART_TxS& (0+255),w,b
  7959  00213E  A0D8               	btfss	status,0,c
  7960  002140  EFA4  F010         	goto	u2951
  7961  002144  EFA6  F010         	goto	u2950
  7962  002148                     u2951:
  7963  002148  EF75  F010         	goto	l112
  7964  00214C                     u2950:
  7965  00214C                     
  7966                           ; BSR set to: 0
  7967  00214C  0012               	return		;funcret
  7968  00214E                     __end_of_USART_TxS:
  7969                           	opt callstack 0
  7970                           
  7971 ;; *************** function _Int_Ext *****************
  7972 ;; Defined at:
  7973 ;;		line 28 in file "main.c"
  7974 ;; Parameters:    Size  Location     Type
  7975 ;;		None
  7976 ;; Auto vars:     Size  Location     Type
  7977 ;;		None
  7978 ;; Return value:  Size  Location     Type
  7979 ;;                  1    wreg      void 
  7980 ;; Registers used:
  7981 ;;		wreg, status,2
  7982 ;; Tracked objects:
  7983 ;;		On entry : 0/0
  7984 ;;		On exit  : 0/0
  7985 ;;		Unchanged: 0/0
  7986 ;; Data sizes:     COMRAM   BANK0   BANK1   BANK2   BANK3   BANK4   BANK5   BANK6   BANK7
  7987 ;;      Params:         0       0       0       0       0       0       0       0       0
  7988 ;;      Locals:         0       0       0       0       0       0       0       0       0
  7989 ;;      Temps:          0       0       0       0       0       0       0       0       0
  7990 ;;      Totals:         0       0       0       0       0       0       0       0       0
  7991 ;;Total ram usage:        0 bytes
  7992 ;; Hardware stack levels used:    1
  7993 ;; Hardware stack levels required when called:    5
  7994 ;; This function calls:
  7995 ;;		Nothing
  7996 ;; This function is called by:
  7997 ;;		_main
  7998 ;; This function uses a non-reentrant model
  7999 ;;
  8000                           
  8001                           	psect	text38
  8002  002660                     __ptext38:
  8003                           	opt callstack 0
  8004  002660                     _Int_Ext:
  8005                           	opt callstack 25
  8006  002660                     
  8007                           ;main.c: 29:     TRISD = 0x00;
  8008  002660  0E00               	movlw	0
  8009  002662  6E95               	movwf	149,c	;volatile
  8010  002664                     
  8011                           ;main.c: 30:     INTCON2bits.RBPU = 1;
  8012  002664  8EF1               	bsf	241,7,c	;volatile
  8013  002666                     
  8014                           ;main.c: 31:     TRISBbits.RB0 = 1;
  8015  002666  8093               	bsf	147,0,c	;volatile
  8016  002668                     
  8017                           ;main.c: 32:     TRISBbits.RB1 = 1;
  8018  002668  8293               	bsf	147,1,c	;volatile
  8019  00266A                     
  8020                           ;main.c: 33:     TRISBbits.RB2 = 1;
  8021  00266A  8493               	bsf	147,2,c	;volatile
  8022  00266C                     
  8023                           ;main.c: 34:     RCONbits.IPEN = 0;
  8024  00266C  9ED0               	bcf	208,7,c	;volatile
  8025  00266E                     
  8026                           ;main.c: 35:     INTCONbits.GIE = 1;
  8027  00266E  8EF2               	bsf	242,7,c	;volatile
  8028  002670                     
  8029                           ;main.c: 36:     INTCONbits.PEIE = 0;
  8030  002670  9CF2               	bcf	242,6,c	;volatile
  8031  002672                     
  8032                           ;main.c: 37:     INTCONbits.INT0IE = 1;
  8033  002672  88F2               	bsf	242,4,c	;volatile
  8034  002674                     
  8035                           ;main.c: 38:     INTCON3bits.INT1IE = 1;
  8036  002674  86F0               	bsf	240,3,c	;volatile
  8037  002676                     
  8038                           ;main.c: 39:     INTCON3bits.INT2IE = 1;
  8039  002676  88F0               	bsf	240,4,c	;volatile
  8040  002678                     
  8041                           ;main.c: 40:     INTCON2bits.INTEDG0 = 1;
  8042  002678  8CF1               	bsf	241,6,c	;volatile
  8043  00267A                     
  8044                           ;main.c: 41:     INTCON2bits.INTEDG1 = 1;
  8045  00267A  8AF1               	bsf	241,5,c	;volatile
  8046  00267C                     
  8047                           ;main.c: 42:     INTCON2bits.INTEDG2 = 1;
  8048  00267C  88F1               	bsf	241,4,c	;volatile
  8049  00267E                     
  8050                           ;main.c: 43:     INTCONbits.INT0F = 0;
  8051  00267E  92F2               	bcf	242,1,c	;volatile
  8052  002680                     
  8053                           ;main.c: 44:     INTCON3bits.INT1IF = 0;
  8054  002680  90F0               	bcf	240,0,c	;volatile
  8055  002682                     
  8056                           ;main.c: 45:     INTCON3bits.INT2IF = 0;
  8057  002682  92F0               	bcf	240,1,c	;volatile
  8058  002684  0012               	return		;funcret
  8059  002686                     __end_of_Int_Ext:
  8060                           	opt callstack 0
  8061                           
  8062 ;; *************** function _INT_isr *****************
  8063 ;; Defined at:
  8064 ;;		line 48 in file "main.c"
  8065 ;; Parameters:    Size  Location     Type
  8066 ;;		None
  8067 ;; Auto vars:     Size  Location     Type
  8068 ;;		None
  8069 ;; Return value:  Size  Location     Type
  8070 ;;                  1    wreg      void 
  8071 ;; Registers used:
  8072 ;;		wreg, status,2, status,0, cstack
  8073 ;; Tracked objects:
  8074 ;;		On entry : 0/0
  8075 ;;		On exit  : 0/0
  8076 ;;		Unchanged: 0/0
  8077 ;; Data sizes:     COMRAM   BANK0   BANK1   BANK2   BANK3   BANK4   BANK5   BANK6   BANK7
  8078 ;;      Params:         0       0       0       0       0       0       0       0       0
  8079 ;;      Locals:         0       0       0       0       0       0       0       0       0
  8080 ;;      Temps:          1       0       0       0       0       0       0       0       0
  8081 ;;      Totals:         1       0       0       0       0       0       0       0       0
  8082 ;;Total ram usage:        1 bytes
  8083 ;; Hardware stack levels used:    1
  8084 ;; Hardware stack levels required when called:    4
  8085 ;; This function calls:
  8086 ;;		_INT0_ACTION
  8087 ;;		_INT1_ACTION
  8088 ;;		_INT2_ACTION
  8089 ;; This function is called by:
  8090 ;;		Interrupt level 2
  8091 ;; This function uses a non-reentrant model
  8092 ;;
  8093                           
  8094                           	psect	intcode
  8095  000008                     __pintcode:
  8096                           	opt callstack 0
  8097  000008                     _INT_isr:
  8098                           	opt callstack 22
  8099                           
  8100                           ;incstack = 0
  8101  000008  825B               	bsf	int$flags,1,c	;set compiler interrupt flag (level 2)
  8102  00000A  EDA7  F010         	call	int_func,f	;refresh shadow registers
  8103                           
  8104                           	psect	intcode_body
  8105  00214E                     __pintcode_body:
  8106                           	opt callstack 22
  8107  00214E                     int_func:
  8108                           	opt callstack 22
  8109  00214E  0006               	pop		; remove dummy address from shadow register refresh
  8110  002150                     
  8111                           ;main.c: 50:     if (INTCON3bits.INT1IF == 1) {
  8112  002150  A0F0               	btfss	240,0,c	;volatile
  8113  002152  EFAD  F010         	goto	i2u497_41
  8114  002156  EFAF  F010         	goto	i2u497_40
  8115  00215A                     i2u497_41:
  8116  00215A  EFBA  F010         	goto	i2l5738
  8117  00215E                     i2u497_40:
  8118  00215E                     
  8119                           ;main.c: 51:         INT1_ACTION();
  8120  00215E  ECB9  F011         	call	_INT1_ACTION	;wreg free
  8121  002162                     
  8122                           ;main.c: 52:         _delay((unsigned long)((10)*(8000000/4000.0)));
  8123  002162  0E1A               	movlw	26
  8124  002164  6E3F               	movwf	??_INT_isr^0,c
  8125  002166  0EF8               	movlw	248
  8126  002168                     i2u522_47:
  8127  002168  2EE8               	decfsz	wreg,f,c
  8128  00216A  D7FE               	bra	i2u522_47
  8129  00216C  2E3F               	decfsz	??_INT_isr^0,f,c
  8130  00216E  D7FC               	bra	i2u522_47
  8131  002170  D000               	nop2	
  8132  002172                     
  8133                           ;main.c: 53:         INTCON3bits.INT1IF = 0;
  8134  002172  90F0               	bcf	240,0,c	;volatile
  8135  002174                     i2l5738:
  8136                           
  8137                           ;main.c: 55:     if (INTCON3bits.INT2IF == 1) {
  8138  002174  A2F0               	btfss	240,1,c	;volatile
  8139  002176  EFBF  F010         	goto	i2u498_41
  8140  00217A  EFC1  F010         	goto	i2u498_40
  8141  00217E                     i2u498_41:
  8142  00217E  EFCC  F010         	goto	i2l5746
  8143  002182                     i2u498_40:
  8144  002182                     
  8145                           ;main.c: 56:         INT2_ACTION();
  8146  002182  EC95  F011         	call	_INT2_ACTION	;wreg free
  8147  002186                     
  8148                           ;main.c: 57:         _delay((unsigned long)((10)*(8000000/4000.0)));
  8149  002186  0E1A               	movlw	26
  8150  002188  6E3F               	movwf	??_INT_isr^0,c
  8151  00218A  0EF8               	movlw	248
  8152  00218C                     i2u523_47:
  8153  00218C  2EE8               	decfsz	wreg,f,c
  8154  00218E  D7FE               	bra	i2u523_47
  8155  002190  2E3F               	decfsz	??_INT_isr^0,f,c
  8156  002192  D7FC               	bra	i2u523_47
  8157  002194  D000               	nop2	
  8158  002196                     
  8159                           ;main.c: 58:         INTCON3bits.INT2IF = 0;
  8160  002196  92F0               	bcf	240,1,c	;volatile
  8161  002198                     i2l5746:
  8162                           
  8163                           ;main.c: 60:     if (INTCONbits.INT0IF == 1) {
  8164  002198  A2F2               	btfss	242,1,c	;volatile
  8165  00219A  EFD1  F010         	goto	i2u499_41
  8166  00219E  EFD3  F010         	goto	i2u499_40
  8167  0021A2                     i2u499_41:
  8168  0021A2  EFDE  F010         	goto	i2l730
  8169  0021A6                     i2u499_40:
  8170  0021A6                     
  8171                           ;main.c: 61:         INT0_ACTION();
  8172  0021A6  EC9B  F013         	call	_INT0_ACTION	;wreg free
  8173  0021AA                     
  8174                           ;main.c: 62:         _delay((unsigned long)((10)*(8000000/4000.0)));
  8175  0021AA  0E1A               	movlw	26
  8176  0021AC  6E3F               	movwf	??_INT_isr^0,c
  8177  0021AE  0EF8               	movlw	248
  8178  0021B0                     i2u524_47:
  8179  0021B0  2EE8               	decfsz	wreg,f,c
  8180  0021B2  D7FE               	bra	i2u524_47
  8181  0021B4  2E3F               	decfsz	??_INT_isr^0,f,c
  8182  0021B6  D7FC               	bra	i2u524_47
  8183  0021B8  D000               	nop2	
  8184  0021BA                     
  8185                           ;main.c: 63:         INTCONbits.INT0F = 0;
  8186  0021BA  92F2               	bcf	242,1,c	;volatile
  8187  0021BC                     i2l730:
  8188  0021BC  925B               	bcf	int$flags,1,c	;clear compiler interrupt flag (level 2)
  8189  0021BE  0011               	retfie		f
  8190  0021C0                     __end_of_INT_isr:
  8191                           	opt callstack 0
  8192                           
  8193 ;; *************** function _INT2_ACTION *****************
  8194 ;; Defined at:
  8195 ;;		line 84 in file "main.c"
  8196 ;; Parameters:    Size  Location     Type
  8197 ;;		None
  8198 ;; Auto vars:     Size  Location     Type
  8199 ;;		None
  8200 ;; Return value:  Size  Location     Type
  8201 ;;                  1    wreg      void 
  8202 ;; Registers used:
  8203 ;;		wreg, status,2, status,0, cstack
  8204 ;; Tracked objects:
  8205 ;;		On entry : 0/0
  8206 ;;		On exit  : 0/0
  8207 ;;		Unchanged: 0/0
  8208 ;; Data sizes:     COMRAM   BANK0   BANK1   BANK2   BANK3   BANK4   BANK5   BANK6   BANK7
  8209 ;;      Params:         0       0       0       0       0       0       0       0       0
  8210 ;;      Locals:         0       0       0       0       0       0       0       0       0
  8211 ;;      Temps:          2       0       0       0       0       0       0       0       0
  8212 ;;      Totals:         2       0       0       0       0       0       0       0       0
  8213 ;;Total ram usage:        2 bytes
  8214 ;; Hardware stack levels used:    1
  8215 ;; Hardware stack levels required when called:    3
  8216 ;; This function calls:
  8217 ;;		_Motor_Movimiento_Home
  8218 ;; This function is called by:
  8219 ;;		_INT_isr
  8220 ;; This function uses a non-reentrant model
  8221 ;;
  8222                           
  8223                           	psect	text40
  8224  00232A                     __ptext40:
  8225                           	opt callstack 0
  8226  00232A                     _INT2_ACTION:
  8227                           	opt callstack 22
  8228  00232A                     
  8229                           ;main.c: 85:        PORTDbits.RD0 = 1;
  8230  00232A  8083               	bsf	131,0,c	;volatile
  8231                           
  8232                           ;main.c: 86:     PORTDbits.RD2 = 1;
  8233  00232C  8483               	bsf	131,2,c	;volatile
  8234  00232E                     
  8235                           ;main.c: 87:     _delay((unsigned long)((100)*(8000000/4000.0)));
  8236  00232E  0E02               	movlw	2
  8237  002330  6E3E               	movwf	(??_INT2_ACTION+1)^0,c
  8238  002332  0E04               	movlw	4
  8239  002334  6E3D               	movwf	??_INT2_ACTION^0,c
  8240  002336  0EBA               	movlw	186
  8241  002338                     i2u525_47:
  8242  002338  2EE8               	decfsz	wreg,f,c
  8243  00233A  D7FE               	bra	i2u525_47
  8244  00233C  2E3D               	decfsz	??_INT2_ACTION^0,f,c
  8245  00233E  D7FC               	bra	i2u525_47
  8246  002340  2E3E               	decfsz	(??_INT2_ACTION+1)^0,f,c
  8247  002342  D7FA               	bra	i2u525_47
  8248  002344  D000               	nop2	
  8249  002346                     
  8250                           ;main.c: 88:     if(BanderaY==0){
  8251  002346  5059               	movf	_BanderaY^0,w,c
  8252  002348  A4D8               	btfss	status,2,c
  8253  00234A  EFA9  F011         	goto	i2u365_41
  8254  00234E  EFAB  F011         	goto	i2u365_40
  8255  002352                     i2u365_41:
  8256  002352  EFB6  F011         	goto	i2l4822
  8257  002356                     i2u365_40:
  8258  002356                     
  8259                           ;main.c: 89:    Motor_Movimiento_Home('S', 0, 30);
  8260  002356  0E00               	movlw	0
  8261  002358  6E39               	movwf	(Motor_Movimiento_Home@Motor_CoordenadaX+1)^0,c
  8262  00235A  0E00               	movlw	0
  8263  00235C  6E38               	movwf	Motor_Movimiento_Home@Motor_CoordenadaX^0,c
  8264  00235E  0E00               	movlw	0
  8265  002360  6E3B               	movwf	(Motor_Movimiento_Home@Motor_CoordenadaY+1)^0,c
  8266  002362  0E1E               	movlw	30
  8267  002364  6E3A               	movwf	Motor_Movimiento_Home@Motor_CoordenadaY^0,c
  8268  002366  0E53               	movlw	83
  8269  002368  ECDD  F011         	call	_Motor_Movimiento_Home
  8270  00236C                     i2l4822:
  8271                           
  8272                           ;main.c: 91:     BanderaY = 1;
  8273  00236C  0E01               	movlw	1
  8274  00236E  6E59               	movwf	_BanderaY^0,c
  8275  002370  0012               	return		;funcret
  8276  002372                     __end_of_INT2_ACTION:
  8277                           	opt callstack 0
  8278                           
  8279 ;; *************** function _INT1_ACTION *****************
  8280 ;; Defined at:
  8281 ;;		line 73 in file "main.c"
  8282 ;; Parameters:    Size  Location     Type
  8283 ;;		None
  8284 ;; Auto vars:     Size  Location     Type
  8285 ;;		None
  8286 ;; Return value:  Size  Location     Type
  8287 ;;                  1    wreg      void 
  8288 ;; Registers used:
  8289 ;;		wreg, status,2, status,0, cstack
  8290 ;; Tracked objects:
  8291 ;;		On entry : 0/0
  8292 ;;		On exit  : 0/0
  8293 ;;		Unchanged: 0/0
  8294 ;; Data sizes:     COMRAM   BANK0   BANK1   BANK2   BANK3   BANK4   BANK5   BANK6   BANK7
  8295 ;;      Params:         0       0       0       0       0       0       0       0       0
  8296 ;;      Locals:         0       0       0       0       0       0       0       0       0
  8297 ;;      Temps:          2       0       0       0       0       0       0       0       0
  8298 ;;      Totals:         2       0       0       0       0       0       0       0       0
  8299 ;;Total ram usage:        2 bytes
  8300 ;; Hardware stack levels used:    1
  8301 ;; Hardware stack levels required when called:    3
  8302 ;; This function calls:
  8303 ;;		_Motor_Movimiento_Home
  8304 ;; This function is called by:
  8305 ;;		_INT_isr
  8306 ;; This function uses a non-reentrant model
  8307 ;;
  8308                           
  8309                           	psect	text41
  8310  002372                     __ptext41:
  8311                           	opt callstack 0
  8312  002372                     _INT1_ACTION:
  8313                           	opt callstack 22
  8314  002372                     
  8315                           ;main.c: 74:       PORTDbits.RD0 = 1;
  8316  002372  8083               	bsf	131,0,c	;volatile
  8317                           
  8318                           ;main.c: 75:     PORTDbits.RD2 = 1;
  8319  002374  8483               	bsf	131,2,c	;volatile
  8320  002376                     
  8321                           ;main.c: 76:     _delay((unsigned long)((100)*(8000000/4000.0)));
  8322  002376  0E02               	movlw	2
  8323  002378  6E3E               	movwf	(??_INT1_ACTION+1)^0,c
  8324  00237A  0E04               	movlw	4
  8325  00237C  6E3D               	movwf	??_INT1_ACTION^0,c
  8326  00237E  0EBA               	movlw	186
  8327  002380                     i2u526_47:
  8328  002380  2EE8               	decfsz	wreg,f,c
  8329  002382  D7FE               	bra	i2u526_47
  8330  002384  2E3D               	decfsz	??_INT1_ACTION^0,f,c
  8331  002386  D7FC               	bra	i2u526_47
  8332  002388  2E3E               	decfsz	(??_INT1_ACTION+1)^0,f,c
  8333  00238A  D7FA               	bra	i2u526_47
  8334  00238C  D000               	nop2	
  8335  00238E                     
  8336                           ;main.c: 77:     if(BanderaX==0){
  8337  00238E  505A               	movf	_BanderaX^0,w,c
  8338  002390  A4D8               	btfss	status,2,c
  8339  002392  EFCD  F011         	goto	i2u364_41
  8340  002396  EFCF  F011         	goto	i2u364_40
  8341  00239A                     i2u364_41:
  8342  00239A  EFDA  F011         	goto	i2l4810
  8343  00239E                     i2u364_40:
  8344  00239E                     
  8345                           ;main.c: 78:     Motor_Movimiento_Home('S', 30, 0);
  8346  00239E  0E00               	movlw	0
  8347  0023A0  6E39               	movwf	(Motor_Movimiento_Home@Motor_CoordenadaX+1)^0,c
  8348  0023A2  0E1E               	movlw	30
  8349  0023A4  6E38               	movwf	Motor_Movimiento_Home@Motor_CoordenadaX^0,c
  8350  0023A6  0E00               	movlw	0
  8351  0023A8  6E3B               	movwf	(Motor_Movimiento_Home@Motor_CoordenadaY+1)^0,c
  8352  0023AA  0E00               	movlw	0
  8353  0023AC  6E3A               	movwf	Motor_Movimiento_Home@Motor_CoordenadaY^0,c
  8354  0023AE  0E53               	movlw	83
  8355  0023B0  ECDD  F011         	call	_Motor_Movimiento_Home
  8356  0023B4                     i2l4810:
  8357                           
  8358                           ;main.c: 80:     BanderaX = 1;
  8359  0023B4  0E01               	movlw	1
  8360  0023B6  6E5A               	movwf	_BanderaX^0,c
  8361  0023B8  0012               	return		;funcret
  8362  0023BA                     __end_of_INT1_ACTION:
  8363                           	opt callstack 0
  8364                           
  8365 ;; *************** function _Motor_Movimiento_Home *****************
  8366 ;; Defined at:
  8367 ;;		line 85 in file "Motor.c"
  8368 ;; Parameters:    Size  Location     Type
  8369 ;;  Oupcode         1    wreg     unsigned char 
  8370 ;;  Motor_Coorde    2   55[COMRAM] int 
  8371 ;;  Motor_Coorde    2   57[COMRAM] int 
  8372 ;; Auto vars:     Size  Location     Type
  8373 ;;  Oupcode         1   59[COMRAM] unsigned char 
  8374 ;; Return value:  Size  Location     Type
  8375 ;;                  1    wreg      void 
  8376 ;; Registers used:
  8377 ;;		wreg, status,2, status,0, cstack
  8378 ;; Tracked objects:
  8379 ;;		On entry : 0/0
  8380 ;;		On exit  : 0/0
  8381 ;;		Unchanged: 0/0
  8382 ;; Data sizes:     COMRAM   BANK0   BANK1   BANK2   BANK3   BANK4   BANK5   BANK6   BANK7
  8383 ;;      Params:         4       0       0       0       0       0       0       0       0
  8384 ;;      Locals:         1       0       0       0       0       0       0       0       0
  8385 ;;      Temps:          0       0       0       0       0       0       0       0       0
  8386 ;;      Totals:         5       0       0       0       0       0       0       0       0
  8387 ;;Total ram usage:        5 bytes
  8388 ;; Hardware stack levels used:    1
  8389 ;; Hardware stack levels required when called:    2
  8390 ;; This function calls:
  8391 ;;		i2_Motor_Conversion
  8392 ;;		i2_PWM_GeneratePulsos
  8393 ;; This function is called by:
  8394 ;;		_INT1_ACTION
  8395 ;;		_INT2_ACTION
  8396 ;; This function uses a non-reentrant model
  8397 ;;
  8398                           
  8399                           	psect	text42
  8400  0023BA                     __ptext42:
  8401                           	opt callstack 0
  8402  0023BA                     _Motor_Movimiento_Home:
  8403                           	opt callstack 22
  8404                           
  8405                           ;incstack = 0
  8406                           ;Motor_Movimiento_Home@Oupcode stored from wreg
  8407  0023BA  6E3C               	movwf	Motor_Movimiento_Home@Oupcode^0,c
  8408  0023BC                     
  8409                           ;Motor.c: 86:     T2CONbits.TMR2ON =0 ;
  8410  0023BC  94CA               	bcf	202,2,c	;volatile
  8411                           
  8412                           ;Motor.c: 87:     PORTDbits.RD1 = 0;
  8413  0023BE  9283               	bcf	131,1,c	;volatile
  8414                           
  8415                           ;Motor.c: 88:     PORTDbits.RD3 = 0;
  8416  0023C0  9683               	bcf	131,3,c	;volatile
  8417  0023C2                     
  8418                           ;Motor.c: 89:     PasosX = Motor_Conversion(Motor_CoordenadaX);
  8419  0023C2  C038  F032         	movff	Motor_Movimiento_Home@Motor_CoordenadaX,i2Motor_Conversion@Coordenada
  8420  0023C6  C039  F033         	movff	Motor_Movimiento_Home@Motor_CoordenadaX+1,i2Motor_Conversion@Coordenada+1
  8421  0023CA  ECE0  F010         	call	i2_Motor_Conversion	;wreg free
  8422  0023CE  C032  F0AE         	movff	?i2_Motor_Conversion,_PasosX
  8423  0023D2  C033  F0AF         	movff	?i2_Motor_Conversion+1,_PasosX+1
  8424                           
  8425                           ;Motor.c: 90:     PasosY = Motor_Conversion(Motor_CoordenadaY);
  8426  0023D6  C03A  F032         	movff	Motor_Movimiento_Home@Motor_CoordenadaY,i2Motor_Conversion@Coordenada
  8427  0023DA  C03B  F033         	movff	Motor_Movimiento_Home@Motor_CoordenadaY+1,i2Motor_Conversion@Coordenada+1
  8428  0023DE  ECE0  F010         	call	i2_Motor_Conversion	;wreg free
  8429  0023E2  C032  F0AC         	movff	?i2_Motor_Conversion,_PasosY
  8430  0023E6  C033  F0AD         	movff	?i2_Motor_Conversion+1,_PasosY+1
  8431                           
  8432                           ;Motor.c: 91:     PWM_GeneratePulsos(Oupcode, PasosX, PasosY);
  8433  0023EA  C0AE  F003         	movff	_PasosX,i2PWM_GeneratePulsos@pulsosX
  8434  0023EE  C0AF  F004         	movff	_PasosX+1,i2PWM_GeneratePulsos@pulsosX+1
  8435  0023F2  C0AC  F005         	movff	_PasosY,i2PWM_GeneratePulsos@pulsosY
  8436  0023F6  C0AD  F006         	movff	_PasosY+1,i2PWM_GeneratePulsos@pulsosY+1
  8437  0023FA  503C               	movf	Motor_Movimiento_Home@Oupcode^0,w,c
  8438  0023FC  EC08  F00A         	call	i2_PWM_GeneratePulsos
  8439  002400  0012               	return		;funcret
  8440  002402                     __end_of_Motor_Movimiento_Home:
  8441                           	opt callstack 0
  8442                           
  8443 ;; *************** function i2_PWM_GeneratePulsos *****************
  8444 ;; Defined at:
  8445 ;;		line 6 in file "PWM.c"
  8446 ;; Parameters:    Size  Location     Type
  8447 ;;  Oupcode         1    wreg     unsigned char 
  8448 ;;  pulsosX         2    2[COMRAM] int 
  8449 ;;  pulsosY         2    4[COMRAM] int 
  8450 ;; Auto vars:     Size  Location     Type
  8451 ;;  Oupcode         1    7[COMRAM] unsigned char 
  8452 ;;  PWM_Generate    2   10[COMRAM] int 
  8453 ;;  PWM_Generate    2    8[COMRAM] int 
  8454 ;; Return value:  Size  Location     Type
  8455 ;;                  1    wreg      void 
  8456 ;; Registers used:
  8457 ;;		wreg, status,2, status,0, cstack
  8458 ;; Tracked objects:
  8459 ;;		On entry : 0/0
  8460 ;;		On exit  : 0/0
  8461 ;;		Unchanged: 0/0
  8462 ;; Data sizes:     COMRAM   BANK0   BANK1   BANK2   BANK3   BANK4   BANK5   BANK6   BANK7
  8463 ;;      Params:         4       0       0       0       0       0       0       0       0
  8464 ;;      Locals:         5       0       0       0       0       0       0       0       0
  8465 ;;      Temps:          1       0       0       0       0       0       0       0       0
  8466 ;;      Totals:        10       0       0       0       0       0       0       0       0
  8467 ;;Total ram usage:       10 bytes
  8468 ;; Hardware stack levels used:    1
  8469 ;; Hardware stack levels required when called:    1
  8470 ;; This function calls:
  8471 ;;		i2_PWM_InitF
  8472 ;;		i2_PWM_InitS
  8473 ;;		i2_PWM_OneshotX
  8474 ;;		i2_PWM_OneshotY
  8475 ;; This function is called by:
  8476 ;;		_Motor_Movimiento_Home
  8477 ;; This function uses a non-reentrant model
  8478 ;;
  8479                           
  8480                           	psect	text43
  8481  001410                     __ptext43:
  8482                           	opt callstack 0
  8483  001410                     i2_PWM_GeneratePulsos:
  8484                           	opt callstack 22
  8485                           
  8486                           ;incstack = 0
  8487                           ;i2PWM_GeneratePulsos@Oupcode stored from wreg
  8488  001410  6E08               	movwf	i2PWM_GeneratePulsos@Oupcode^0,c
  8489  001412                     
  8490                           ;PWM.c: 7:     if (Oupcode == 'S') {
  8491  001412  0E53               	movlw	83
  8492  001414  1808               	xorwf	i2PWM_GeneratePulsos@Oupcode^0,w,c
  8493  001416  A4D8               	btfss	status,2,c
  8494  001418  EF10  F00A         	goto	i2u312_41
  8495  00141C  EF12  F00A         	goto	i2u312_40
  8496  001420                     i2u312_41:
  8497  001420  EF16  F00A         	goto	i2l4146
  8498  001424                     i2u312_40:
  8499  001424                     
  8500                           ;PWM.c: 8:         PWM_InitS();
  8501  001424  EC72  F013         	call	i2_PWM_InitS	;wreg free
  8502                           
  8503                           ;PWM.c: 9:     } else {
  8504  001428  EF18  F00A         	goto	i2l4148
  8505  00142C                     i2l4146:
  8506                           
  8507                           ;PWM.c: 10:         PWM_InitF();
  8508  00142C  EC53  F013         	call	i2_PWM_InitF	;wreg free
  8509  001430                     i2l4148:
  8510                           
  8511                           ;PWM.c: 12:     PORTDbits.RD0 = 0;
  8512  001430  9083               	bcf	131,0,c	;volatile
  8513  001432                     
  8514                           ;PWM.c: 13:     PORTDbits.RD2 = 0;
  8515  001432  9483               	bcf	131,2,c	;volatile
  8516  001434                     
  8517                           ;PWM.c: 14:     int countX = 0;
  8518  001434  0E00               	movlw	0
  8519  001436  6E0A               	movwf	(i2PWM_GeneratePulsos@countX+1)^0,c
  8520  001438  0E00               	movlw	0
  8521  00143A  6E09               	movwf	i2PWM_GeneratePulsos@countX^0,c
  8522  00143C                     
  8523                           ;PWM.c: 15:     int countY = 0;
  8524  00143C  0E00               	movlw	0
  8525  00143E  6E0C               	movwf	(i2PWM_GeneratePulsos@countY+1)^0,c
  8526  001440  0E00               	movlw	0
  8527  001442  6E0B               	movwf	i2PWM_GeneratePulsos@countY^0,c
  8528  001444                     
  8529                           ;PWM.c: 16:     if (pulsosX==0){
  8530  001444  5003               	movf	i2PWM_GeneratePulsos@pulsosX^0,w,c
  8531  001446  1004               	iorwf	(i2PWM_GeneratePulsos@pulsosX+1)^0,w,c
  8532  001448  A4D8               	btfss	status,2,c
  8533  00144A  EF29  F00A         	goto	i2u313_41
  8534  00144E  EF2B  F00A         	goto	i2u313_40
  8535  001452                     i2u313_41:
  8536  001452  EF2C  F00A         	goto	i2l4160
  8537  001456                     i2u313_40:
  8538  001456                     
  8539                           ;PWM.c: 17:         PORTDbits.RD0 = 1;
  8540  001456  8083               	bsf	131,0,c	;volatile
  8541  001458                     i2l4160:
  8542                           
  8543                           ;PWM.c: 19:     if (pulsosY==0){
  8544  001458  5005               	movf	i2PWM_GeneratePulsos@pulsosY^0,w,c
  8545  00145A  1006               	iorwf	(i2PWM_GeneratePulsos@pulsosY+1)^0,w,c
  8546  00145C  A4D8               	btfss	status,2,c
  8547  00145E  EF33  F00A         	goto	i2u314_41
  8548  001462  EF35  F00A         	goto	i2u314_40
  8549  001466                     i2u314_41:
  8550  001466  EF36  F00A         	goto	i2l42
  8551  00146A                     i2u314_40:
  8552  00146A                     
  8553                           ;PWM.c: 20:         PORTDbits.RD2 = 1;
  8554  00146A  8483               	bsf	131,2,c	;volatile
  8555  00146C                     i2l42:
  8556                           
  8557                           ;PWM.c: 22:     T2CONbits.TMR2ON = 1;
  8558  00146C  84CA               	bsf	202,2,c	;volatile
  8559                           
  8560                           ;PWM.c: 23:     while ((countX < pulsosX) || (countY < pulsosY)) {
  8561  00146E  EF89  F00A         	goto	i2l4180
  8562  001472                     i2l4164:
  8563                           
  8564                           ;PWM.c: 24:         if (countX < pulsosX) {
  8565  001472  5003               	movf	i2PWM_GeneratePulsos@pulsosX^0,w,c
  8566  001474  5C09               	subwf	i2PWM_GeneratePulsos@countX^0,w,c
  8567  001476  500A               	movf	(i2PWM_GeneratePulsos@countX+1)^0,w,c
  8568  001478  0A80               	xorlw	128
  8569  00147A  6E07               	movwf	??i2_PWM_GeneratePulsos^0,c
  8570  00147C  5004               	movf	(i2PWM_GeneratePulsos@pulsosX+1)^0,w,c
  8571  00147E  0A80               	xorlw	128
  8572  001480  5807               	subwfb	??i2_PWM_GeneratePulsos^0,w,c
  8573  001482  B0D8               	btfsc	status,0,c
  8574  001484  EF46  F00A         	goto	i2u315_41
  8575  001488  EF48  F00A         	goto	i2u315_40
  8576  00148C                     i2u315_41:
  8577  00148C  EF60  F00A         	goto	i2l45
  8578  001490                     i2u315_40:
  8579  001490                     
  8580                           ;PWM.c: 25:             if (PORTCbits.RC1 == 1) {
  8581  001490  A282               	btfss	130,1,c	;volatile
  8582  001492  EF4D  F00A         	goto	i2u316_41
  8583  001496  EF4F  F00A         	goto	i2u316_40
  8584  00149A                     i2u316_41:
  8585  00149A  EF5B  F00A         	goto	i2l4170
  8586  00149E                     i2u316_40:
  8587  00149E                     
  8588                           ;PWM.c: 26:                 countX = PWM_OneshotX(countX);
  8589  00149E  C009  F001         	movff	i2PWM_GeneratePulsos@countX,i2PWM_OneshotX@countX
  8590  0014A2  C00A  F002         	movff	i2PWM_GeneratePulsos@countX+1,i2PWM_OneshotX@countX+1
  8591  0014A6  ECDB  F012         	call	i2_PWM_OneshotX	;wreg free
  8592  0014AA  C001  F009         	movff	?i2_PWM_OneshotX,i2PWM_GeneratePulsos@countX
  8593  0014AE  C002  F00A         	movff	?i2_PWM_OneshotX+1,i2PWM_GeneratePulsos@countX+1
  8594                           
  8595                           ;PWM.c: 27:             } else {
  8596  0014B2  EF61  F00A         	goto	i2l4172
  8597  0014B6                     i2l4170:
  8598                           
  8599                           ;PWM.c: 28:                 oneshotX = 0;
  8600  0014B6  0E00               	movlw	0
  8601  0014B8  0100               	movlb	0	; () banked
  8602  0014BA  6FB6               	movwf	_oneshotX& (0+255),b
  8603  0014BC  EF61  F00A         	goto	i2l4172
  8604  0014C0                     i2l45:
  8605                           
  8606                           ;PWM.c: 31:             PORTDbits.RD0 = 1;
  8607  0014C0  8083               	bsf	131,0,c	;volatile
  8608  0014C2                     i2l4172:
  8609                           
  8610                           ;PWM.c: 33:         if (countY < pulsosY) {
  8611  0014C2  5005               	movf	i2PWM_GeneratePulsos@pulsosY^0,w,c
  8612  0014C4  5C0B               	subwf	i2PWM_GeneratePulsos@countY^0,w,c
  8613  0014C6  500C               	movf	(i2PWM_GeneratePulsos@countY+1)^0,w,c
  8614  0014C8  0A80               	xorlw	128
  8615  0014CA  6E07               	movwf	??i2_PWM_GeneratePulsos^0,c
  8616  0014CC  5006               	movf	(i2PWM_GeneratePulsos@pulsosY+1)^0,w,c
  8617  0014CE  0A80               	xorlw	128
  8618  0014D0  5807               	subwfb	??i2_PWM_GeneratePulsos^0,w,c
  8619  0014D2  B0D8               	btfsc	status,0,c
  8620  0014D4  EF6E  F00A         	goto	i2u317_41
  8621  0014D8  EF70  F00A         	goto	i2u317_40
  8622  0014DC                     i2u317_41:
  8623  0014DC  EF88  F00A         	goto	i2l49
  8624  0014E0                     i2u317_40:
  8625  0014E0                     
  8626                           ;PWM.c: 34:             if (PORTCbits.RC2 == 1) {
  8627  0014E0  A482               	btfss	130,2,c	;volatile
  8628  0014E2  EF75  F00A         	goto	i2u318_41
  8629  0014E6  EF77  F00A         	goto	i2u318_40
  8630  0014EA                     i2u318_41:
  8631  0014EA  EF83  F00A         	goto	i2l4178
  8632  0014EE                     i2u318_40:
  8633  0014EE                     
  8634                           ;PWM.c: 35:                 countY = PWM_OneshotY(countY);
  8635  0014EE  C00B  F001         	movff	i2PWM_GeneratePulsos@countY,i2PWM_OneshotY@countY
  8636  0014F2  C00C  F002         	movff	i2PWM_GeneratePulsos@countY+1,i2PWM_OneshotY@countY+1
  8637  0014F6  ECC2  F012         	call	i2_PWM_OneshotY	;wreg free
  8638  0014FA  C001  F00B         	movff	?i2_PWM_OneshotY,i2PWM_GeneratePulsos@countY
  8639  0014FE  C002  F00C         	movff	?i2_PWM_OneshotY+1,i2PWM_GeneratePulsos@countY+1
  8640                           
  8641                           ;PWM.c: 36:             } else {
  8642  001502  EF89  F00A         	goto	i2l4180
  8643  001506                     i2l4178:
  8644                           
  8645                           ;PWM.c: 37:                 oneshotY = 0;
  8646  001506  0E00               	movlw	0
  8647  001508  0100               	movlb	0	; () banked
  8648  00150A  6FB5               	movwf	_oneshotY& (0+255),b
  8649  00150C  EF89  F00A         	goto	i2l4180
  8650  001510                     i2l49:
  8651                           
  8652                           ;PWM.c: 40:             PORTDbits.RD2 = 1;
  8653  001510  8483               	bsf	131,2,c	;volatile
  8654  001512                     i2l4180:
  8655                           
  8656                           ;PWM.c: 23:     while ((countX < pulsosX) || (countY < pulsosY)) {
  8657  001512  5003               	movf	i2PWM_GeneratePulsos@pulsosX^0,w,c
  8658  001514  5C09               	subwf	i2PWM_GeneratePulsos@countX^0,w,c
  8659  001516  500A               	movf	(i2PWM_GeneratePulsos@countX+1)^0,w,c
  8660  001518  0A80               	xorlw	128
  8661  00151A  6E07               	movwf	??i2_PWM_GeneratePulsos^0,c
  8662  00151C  5004               	movf	(i2PWM_GeneratePulsos@pulsosX+1)^0,w,c
  8663  00151E  0A80               	xorlw	128
  8664  001520  5807               	subwfb	??i2_PWM_GeneratePulsos^0,w,c
  8665  001522  A0D8               	btfss	status,0,c
  8666  001524  EF96  F00A         	goto	i2u319_41
  8667  001528  EF98  F00A         	goto	i2u319_40
  8668  00152C                     i2u319_41:
  8669  00152C  EF39  F00A         	goto	i2l4164
  8670  001530                     i2u319_40:
  8671  001530  5005               	movf	i2PWM_GeneratePulsos@pulsosY^0,w,c
  8672  001532  5C0B               	subwf	i2PWM_GeneratePulsos@countY^0,w,c
  8673  001534  500C               	movf	(i2PWM_GeneratePulsos@countY+1)^0,w,c
  8674  001536  0A80               	xorlw	128
  8675  001538  6E07               	movwf	??i2_PWM_GeneratePulsos^0,c
  8676  00153A  5006               	movf	(i2PWM_GeneratePulsos@pulsosY+1)^0,w,c
  8677  00153C  0A80               	xorlw	128
  8678  00153E  5807               	subwfb	??i2_PWM_GeneratePulsos^0,w,c
  8679  001540  A0D8               	btfss	status,0,c
  8680  001542  EFA5  F00A         	goto	i2u320_41
  8681  001546  EFA7  F00A         	goto	i2u320_40
  8682  00154A                     i2u320_41:
  8683  00154A  EF39  F00A         	goto	i2l4164
  8684  00154E                     i2u320_40:
  8685  00154E                     
  8686                           ;PWM.c: 44:     oneshotX = 0;
  8687  00154E  0E00               	movlw	0
  8688  001550  0100               	movlb	0	; () banked
  8689  001552  6FB6               	movwf	_oneshotX& (0+255),b
  8690                           
  8691                           ;PWM.c: 45:     countY = 0;
  8692  001554  0E00               	movlw	0
  8693  001556  6E0C               	movwf	(i2PWM_GeneratePulsos@countY+1)^0,c
  8694  001558  0E00               	movlw	0
  8695  00155A  6E0B               	movwf	i2PWM_GeneratePulsos@countY^0,c
  8696                           
  8697                           ;PWM.c: 46:     oneshotY = 0;
  8698  00155C  0E00               	movlw	0
  8699  00155E  6FB5               	movwf	_oneshotY& (0+255),b
  8700  001560                     
  8701                           ; BSR set to: 0
  8702                           ;PWM.c: 47:     T2CONbits.TMR2ON = 0;
  8703  001560  94CA               	bcf	202,2,c	;volatile
  8704  001562                     
  8705                           ; BSR set to: 0
  8706  001562  0012               	return		;funcret
  8707  001564                     __end_ofi2_PWM_GeneratePulsos:
  8708                           	opt callstack 0
  8709                           
  8710 ;; *************** function i2_PWM_OneshotY *****************
  8711 ;; Defined at:
  8712 ;;		line 108 in file "PWM.c"
  8713 ;; Parameters:    Size  Location     Type
  8714 ;;  countY          2    0[COMRAM] int 
  8715 ;; Auto vars:     Size  Location     Type
  8716 ;;		None
  8717 ;; Return value:  Size  Location     Type
  8718 ;;                  2    0[COMRAM] int 
  8719 ;; Registers used:
  8720 ;;		wreg, status,2, status,0
  8721 ;; Tracked objects:
  8722 ;;		On entry : 0/0
  8723 ;;		On exit  : 0/0
  8724 ;;		Unchanged: 0/0
  8725 ;; Data sizes:     COMRAM   BANK0   BANK1   BANK2   BANK3   BANK4   BANK5   BANK6   BANK7
  8726 ;;      Params:         2       0       0       0       0       0       0       0       0
  8727 ;;      Locals:         0       0       0       0       0       0       0       0       0
  8728 ;;      Temps:          0       0       0       0       0       0       0       0       0
  8729 ;;      Totals:         2       0       0       0       0       0       0       0       0
  8730 ;;Total ram usage:        2 bytes
  8731 ;; Hardware stack levels used:    1
  8732 ;; This function calls:
  8733 ;;		Nothing
  8734 ;; This function is called by:
  8735 ;;		i2_PWM_GeneratePulsos
  8736 ;; This function uses a non-reentrant model
  8737 ;;
  8738                           
  8739                           	psect	text44
  8740  002584                     __ptext44:
  8741                           	opt callstack 0
  8742  002584                     i2_PWM_OneshotY:
  8743                           	opt callstack 22
  8744  002584                     
  8745                           ;PWM.c: 109:     if (PORTCbits.RC2 == 1 & oneshotY == 0) {
  8746  002584  A482               	btfss	130,2,c	;volatile
  8747  002586  EFC7  F012         	goto	i2u242_41
  8748  00258A  EFC9  F012         	goto	i2u242_40
  8749  00258E                     i2u242_41:
  8750  00258E  EFD6  F012         	goto	i2l3730
  8751  002592                     i2u242_40:
  8752  002592  0100               	movlb	0	; () banked
  8753  002594  51B5               	movf	_oneshotY& (0+255),w,b
  8754  002596  A4D8               	btfss	status,2,c
  8755  002598  EFD0  F012         	goto	i2u243_41
  8756  00259C  EFD2  F012         	goto	i2u243_40
  8757  0025A0                     i2u243_41:
  8758  0025A0  EFD6  F012         	goto	i2l3730
  8759  0025A4                     i2u243_40:
  8760  0025A4                     
  8761                           ; BSR set to: 0
  8762                           ;PWM.c: 110:         countY++;
  8763  0025A4  4A01               	infsnz	i2PWM_OneshotY@countY^0,f,c
  8764  0025A6  2A02               	incf	(i2PWM_OneshotY@countY+1)^0,f,c
  8765  0025A8                     
  8766                           ; BSR set to: 0
  8767                           ;PWM.c: 111:         oneshotY = 1;
  8768  0025A8  0E01               	movlw	1
  8769  0025AA  6FB5               	movwf	_oneshotY& (0+255),b
  8770  0025AC                     i2l3730:
  8771                           
  8772                           ;PWM.c: 113:     return countY;
  8773  0025AC  C001  F001         	movff	i2PWM_OneshotY@countY,?i2_PWM_OneshotY
  8774  0025B0  C002  F002         	movff	i2PWM_OneshotY@countY+1,?i2_PWM_OneshotY+1
  8775  0025B4  0012               	return		;funcret
  8776  0025B6                     __end_ofi2_PWM_OneshotY:
  8777                           	opt callstack 0
  8778                           
  8779 ;; *************** function i2_PWM_OneshotX *****************
  8780 ;; Defined at:
  8781 ;;		line 100 in file "PWM.c"
  8782 ;; Parameters:    Size  Location     Type
  8783 ;;  countX          2    0[COMRAM] int 
  8784 ;; Auto vars:     Size  Location     Type
  8785 ;;		None
  8786 ;; Return value:  Size  Location     Type
  8787 ;;                  2    0[COMRAM] int 
  8788 ;; Registers used:
  8789 ;;		wreg, status,2, status,0
  8790 ;; Tracked objects:
  8791 ;;		On entry : 0/0
  8792 ;;		On exit  : 0/0
  8793 ;;		Unchanged: 0/0
  8794 ;; Data sizes:     COMRAM   BANK0   BANK1   BANK2   BANK3   BANK4   BANK5   BANK6   BANK7
  8795 ;;      Params:         2       0       0       0       0       0       0       0       0
  8796 ;;      Locals:         0       0       0       0       0       0       0       0       0
  8797 ;;      Temps:          0       0       0       0       0       0       0       0       0
  8798 ;;      Totals:         2       0       0       0       0       0       0       0       0
  8799 ;;Total ram usage:        2 bytes
  8800 ;; Hardware stack levels used:    1
  8801 ;; This function calls:
  8802 ;;		Nothing
  8803 ;; This function is called by:
  8804 ;;		i2_PWM_GeneratePulsos
  8805 ;; This function uses a non-reentrant model
  8806 ;;
  8807                           
  8808                           	psect	text45
  8809  0025B6                     __ptext45:
  8810                           	opt callstack 0
  8811  0025B6                     i2_PWM_OneshotX:
  8812                           	opt callstack 22
  8813  0025B6                     
  8814                           ;PWM.c: 101:     if (PORTCbits.RC1 == 1 & oneshotX == 0) {
  8815  0025B6  A282               	btfss	130,1,c	;volatile
  8816  0025B8  EFE0  F012         	goto	i2u240_41
  8817  0025BC  EFE2  F012         	goto	i2u240_40
  8818  0025C0                     i2u240_41:
  8819  0025C0  EFEF  F012         	goto	i2l3718
  8820  0025C4                     i2u240_40:
  8821  0025C4  0100               	movlb	0	; () banked
  8822  0025C6  51B6               	movf	_oneshotX& (0+255),w,b
  8823  0025C8  A4D8               	btfss	status,2,c
  8824  0025CA  EFE9  F012         	goto	i2u241_41
  8825  0025CE  EFEB  F012         	goto	i2u241_40
  8826  0025D2                     i2u241_41:
  8827  0025D2  EFEF  F012         	goto	i2l3718
  8828  0025D6                     i2u241_40:
  8829  0025D6                     
  8830                           ; BSR set to: 0
  8831                           ;PWM.c: 102:         countX++;
  8832  0025D6  4A01               	infsnz	i2PWM_OneshotX@countX^0,f,c
  8833  0025D8  2A02               	incf	(i2PWM_OneshotX@countX+1)^0,f,c
  8834  0025DA                     
  8835                           ; BSR set to: 0
  8836                           ;PWM.c: 103:         oneshotX = 1;
  8837  0025DA  0E01               	movlw	1
  8838  0025DC  6FB6               	movwf	_oneshotX& (0+255),b
  8839  0025DE                     i2l3718:
  8840                           
  8841                           ;PWM.c: 105:     return countX;
  8842  0025DE  C001  F001         	movff	i2PWM_OneshotX@countX,?i2_PWM_OneshotX
  8843  0025E2  C002  F002         	movff	i2PWM_OneshotX@countX+1,?i2_PWM_OneshotX+1
  8844  0025E6  0012               	return		;funcret
  8845  0025E8                     __end_ofi2_PWM_OneshotX:
  8846                           	opt callstack 0
  8847                           
  8848 ;; *************** function i2_PWM_InitF *****************
  8849 ;; Defined at:
  8850 ;;		line 72 in file "PWM.c"
  8851 ;; Parameters:    Size  Location     Type
  8852 ;;		None
  8853 ;; Auto vars:     Size  Location     Type
  8854 ;;		None
  8855 ;; Return value:  Size  Location     Type
  8856 ;;                  1    wreg      void 
  8857 ;; Registers used:
  8858 ;;		wreg, status,2
  8859 ;; Tracked objects:
  8860 ;;		On entry : 0/0
  8861 ;;		On exit  : 0/0
  8862 ;;		Unchanged: 0/0
  8863 ;; Data sizes:     COMRAM   BANK0   BANK1   BANK2   BANK3   BANK4   BANK5   BANK6   BANK7
  8864 ;;      Params:         0       0       0       0       0       0       0       0       0
  8865 ;;      Locals:         0       0       0       0       0       0       0       0       0
  8866 ;;      Temps:          0       0       0       0       0       0       0       0       0
  8867 ;;      Totals:         0       0       0       0       0       0       0       0       0
  8868 ;;Total ram usage:        0 bytes
  8869 ;; Hardware stack levels used:    1
  8870 ;; This function calls:
  8871 ;;		Nothing
  8872 ;; This function is called by:
  8873 ;;		i2_PWM_GeneratePulsos
  8874 ;; This function uses a non-reentrant model
  8875 ;;
  8876                           
  8877                           	psect	text46
  8878  0026A6                     __ptext46:
  8879                           	opt callstack 0
  8880  0026A6                     i2_PWM_InitF:
  8881                           	opt callstack 22
  8882  0026A6                     
  8883                           ;PWM.c: 74:     PR2 = 0X7C;
  8884  0026A6  0E7C               	movlw	124
  8885  0026A8  6ECB               	movwf	203,c	;volatile
  8886                           
  8887                           ;PWM.c: 75:     CCPR1L = 0X3E;
  8888  0026AA  0E3E               	movlw	62
  8889  0026AC  6EBE               	movwf	190,c	;volatile
  8890                           
  8891                           ;PWM.c: 76:     CCPR2L = 0X3E;
  8892  0026AE  0E3E               	movlw	62
  8893  0026B0  6EBB               	movwf	187,c	;volatile
  8894  0026B2                     
  8895                           ;PWM.c: 77:     TRISCbits.RC1 = 0;
  8896  0026B2  9294               	bcf	148,1,c	;volatile
  8897  0026B4                     
  8898                           ;PWM.c: 78:     TRISCbits.RC2 = 0;
  8899  0026B4  9494               	bcf	148,2,c	;volatile
  8900                           
  8901                           ;PWM.c: 79:     T2CON = 0X03;
  8902  0026B6  0E03               	movlw	3
  8903  0026B8  6ECA               	movwf	202,c	;volatile
  8904                           
  8905                           ;PWM.c: 80:     CCP1CON = 0X0C;
  8906  0026BA  0E0C               	movlw	12
  8907  0026BC  6EBD               	movwf	189,c	;volatile
  8908                           
  8909                           ;PWM.c: 81:     CCP2CON = 0X0C;
  8910  0026BE  0E0C               	movlw	12
  8911  0026C0  6EBA               	movwf	186,c	;volatile
  8912  0026C2                     
  8913                           ;PWM.c: 82:     T2CONbits.TMR2ON = 0;
  8914  0026C2  94CA               	bcf	202,2,c	;volatile
  8915  0026C4  0012               	return		;funcret
  8916  0026C6                     __end_ofi2_PWM_InitF:
  8917                           	opt callstack 0
  8918                           
  8919 ;; *************** function i2_Motor_Conversion *****************
  8920 ;; Defined at:
  8921 ;;		line 18 in file "Motor.c"
  8922 ;; Parameters:    Size  Location     Type
  8923 ;;  Coordenada      2   49[COMRAM] int 
  8924 ;; Auto vars:     Size  Location     Type
  8925 ;;  Motor_Conver    4   51[COMRAM] float 
  8926 ;; Return value:  Size  Location     Type
  8927 ;;                  2   49[COMRAM] int 
  8928 ;; Registers used:
  8929 ;;		wreg, status,2, status,0, cstack
  8930 ;; Tracked objects:
  8931 ;;		On entry : 0/0
  8932 ;;		On exit  : 0/0
  8933 ;;		Unchanged: 0/0
  8934 ;; Data sizes:     COMRAM   BANK0   BANK1   BANK2   BANK3   BANK4   BANK5   BANK6   BANK7
  8935 ;;      Params:         2       0       0       0       0       0       0       0       0
  8936 ;;      Locals:         4       0       0       0       0       0       0       0       0
  8937 ;;      Temps:          0       0       0       0       0       0       0       0       0
  8938 ;;      Totals:         6       0       0       0       0       0       0       0       0
  8939 ;;Total ram usage:        6 bytes
  8940 ;; Hardware stack levels used:    1
  8941 ;; Hardware stack levels required when called:    1
  8942 ;; This function calls:
  8943 ;;		i2___fldiv
  8944 ;;		i2___fltol
  8945 ;;		i2___xxtofl
  8946 ;; This function is called by:
  8947 ;;		_Motor_Movimiento_Home
  8948 ;; This function uses a non-reentrant model
  8949 ;;
  8950                           
  8951                           	psect	text47
  8952  0021C0                     __ptext47:
  8953                           	opt callstack 0
  8954  0021C0                     i2_Motor_Conversion:
  8955                           	opt callstack 22
  8956  0021C0                     
  8957                           ;Motor.c: 19:     float conversion = 0.2;
  8958  0021C0  0ECD               	movlw	205
  8959  0021C2  6E34               	movwf	i2Motor_Conversion@conversion^0,c
  8960  0021C4  0ECC               	movlw	204
  8961  0021C6  6E35               	movwf	(i2Motor_Conversion@conversion+1)^0,c
  8962  0021C8  0E4C               	movlw	76
  8963  0021CA  6E36               	movwf	(i2Motor_Conversion@conversion+2)^0,c
  8964  0021CC  0E3E               	movlw	62
  8965  0021CE  6E37               	movwf	(i2Motor_Conversion@conversion+3)^0,c
  8966  0021D0                     
  8967                           ;Motor.c: 20:     pasos_convertidos = Coordenada / conversion;
  8968  0021D0  C034  F013         	movff	i2Motor_Conversion@conversion,i2___fldiv@a
  8969  0021D4  C035  F014         	movff	i2Motor_Conversion@conversion+1,i2___fldiv@a+1
  8970  0021D8  C036  F015         	movff	i2Motor_Conversion@conversion+2,i2___fldiv@a+2
  8971  0021DC  C037  F016         	movff	i2Motor_Conversion@conversion+3,i2___fldiv@a+3
  8972  0021E0  C032  F001         	movff	i2Motor_Conversion@Coordenada,i2___xxtofl@val
  8973  0021E4  C033  F002         	movff	i2Motor_Conversion@Coordenada+1,i2___xxtofl@val+1
  8974  0021E8  0E00               	movlw	0
  8975  0021EA  BE02               	btfsc	(i2___xxtofl@val+1)^0,7,c
  8976  0021EC  0EFF               	movlw	-1
  8977  0021EE  6E03               	movwf	(i2___xxtofl@val+2)^0,c
  8978  0021F0  6E04               	movwf	(i2___xxtofl@val+3)^0,c
  8979  0021F2  0E01               	movlw	1
  8980  0021F4  ECBB  F007         	call	i2___xxtofl
  8981  0021F8  C001  F00F         	movff	?i2___xxtofl,i2___fldiv@b
  8982  0021FC  C002  F010         	movff	?i2___xxtofl+1,i2___fldiv@b+1
  8983  002200  C003  F011         	movff	?i2___xxtofl+2,i2___fldiv@b+2
  8984  002204  C004  F012         	movff	?i2___xxtofl+3,i2___fldiv@b+3
  8985  002208  ECDD  F003         	call	i2___fldiv	;wreg free
  8986  00220C  C00F  F028         	movff	?i2___fldiv,i2___fltol@f1
  8987  002210  C010  F029         	movff	?i2___fldiv+1,i2___fltol@f1+1
  8988  002214  C011  F02A         	movff	?i2___fldiv+2,i2___fltol@f1+2
  8989  002218  C012  F02B         	movff	?i2___fldiv+3,i2___fltol@f1+3
  8990  00221C  EC5E  F00D         	call	i2___fltol	;wreg free
  8991  002220  C028  F0B0         	movff	?i2___fltol,_pasos_convertidos
  8992  002224  C029  F0B1         	movff	?i2___fltol+1,_pasos_convertidos+1
  8993  002228                     
  8994                           ;Motor.c: 21:     return pasos_convertidos;
  8995  002228  C0B0  F032         	movff	_pasos_convertidos,?i2_Motor_Conversion
  8996  00222C  C0B1  F033         	movff	_pasos_convertidos+1,?i2_Motor_Conversion+1
  8997  002230  0012               	return		;funcret
  8998  002232                     __end_ofi2_Motor_Conversion:
  8999                           	opt callstack 0
  9000                           
  9001 ;; *************** function i2___xxtofl *****************
  9002 ;; Defined at:
  9003 ;;		line 10 in file "C:\Program Files (x86)\Microchip\xc8\v2.10\pic\sources\c99\common\xxtofl.c"
  9004 ;; Parameters:    Size  Location     Type
  9005 ;;  sign            1    wreg     unsigned char 
  9006 ;;  val             4    0[COMRAM] long 
  9007 ;; Auto vars:     Size  Location     Type
  9008 ;;  sign            1    8[COMRAM] unsigned char 
  9009 ;;  __xxtofl        4   10[COMRAM] unsigned long 
  9010 ;;  __xxtofl        1    9[COMRAM] unsigned char 
  9011 ;; Return value:  Size  Location     Type
  9012 ;;                  4    0[COMRAM] unsigned char 
  9013 ;; Registers used:
  9014 ;;		wreg, status,2, status,0
  9015 ;; Tracked objects:
  9016 ;;		On entry : 0/0
  9017 ;;		On exit  : 0/0
  9018 ;;		Unchanged: 0/0
  9019 ;; Data sizes:     COMRAM   BANK0   BANK1   BANK2   BANK3   BANK4   BANK5   BANK6   BANK7
  9020 ;;      Params:         4       0       0       0       0       0       0       0       0
  9021 ;;      Locals:         6       0       0       0       0       0       0       0       0
  9022 ;;      Temps:          4       0       0       0       0       0       0       0       0
  9023 ;;      Totals:        14       0       0       0       0       0       0       0       0
  9024 ;;Total ram usage:       14 bytes
  9025 ;; Hardware stack levels used:    1
  9026 ;; This function calls:
  9027 ;;		Nothing
  9028 ;; This function is called by:
  9029 ;;		i2_Motor_Conversion
  9030 ;; This function uses a non-reentrant model
  9031 ;;
  9032                           
  9033                           	psect	text48
  9034  000F76                     __ptext48:
  9035                           	opt callstack 0
  9036  000F76                     i2___xxtofl:
  9037                           	opt callstack 22
  9038                           
  9039                           ;incstack = 0
  9040                           ;i2___xxtofl@sign stored from wreg
  9041  000F76  6E09               	movwf	i2___xxtofl@sign^0,c
  9042  000F78  5009               	movf	i2___xxtofl@sign^0,w,c
  9043  000F7A  B4D8               	btfsc	status,2,c
  9044  000F7C  EFC2  F007         	goto	i2u274_41
  9045  000F80  EFC4  F007         	goto	i2u274_40
  9046  000F84                     i2u274_41:
  9047  000F84  EFE6  F007         	goto	i2l1408
  9048  000F88                     i2u274_40:
  9049  000F88  BE04               	btfsc	(i2___xxtofl@val+3)^0,7,c
  9050  000F8A  EFCB  F007         	goto	i2u275_40
  9051  000F8E  EFC9  F007         	goto	i2u275_41
  9052  000F92                     i2u275_41:
  9053  000F92  EFE6  F007         	goto	i2l1408
  9054  000F96                     i2u275_40:
  9055  000F96  C001  F005         	movff	i2___xxtofl@val,??i2___xxtofl
  9056  000F9A  C002  F006         	movff	i2___xxtofl@val+1,??i2___xxtofl+1
  9057  000F9E  C003  F007         	movff	i2___xxtofl@val+2,??i2___xxtofl+2
  9058  000FA2  C004  F008         	movff	i2___xxtofl@val+3,??i2___xxtofl+3
  9059  000FA6  1E05               	comf	??i2___xxtofl^0,f,c
  9060  000FA8  1E06               	comf	(??i2___xxtofl+1)^0,f,c
  9061  000FAA  1E07               	comf	(??i2___xxtofl+2)^0,f,c
  9062  000FAC  1E08               	comf	(??i2___xxtofl+3)^0,f,c
  9063  000FAE  2A05               	incf	??i2___xxtofl^0,f,c
  9064  000FB0  0E00               	movlw	0
  9065  000FB2  2206               	addwfc	(??i2___xxtofl+1)^0,f,c
  9066  000FB4  2207               	addwfc	(??i2___xxtofl+2)^0,f,c
  9067  000FB6  2208               	addwfc	(??i2___xxtofl+3)^0,f,c
  9068  000FB8  C005  F00B         	movff	??i2___xxtofl,i2___xxtofl@arg
  9069  000FBC  C006  F00C         	movff	??i2___xxtofl+1,i2___xxtofl@arg+1
  9070  000FC0  C007  F00D         	movff	??i2___xxtofl+2,i2___xxtofl@arg+2
  9071  000FC4  C008  F00E         	movff	??i2___xxtofl+3,i2___xxtofl@arg+3
  9072  000FC8  EFEE  F007         	goto	i2l3922
  9073  000FCC                     i2l1408:
  9074  000FCC  C001  F00B         	movff	i2___xxtofl@val,i2___xxtofl@arg
  9075  000FD0  C002  F00C         	movff	i2___xxtofl@val+1,i2___xxtofl@arg+1
  9076  000FD4  C003  F00D         	movff	i2___xxtofl@val+2,i2___xxtofl@arg+2
  9077  000FD8  C004  F00E         	movff	i2___xxtofl@val+3,i2___xxtofl@arg+3
  9078  000FDC                     i2l3922:
  9079  000FDC  5001               	movf	i2___xxtofl@val^0,w,c
  9080  000FDE  1002               	iorwf	(i2___xxtofl@val+1)^0,w,c
  9081  000FE0  1003               	iorwf	(i2___xxtofl@val+2)^0,w,c
  9082  000FE2  1004               	iorwf	(i2___xxtofl@val+3)^0,w,c
  9083  000FE4  A4D8               	btfss	status,2,c
  9084  000FE6  EFF7  F007         	goto	i2u276_41
  9085  000FEA  EFF9  F007         	goto	i2u276_40
  9086  000FEE                     i2u276_41:
  9087  000FEE  EF03  F008         	goto	i2l3928
  9088  000FF2                     i2u276_40:
  9089  000FF2  0E00               	movlw	0
  9090  000FF4  6E01               	movwf	?i2___xxtofl^0,c
  9091  000FF6  0E00               	movlw	0
  9092  000FF8  6E02               	movwf	(?i2___xxtofl+1)^0,c
  9093  000FFA  0E00               	movlw	0
  9094  000FFC  6E03               	movwf	(?i2___xxtofl+2)^0,c
  9095  000FFE  0E00               	movlw	0
  9096  001000  6E04               	movwf	(?i2___xxtofl+3)^0,c
  9097  001002  EF94  F008         	goto	i2l1411
  9098  001006                     i2l3928:
  9099  001006  0E96               	movlw	150
  9100  001008  6E0A               	movwf	i2___xxtofl@exp^0,c
  9101  00100A  EF0D  F008         	goto	i2l3932
  9102  00100E                     i2l3930:
  9103  00100E  2A0A               	incf	i2___xxtofl@exp^0,f,c
  9104  001010  90D8               	bcf	status,0,c
  9105  001012  320E               	rrcf	(i2___xxtofl@arg+3)^0,f,c
  9106  001014  320D               	rrcf	(i2___xxtofl@arg+2)^0,f,c
  9107  001016  320C               	rrcf	(i2___xxtofl@arg+1)^0,f,c
  9108  001018  320B               	rrcf	i2___xxtofl@arg^0,f,c
  9109  00101A                     i2l3932:
  9110  00101A  0E00               	movlw	0
  9111  00101C  140B               	andwf	i2___xxtofl@arg^0,w,c
  9112  00101E  6E05               	movwf	??i2___xxtofl^0,c
  9113  001020  0E00               	movlw	0
  9114  001022  140C               	andwf	(i2___xxtofl@arg+1)^0,w,c
  9115  001024  6E06               	movwf	(??i2___xxtofl+1)^0,c
  9116  001026  0E00               	movlw	0
  9117  001028  140D               	andwf	(i2___xxtofl@arg+2)^0,w,c
  9118  00102A  6E07               	movwf	(??i2___xxtofl+2)^0,c
  9119  00102C  0EFE               	movlw	254
  9120  00102E  140E               	andwf	(i2___xxtofl@arg+3)^0,w,c
  9121  001030  6E08               	movwf	(??i2___xxtofl+3)^0,c
  9122  001032  5005               	movf	??i2___xxtofl^0,w,c
  9123  001034  1006               	iorwf	(??i2___xxtofl+1)^0,w,c
  9124  001036  1007               	iorwf	(??i2___xxtofl+2)^0,w,c
  9125  001038  1008               	iorwf	(??i2___xxtofl+3)^0,w,c
  9126  00103A  A4D8               	btfss	status,2,c
  9127  00103C  EF22  F008         	goto	i2u277_41
  9128  001040  EF24  F008         	goto	i2u277_40
  9129  001044                     i2u277_41:
  9130  001044  EF07  F008         	goto	i2l3930
  9131  001048                     i2u277_40:
  9132  001048  EF32  F008         	goto	i2l1415
  9133  00104C                     i2l3934:
  9134  00104C  2A0A               	incf	i2___xxtofl@exp^0,f,c
  9135  00104E  0E01               	movlw	1
  9136  001050  260B               	addwf	i2___xxtofl@arg^0,f,c
  9137  001052  0E00               	movlw	0
  9138  001054  220C               	addwfc	(i2___xxtofl@arg+1)^0,f,c
  9139  001056  220D               	addwfc	(i2___xxtofl@arg+2)^0,f,c
  9140  001058  220E               	addwfc	(i2___xxtofl@arg+3)^0,f,c
  9141  00105A  90D8               	bcf	status,0,c
  9142  00105C  320E               	rrcf	(i2___xxtofl@arg+3)^0,f,c
  9143  00105E  320D               	rrcf	(i2___xxtofl@arg+2)^0,f,c
  9144  001060  320C               	rrcf	(i2___xxtofl@arg+1)^0,f,c
  9145  001062  320B               	rrcf	i2___xxtofl@arg^0,f,c
  9146  001064                     i2l1415:
  9147  001064  0E00               	movlw	0
  9148  001066  140B               	andwf	i2___xxtofl@arg^0,w,c
  9149  001068  6E05               	movwf	??i2___xxtofl^0,c
  9150  00106A  0E00               	movlw	0
  9151  00106C  140C               	andwf	(i2___xxtofl@arg+1)^0,w,c
  9152  00106E  6E06               	movwf	(??i2___xxtofl+1)^0,c
  9153  001070  0E00               	movlw	0
  9154  001072  140D               	andwf	(i2___xxtofl@arg+2)^0,w,c
  9155  001074  6E07               	movwf	(??i2___xxtofl+2)^0,c
  9156  001076  0EFF               	movlw	255
  9157  001078  140E               	andwf	(i2___xxtofl@arg+3)^0,w,c
  9158  00107A  6E08               	movwf	(??i2___xxtofl+3)^0,c
  9159  00107C  5005               	movf	??i2___xxtofl^0,w,c
  9160  00107E  1006               	iorwf	(??i2___xxtofl+1)^0,w,c
  9161  001080  1007               	iorwf	(??i2___xxtofl+2)^0,w,c
  9162  001082  1008               	iorwf	(??i2___xxtofl+3)^0,w,c
  9163  001084  A4D8               	btfss	status,2,c
  9164  001086  EF47  F008         	goto	i2u278_41
  9165  00108A  EF49  F008         	goto	i2u278_40
  9166  00108E                     i2u278_41:
  9167  00108E  EF26  F008         	goto	i2l3934
  9168  001092                     i2u278_40:
  9169  001092  EF51  F008         	goto	i2l3942
  9170  001096                     i2l3940:
  9171  001096  060A               	decf	i2___xxtofl@exp^0,f,c
  9172  001098  90D8               	bcf	status,0,c
  9173  00109A  360B               	rlcf	i2___xxtofl@arg^0,f,c
  9174  00109C  360C               	rlcf	(i2___xxtofl@arg+1)^0,f,c
  9175  00109E  360D               	rlcf	(i2___xxtofl@arg+2)^0,f,c
  9176  0010A0  360E               	rlcf	(i2___xxtofl@arg+3)^0,f,c
  9177  0010A2                     i2l3942:
  9178  0010A2  BE0D               	btfsc	(i2___xxtofl@arg+2)^0,7,c
  9179  0010A4  EF56  F008         	goto	i2u279_41
  9180  0010A8  EF58  F008         	goto	i2u279_40
  9181  0010AC                     i2u279_41:
  9182  0010AC  EF60  F008         	goto	i2l1422
  9183  0010B0                     i2u279_40:
  9184  0010B0  0E02               	movlw	2
  9185  0010B2  600A               	cpfslt	i2___xxtofl@exp^0,c
  9186  0010B4  EF5E  F008         	goto	i2u280_41
  9187  0010B8  EF60  F008         	goto	i2u280_40
  9188  0010BC                     i2u280_41:
  9189  0010BC  EF4B  F008         	goto	i2l3940
  9190  0010C0                     i2u280_40:
  9191  0010C0                     i2l1422:
  9192  0010C0  B00A               	btfsc	i2___xxtofl@exp^0,0,c
  9193  0010C2  EF65  F008         	goto	i2u281_41
  9194  0010C6  EF67  F008         	goto	i2u281_40
  9195  0010CA                     i2u281_41:
  9196  0010CA  EF68  F008         	goto	i2l3948
  9197  0010CE                     i2u281_40:
  9198  0010CE  9E0D               	bcf	(i2___xxtofl@arg+2)^0,7,c
  9199  0010D0                     i2l3948:
  9200  0010D0  90D8               	bcf	status,0,c
  9201  0010D2  320A               	rrcf	i2___xxtofl@exp^0,f,c
  9202  0010D4  C00A  F005         	movff	i2___xxtofl@exp,??i2___xxtofl
  9203  0010D8  6A06               	clrf	(??i2___xxtofl+1)^0,c
  9204  0010DA  6A07               	clrf	(??i2___xxtofl+2)^0,c
  9205  0010DC  6A08               	clrf	(??i2___xxtofl+3)^0,c
  9206  0010DE  C005  F008         	movff	??i2___xxtofl,??i2___xxtofl+3
  9207  0010E2  6A07               	clrf	(??i2___xxtofl+2)^0,c
  9208  0010E4  6A06               	clrf	(??i2___xxtofl+1)^0,c
  9209  0010E6  6A05               	clrf	??i2___xxtofl^0,c
  9210  0010E8  5005               	movf	??i2___xxtofl^0,w,c
  9211  0010EA  120B               	iorwf	i2___xxtofl@arg^0,f,c
  9212  0010EC  5006               	movf	(??i2___xxtofl+1)^0,w,c
  9213  0010EE  120C               	iorwf	(i2___xxtofl@arg+1)^0,f,c
  9214  0010F0  5007               	movf	(??i2___xxtofl+2)^0,w,c
  9215  0010F2  120D               	iorwf	(i2___xxtofl@arg+2)^0,f,c
  9216  0010F4  5008               	movf	(??i2___xxtofl+3)^0,w,c
  9217  0010F6  120E               	iorwf	(i2___xxtofl@arg+3)^0,f,c
  9218  0010F8  5009               	movf	i2___xxtofl@sign^0,w,c
  9219  0010FA  B4D8               	btfsc	status,2,c
  9220  0010FC  EF82  F008         	goto	i2u282_41
  9221  001100  EF84  F008         	goto	i2u282_40
  9222  001104                     i2u282_41:
  9223  001104  EF8C  F008         	goto	i2l3958
  9224  001108                     i2u282_40:
  9225  001108  BE04               	btfsc	(i2___xxtofl@val+3)^0,7,c
  9226  00110A  EF8B  F008         	goto	i2u283_40
  9227  00110E  EF89  F008         	goto	i2u283_41
  9228  001112                     i2u283_41:
  9229  001112  EF8C  F008         	goto	i2l3958
  9230  001116                     i2u283_40:
  9231  001116  8E0E               	bsf	(i2___xxtofl@arg+3)^0,7,c
  9232  001118                     i2l3958:
  9233  001118  C00B  F001         	movff	i2___xxtofl@arg,?i2___xxtofl
  9234  00111C  C00C  F002         	movff	i2___xxtofl@arg+1,?i2___xxtofl+1
  9235  001120  C00D  F003         	movff	i2___xxtofl@arg+2,?i2___xxtofl+2
  9236  001124  C00E  F004         	movff	i2___xxtofl@arg+3,?i2___xxtofl+3
  9237  001128                     i2l1411:
  9238  001128  0012               	return		;funcret
  9239  00112A                     __end_ofi2___xxtofl:
  9240                           	opt callstack 0
  9241                           
  9242 ;; *************** function i2___fltol *****************
  9243 ;; Defined at:
  9244 ;;		line 43 in file "C:\Program Files (x86)\Microchip\xc8\v2.10\pic\sources\c99\common\fltol.c"
  9245 ;; Parameters:    Size  Location     Type
  9246 ;;  f1              4   39[COMRAM] unsigned char 
  9247 ;; Auto vars:     Size  Location     Type
  9248 ;;  __fltol         1   48[COMRAM] unsigned char 
  9249 ;;  __fltol         1   47[COMRAM] unsigned char 
  9250 ;; Return value:  Size  Location     Type
  9251 ;;                  4   39[COMRAM] long 
  9252 ;; Registers used:
  9253 ;;		wreg, status,2, status,0
  9254 ;; Tracked objects:
  9255 ;;		On entry : 0/0
  9256 ;;		On exit  : 0/0
  9257 ;;		Unchanged: 0/0
  9258 ;; Data sizes:     COMRAM   BANK0   BANK1   BANK2   BANK3   BANK4   BANK5   BANK6   BANK7
  9259 ;;      Params:         4       0       0       0       0       0       0       0       0
  9260 ;;      Locals:         2       0       0       0       0       0       0       0       0
  9261 ;;      Temps:          4       0       0       0       0       0       0       0       0
  9262 ;;      Totals:        10       0       0       0       0       0       0       0       0
  9263 ;;Total ram usage:       10 bytes
  9264 ;; Hardware stack levels used:    1
  9265 ;; This function calls:
  9266 ;;		Nothing
  9267 ;; This function is called by:
  9268 ;;		i2_Motor_Conversion
  9269 ;; This function uses a non-reentrant model
  9270 ;;
  9271                           
  9272                           	psect	text49
  9273  001ABC                     __ptext49:
  9274                           	opt callstack 0
  9275  001ABC                     i2___fltol:
  9276                           	opt callstack 22
  9277  001ABC  342A               	rlcf	(i2___fltol@f1+2)^0,w,c
  9278  001ABE  342B               	rlcf	(i2___fltol@f1+3)^0,w,c
  9279  001AC0  6E31               	movwf	i2___fltol@exp1^0,c
  9280  001AC2  5031               	movf	i2___fltol@exp1^0,w,c
  9281  001AC4  A4D8               	btfss	status,2,c
  9282  001AC6  EF67  F00D         	goto	i2u244_41
  9283  001ACA  EF69  F00D         	goto	i2u244_40
  9284  001ACE                     i2u244_41:
  9285  001ACE  EF73  F00D         	goto	i2l3740
  9286  001AD2                     i2u244_40:
  9287  001AD2                     i2l3736:
  9288  001AD2  0E00               	movlw	0
  9289  001AD4  6E28               	movwf	?i2___fltol^0,c
  9290  001AD6  0E00               	movlw	0
  9291  001AD8  6E29               	movwf	(?i2___fltol+1)^0,c
  9292  001ADA  0E00               	movlw	0
  9293  001ADC  6E2A               	movwf	(?i2___fltol+2)^0,c
  9294  001ADE  0E00               	movlw	0
  9295  001AE0  6E2B               	movwf	(?i2___fltol+3)^0,c
  9296  001AE2  EFE0  F00D         	goto	i2l1050
  9297  001AE6                     i2l3740:
  9298  001AE6  C028  F02C         	movff	i2___fltol@f1,??i2___fltol
  9299  001AEA  C029  F02D         	movff	i2___fltol@f1+1,??i2___fltol+1
  9300  001AEE  C02A  F02E         	movff	i2___fltol@f1+2,??i2___fltol+2
  9301  001AF2  C02B  F02F         	movff	i2___fltol@f1+3,??i2___fltol+3
  9302  001AF6  0E20               	movlw	32
  9303  001AF8  EF83  F00D         	goto	i2u245_40
  9304  001AFC                     i2u245_45:
  9305  001AFC  90D8               	bcf	status,0,c
  9306  001AFE  322F               	rrcf	(??i2___fltol+3)^0,f,c
  9307  001B00  322E               	rrcf	(??i2___fltol+2)^0,f,c
  9308  001B02  322D               	rrcf	(??i2___fltol+1)^0,f,c
  9309  001B04  322C               	rrcf	??i2___fltol^0,f,c
  9310  001B06                     i2u245_40:
  9311  001B06  2EE8               	decfsz	wreg,f,c
  9312  001B08  EF7E  F00D         	goto	i2u245_45
  9313  001B0C  502C               	movf	??i2___fltol^0,w,c
  9314  001B0E  6E30               	movwf	i2___fltol@sign1^0,c
  9315  001B10  8E2A               	bsf	(i2___fltol@f1+2)^0,7,c
  9316  001B12  0EFF               	movlw	255
  9317  001B14  1628               	andwf	i2___fltol@f1^0,f,c
  9318  001B16  0EFF               	movlw	255
  9319  001B18  1629               	andwf	(i2___fltol@f1+1)^0,f,c
  9320  001B1A  0EFF               	movlw	255
  9321  001B1C  162A               	andwf	(i2___fltol@f1+2)^0,f,c
  9322  001B1E  0E00               	movlw	0
  9323  001B20  162B               	andwf	(i2___fltol@f1+3)^0,f,c
  9324  001B22  0E96               	movlw	150
  9325  001B24  5E31               	subwf	i2___fltol@exp1^0,f,c
  9326  001B26  BE31               	btfsc	i2___fltol@exp1^0,7,c
  9327  001B28  EF9A  F00D         	goto	i2u246_40
  9328  001B2C  EF98  F00D         	goto	i2u246_41
  9329  001B30                     i2u246_41:
  9330  001B30  EFB0  F00D         	goto	i2l3760
  9331  001B34                     i2u246_40:
  9332  001B34  5031               	movf	i2___fltol@exp1^0,w,c
  9333  001B36  0A80               	xorlw	128
  9334  001B38  0F97               	addlw	151
  9335  001B3A  B0D8               	btfsc	status,0,c
  9336  001B3C  EFA2  F00D         	goto	i2u247_41
  9337  001B40  EFA4  F00D         	goto	i2u247_40
  9338  001B44                     i2u247_41:
  9339  001B44  EFA6  F00D         	goto	i2l3756
  9340  001B48                     i2u247_40:
  9341  001B48  EF69  F00D         	goto	i2l3736
  9342  001B4C                     i2l3756:
  9343  001B4C  90D8               	bcf	status,0,c
  9344  001B4E  322B               	rrcf	(i2___fltol@f1+3)^0,f,c
  9345  001B50  322A               	rrcf	(i2___fltol@f1+2)^0,f,c
  9346  001B52  3229               	rrcf	(i2___fltol@f1+1)^0,f,c
  9347  001B54  3228               	rrcf	i2___fltol@f1^0,f,c
  9348  001B56  3E31               	incfsz	i2___fltol@exp1^0,f,c
  9349  001B58  EFA6  F00D         	goto	i2l3756
  9350  001B5C  EFC8  F00D         	goto	i2l3770
  9351  001B60                     i2l3760:
  9352  001B60  0E1F               	movlw	31
  9353  001B62  6431               	cpfsgt	i2___fltol@exp1^0,c
  9354  001B64  EFB6  F00D         	goto	i2u248_41
  9355  001B68  EFB8  F00D         	goto	i2u248_40
  9356  001B6C                     i2u248_41:
  9357  001B6C  EFC0  F00D         	goto	i2l3768
  9358  001B70                     i2u248_40:
  9359  001B70  EF69  F00D         	goto	i2l3736
  9360  001B74                     i2l3766:
  9361  001B74  90D8               	bcf	status,0,c
  9362  001B76  3628               	rlcf	i2___fltol@f1^0,f,c
  9363  001B78  3629               	rlcf	(i2___fltol@f1+1)^0,f,c
  9364  001B7A  362A               	rlcf	(i2___fltol@f1+2)^0,f,c
  9365  001B7C  362B               	rlcf	(i2___fltol@f1+3)^0,f,c
  9366  001B7E  0631               	decf	i2___fltol@exp1^0,f,c
  9367  001B80                     i2l3768:
  9368  001B80  5031               	movf	i2___fltol@exp1^0,w,c
  9369  001B82  A4D8               	btfss	status,2,c
  9370  001B84  EFC6  F00D         	goto	i2u249_41
  9371  001B88  EFC8  F00D         	goto	i2u249_40
  9372  001B8C                     i2u249_41:
  9373  001B8C  EFBA  F00D         	goto	i2l3766
  9374  001B90                     i2u249_40:
  9375  001B90                     i2l3770:
  9376  001B90  5030               	movf	i2___fltol@sign1^0,w,c
  9377  001B92  B4D8               	btfsc	status,2,c
  9378  001B94  EFCE  F00D         	goto	i2u250_41
  9379  001B98  EFD0  F00D         	goto	i2u250_40
  9380  001B9C                     i2u250_41:
  9381  001B9C  EFD8  F00D         	goto	i2l3774
  9382  001BA0                     i2u250_40:
  9383  001BA0  1E2B               	comf	(i2___fltol@f1+3)^0,f,c
  9384  001BA2  1E2A               	comf	(i2___fltol@f1+2)^0,f,c
  9385  001BA4  1E29               	comf	(i2___fltol@f1+1)^0,f,c
  9386  001BA6  6C28               	negf	i2___fltol@f1^0,c
  9387  001BA8  0E00               	movlw	0
  9388  001BAA  2229               	addwfc	(i2___fltol@f1+1)^0,f,c
  9389  001BAC  222A               	addwfc	(i2___fltol@f1+2)^0,f,c
  9390  001BAE  222B               	addwfc	(i2___fltol@f1+3)^0,f,c
  9391  001BB0                     i2l3774:
  9392  001BB0  C028  F028         	movff	i2___fltol@f1,?i2___fltol
  9393  001BB4  C029  F029         	movff	i2___fltol@f1+1,?i2___fltol+1
  9394  001BB8  C02A  F02A         	movff	i2___fltol@f1+2,?i2___fltol+2
  9395  001BBC  C02B  F02B         	movff	i2___fltol@f1+3,?i2___fltol+3
  9396  001BC0                     i2l1050:
  9397  001BC0  0012               	return		;funcret
  9398  001BC2                     __end_ofi2___fltol:
  9399                           	opt callstack 0
  9400                           
  9401 ;; *************** function i2___fldiv *****************
  9402 ;; Defined at:
  9403 ;;		line 11 in file "C:\Program Files (x86)\Microchip\xc8\v2.10\pic\sources\c99\common\sprcdiv.c"
  9404 ;; Parameters:    Size  Location     Type
  9405 ;;  b               4   14[COMRAM] long 
  9406 ;;  a               4   18[COMRAM] long 
  9407 ;; Auto vars:     Size  Location     Type
  9408 ;;  __fldiv         4   33[COMRAM] unsigned long 
  9409 ;;  __fldiv         4   26[COMRAM] unsigned long 
  9410 ;;  __fldiv         2   31[COMRAM] short 
  9411 ;;  __fldiv         1   38[COMRAM] unsigned char 
  9412 ;;  __fldiv         1   37[COMRAM] unsigned char 
  9413 ;;  __fldiv         1   30[COMRAM] unsigned char 
  9414 ;; Return value:  Size  Location     Type
  9415 ;;                  4   14[COMRAM] unsigned char 
  9416 ;; Registers used:
  9417 ;;		wreg, status,2, status,0
  9418 ;; Tracked objects:
  9419 ;;		On entry : 0/0
  9420 ;;		On exit  : 0/0
  9421 ;;		Unchanged: 0/0
  9422 ;; Data sizes:     COMRAM   BANK0   BANK1   BANK2   BANK3   BANK4   BANK5   BANK6   BANK7
  9423 ;;      Params:         8       0       0       0       0       0       0       0       0
  9424 ;;      Locals:        13       0       0       0       0       0       0       0       0
  9425 ;;      Temps:          4       0       0       0       0       0       0       0       0
  9426 ;;      Totals:        25       0       0       0       0       0       0       0       0
  9427 ;;Total ram usage:       25 bytes
  9428 ;; Hardware stack levels used:    1
  9429 ;; This function calls:
  9430 ;;		Nothing
  9431 ;; This function is called by:
  9432 ;;		i2_Motor_Conversion
  9433 ;; This function uses a non-reentrant model
  9434 ;;
  9435                           
  9436                           	psect	text50
  9437  0007BA                     __ptext50:
  9438                           	opt callstack 0
  9439  0007BA                     i2___fldiv:
  9440                           	opt callstack 22
  9441  0007BA  5012               	movf	(i2___fldiv@b+3)^0,w,c
  9442  0007BC  0B80               	andlw	128
  9443  0007BE  6E1F               	movwf	i2___fldiv@sign^0,c
  9444  0007C0  5012               	movf	(i2___fldiv@b+3)^0,w,c
  9445  0007C2  2412               	addwf	(i2___fldiv@b+3)^0,w,c
  9446  0007C4  6E26               	movwf	i2___fldiv@bexp^0,c
  9447  0007C6  AE11               	btfss	(i2___fldiv@b+2)^0,7,c
  9448  0007C8  EFE8  F003         	goto	i2u251_41
  9449  0007CC  EFEA  F003         	goto	i2u251_40
  9450  0007D0                     i2u251_41:
  9451  0007D0  EFEB  F003         	goto	i2l3784
  9452  0007D4                     i2u251_40:
  9453  0007D4  8026               	bsf	i2___fldiv@bexp^0,0,c
  9454  0007D6                     i2l3784:
  9455  0007D6  5026               	movf	i2___fldiv@bexp^0,w,c
  9456  0007D8  B4D8               	btfsc	status,2,c
  9457  0007DA  EFF1  F003         	goto	i2u252_41
  9458  0007DE  EFF3  F003         	goto	i2u252_40
  9459  0007E2                     i2u252_41:
  9460  0007E2  EF08  F004         	goto	i2l3794
  9461  0007E6                     i2u252_40:
  9462  0007E6  2826               	incf	i2___fldiv@bexp^0,w,c
  9463  0007E8  A4D8               	btfss	status,2,c
  9464  0007EA  EFF9  F003         	goto	i2u253_41
  9465  0007EE  EFFB  F003         	goto	i2u253_40
  9466  0007F2                     i2u253_41:
  9467  0007F2  EF03  F004         	goto	i2l3790
  9468  0007F6                     i2u253_40:
  9469  0007F6  0E00               	movlw	0
  9470  0007F8  6E0F               	movwf	i2___fldiv@b^0,c
  9471  0007FA  0E00               	movlw	0
  9472  0007FC  6E10               	movwf	(i2___fldiv@b+1)^0,c
  9473  0007FE  0E00               	movlw	0
  9474  000800  6E11               	movwf	(i2___fldiv@b+2)^0,c
  9475  000802  0E00               	movlw	0
  9476  000804  6E12               	movwf	(i2___fldiv@b+3)^0,c
  9477  000806                     i2l3790:
  9478  000806  8E11               	bsf	(i2___fldiv@b+2)^0,7,c
  9479  000808  0E00               	movlw	0
  9480  00080A  6E12               	movwf	(i2___fldiv@b+3)^0,c
  9481  00080C  EF10  F004         	goto	i2l3796
  9482  000810                     i2l3794:
  9483  000810  0E00               	movlw	0
  9484  000812  6E0F               	movwf	i2___fldiv@b^0,c
  9485  000814  0E00               	movlw	0
  9486  000816  6E10               	movwf	(i2___fldiv@b+1)^0,c
  9487  000818  0E00               	movlw	0
  9488  00081A  6E11               	movwf	(i2___fldiv@b+2)^0,c
  9489  00081C  0E00               	movlw	0
  9490  00081E  6E12               	movwf	(i2___fldiv@b+3)^0,c
  9491  000820                     i2l3796:
  9492  000820  5016               	movf	(i2___fldiv@a+3)^0,w,c
  9493  000822  0B80               	andlw	128
  9494  000824  1A1F               	xorwf	i2___fldiv@sign^0,f,c
  9495  000826  5016               	movf	(i2___fldiv@a+3)^0,w,c
  9496  000828  2416               	addwf	(i2___fldiv@a+3)^0,w,c
  9497  00082A  6E27               	movwf	i2___fldiv@aexp^0,c
  9498  00082C  AE15               	btfss	(i2___fldiv@a+2)^0,7,c
  9499  00082E  EF1B  F004         	goto	i2u254_41
  9500  000832  EF1D  F004         	goto	i2u254_40
  9501  000836                     i2u254_41:
  9502  000836  EF1E  F004         	goto	i2l3804
  9503  00083A                     i2u254_40:
  9504  00083A  8027               	bsf	i2___fldiv@aexp^0,0,c
  9505  00083C                     i2l3804:
  9506  00083C  5027               	movf	i2___fldiv@aexp^0,w,c
  9507  00083E  B4D8               	btfsc	status,2,c
  9508  000840  EF24  F004         	goto	i2u255_41
  9509  000844  EF26  F004         	goto	i2u255_40
  9510  000848                     i2u255_41:
  9511  000848  EF3B  F004         	goto	i2l3814
  9512  00084C                     i2u255_40:
  9513  00084C  2827               	incf	i2___fldiv@aexp^0,w,c
  9514  00084E  A4D8               	btfss	status,2,c
  9515  000850  EF2C  F004         	goto	i2u256_41
  9516  000854  EF2E  F004         	goto	i2u256_40
  9517  000858                     i2u256_41:
  9518  000858  EF36  F004         	goto	i2l3810
  9519  00085C                     i2u256_40:
  9520  00085C  0E00               	movlw	0
  9521  00085E  6E13               	movwf	i2___fldiv@a^0,c
  9522  000860  0E00               	movlw	0
  9523  000862  6E14               	movwf	(i2___fldiv@a+1)^0,c
  9524  000864  0E00               	movlw	0
  9525  000866  6E15               	movwf	(i2___fldiv@a+2)^0,c
  9526  000868  0E00               	movlw	0
  9527  00086A  6E16               	movwf	(i2___fldiv@a+3)^0,c
  9528  00086C                     i2l3810:
  9529  00086C  8E15               	bsf	(i2___fldiv@a+2)^0,7,c
  9530  00086E  0E00               	movlw	0
  9531  000870  6E16               	movwf	(i2___fldiv@a+3)^0,c
  9532  000872  EF43  F004         	goto	i2l3816
  9533  000876                     i2l3814:
  9534  000876  0E00               	movlw	0
  9535  000878  6E13               	movwf	i2___fldiv@a^0,c
  9536  00087A  0E00               	movlw	0
  9537  00087C  6E14               	movwf	(i2___fldiv@a+1)^0,c
  9538  00087E  0E00               	movlw	0
  9539  000880  6E15               	movwf	(i2___fldiv@a+2)^0,c
  9540  000882  0E00               	movlw	0
  9541  000884  6E16               	movwf	(i2___fldiv@a+3)^0,c
  9542  000886                     i2l3816:
  9543  000886  5013               	movf	i2___fldiv@a^0,w,c
  9544  000888  1014               	iorwf	(i2___fldiv@a+1)^0,w,c
  9545  00088A  1015               	iorwf	(i2___fldiv@a+2)^0,w,c
  9546  00088C  1016               	iorwf	(i2___fldiv@a+3)^0,w,c
  9547  00088E  A4D8               	btfss	status,2,c
  9548  000890  EF4C  F004         	goto	i2u257_41
  9549  000894  EF4E  F004         	goto	i2u257_40
  9550  000898                     i2u257_41:
  9551  000898  EF66  F004         	goto	i2l3828
  9552  00089C                     i2u257_40:
  9553  00089C  0E00               	movlw	0
  9554  00089E  6E0F               	movwf	i2___fldiv@b^0,c
  9555  0008A0  0E00               	movlw	0
  9556  0008A2  6E10               	movwf	(i2___fldiv@b+1)^0,c
  9557  0008A4  0E00               	movlw	0
  9558  0008A6  6E11               	movwf	(i2___fldiv@b+2)^0,c
  9559  0008A8  0E00               	movlw	0
  9560  0008AA  6E12               	movwf	(i2___fldiv@b+3)^0,c
  9561  0008AC  0E80               	movlw	128
  9562  0008AE  1211               	iorwf	(i2___fldiv@b+2)^0,f,c
  9563  0008B0  0E7F               	movlw	127
  9564  0008B2  1212               	iorwf	(i2___fldiv@b+3)^0,f,c
  9565  0008B4                     i2l3822:
  9566  0008B4  501F               	movf	i2___fldiv@sign^0,w,c
  9567  0008B6  1212               	iorwf	(i2___fldiv@b+3)^0,f,c
  9568  0008B8  C00F  F00F         	movff	i2___fldiv@b,?i2___fldiv
  9569  0008BC  C010  F010         	movff	i2___fldiv@b+1,?i2___fldiv+1
  9570  0008C0  C011  F011         	movff	i2___fldiv@b+2,?i2___fldiv+2
  9571  0008C4  C012  F012         	movff	i2___fldiv@b+3,?i2___fldiv+3
  9572  0008C8  EFA9  F005         	goto	i2l1335
  9573  0008CC                     i2l3828:
  9574  0008CC  5026               	movf	i2___fldiv@bexp^0,w,c
  9575  0008CE  A4D8               	btfss	status,2,c
  9576  0008D0  EF6C  F004         	goto	i2u258_41
  9577  0008D4  EF6E  F004         	goto	i2u258_40
  9578  0008D8                     i2u258_41:
  9579  0008D8  EF78  F004         	goto	i2l3836
  9580  0008DC                     i2u258_40:
  9581  0008DC  0E00               	movlw	0
  9582  0008DE  6E0F               	movwf	?i2___fldiv^0,c
  9583  0008E0  0E00               	movlw	0
  9584  0008E2  6E10               	movwf	(?i2___fldiv+1)^0,c
  9585  0008E4  0E00               	movlw	0
  9586  0008E6  6E11               	movwf	(?i2___fldiv+2)^0,c
  9587  0008E8  0E00               	movlw	0
  9588  0008EA  6E12               	movwf	(?i2___fldiv+3)^0,c
  9589  0008EC  EFA9  F005         	goto	i2l1335
  9590  0008F0                     i2l3836:
  9591  0008F0  5027               	movf	i2___fldiv@aexp^0,w,c
  9592  0008F2  C026  F017         	movff	i2___fldiv@bexp,??i2___fldiv
  9593  0008F6  6A18               	clrf	(??i2___fldiv+1)^0,c
  9594  0008F8  5E17               	subwf	??i2___fldiv^0,f,c
  9595  0008FA  0E00               	movlw	0
  9596  0008FC  5A18               	subwfb	(??i2___fldiv+1)^0,f,c
  9597  0008FE  0E7F               	movlw	127
  9598  000900  2417               	addwf	??i2___fldiv^0,w,c
  9599  000902  6E20               	movwf	i2___fldiv@new_exp^0,c
  9600  000904  0E00               	movlw	0
  9601  000906  2018               	addwfc	(??i2___fldiv+1)^0,w,c
  9602  000908  6E21               	movwf	(i2___fldiv@new_exp+1)^0,c
  9603  00090A  C00F  F01B         	movff	i2___fldiv@b,i2___fldiv@rem
  9604  00090E  C010  F01C         	movff	i2___fldiv@b+1,i2___fldiv@rem+1
  9605  000912  C011  F01D         	movff	i2___fldiv@b+2,i2___fldiv@rem+2
  9606  000916  C012  F01E         	movff	i2___fldiv@b+3,i2___fldiv@rem+3
  9607  00091A  0E00               	movlw	0
  9608  00091C  6E0F               	movwf	i2___fldiv@b^0,c
  9609  00091E  0E00               	movlw	0
  9610  000920  6E10               	movwf	(i2___fldiv@b+1)^0,c
  9611  000922  0E00               	movlw	0
  9612  000924  6E11               	movwf	(i2___fldiv@b+2)^0,c
  9613  000926  0E00               	movlw	0
  9614  000928  6E12               	movwf	(i2___fldiv@b+3)^0,c
  9615  00092A  0E00               	movlw	0
  9616  00092C  6E22               	movwf	i2___fldiv@grs^0,c
  9617  00092E  0E00               	movlw	0
  9618  000930  6E23               	movwf	(i2___fldiv@grs+1)^0,c
  9619  000932  0E00               	movlw	0
  9620  000934  6E24               	movwf	(i2___fldiv@grs+2)^0,c
  9621  000936  0E00               	movlw	0
  9622  000938  6E25               	movwf	(i2___fldiv@grs+3)^0,c
  9623  00093A  0E00               	movlw	0
  9624  00093C  6E27               	movwf	i2___fldiv@aexp^0,c
  9625  00093E  EFD9  F004         	goto	i2l1337
  9626  000942                     i2l3846:
  9627  000942  5027               	movf	i2___fldiv@aexp^0,w,c
  9628  000944  B4D8               	btfsc	status,2,c
  9629  000946  EFA7  F004         	goto	i2u259_41
  9630  00094A  EFA9  F004         	goto	i2u259_40
  9631  00094E                     i2u259_41:
  9632  00094E  EFC0  F004         	goto	i2l3854
  9633  000952                     i2u259_40:
  9634  000952  90D8               	bcf	status,0,c
  9635  000954  361B               	rlcf	i2___fldiv@rem^0,f,c
  9636  000956  361C               	rlcf	(i2___fldiv@rem+1)^0,f,c
  9637  000958  361D               	rlcf	(i2___fldiv@rem+2)^0,f,c
  9638  00095A  361E               	rlcf	(i2___fldiv@rem+3)^0,f,c
  9639  00095C  90D8               	bcf	status,0,c
  9640  00095E  360F               	rlcf	i2___fldiv@b^0,f,c
  9641  000960  3610               	rlcf	(i2___fldiv@b+1)^0,f,c
  9642  000962  3611               	rlcf	(i2___fldiv@b+2)^0,f,c
  9643  000964  3612               	rlcf	(i2___fldiv@b+3)^0,f,c
  9644  000966  AE25               	btfss	(i2___fldiv@grs+3)^0,7,c
  9645  000968  EFB8  F004         	goto	i2u260_41
  9646  00096C  EFBA  F004         	goto	i2u260_40
  9647  000970                     i2u260_41:
  9648  000970  EFBB  F004         	goto	i2l1340
  9649  000974                     i2u260_40:
  9650  000974  800F               	bsf	i2___fldiv@b^0,0,c
  9651  000976                     i2l1340:
  9652  000976  90D8               	bcf	status,0,c
  9653  000978  3622               	rlcf	i2___fldiv@grs^0,f,c
  9654  00097A  3623               	rlcf	(i2___fldiv@grs+1)^0,f,c
  9655  00097C  3624               	rlcf	(i2___fldiv@grs+2)^0,f,c
  9656  00097E  3625               	rlcf	(i2___fldiv@grs+3)^0,f,c
  9657  000980                     i2l3854:
  9658  000980  5013               	movf	i2___fldiv@a^0,w,c
  9659  000982  5C1B               	subwf	i2___fldiv@rem^0,w,c
  9660  000984  5014               	movf	(i2___fldiv@a+1)^0,w,c
  9661  000986  581C               	subwfb	(i2___fldiv@rem+1)^0,w,c
  9662  000988  5015               	movf	(i2___fldiv@a+2)^0,w,c
  9663  00098A  581D               	subwfb	(i2___fldiv@rem+2)^0,w,c
  9664  00098C  5016               	movf	(i2___fldiv@a+3)^0,w,c
  9665  00098E  581E               	subwfb	(i2___fldiv@rem+3)^0,w,c
  9666  000990  A0D8               	btfss	status,0,c
  9667  000992  EFCD  F004         	goto	i2u261_41
  9668  000996  EFCF  F004         	goto	i2u261_40
  9669  00099A                     i2u261_41:
  9670  00099A  EFD8  F004         	goto	i2l3860
  9671  00099E                     i2u261_40:
  9672  00099E  8C25               	bsf	(i2___fldiv@grs+3)^0,6,c
  9673  0009A0  5013               	movf	i2___fldiv@a^0,w,c
  9674  0009A2  5E1B               	subwf	i2___fldiv@rem^0,f,c
  9675  0009A4  5014               	movf	(i2___fldiv@a+1)^0,w,c
  9676  0009A6  5A1C               	subwfb	(i2___fldiv@rem+1)^0,f,c
  9677  0009A8  5015               	movf	(i2___fldiv@a+2)^0,w,c
  9678  0009AA  5A1D               	subwfb	(i2___fldiv@rem+2)^0,f,c
  9679  0009AC  5016               	movf	(i2___fldiv@a+3)^0,w,c
  9680  0009AE  5A1E               	subwfb	(i2___fldiv@rem+3)^0,f,c
  9681  0009B0                     i2l3860:
  9682  0009B0  2A27               	incf	i2___fldiv@aexp^0,f,c
  9683  0009B2                     i2l1337:
  9684  0009B2  0E19               	movlw	25
  9685  0009B4  6427               	cpfsgt	i2___fldiv@aexp^0,c
  9686  0009B6  EFDF  F004         	goto	i2u262_41
  9687  0009BA  EFE1  F004         	goto	i2u262_40
  9688  0009BE                     i2u262_41:
  9689  0009BE  EFA1  F004         	goto	i2l3846
  9690  0009C2                     i2u262_40:
  9691  0009C2  501B               	movf	i2___fldiv@rem^0,w,c
  9692  0009C4  101C               	iorwf	(i2___fldiv@rem+1)^0,w,c
  9693  0009C6  101D               	iorwf	(i2___fldiv@rem+2)^0,w,c
  9694  0009C8  101E               	iorwf	(i2___fldiv@rem+3)^0,w,c
  9695  0009CA  B4D8               	btfsc	status,2,c
  9696  0009CC  EFEA  F004         	goto	i2u263_41
  9697  0009D0  EFEC  F004         	goto	i2u263_40
  9698  0009D4                     i2u263_41:
  9699  0009D4  EF04  F005         	goto	i2l3872
  9700  0009D8                     i2u263_40:
  9701  0009D8  8022               	bsf	i2___fldiv@grs^0,0,c
  9702  0009DA  EF04  F005         	goto	i2l3872
  9703  0009DE                     i2l3866:
  9704  0009DE  90D8               	bcf	status,0,c
  9705  0009E0  360F               	rlcf	i2___fldiv@b^0,f,c
  9706  0009E2  3610               	rlcf	(i2___fldiv@b+1)^0,f,c
  9707  0009E4  3611               	rlcf	(i2___fldiv@b+2)^0,f,c
  9708  0009E6  3612               	rlcf	(i2___fldiv@b+3)^0,f,c
  9709  0009E8  AE25               	btfss	(i2___fldiv@grs+3)^0,7,c
  9710  0009EA  EFF9  F004         	goto	i2u264_41
  9711  0009EE  EFFB  F004         	goto	i2u264_40
  9712  0009F2                     i2u264_41:
  9713  0009F2  EFFC  F004         	goto	i2l1346
  9714  0009F6                     i2u264_40:
  9715  0009F6  800F               	bsf	i2___fldiv@b^0,0,c
  9716  0009F8                     i2l1346:
  9717  0009F8  90D8               	bcf	status,0,c
  9718  0009FA  3622               	rlcf	i2___fldiv@grs^0,f,c
  9719  0009FC  3623               	rlcf	(i2___fldiv@grs+1)^0,f,c
  9720  0009FE  3624               	rlcf	(i2___fldiv@grs+2)^0,f,c
  9721  000A00  3625               	rlcf	(i2___fldiv@grs+3)^0,f,c
  9722  000A02  0620               	decf	i2___fldiv@new_exp^0,f,c
  9723  000A04  A0D8               	btfss	status,0,c
  9724  000A06  0621               	decf	(i2___fldiv@new_exp+1)^0,f,c
  9725  000A08                     i2l3872:
  9726  000A08  AE11               	btfss	(i2___fldiv@b+2)^0,7,c
  9727  000A0A  EF09  F005         	goto	i2u265_41
  9728  000A0E  EF0B  F005         	goto	i2u265_40
  9729  000A12                     i2u265_41:
  9730  000A12  EFEF  F004         	goto	i2l3866
  9731  000A16                     i2u265_40:
  9732  000A16  0E00               	movlw	0
  9733  000A18  6E27               	movwf	i2___fldiv@aexp^0,c
  9734  000A1A  AE25               	btfss	(i2___fldiv@grs+3)^0,7,c
  9735  000A1C  EF12  F005         	goto	i2u266_41
  9736  000A20  EF14  F005         	goto	i2u266_40
  9737  000A24                     i2u266_41:
  9738  000A24  EF38  F005         	goto	i2l1348
  9739  000A28                     i2u266_40:
  9740  000A28  0EFF               	movlw	255
  9741  000A2A  1422               	andwf	i2___fldiv@grs^0,w,c
  9742  000A2C  6E17               	movwf	??i2___fldiv^0,c
  9743  000A2E  0EFF               	movlw	255
  9744  000A30  1423               	andwf	(i2___fldiv@grs+1)^0,w,c
  9745  000A32  6E18               	movwf	(??i2___fldiv+1)^0,c
  9746  000A34  0EFF               	movlw	255
  9747  000A36  1424               	andwf	(i2___fldiv@grs+2)^0,w,c
  9748  000A38  6E19               	movwf	(??i2___fldiv+2)^0,c
  9749  000A3A  0E7F               	movlw	127
  9750  000A3C  1425               	andwf	(i2___fldiv@grs+3)^0,w,c
  9751  000A3E  6E1A               	movwf	(??i2___fldiv+3)^0,c
  9752  000A40  5017               	movf	??i2___fldiv^0,w,c
  9753  000A42  1018               	iorwf	(??i2___fldiv+1)^0,w,c
  9754  000A44  1019               	iorwf	(??i2___fldiv+2)^0,w,c
  9755  000A46  101A               	iorwf	(??i2___fldiv+3)^0,w,c
  9756  000A48  B4D8               	btfsc	status,2,c
  9757  000A4A  EF29  F005         	goto	i2u267_41
  9758  000A4E  EF2B  F005         	goto	i2u267_40
  9759  000A52                     i2u267_41:
  9760  000A52  EF2F  F005         	goto	i2l1349
  9761  000A56                     i2u267_40:
  9762  000A56                     i2l3880:
  9763  000A56  0E01               	movlw	1
  9764  000A58  6E27               	movwf	i2___fldiv@aexp^0,c
  9765  000A5A  EF38  F005         	goto	i2l1348
  9766  000A5E                     i2l1349:
  9767  000A5E  A00F               	btfss	i2___fldiv@b^0,0,c
  9768  000A60  EF34  F005         	goto	i2u268_41
  9769  000A64  EF36  F005         	goto	i2u268_40
  9770  000A68                     i2u268_41:
  9771  000A68  EF38  F005         	goto	i2l1348
  9772  000A6C                     i2u268_40:
  9773  000A6C  EF2B  F005         	goto	i2l3880
  9774  000A70                     i2l1348:
  9775  000A70  5027               	movf	i2___fldiv@aexp^0,w,c
  9776  000A72  B4D8               	btfsc	status,2,c
  9777  000A74  EF3E  F005         	goto	i2u269_41
  9778  000A78  EF40  F005         	goto	i2u269_40
  9779  000A7C                     i2u269_41:
  9780  000A7C  EF64  F005         	goto	i2l3892
  9781  000A80                     i2u269_40:
  9782  000A80  0E01               	movlw	1
  9783  000A82  260F               	addwf	i2___fldiv@b^0,f,c
  9784  000A84  0E00               	movlw	0
  9785  000A86  2210               	addwfc	(i2___fldiv@b+1)^0,f,c
  9786  000A88  2211               	addwfc	(i2___fldiv@b+2)^0,f,c
  9787  000A8A  2212               	addwfc	(i2___fldiv@b+3)^0,f,c
  9788  000A8C  A012               	btfss	(i2___fldiv@b+3)^0,0,c
  9789  000A8E  EF4B  F005         	goto	i2u270_41
  9790  000A92  EF4D  F005         	goto	i2u270_40
  9791  000A96                     i2u270_41:
  9792  000A96  EF64  F005         	goto	i2l3892
  9793  000A9A                     i2u270_40:
  9794  000A9A  C00F  F017         	movff	i2___fldiv@b,??i2___fldiv
  9795  000A9E  C010  F018         	movff	i2___fldiv@b+1,??i2___fldiv+1
  9796  000AA2  C011  F019         	movff	i2___fldiv@b+2,??i2___fldiv+2
  9797  000AA6  C012  F01A         	movff	i2___fldiv@b+3,??i2___fldiv+3
  9798  000AAA  341A               	rlcf	(??i2___fldiv+3)^0,w,c
  9799  000AAC  321A               	rrcf	(??i2___fldiv+3)^0,f,c
  9800  000AAE  3219               	rrcf	(??i2___fldiv+2)^0,f,c
  9801  000AB0  3218               	rrcf	(??i2___fldiv+1)^0,f,c
  9802  000AB2  3217               	rrcf	??i2___fldiv^0,f,c
  9803  000AB4  C017  F00F         	movff	??i2___fldiv,i2___fldiv@b
  9804  000AB8  C018  F010         	movff	??i2___fldiv+1,i2___fldiv@b+1
  9805  000ABC  C019  F011         	movff	??i2___fldiv+2,i2___fldiv@b+2
  9806  000AC0  C01A  F012         	movff	??i2___fldiv+3,i2___fldiv@b+3
  9807  000AC4  4A20               	infsnz	i2___fldiv@new_exp^0,f,c
  9808  000AC6  2A21               	incf	(i2___fldiv@new_exp+1)^0,f,c
  9809  000AC8                     i2l3892:
  9810  000AC8  BE21               	btfsc	(i2___fldiv@new_exp+1)^0,7,c
  9811  000ACA  EF6F  F005         	goto	i2u271_41
  9812  000ACE  5021               	movf	(i2___fldiv@new_exp+1)^0,w,c
  9813  000AD0  E108               	bnz	i2u271_40
  9814  000AD2  2820               	incf	i2___fldiv@new_exp^0,w,c
  9815  000AD4  A0D8               	btfss	status,0,c
  9816  000AD6  EF6F  F005         	goto	i2u271_41
  9817  000ADA  EF71  F005         	goto	i2u271_40
  9818  000ADE                     i2u271_41:
  9819  000ADE  EF7C  F005         	goto	i2l3896
  9820  000AE2                     i2u271_40:
  9821  000AE2  0E00               	movlw	0
  9822  000AE4  6E21               	movwf	(i2___fldiv@new_exp+1)^0,c
  9823  000AE6  6820               	setf	i2___fldiv@new_exp^0,c
  9824  000AE8  0E00               	movlw	0
  9825  000AEA  6E0F               	movwf	i2___fldiv@b^0,c
  9826  000AEC  0E00               	movlw	0
  9827  000AEE  6E10               	movwf	(i2___fldiv@b+1)^0,c
  9828  000AF0  0E00               	movlw	0
  9829  000AF2  6E11               	movwf	(i2___fldiv@b+2)^0,c
  9830  000AF4  0E00               	movlw	0
  9831  000AF6  6E12               	movwf	(i2___fldiv@b+3)^0,c
  9832  000AF8                     i2l3896:
  9833  000AF8  BE21               	btfsc	(i2___fldiv@new_exp+1)^0,7,c
  9834  000AFA  EF89  F005         	goto	i2u272_40
  9835  000AFE  5021               	movf	(i2___fldiv@new_exp+1)^0,w,c
  9836  000B00  E106               	bnz	i2u272_41
  9837  000B02  0420               	decf	i2___fldiv@new_exp^0,w,c
  9838  000B04  B0D8               	btfsc	status,0,c
  9839  000B06  EF87  F005         	goto	i2u272_41
  9840  000B0A  EF89  F005         	goto	i2u272_40
  9841  000B0E                     i2u272_41:
  9842  000B0E  EF97  F005         	goto	i2l3900
  9843  000B12                     i2u272_40:
  9844  000B12  0E00               	movlw	0
  9845  000B14  6E21               	movwf	(i2___fldiv@new_exp+1)^0,c
  9846  000B16  0E00               	movlw	0
  9847  000B18  6E20               	movwf	i2___fldiv@new_exp^0,c
  9848  000B1A  0E00               	movlw	0
  9849  000B1C  6E0F               	movwf	i2___fldiv@b^0,c
  9850  000B1E  0E00               	movlw	0
  9851  000B20  6E10               	movwf	(i2___fldiv@b+1)^0,c
  9852  000B22  0E00               	movlw	0
  9853  000B24  6E11               	movwf	(i2___fldiv@b+2)^0,c
  9854  000B26  0E00               	movlw	0
  9855  000B28  6E12               	movwf	(i2___fldiv@b+3)^0,c
  9856  000B2A  0E00               	movlw	0
  9857  000B2C  6E1F               	movwf	i2___fldiv@sign^0,c
  9858  000B2E                     i2l3900:
  9859  000B2E  C020  F026         	movff	i2___fldiv@new_exp,i2___fldiv@bexp
  9860  000B32  A026               	btfss	i2___fldiv@bexp^0,0,c
  9861  000B34  EF9E  F005         	goto	i2u273_41
  9862  000B38  EFA0  F005         	goto	i2u273_40
  9863  000B3C                     i2u273_41:
  9864  000B3C  EFA3  F005         	goto	i2l3906
  9865  000B40                     i2u273_40:
  9866  000B40  8E11               	bsf	(i2___fldiv@b+2)^0,7,c
  9867  000B42  EFA4  F005         	goto	i2l3908
  9868  000B46                     i2l3906:
  9869  000B46  9E11               	bcf	(i2___fldiv@b+2)^0,7,c
  9870  000B48                     i2l3908:
  9871  000B48  90D8               	bcf	status,0,c
  9872  000B4A  3026               	rrcf	i2___fldiv@bexp^0,w,c
  9873  000B4C  6E12               	movwf	(i2___fldiv@b+3)^0,c
  9874  000B4E  EF5A  F004         	goto	i2l3822
  9875  000B52                     i2l1335:
  9876  000B52  0012               	return		;funcret
  9877  000B54                     __end_ofi2___fldiv:
  9878                           	opt callstack 0
  9879                           
  9880 ;; *************** function _INT0_ACTION *****************
  9881 ;; Defined at:
  9882 ;;		line 67 in file "main.c"
  9883 ;; Parameters:    Size  Location     Type
  9884 ;;		None
  9885 ;; Auto vars:     Size  Location     Type
  9886 ;;		None
  9887 ;; Return value:  Size  Location     Type
  9888 ;;                  1    wreg      void 
  9889 ;; Registers used:
  9890 ;;		wreg, status,2, cstack
  9891 ;; Tracked objects:
  9892 ;;		On entry : 0/0
  9893 ;;		On exit  : 0/0
  9894 ;;		Unchanged: 0/0
  9895 ;; Data sizes:     COMRAM   BANK0   BANK1   BANK2   BANK3   BANK4   BANK5   BANK6   BANK7
  9896 ;;      Params:         0       0       0       0       0       0       0       0       0
  9897 ;;      Locals:         0       0       0       0       0       0       0       0       0
  9898 ;;      Temps:          0       0       0       0       0       0       0       0       0
  9899 ;;      Totals:         0       0       0       0       0       0       0       0       0
  9900 ;;Total ram usage:        0 bytes
  9901 ;; Hardware stack levels used:    1
  9902 ;; Hardware stack levels required when called:    3
  9903 ;; This function calls:
  9904 ;;		i2_main_Home
  9905 ;; This function is called by:
  9906 ;;		_INT_isr
  9907 ;; This function uses a non-reentrant model
  9908 ;;
  9909                           
  9910                           	psect	text51
  9911  002736                     __ptext51:
  9912                           	opt callstack 0
  9913  002736                     _INT0_ACTION:
  9914                           	opt callstack 22
  9915  002736                     
  9916                           ;main.c: 68:     main_Home();
  9917  002736  EC01  F012         	call	i2_main_Home	;wreg free
  9918  00273A                     
  9919                           ;main.c: 69:  coordenada_anteriorX=0;
  9920  00273A  0E00               	movlw	0
  9921  00273C  0100               	movlb	0	; () banked
  9922  00273E  6FA7               	movwf	(_coordenada_anteriorX+1)& (0+255),b
  9923  002740  0E00               	movlw	0
  9924  002742  6FA6               	movwf	_coordenada_anteriorX& (0+255),b
  9925  002744                     
  9926                           ; BSR set to: 0
  9927                           ;main.c: 70:  coordenada_anteriorY=0;
  9928  002744  0E00               	movlw	0
  9929  002746  6FA5               	movwf	(_coordenada_anteriorY+1)& (0+255),b
  9930  002748  0E00               	movlw	0
  9931  00274A  6FA4               	movwf	_coordenada_anteriorY& (0+255),b
  9932  00274C                     
  9933                           ; BSR set to: 0
  9934  00274C  0012               	return		;funcret
  9935  00274E                     __end_of_INT0_ACTION:
  9936                           	opt callstack 0
  9937                           
  9938 ;; *************** function i2_main_Home *****************
  9939 ;; Defined at:
  9940 ;;		line 95 in file "main.c"
  9941 ;; Parameters:    Size  Location     Type
  9942 ;;		None
  9943 ;; Auto vars:     Size  Location     Type
  9944 ;;		None
  9945 ;; Return value:  Size  Location     Type
  9946 ;;                  1    wreg      void 
  9947 ;; Registers used:
  9948 ;;		wreg, status,2, cstack
  9949 ;; Tracked objects:
  9950 ;;		On entry : 0/0
  9951 ;;		On exit  : 0/0
  9952 ;;		Unchanged: 0/0
  9953 ;; Data sizes:     COMRAM   BANK0   BANK1   BANK2   BANK3   BANK4   BANK5   BANK6   BANK7
  9954 ;;      Params:         0       0       0       0       0       0       0       0       0
  9955 ;;      Locals:         0       0       0       0       0       0       0       0       0
  9956 ;;      Temps:          0       0       0       0       0       0       0       0       0
  9957 ;;      Totals:         0       0       0       0       0       0       0       0       0
  9958 ;;Total ram usage:        0 bytes
  9959 ;; Hardware stack levels used:    1
  9960 ;; Hardware stack levels required when called:    2
  9961 ;; This function calls:
  9962 ;;		i2_Motor_Home
  9963 ;; This function is called by:
  9964 ;;		_INT0_ACTION
  9965 ;; This function uses a non-reentrant model
  9966 ;;
  9967                           
  9968                           	psect	text52
  9969  002402                     __ptext52:
  9970                           	opt callstack 0
  9971  002402                     i2_main_Home:
  9972                           	opt callstack 22
  9973  002402                     
  9974                           ;main.c: 96:     while(BanderaX==0){
  9975  002402  EF07  F012         	goto	i2l4610
  9976  002406                     i2l745:
  9977                           
  9978                           ;main.c: 97:     PORTDbits.RD0 = 0;
  9979  002406  9083               	bcf	131,0,c	;volatile
  9980                           
  9981                           ;main.c: 98:     PORTDbits.RD2 = 1;
  9982  002408  8483               	bsf	131,2,c	;volatile
  9983  00240A                     
  9984                           ;main.c: 99:     Motor_Home();
  9985  00240A  ECC1  F013         	call	i2_Motor_Home	;wreg free
  9986  00240E                     i2l4610:
  9987                           
  9988                           ;main.c: 96:     while(BanderaX==0){
  9989  00240E  505A               	movf	_BanderaX^0,w,c
  9990  002410  B4D8               	btfsc	status,2,c
  9991  002412  EF0D  F012         	goto	i2u353_41
  9992  002416  EF0F  F012         	goto	i2u353_40
  9993  00241A                     i2u353_41:
  9994  00241A  EF03  F012         	goto	i2l745
  9995  00241E                     i2u353_40:
  9996  00241E  EF15  F012         	goto	i2l4614
  9997  002422                     i2l748:
  9998                           
  9999                           ;main.c: 102:     PORTDbits.RD0 = 1;
 10000  002422  8083               	bsf	131,0,c	;volatile
 10001                           
 10002                           ;main.c: 103:     PORTDbits.RD2 = 0;
 10003  002424  9483               	bcf	131,2,c	;volatile
 10004  002426                     
 10005                           ;main.c: 104:         Motor_Home();
 10006  002426  ECC1  F013         	call	i2_Motor_Home	;wreg free
 10007  00242A                     i2l4614:
 10008                           
 10009                           ;main.c: 101:     while ( BanderaY == 0) {
 10010  00242A  5059               	movf	_BanderaY^0,w,c
 10011  00242C  B4D8               	btfsc	status,2,c
 10012  00242E  EF1B  F012         	goto	i2u354_41
 10013  002432  EF1D  F012         	goto	i2u354_40
 10014  002436                     i2u354_41:
 10015  002436  EF11  F012         	goto	i2l748
 10016  00243A                     i2u354_40:
 10017  00243A                     
 10018                           ;main.c: 106:     PORTDbits.RD0 = 1;
 10019  00243A  8083               	bsf	131,0,c	;volatile
 10020                           
 10021                           ;main.c: 107:     PORTDbits.RD2 = 1;
 10022  00243C  8483               	bsf	131,2,c	;volatile
 10023                           
 10024                           ;main.c: 108:      T2CONbits.TMR2ON = 0;
 10025  00243E  94CA               	bcf	202,2,c	;volatile
 10026  002440                     
 10027                           ;main.c: 109:     BanderaX = 0;
 10028  002440  0E00               	movlw	0
 10029  002442  6E5A               	movwf	_BanderaX^0,c
 10030                           
 10031                           ;main.c: 110:     BanderaY = 0;
 10032  002444  0E00               	movlw	0
 10033  002446  6E59               	movwf	_BanderaY^0,c
 10034  002448  0012               	return		;funcret
 10035  00244A                     __end_ofi2_main_Home:
 10036                           	opt callstack 0
 10037                           
 10038 ;; *************** function i2_Motor_Home *****************
 10039 ;; Defined at:
 10040 ;;		line 79 in file "Motor.c"
 10041 ;; Parameters:    Size  Location     Type
 10042 ;;		None
 10043 ;; Auto vars:     Size  Location     Type
 10044 ;;		None
 10045 ;; Return value:  Size  Location     Type
 10046 ;;                  1    wreg      void 
 10047 ;; Registers used:
 10048 ;;		wreg, status,2, cstack
 10049 ;; Tracked objects:
 10050 ;;		On entry : 0/0
 10051 ;;		On exit  : 0/0
 10052 ;;		Unchanged: 0/0
 10053 ;; Data sizes:     COMRAM   BANK0   BANK1   BANK2   BANK3   BANK4   BANK5   BANK6   BANK7
 10054 ;;      Params:         0       0       0       0       0       0       0       0       0
 10055 ;;      Locals:         0       0       0       0       0       0       0       0       0
 10056 ;;      Temps:          0       0       0       0       0       0       0       0       0
 10057 ;;      Totals:         0       0       0       0       0       0       0       0       0
 10058 ;;Total ram usage:        0 bytes
 10059 ;; Hardware stack levels used:    1
 10060 ;; Hardware stack levels required when called:    1
 10061 ;; This function calls:
 10062 ;;		i2_PWM_InitS
 10063 ;; This function is called by:
 10064 ;;		i2_main_Home
 10065 ;; This function uses a non-reentrant model
 10066 ;;
 10067                           
 10068                           	psect	text53
 10069  002782                     __ptext53:
 10070                           	opt callstack 0
 10071  002782                     i2_Motor_Home:
 10072                           	opt callstack 22
 10073  002782                     
 10074                           ;Motor.c: 80:     PORTDbits.RD1 = 1;
 10075  002782  8283               	bsf	131,1,c	;volatile
 10076                           
 10077                           ;Motor.c: 81:     PORTDbits.RD3 = 1;
 10078  002784  8683               	bsf	131,3,c	;volatile
 10079  002786                     
 10080                           ;Motor.c: 82:     PWM_InitS();
 10081  002786  EC72  F013         	call	i2_PWM_InitS	;wreg free
 10082  00278A                     
 10083                           ;Motor.c: 83:     T2CONbits.TMR2ON = 1;
 10084  00278A  84CA               	bsf	202,2,c	;volatile
 10085  00278C  0012               	return		;funcret
 10086  00278E                     __end_ofi2_Motor_Home:
 10087                           	opt callstack 0
 10088                           
 10089 ;; *************** function i2_PWM_InitS *****************
 10090 ;; Defined at:
 10091 ;;		line 86 in file "PWM.c"
 10092 ;; Parameters:    Size  Location     Type
 10093 ;;		None
 10094 ;; Auto vars:     Size  Location     Type
 10095 ;;		None
 10096 ;; Return value:  Size  Location     Type
 10097 ;;                  1    wreg      void 
 10098 ;; Registers used:
 10099 ;;		wreg, status,2
 10100 ;; Tracked objects:
 10101 ;;		On entry : 0/0
 10102 ;;		On exit  : 0/0
 10103 ;;		Unchanged: 0/0
 10104 ;; Data sizes:     COMRAM   BANK0   BANK1   BANK2   BANK3   BANK4   BANK5   BANK6   BANK7
 10105 ;;      Params:         0       0       0       0       0       0       0       0       0
 10106 ;;      Locals:         0       0       0       0       0       0       0       0       0
 10107 ;;      Temps:          0       0       0       0       0       0       0       0       0
 10108 ;;      Totals:         0       0       0       0       0       0       0       0       0
 10109 ;;Total ram usage:        0 bytes
 10110 ;; Hardware stack levels used:    1
 10111 ;; This function calls:
 10112 ;;		Nothing
 10113 ;; This function is called by:
 10114 ;;		i2_PWM_GeneratePulsos
 10115 ;;		i2_Motor_Home
 10116 ;; This function uses a non-reentrant model
 10117 ;;
 10118                           
 10119                           	psect	text54
 10120  0026E4                     __ptext54:
 10121                           	opt callstack 0
 10122  0026E4                     i2_PWM_InitS:
 10123                           	opt callstack 22
 10124  0026E4                     
 10125                           ;PWM.c: 88:     PR2 = 0XFF;
 10126  0026E4  68CB               	setf	203,c	;volatile
 10127  0026E6                     
 10128                           ;PWM.c: 89:     CCPR1L = 0X3E;
 10129  0026E6  0E3E               	movlw	62
 10130  0026E8  6EBE               	movwf	190,c	;volatile
 10131                           
 10132                           ;PWM.c: 90:     CCPR2L = 0X3E;
 10133  0026EA  0E3E               	movlw	62
 10134  0026EC  6EBB               	movwf	187,c	;volatile
 10135  0026EE                     
 10136                           ;PWM.c: 91:     TRISCbits.RC1 = 0;
 10137  0026EE  9294               	bcf	148,1,c	;volatile
 10138  0026F0                     
 10139                           ;PWM.c: 92:     TRISCbits.RC2 = 0;
 10140  0026F0  9494               	bcf	148,2,c	;volatile
 10141                           
 10142                           ;PWM.c: 93:     T2CON = 0X03;
 10143  0026F2  0E03               	movlw	3
 10144  0026F4  6ECA               	movwf	202,c	;volatile
 10145                           
 10146                           ;PWM.c: 94:     CCP1CON = 0X0C;
 10147  0026F6  0E0C               	movlw	12
 10148  0026F8  6EBD               	movwf	189,c	;volatile
 10149                           
 10150                           ;PWM.c: 95:     CCP2CON = 0X0C;
 10151  0026FA  0E0C               	movlw	12
 10152  0026FC  6EBA               	movwf	186,c	;volatile
 10153  0026FE                     
 10154                           ;PWM.c: 96:     T2CONbits.TMR2ON = 0;
 10155  0026FE  94CA               	bcf	202,2,c	;volatile
 10156  002700  0012               	return		;funcret
 10157  002702                     __end_ofi2_PWM_InitS:
 10158                           	opt callstack 0
 10159                           
 10160                           	psect	rparam
 10161  0000                     
 10162                           	psect	temp
 10163  00005B                     btemp:
 10164                           	opt callstack 0
 10165  00005B                     	ds	1
 10166  0000                     int$flags	set	btemp
 10167  0000                     wtemp8	set	btemp+1
 10168  0000                     ttemp5	set	btemp+1
 10169  0000                     ttemp6	set	btemp+4
 10170  0000                     ttemp7	set	btemp+8
 10171                           tosu	equ	0xFFF
 10172                           tosh	equ	0xFFE
 10173                           tosl	equ	0xFFD
 10174                           stkptr	equ	0xFFC
 10175                           pclatu	equ	0xFFB
 10176                           pclath	equ	0xFFA
 10177                           pcl	equ	0xFF9
 10178                           tblptru	equ	0xFF8
 10179                           tblptrh	equ	0xFF7
 10180                           tblptrl	equ	0xFF6
 10181                           tablat	equ	0xFF5
 10182                           prodh	equ	0xFF4
 10183                           prodl	equ	0xFF3
 10184                           indf0	equ	0xFEF
 10185                           postinc0	equ	0xFEE
 10186                           postdec0	equ	0xFED
 10187                           preinc0	equ	0xFEC
 10188                           plusw0	equ	0xFEB
 10189                           fsr0h	equ	0xFEA
 10190                           fsr0l	equ	0xFE9
 10191                           wreg	equ	0xFE8
 10192                           indf1	equ	0xFE7
 10193                           postinc1	equ	0xFE6
 10194                           postdec1	equ	0xFE5
 10195                           preinc1	equ	0xFE4
 10196                           plusw1	equ	0xFE3
 10197                           fsr1h	equ	0xFE2
 10198                           fsr1l	equ	0xFE1
 10199                           bsr	equ	0xFE0
 10200                           indf2	equ	0xFDF
 10201                           postinc2	equ	0xFDE
 10202                           postdec2	equ	0xFDD
 10203                           preinc2	equ	0xFDC
 10204                           plusw2	equ	0xFDB
 10205                           fsr2h	equ	0xFDA
 10206                           fsr2l	equ	0xFD9
 10207                           status	equ	0xFD8


Data Sizes:
    Strings     813
    Constant    124
    Data        0
    BSS         74
    Persistent  0
    Stack       0

Auto Spaces:
    Space          Size  Autos    Used
    COMRAM           94     63      90
    BANK0           160     64     111
    BANK1           256      0       0
    BANK2           256      0       0
    BANK3           256      0       0
    BANK4           256      0       0
    BANK5           256      0       0
    BANK6           256      0       0
    BANK7           256      0       0

Pointer List with Targets:

    atoi@s	PTR const unsigned char  size(2) Largest target is 3
		 -> Serial_Lectura_MemoriaZ@coordenadaZ(BANK0[3]), Serial_Lectura_MemoriaY@coordenadaY(BANK0[3]), Serial_Lectura_MemoriaX@coordenadaX(BANK0[3]), Serial_DecodificacionZ@coordenadaZ(COMRAM[3]), 
		 -> Serial_DecodificacionY@coordenadaY(BANK0[3]), Serial_DecodificacionX@coordenadaX(BANK0[3]), 

    Serial_Escritura_Memoria@string_setpoint	PTR unsigned char  size(2) Largest target is 11
		 -> coordenada_setpoint(BANK0[11]), 

    Serial_Lectura_MemoriaZ@pointerCZ	PTR int  size(2) Largest target is 2
		 -> CoordenadaZ(BANK0[2]), 

    Serial_Lectura_MemoriaY@pointerCY	PTR int  size(2) Largest target is 2
		 -> CoordenadaY(BANK0[2]), 

    Serial_Lectura_MemoriaX@pointerCX	PTR int  size(2) Largest target is 2
		 -> CoordenadaX(BANK0[2]), 

    Serial_DecodificacionY@pointerCY	PTR int  size(2) Largest target is 2
		 -> CoordenadaY(BANK0[2]), 

    Serial_DecodificacionY@string_coordenada	PTR unsigned char  size(2) Largest target is 7
		 -> coordenada_array(BANK0[7]), 

    Serial_DecodificacionX@pointerCX	PTR int  size(2) Largest target is 2
		 -> CoordenadaX(BANK0[2]), 

    Serial_DecodificacionX@string_coordenada	PTR unsigned char  size(2) Largest target is 7
		 -> coordenada_array(BANK0[7]), 

    USART_RxS@pointer	PTR unsigned char  size(2) Largest target is 11
		 -> coordenada_setpoint(BANK0[11]), coordenada_array(BANK0[7]), 

    USART_TxS@str	PTR unsigned char  size(2) Largest target is 43
		 -> STR_44(CODE[10]), STR_43(CODE[10]), STR_42(CODE[7]), STR_41(CODE[11]), 
		 -> STR_40(CODE[20]), STR_39(CODE[20]), STR_38(CODE[20]), STR_37(CODE[15]), 
		 -> Serial_Lectura_MemoriaZ@coordenadaZ(BANK0[3]), STR_36(CODE[15]), Serial_Lectura_MemoriaY@coordenadaY(BANK0[3]), STR_35(CODE[14]), 
		 -> Serial_Lectura_MemoriaX@coordenadaX(BANK0[3]), STR_34(CODE[28]), STR_33(CODE[28]), STR_32(CODE[28]), 
		 -> STR_31(CODE[28]), STR_30(CODE[28]), STR_29(CODE[28]), STR_28(CODE[27]), 
		 -> STR_27(CODE[27]), STR_26(CODE[27]), STR_25(CODE[27]), STR_24(CODE[27]), 
		 -> STR_23(CODE[27]), STR_22(CODE[27]), STR_21(CODE[27]), STR_20(CODE[27]), 
		 -> STR_19(CODE[27]), STR_18(CODE[24]), STR_17(CODE[42]), STR_16(CODE[32]), 
		 -> STR_15(CODE[42]), STR_14(CODE[36]), STR_13(CODE[24]), STR_12(CODE[23]), 
		 -> STR_11(CODE[23]), STR_10(CODE[23]), STR_9(CODE[32]), STR_8(CODE[36]), 
		 -> STR_7(CODE[23]), STR_6(CODE[32]), STR_5(CODE[36]), STR_4(CODE[23]), 
		 -> STR_3(CODE[25]), STR_2(CODE[43]), STR_1(CODE[18]), 


Critical Paths under _main in COMRAM

    None.

Critical Paths under _INT_isr in COMRAM

    _INT_isr->_INT1_ACTION
    _INT_isr->_INT2_ACTION
    _INT2_ACTION->_Motor_Movimiento_Home
    _INT1_ACTION->_Motor_Movimiento_Home
    _Motor_Movimiento_Home->i2_Motor_Conversion
    i2_PWM_GeneratePulsos->i2_PWM_OneshotX
    i2_PWM_GeneratePulsos->i2_PWM_OneshotY
    i2_Motor_Conversion->i2___fltol
    i2___fltol->i2___fldiv
    i2___fldiv->i2___xxtofl

Critical Paths under _main in BANK0

    _main->_Serial_Oupcode
    _USART_Init->___aldiv
    _Serial_Oupcode->_Motor_Movimiento
    _Serial_Lectura_MemoriaZ->_atoi
    _Serial_Lectura_MemoriaY->_atoi
    _Serial_Lectura_MemoriaX->_atoi
    _Serial_Escritura_Memoria->_USART_TxS
    _Serial_DecodificacionY->_atoi
    _Serial_DecodificacionX->_atoi
    _atoi->_isspace
    _Seria_Decodificacion_Memoria->_USART_TxS
    _Motor_Movimiento->_Motor_Conversion
    _PWM_GeneratePulsos->_PWM_OneshotX
    _PWM_GeneratePulsos->_PWM_OneshotY
    _Motor_Conversion->___fltol
    ___fltol->___fldiv
    ___fldiv->___xxtofl
    _Actuator_Touch->_USART_TxS
    _Actuator_Retract->_USART_TxS
    _Actuator_Hold->_USART_TxS

Critical Paths under _INT_isr in BANK0

    None.

Critical Paths under _main in BANK1

    None.

Critical Paths under _INT_isr in BANK1

    None.

Critical Paths under _main in BANK2

    None.

Critical Paths under _INT_isr in BANK2

    None.

Critical Paths under _main in BANK3

    None.

Critical Paths under _INT_isr in BANK3

    None.

Critical Paths under _main in BANK4

    None.

Critical Paths under _INT_isr in BANK4

    None.

Critical Paths under _main in BANK5

    None.

Critical Paths under _INT_isr in BANK5

    None.

Critical Paths under _main in BANK6

    None.

Critical Paths under _INT_isr in BANK6

    None.

Critical Paths under _main in BANK7

    None.

Critical Paths under _INT_isr in BANK7

    None.

Call Graph Tables:

 ---------------------------------------------------------------------------------
 (Depth) Function   	        Calls       Base Space   Used Autos Params    Refs
 ---------------------------------------------------------------------------------
 (0) _main                                                 0     0      0   91753
                            _Int_Ext
                     _Serial_Oupcode
                         _USART_Init
                          _main_Home
 ---------------------------------------------------------------------------------
 (1) _main_Home                                            0     0      0       0
                         _Motor_Home
 ---------------------------------------------------------------------------------
 (2) _Motor_Home                                           0     0      0       0
                          _PWM_InitS
 ---------------------------------------------------------------------------------
 (1) _USART_Init                                           8     4      4     877
                                             14 BANK0      8     4      4
                            ___aldiv
 ---------------------------------------------------------------------------------
 (2) ___aldiv                                             14     6      8     756
                                              0 BANK0     14     6      8
 ---------------------------------------------------------------------------------
 (1) _Serial_Oupcode                                       4     4      0   90876
                                             60 BANK0      4     4      0
                      _Actuator_Hold
                   _Actuator_Retract
                     _Actuator_Touch
                   _Motor_Movimiento
       _Seria_Decodificacion_Memoria
             _Serial_DecodificacionX
             _Serial_DecodificacionY
           _Serial_Escritura_Memoria
            _Serial_Lectura_MemoriaX
            _Serial_Lectura_MemoriaY
            _Serial_Lectura_MemoriaZ
           _Serial_RangosCoordenadas
                          _USART_RxC
                          _USART_RxS
                          _USART_TxS
 ---------------------------------------------------------------------------------
 (2) _USART_RxS                                            8     6      2     318
                                              0 BANK0      8     6      2
 ---------------------------------------------------------------------------------
 (2) _USART_RxC                                            0     0      0       0
 ---------------------------------------------------------------------------------
 (2) _Serial_Lectura_MemoriaZ                             12    10      2    9733
                                             22 BANK0     12    10      2
                          _EEPROM_Rx
           _Serial_RangosCoordenadas
                          _USART_TxS
                               _atoi
 ---------------------------------------------------------------------------------
 (2) _Serial_Lectura_MemoriaY                             12    10      2    9733
                                             22 BANK0     12    10      2
                          _EEPROM_Rx
           _Serial_RangosCoordenadas
                          _USART_TxS
                               _atoi
 ---------------------------------------------------------------------------------
 (2) _Serial_Lectura_MemoriaX                             12    10      2    9733
                                             22 BANK0     12    10      2
                          _EEPROM_Rx
           _Serial_RangosCoordenadas
                          _USART_TxS
                               _atoi
 ---------------------------------------------------------------------------------
 (2) _Serial_RangosCoordenadas                             2     0      2     576
                                              0 BANK0      2     0      2
 ---------------------------------------------------------------------------------
 (3) _EEPROM_Rx                                            1     1      0      22
                                              0 BANK0      1     1      0
 ---------------------------------------------------------------------------------
 (2) _Serial_Escritura_Memoria                            12    10      2    8053
                                              8 BANK0     12    10      2
                          _EEPROM_Tx
                          _USART_TxS
 ---------------------------------------------------------------------------------
 (3) _EEPROM_Tx                                            2     1      1     272
                                              0 BANK0      2     1      1
 ---------------------------------------------------------------------------------
 (2) _Serial_DecodificacionY                              13     9      4    2083
                                             22 BANK0     13     9      4
                               _atoi
 ---------------------------------------------------------------------------------
 (2) _Serial_DecodificacionX                              12     8      4    2083
                                             22 BANK0     12     8      4
                               _atoi
 ---------------------------------------------------------------------------------
 (3) _atoi                                                15    13      2    1456
                                              7 BANK0     15    13      2
                             ___wmul
                            _isdigit
                            _isspace
 ---------------------------------------------------------------------------------
 (4) _isspace                                              7     5      2     207
                                              0 BANK0      7     5      2
 ---------------------------------------------------------------------------------
 (4) _isdigit                                              6     4      2     161
                                              0 BANK0      6     4      2
 ---------------------------------------------------------------------------------
 (4) ___wmul                                               6     2      4     311
                                              0 BANK0      6     2      4
 ---------------------------------------------------------------------------------
 (2) _Seria_Decodificacion_Memoria                         3     3      0    7294
                                              8 BANK0      3     3      0
                          _USART_TxS
 ---------------------------------------------------------------------------------
 (2) _Motor_Movimiento                                     5     1      4   12221
                                             55 BANK0      5     1      4
              _Motor_Calcular_PasosX
              _Motor_Calcular_PasosY
                   _Motor_Conversion
                 _PWM_GeneratePulsos
                          _USART_TxS
 ---------------------------------------------------------------------------------
 (3) _PWM_GeneratePulsos                                  10     6      4     742
                                              2 BANK0     10     6      4
                          _PWM_InitF
                          _PWM_InitS
                       _PWM_OneshotX
                       _PWM_OneshotY
 ---------------------------------------------------------------------------------
 (4) _PWM_OneshotY                                         2     0      2      99
                                              0 BANK0      2     0      2
 ---------------------------------------------------------------------------------
 (4) _PWM_OneshotX                                         2     0      2      99
                                              0 BANK0      2     0      2
 ---------------------------------------------------------------------------------
 (3) _PWM_InitS                                            0     0      0       0
 ---------------------------------------------------------------------------------
 (4) _PWM_InitF                                            0     0      0       0
 ---------------------------------------------------------------------------------
 (3) _Motor_Conversion                                     6     4      2    3307
                                             49 BANK0      6     4      2
                            ___fldiv
                            ___fltol
                           ___xxtofl
 ---------------------------------------------------------------------------------
 (4) ___xxtofl                                            14    10      4     538
                                              0 BANK0     14    10      4
 ---------------------------------------------------------------------------------
 (4) ___fltol                                             10     6      4     305
                                             39 BANK0     10     6      4
                            ___fldiv (ARG)
                           ___xxtofl (ARG)
 ---------------------------------------------------------------------------------
 (4) ___fldiv                                             25    17      8    2167
                                             14 BANK0     25    17      8
                           ___xxtofl (ARG)
 ---------------------------------------------------------------------------------
 (3) _Motor_Calcular_PasosY                                3     1      2     186
                                              0 BANK0      3     1      2
 ---------------------------------------------------------------------------------
 (3) _Motor_Calcular_PasosX                                3     1      2     186
                                              0 BANK0      3     1      2
 ---------------------------------------------------------------------------------
 (2) _Actuator_Touch                                       2     2      0    7234
                                              8 BANK0      2     2      0
                          _USART_TxS
 ---------------------------------------------------------------------------------
 (2) _Actuator_Retract                                     0     0      0    7234
                          _USART_TxS
 ---------------------------------------------------------------------------------
 (2) _Actuator_Hold                                        0     0      0    7234
                          _USART_TxS
 ---------------------------------------------------------------------------------
 (2) _USART_TxS                                            8     4      4    7234
                                              0 BANK0      8     4      4
 ---------------------------------------------------------------------------------
 (1) _Int_Ext                                              0     0      0       0
 ---------------------------------------------------------------------------------
 Estimated maximum stack depth 4
 ---------------------------------------------------------------------------------
 (Depth) Function   	        Calls       Base Space   Used Autos Params    Refs
 ---------------------------------------------------------------------------------
 (5) _INT_isr                                              1     1      0    5370
                                             62 COMRAM     1     1      0
                        _INT0_ACTION
                        _INT1_ACTION
                        _INT2_ACTION
 ---------------------------------------------------------------------------------
 (6) _INT2_ACTION                                          2     2      0    2685
                                             60 COMRAM     2     2      0
              _Motor_Movimiento_Home
 ---------------------------------------------------------------------------------
 (6) _INT1_ACTION                                          2     2      0    2685
                                             60 COMRAM     2     2      0
              _Motor_Movimiento_Home
 ---------------------------------------------------------------------------------
 (7) _Motor_Movimiento_Home                                5     1      4    2685
                                             55 COMRAM     5     1      4
                 i2_Motor_Conversion
               i2_PWM_GeneratePulsos
 ---------------------------------------------------------------------------------
 (8) i2_PWM_GeneratePulsos                                10     6      4     442
                                              2 COMRAM    10     6      4
                        i2_PWM_InitF
                        i2_PWM_InitS
                     i2_PWM_OneshotX
                     i2_PWM_OneshotY
 ---------------------------------------------------------------------------------
 (9) i2_PWM_OneshotY                                       2     0      2      49
                                              0 COMRAM     2     0      2
 ---------------------------------------------------------------------------------
 (9) i2_PWM_OneshotX                                       2     0      2      49
                                              0 COMRAM     2     0      2
 ---------------------------------------------------------------------------------
 (9) i2_PWM_InitF                                          0     0      0       0
 ---------------------------------------------------------------------------------
 (8) i2_Motor_Conversion                                   6     4      2    1873
                                             49 COMRAM     6     4      2
                          i2___fldiv
                          i2___fltol
                         i2___xxtofl
 ---------------------------------------------------------------------------------
 (9) i2___xxtofl                                          14    10      4     348
                                              0 COMRAM    14    10      4
 ---------------------------------------------------------------------------------
 (9) i2___fltol                                           10     6      4     255
                                             39 COMRAM    10     6      4
                          i2___fldiv (ARG)
                         i2___xxtofl (ARG)
 ---------------------------------------------------------------------------------
 (9) i2___fldiv                                           25    17      8    1173
                                             14 COMRAM    25    17      8
                         i2___xxtofl (ARG)
 ---------------------------------------------------------------------------------
 (6) _INT0_ACTION                                          0     0      0       0
                        i2_main_Home
 ---------------------------------------------------------------------------------
 (7) i2_main_Home                                          0     0      0       0
                       i2_Motor_Home
 ---------------------------------------------------------------------------------
 (8) i2_Motor_Home                                         0     0      0       0
                        i2_PWM_InitS
 ---------------------------------------------------------------------------------
 (9) i2_PWM_InitS                                          0     0      0       0
 ---------------------------------------------------------------------------------
 Estimated maximum stack depth 9
 ---------------------------------------------------------------------------------

 Call Graph Graphs:

 _main (ROOT)
   _Int_Ext
   _Serial_Oupcode
     _Actuator_Hold
       _USART_TxS
     _Actuator_Retract
       _USART_TxS
     _Actuator_Touch
       _USART_TxS
     _Motor_Movimiento
       _Motor_Calcular_PasosX
       _Motor_Calcular_PasosY
       _Motor_Conversion
         ___fldiv
           ___xxtofl (ARG)
         ___fltol
           ___fldiv (ARG)
             ___xxtofl (ARG)
           ___xxtofl (ARG)
         ___xxtofl
       _PWM_GeneratePulsos
         _PWM_InitF
         _PWM_InitS
         _PWM_OneshotX
         _PWM_OneshotY
       _USART_TxS
     _Seria_Decodificacion_Memoria
       _USART_TxS
     _Serial_DecodificacionX
       _atoi
         ___wmul
         _isdigit
         _isspace
     _Serial_DecodificacionY
       _atoi
         ___wmul
         _isdigit
         _isspace
     _Serial_Escritura_Memoria
       _EEPROM_Tx
       _USART_TxS
     _Serial_Lectura_MemoriaX
       _EEPROM_Rx
       _Serial_RangosCoordenadas
       _USART_TxS
       _atoi
         ___wmul
         _isdigit
         _isspace
     _Serial_Lectura_MemoriaY
       _EEPROM_Rx
       _Serial_RangosCoordenadas
       _USART_TxS
       _atoi
         ___wmul
         _isdigit
         _isspace
     _Serial_Lectura_MemoriaZ
       _EEPROM_Rx
       _Serial_RangosCoordenadas
       _USART_TxS
       _atoi
         ___wmul
         _isdigit
         _isspace
     _Serial_RangosCoordenadas
     _USART_RxC
     _USART_RxS
     _USART_TxS
   _USART_Init
     ___aldiv
   _main_Home
     _Motor_Home
       _PWM_InitS

 _INT_isr (ROOT)
   _INT0_ACTION
     i2_main_Home
       i2_Motor_Home
         i2_PWM_InitS
   _INT1_ACTION
     _Motor_Movimiento_Home
       i2_Motor_Conversion
         i2___fldiv
           i2___xxtofl (ARG)
         i2___fltol
           i2___fldiv (ARG)
             i2___xxtofl (ARG)
           i2___xxtofl (ARG)
         i2___xxtofl
       i2_PWM_GeneratePulsos
         i2_PWM_InitF
         i2_PWM_InitS
         i2_PWM_OneshotX
         i2_PWM_OneshotY
   _INT2_ACTION
     _Motor_Movimiento_Home
       i2_Motor_Conversion
         i2___fldiv
           i2___xxtofl (ARG)
         i2___fltol
           i2___fldiv (ARG)
             i2___xxtofl (ARG)
           i2___xxtofl (ARG)
         i2___xxtofl
       i2_PWM_GeneratePulsos
         i2_PWM_InitF
         i2_PWM_InitS
         i2_PWM_OneshotX
         i2_PWM_OneshotY

 Address spaces:
Name               Size   Autos  Total    Cost      Usage
BIGRAM             7FF      0       0      21        0.0%
EEDATA             100      0       0       0        0.0%
BITBANK7           100      0       0      18        0.0%
BANK7              100      0       0      19        0.0%
BITBANK6           100      0       0      16        0.0%
BANK6              100      0       0      17        0.0%
BITBANK5           100      0       0      14        0.0%
BANK5              100      0       0      15        0.0%
BITBANK4           100      0       0      12        0.0%
BANK4              100      0       0      13        0.0%
BITBANK3           100      0       0      10        0.0%
BANK3              100      0       0      11        0.0%
BITBANK2           100      0       0       8        0.0%
BANK2              100      0       0       9        0.0%
BITBANK1           100      0       0       6        0.0%
BANK1              100      0       0       7        0.0%
BITBANK0            A0      0       0       4        0.0%
BANK0               A0     40      6F       5       69.4%
BITCOMRAM           5E      0       0       0        0.0%
COMRAM              5E     3F      5A       1       95.7%
BITSFR               0      0       0     200        0.0%
SFR                  0      0       0     200        0.0%
STACK                0      0       0       2        0.0%
NULL                 0      0       0       0        0.0%
ABS                  0      0      C9      20        0.0%
DATA                 0      0      C9       3        0.0%
CODE                 0      0       0       0        0.0%


Microchip Technology PIC18 Macro Assembler V2.10 build 88905656 
Symbol Table                                                                                   Sun Dec 01 23:30:57 2019

              PWM_GeneratePulsos@Oupcode 0067                             i2_Motor_Home 2782  
                                      _C 0048                    _Motor_Calcular_PasosX 1F6E  
                  _Motor_Calcular_PasosY 1EEA                             ___fldiv@aexp 0086  
                           ___fldiv@bexp 0085                             ___fldiv@sign 007E  
                           ?_INT0_ACTION 0001                             ?_INT1_ACTION 0001  
                                     _L1 7CAD                                       _L2 7CA9  
                                     _L3 7CA5                                       _L4 7CA1  
                                     _L5 7C9D                                       l42 131A  
                                     _L6 7C99                                       l45 136C  
                                     _P1 7C95                                       l54 140E  
                                     _P2 7C91                                       _P3 7C8D  
                                     l72 2582                                       _P4 7C89  
                                     l65 26A4                                       l49 13BC  
                                     _P5 7C85                                       l68 26E2  
                                     l76 2550                                       l95 2066  
                            __CFG_BOR$ON 000000                                       _bp 7CBD  
                                     _cp 7C71                             ?_INT2_ACTION 0001  
                  __size_of_PWM_OneshotX 0032                    __size_of_PWM_OneshotY 0032  
                    ___wmul@multiplicand 0062                              __CFG_BORV$3 000000  
          Serial_Lectura_MemoriaX@i_1293 0080                   ??i2_PWM_GeneratePulsos 0007  
                           __CFG_CP0$OFF 000000                             __CFG_CP1$OFF 000000  
                           __CFG_CP2$OFF 000000                             __CFG_CP3$OFF 000000  
          Serial_Lectura_MemoriaY@i_1301 0080                            _LecturaFiltro 0051  
          Serial_Lectura_MemoriaZ@i_1309 0080               ??_Serial_Escritura_Memoria 006A  
                                    l112 20EA                                      l104 2764  
                                    l107 2774                                      l131 228C  
                                    l116 214C                                      l127 2244  
                                    l504 1698                                      l418 1E64  
                                    l290 24EC                                      l620 271C  
                                    l428 1D9A                                      l284 2762  
                                    l444 251E                                      l613 2484  
                                    l622 2734                                      l551 20DA  
                                    l287 24DA                                      l383 0054  
                                    l625 2702                                      l617 24B8  
                                    l465 0DBC                                      l289 24E8  
                                    l722 2684                                      l562 1FF0  
                                    l570 1F6C                                      l554 1EE8  
                                    l627 271A                                      l475 1CC4  
                                    l485 1ABA                                      l750 2328  
                                    l495 19B4                                      l719 260E  
                                    l832 17A6                                      l753 2638  
                                    l745 22E6                                      l594 2780  
                                    l748 2302                                      l749 231A  
                           __CFG_CPB$OFF 000000            ?_Seria_Decodificacion_Memoria 0001  
                                    _PR2 000FCB                             __CFG_CPD$OFF 000000  
       Serial_Lectura_MemoriaX@direccion 0079                                      _lg2 7C81  
                            i2___fldiv@a 0013                              i2___fldiv@b 000F  
         __size_of_Motor_Movimiento_Home 0048                                      _ovt 7C75  
          __end_of_Motor_Movimiento_Home 2402                               i2___xxtofl 0F76  
                                    wreg 000FE8                       __size_of_EEPROM_Rx 0016  
                     __size_of_EEPROM_Tx 0034                          ?_Actuator_Touch 0001  
              PWM_GeneratePulsos@pulsosX 0062                PWM_GeneratePulsos@pulsosY 0064  
                           __CFG_LVP$OFF 000000         Serial_Lectura_MemoriaY@direccion 0079  
                   i2PWM_OneshotX@countX 0001                             ___fltol@exp1 0090  
                           __CFG_WDT$OFF 000000                                     l1050 18AE  
                                   l1411 0F74                                     l1340 05DC  
                                   l1422 0F0C                                     l1335 07B8  
                                   l1415 0EB0                                     l1408 0E18  
                                   l4000 13BE                                     l1337 0618  
                                   l4010 20DC                                     l1346 065E  
                                   l4002 13DE                                     l4012 20F8  
                                   l1348 06D6                                     l4004 13FC  
                                   l1452 12AE                                     l4020 2756  
                                   l1349 06C4                                     l4014 2128  
                                   l4110 1F6E                                     l4102 2068  
                                   l4006 140C                                     l4022 2758  
                                   l1455 12B6                                     l4016 212E  
                                   l4120 1FC0                                     l4112 1F8E  
                                   l4104 207A                                     l3400 26E0  
                                   l4040 24CA                                     l4032 24BE  
                                   l4024 275A                                     l4122 1FD0  
                                   l4114 1F90                                     l4130 1F0C  
                                   l4106 20D2                                     l3410 26A2  
                                   l1458 2482                                     l1466 22E0  
                                   l4050 24D8                                     l4042 24CC  
                                   l4034 24C2                                     l4026 275C  
                                   l4018 2752                                     l4210 2236  
                                   l4300 2704                                     l4124 1FE8  
                                   l4116 1FA0                                     l4140 1F64  
                                   l4132 1F1C                                     l3404 2686  
                                   l3420 2576                                     l4060 112A  
                                   l4044 24CE                                     l4036 24C6  
                                   l4028 2760                                     l4052 24EE  
                                   l4204 2764                                     l4212 2252  
                                   l4118 1FBE                                     l4134 1F3A  
                                   l4126 1EEA                                     l3510 05A0  
                                   l3502 0556                                     l3406 2692  
                                   l3422 257A                                     l3414 2552  
                                   l3430 2540                                     l4310 0B7C  
                                   l4302 0B58                                     l4070 1196  
                                   l4062 1140                                     l4230 1DE2  
                                   l4046 24D2                                     l4038 24C8  
                                   l4054 250C                                     l4206 2772  
                                   l4214 2264                                     l4136 1F3C  
                                   l4128 1F0A                                     l3520 05E6  
                                   l3512 05A8                                     l3504 0570  
                                   l3408 2694                                     l3416 2560  
                                   l3432 2544                                     l4320 0BCC  
                                   l4312 0B94                                     l4304 0B5C  
                                   l3440 2630                                     l4080 11BE  
                                   l4072 119A                                     l4064 1144  
                                   l4240 1E22                                     l4224 1DA6  
                                   l4048 24D6                                     l4056 251A  
                                   l4400 1C14                                     l4216 2268  
                                   l4138 1F4C                                     l3530 063E  
                                   l3522 0604                                     l3514 05B8  
                                   l3506 0580                                     l3450 043C  
                                   l3418 2572                                     l3434 2548  
                                   l3426 2520                                     l4330 0C08  
                                   l4322 0BD0                                     l4314 0B98  
                                   l4306 0B60                                     l4082 11C6  
                                   l4066 1148                                     l4242 1E26  
                                   l4226 1DC2                                     l4218 1D9C  
                                   l4250 1CC6                                     l4410 1C70  
                                   l4402 1C30                                     l3540 067C  
                                   l3532 0644                                     l3524 0606  
                                   l3516 05CC                                     l3508 0590  
                                   l3452 044C                                     l3460 0476  
                                   l3444 041E                                     l3620 188E  
                                   l3604 183A                                     l3428 252E  
                                   l4340 0C58                                     l4332 0C20  
                                   l4324 0BE8                                     l4316 0BB0  
                                   l4308 0B78                                     l4092 126E  
                                   l4084 11F8                                     l4076 11A0  
                                   l4068 1162                                     l4244 1E2A  
                                   l4236 1DEA                                     l4228 1DC6  
                                   l4260 1CFC                                     l4500 1568  
                                   l4412 1C8E                                     l4404 1C4C  
                                   l4420 19BA                                     l3550 06E6  
                                   l3542 0680                                     l3534 064E  
                                   l3526 0616                                     l3518 05DA  
                                   l3470 04A2                                     l3462 0486  
                                   l3454 045C                                     l3446 042C  
                                   l3622 189E                                     l3614 1862  
                                   l3606 1844                                     l3630 0DE2  
                                   l4350 0C94                                     l4342 0C5C  
                                   l4334 0C24                                     l4326 0BEC  
                                   l4318 0BB4                                     l3438 2612  
                                   l4094 1280                                     l4078 11B6  
                                   l4246 1E46                                     l4238 1E06  
                                   l4270 1D3C                                     l4262 1D18  
                                   l4510 158E                                     l4414 1CA2  
                                   l4406 1C50                                     l4430 19E0  
                                   l3560 0748                                     l3552 06F2  
                                   l3544 068E                                     l3536 065C  
                                   l3528 0628                                     l3472 04B2  
                                   l3480 04DC                                     l3464 048C  
                                   l3456 046C                                     l3448 043A  
                                   l3616 186E                                     l3608 184E  
                                   l3640 0E5A                                     l3632 0E28  
                                   l3392 26C6                                     l4360 0CE4  
                                   l4352 0CAC                                     l4344 0C74  
                                   l4336 0C3C                                     l4328 0C04  
                                   l4096 1292                                     l4088 1232  
                                   l4272 1D58                                     l4256 1CD0  
                                   l4512 1594                                     l4416 1CB8  
                                   l4408 1C54                                     l4440 1A0A  
                                   l4432 19E6                                     l4600 1786  
                                   l3570 07A6                                     l3562 075E  
                                   l3554 0700                                     l3546 06BC  
                                   l3538 066E                                     l3490 051E  
                                   l3482 04EC                                     l3474 04C2  
                                   l3466 0492                                     l3458 046E  
                                   l3618 187E                                     l3650 0EE2  
                                   l3642 0E66                                     l3634 0E3E  
                                   l3626 0DC2                                     l3394 26C8  
                                   l4282 1E6A                                     l4362 0CE8  
                                   l4354 0CB0                                     l4346 0C78  
                                   l4338 0C40                                     l4370 0D1C  
                                   l4274 1D5C                                     l4258 1CF8  
                                   l4530 161A                                     l4522 15CE  
                                   l4514 15B0                                     l4506 1572  
                                   l4450 1A66                                     l4442 1A26  
                                   l4434 1A02                                     l4426 19C4  
                                   l4602 1796                                     l4292 2486  
                                   l3572 07AC                                     l3564 0778  
                                   l3556 072A                                     l3484 0502  
                                   l3476 04D2                                     l3468 04A0  
                                   l3660 0F20                                     l3652 0EEE  
                                   l3644 0E98                                     l3628 0DD4  
                                   l3396 26D0                                     l4284 1EAA  
                                   l4364 0D00                                     l4356 0CC8  
                                   l4348 0C90                                     l4372 0DB8  
                                   l4276 1D60                                     l4268 1D20  
                                   l4540 1640                                     l4532 162E  
                                   l4524 15D6                                     l4516 15C4  
                                   l4508 1578                                     l4380 1BC6  
                                   l4452 1A84                                     l4444 1A42  
                                   l4428 19CC                                     l4460 18B4  
                                   l4620 1FF2                                     l4294 24A0  
                                   l3574 07AE                                     l3566 0794  
                                   l3558 072E                                     l3486 0512  
                                   l3494 0532                                     l3478 04D4  
                                   l3590 17FE                                     l3582 17A8  
                                   l3662 0F44                                     l3654 0EFC  
                                   l3646 0E9A                                     l3638 0E52  
                                   l3398 26D2                                     l4286 1EB2  
                                   l4366 0D04                                     l4358 0CCC  
                                   l4278 1D7C                                     l4542 1662  
                                   l4526 15F8                                     l4390 1BEA  
                                   l4454 1A98                                     l4446 1A46  
                                   l4470 18DA                                     l4710 0294  
                                   l4702 0226                                     l4630 205E  
                                   l4622 1FF6                                     l4550 2776  
                                   l4296 24A2                                     l3568 0798  
                                   l3496 0542                                     l3488 051A  
                                   l3592 1800                                     l3584 17C0  
                                   l3664 0F54                                     l3656 0F1A  
                                   l3648 0EA6                                     l4288 1ED2  
                                   l3680 22DA                                     l3672 228E  
                                   l4544 1668                                     l4528 15FE  
                                   l4392 1BF0                                     l4456 1AAE  
                                   l4448 1A4A                                     l4480 1904  
                                   l4472 18E0                                     l4720 02D8  
                                   l4712 02A8                                     l4704 0240  
                                   l4640 0024                                     l4632 2060  
                                   l4624 2058                                     l4552 277A  
                                   l4298 271E                                     l3498 0542  
                                   l3594 1810                                     l3666 0F62  
                                   l3658 0F1C                                     l3674 2294  
                                   l4546 1684                                     l4538 1638  
                                   l4394 1C0C                                     l4386 1BD0  
                                   l4490 1960                                     l4482 1920  
                                   l4474 18FC                                     l4466 18BE  
                                   l4730 0338                                     l4722 02E8  
                                   l4714 02B0                                     l4706 025C  
                                   l4650 0080                                     l4642 002A  
                                   l4570 16C2                                     l4562 169A  
                                   l4634 2062                                     l4626 205A  
                                   l4554 277E                                     l3596 1814  
                                   l3588 17D4                                     l3668 0F64  
                                   l3684 244A                                     l3676 22A8  
                                   l4388 1BD6                                     l4492 197E  
                                   l4484 193C                                     l4468 18C6  
                                   l4740 0396                                     l4724 02FA  
                                   l4716 02BA                                     l4708 0278  
                                   l4660 00DC                                     l4652 008C  
                                   l4644 003E                                     l4580 170A  
                                   l4572 16D0                                     l4564 16A0  
                                   l4636 2064                                     l4628 205C  
                                   l3598 1822                                     l3678 22D6  
                                   l4494 1992                                     l4486 1940  
                                   l4742 03AC                                     l4734 0366  
                                   l4718 02C8                                     l4670 0124  
                                   l4662 00E8                                     l4654 009A  
                                   l4646 0066                                     l4638 0012  
                                   l4590 1754                                     l4582 1712  
                                   l4574 16E0                                     l4566 16AE  
                                   l4760 2668                                     l4496 19A8  
                                   l4488 1944                                     l4744 03B8  
                                   l4736 0380                                     l4728 0328  
                                   l4680 017A                                     l4672 0134  
                                   l4664 00F4                                     l4656 00B0  
                                   l4648 007A                                     l4592 1764  
                                   l4584 171E                                     l4576 16E4  
                                   l4568 16BE                                     l5720 25EC  
                                   l4770 2672                                     l4762 266A  
                                   l4754 2660                                     l3970 12DE  
                                   l3962 12BC                                     l4738 0388  
                                   l4690 01D4                                     l4682 0190  
                                   l4674 0148                                     l4666 0106  
                                   l4658 00C6                                     l4594 1766  
                                   l4586 172C                                     l4578 16F4  
                                   l5722 2602                                     l4780 267C  
                                   l4772 2674                                     l4764 266C  
                                   l4756 2664                                     l3980 1306  
                                   l3972 12E0                                     l3964 12D0  
                                   l4692 01E6                                     l4684 01A6  
                                   l4676 0152                                     l4668 011A  
                                   l4748 03CA                                     l4596 1770  
                                   l4588 1736                                     l5724 2606  
                                   l4782 267E                                     l4774 2676  
                                   l4766 266E                                     l4758 2666  
                                   l3990 1364                                     l3982 1318  
                                   l3974 12EA                                     l3966 12D8  
                                   l4686 01BC                                     l4678 016C  
                                   l4598 1776                                     l4790 22EA  
                                   l5726 260A                                     l5718 25E8  
                                   l4784 2680                                     l4776 2678  
                                   l4768 2670                                     l3992 136E  
                                   l3984 1320                                     l3976 12F2  
                                   l3968 12DC                                     l4696 01FE  
                                   l4688 01C8                                     l4792 22EE  
                                   l4786 2682                                     l4778 267A  
                                   l3994 138E                                     l3986 133E  
                                   l3978 1304                                     l4698 020E  
                                   l4794 2306                                     l3996 139C  
                                   l3988 134C                                     l4796 230A  
                                   l4788 22E2                                     l3998 13B4  
                                   l5950 0D32                                     l4798 2320  
                                   l5946 03DE                     i2PWM_OneshotY@countY 0001  
                                   l5948 11E2                                     STR_1 7FA4  
                                   STR_2 7CD1                                     STR_3 7F20  
                                   STR_4 7F51                                     STR_5 7D26  
                                   STR_6 7D4A                                     STR_7 7F51  
                                   STR_8 7D26                                     STR_9 7D4A  
                                   u2000 04B2                                     u2001 04AE  
                                   u2010 04C2                                     u2011 04BE  
                                   u2100 067C                                     u2020 0502  
                                   u2101 0678                                     u2021 04FE  
                                   u2110 068E                                     u2030 0542  
                                   u2111 068A                                     u2031 053E  
                                   u2120 06BC                                     u2040 05B8  
                                   u2200 17F4                                     u3000 1196  
                                   u2121 06B8                                     u2041 05B4  
                                   u3001 1192                                     u2130 06D2  
                                   u2050 05DA                                     u2210 1822  
                                   u3010 11B2                                     u2131 06CE  
                                   u2051 05D6                                     u2211 181E  
                                   u3011 11AE                                     u3100 1F3A  
                                   u2140 06E6                                     u2060 0604  
                                   u2220 1836                                     u2300 0EDE  
                                   u3020 1268                                     u3101 1F36  
                                   u2141 06E2                                     u2061 0600  
                                   u2221 1832                                     u2205 17EA  
                                   u2301 0EDA                                     u3021 1262  
                                   _LATA 000F89                                     u3110 1F64  
                                   u2150 0700                                     u2070 0628  
                                   u2230 185E                                     u2310 0EFC  
                                   u3030 126A                                     _LATB 000F8A  
                                   u3111 1F60                                     u2151 06FC  
                                   u2071 0624                                     u2231 185A  
                                   u2311 0EF8                                     _LATC 000F8B  
                                   u2160 0748                                     u2080 063E  
                                   u2240 187E                                     u2320 0F0C  
                                   u3040 1280                                     _LATD 000F8C  
                                   u2161 0744                                     u2081 063A  
                                   u2241 187A                                     u2321 0F08  
                                   u3041 127C                                     _LATE 000F8D  
                                   u2170 0778                                     u2090 065C  
                                   u2250 188E                                     u2330 0F1A  
                                   u3050 1292                                     u3210 2772  
                                   u2171 0774                                     u2091 0658  
                                   u2251 188A                                     u2331 0F16  
                                   u3051 128E                                     u3211 276E  
                                   u3060 1F8E                                     u2180 07A6  
                                   u2340 0F54                                     u2260 0DD4  
                                   u3300 1D58                                     u3220 2252  
                                   u3061 1F8A                                     u2181 07A2  
                                   u2341 0F50                                     u2261 0DD0  
                                   u3301 1D54                                     u3221 224E  
                                   u3070 1FBE                                     u2190 17C0  
                                   u2350 0F62                                     u2270 0DE2  
                                   u3310 1D7C                                     u3230 228C  
                                   u3071 1FBA                                     u2191 17BC  
                                   u2351 0F5E                                     u2271 0DDE  
                                   u3311 1D78                                     u3231 2288  
                                   u3080 1FE8                                     u2280 0E3E  
                                   u2360 22A8                                     u3240 1DE2  
                                   u3320 1C0C                                     u3400 18FC  
                                   u3081 1FE4                                     u2281 0E3A  
                                   u2361 22A4                                     u3241 1DDE  
                                   u3321 1C08                                     u3401 18F8  
                                   u3090 1F0A                                     u2290 0E94  
                                   u2370 22D6                                     u3250 1E06  
                                   u3330 1C30                                     u3410 1920  
                                   u3091 1F06                                     u2291 0E90  
                                   u2371 22D2                                     u3251 1E02  
                                   u3331 1C2C                                     u3411 191C  
                                   u2380 247C                                     u3260 1E22  
                                   u3340 1C4C                                     u3420 193C  
                                   u3500 172C                                     u2381 2476  
                                   u3261 1E1E                                     u3341 1C48  
                                   u3421 1938                                     u3501 1728  
                                   u2390 247E                                     u3270 1E46  
                                   u3350 1C70                                     u3430 1960  
                                   u3510 1754                                     u3271 1E42  
                                   u3351 1C6C                                     u3431 195C  
                                   u3511 1750                                     u1920 2560  
                                   u3280 1D18                                     u3440 15B0  
                                   u3360 1A02                                     u3600 02FA  
                                   u3520 1786                                     u1921 255C  
                                   u3281 1D14                                     u3441 15AC  
                                   u3361 19FE                                     u3601 02F6  
                                   u3521 1782                                     u1930 2572  
                                   u3290 1D3C                                     u3450 161A  
                                   u3370 1A26                                     u3610 0338  
                                   u1931 256E                                     u3291 1D38  
                                   u3451 1616                                     u3371 1A22  
                                   u3611 0334                                     u1940 252E  
                                   u2900 139C                                     u3460 1684  
                                   u3380 1A42                                     u3620 22FE  
                                   u1941 252A                                     u2901 1398  
                                   u3461 1680                                     u3381 1A3E  
                                   u3621 22FA                                     u1950 2540  
                                   u2910 13DE                                     u3390 1A66  
                                   u3550 0066                                     u3470 16AE  
                                   u3630 231A                                     u1951 253C  
                                   u2911 13DA                                     u3391 1A62  
                                   u3551 0062                                     u3471 16AA  
                                   u3631 2316                                     u1960 043A  
                                   u2920 13FC                                     u2840 12D0  
                                   u3560 0106                                     u3480 16D0  
                                   u5217 2492                                     u1961 0436  
                                   u2921 13F8                                     u2841 12CC  
                                   u3561 0102                                     u3481 16CC  
                                   u2930 20F8                                     u1970 044C  
                                   u2850 1304                                     u3570 0134  
                                   u3490 170A                                     u2931 20F4  
                                   u1971 0448                                     u2851 1300  
                                   u3571 0130                                     u3491 1706  
                                   u2940 2126                                     u1980 045C  
                                   u2860 1318                                     u3580 01E6  
                                   u1981 0458                                     u2861 1314  
                                   u3581 01E2                                     u2950 214C  
                                   u1990 04A0                                     u2870 133E  
                                   u3590 020E                                     u2951 2148  
                                   u1991 049C                                     u2871 133A  
                                   u3591 020A                                     u2880 134C  
                                   u2960 24E8                                     u2881 1348  
                                   u2961 24E4                                     u2890 138E  
                                   u2970 250C                                     u2947 211C  
                                   u2891 138A                                     u2971 2508  
                                   u2980 251A                                     _RCIF 007CF5  
                                   u2981 2516                                     u2990 1162  
                                   u2991 115E                                     i2l42 146C  
                                   i2l45 14C0                                     i2l54 1562  
                                   i2l72 25E6                                     i2l65 26C4  
                                   i2l49 1510                                     i2l68 2700  
                                   i2l76 25B4        Serial_Lectura_MemoriaX@direccionX 007A  
                        __end_of_INT_isr 21C0                                     _Suma 0044  
                                   _data 0056                                     _cp_h 7CCD  
                                   _cp_l 7CC9                                     _dp_h 7C5D  
                                   _dp_l 7C55                                     _atoi 112A  
                                   _main 25E8                                     _home 0055  
                                   _huge 7CB5                                     fsr0h 000FEA  
                                   _tiny 7CB1                                     indf0 000FEF  
                                   fsr2h 000FDA                                     fsr0l 000FE9  
                                   indf1 000FE7                                     indf2 000FDF  
                                   fsr1l 000FE1                                     fsr2l 000FD9  
                                   btemp 005B         Serial_Lectura_MemoriaZ@direccion 0079  
                                   prodh 000FF4                                     prodl 000FF3  
                                   start 000E                            __CFG_IESO$OFF 000000  
                           i2___fltol@f1 0028                          ___fldiv@new_exp 007F  
                           _PWM_OneshotX 2552                             _PWM_OneshotY 2520  
                          __CFG_MCLRE$ON 000000                             ___param_bank 000000  
 Serial_Escritura_Memoria@direccionFinal 006D                          __end_of_Int_Ext 2686  
       __end_of_Serial_RangosCoordenadas 2520                  __size_ofi2_PWM_OneshotX 0032  
                __size_ofi2_PWM_OneshotY 0032                       EEPROM_Rx@direccion 0060  
      Serial_Lectura_MemoriaY@direccionY 007A                            __CFG_PLLDIV$1 000000  
                         __CFG_CCP2MX$ON 000000         Serial_Lectura_MemoriaX@pointerCX 0076  
                          ___fltol@sign1 008F                          __end_of___aldiv 17A8  
                                  ?_atoi 0067                                    ?_main 0001  
                        __end_of___fldiv 07BA                                    _EEADR 000FA9  
                                  STR_10 7F51                                    STR_11 7F51  
                                  STR_12 7F51                                    STR_20 7E2D  
                                  STR_13 7F39                                    STR_21 7E48  
                                  STR_14 7D26                                    STR_22 7E63  
                                  STR_30 7D86                                    STR_23 7E7E  
                                  STR_31 7DA2                                    STR_15 7CFC  
                                  STR_16 7D4A                                    STR_40 7F90  
                                  STR_24 7E99                                    STR_32 7DBE  
                                  STR_17 7CFC                                    STR_41 7FE2  
                                  STR_25 7EB4                                    STR_33 7DDA  
                                  STR_18 7F39                                    STR_42 7FF7  
                                  STR_26 7ECF                                    STR_34 7DF6  
                                  STR_43 7FED                                    STR_35 7FD4  
                                  STR_27 7EEA                                    STR_19 7E12  
                                  STR_44 7FED                                    STR_36 7FB6  
                                  STR_28 7F05                                    STR_37 7FC5  
                                  STR_29 7D6A                                    STR_38 7F68  
                                  STR_39 7F7C                          __end_of___fltol 18B0  
                                  _CMCON 000FB4                                    _T2CON 000FCA  
                            i2_main_Home 2402                                    i2l551 2230  
                                  i2l730 21BC                                    i2l733 274C  
                                  i2l741 2370                                    i2l750 2448  
                                  i2l745 2406                                    i2l737 23B8  
                                  i2l594 278C                                    i2l748 2422  
                                  i2l749 243A                                    i2l597 2400  
                                  _RCREG 000FAE                                    _SPBRG 000FAF  
                                  _PORTA 000F80                                    _PORTB 000F81  
                                  _PORTC 000F82                                    _PORTD 000F83  
                                  _PORTE 000F84                            __CFG_USBDIV$1 000000  
                                  _TRISD 000F95                                    _TXREG 000FAD  
                          __CFG_PWRT$OFF 000000                            __CFG_WRT0$OFF 000000  
                          __CFG_WRT1$OFF 000000                            __CFG_WRT2$OFF 000000  
                          __CFG_WRT3$OFF 000000                           __CFG_EBTR0$OFF 000000  
                         __CFG_FCMEN$OFF 000000                           __CFG_EBTR1$OFF 000000  
                         __CFG_EBTR2$OFF 000000                           __CFG_EBTR3$OFF 000000  
                          __CFG_WRTB$OFF 000000                            __CFG_WRTC$OFF 000000  
                          __CFG_WRTD$OFF 000000                                    _lg2_h 7C7D  
                                  _lg2_l 7C79         Serial_Lectura_MemoriaY@pointerCY 0076  
                         __CFG_EBTRB$OFF 000000                                    _errno 004B  
                                  _ivln2 7C6D                          __end_of_isdigit 2484  
                        __end_of_ivln2_h 7CC9                          __end_of_ivln2_l 7C6D  
                                  _two24 7CB9                            i2___fldiv@grs 0022  
                          i2___fldiv@rem 001B                                    atoi@n 0074  
                                  atoi@s 0067                          __end_of_isspace 22E2  
      Serial_Lectura_MemoriaZ@direccionZ 007A                                    tablat 000FF5  
                           USART_TxS@str 0060                       __size_of_USART_RxC 0012  
                     __size_of_USART_RxS 005C                       __size_of_USART_TxS 0072  
                                  ttemp5 005C                                    ttemp6 005F  
                                  ttemp7 0063         Serial_Lectura_MemoriaZ@pointerCZ 0076  
                                  status 000FD8                                    wtemp8 005C  
                         __CFG_ICPRT$OFF 000000                       __size_of_PWM_InitF 0020  
                     __size_of_PWM_InitS 001E                       __size_ofi2___fldiv 039A  
               __end_of_Motor_Conversion 20DC                           _Serial_Oupcode 0012  
                     __size_ofi2___fltol 0106                              ?_USART_Init 006E  
                        __initialization 263A                   ?_Motor_Calcular_PasosX 0060  
                 ?_Motor_Calcular_PasosY 0060               __end_of_PWM_GeneratePulsos 1410  
      Serial_DecodificacionX@coordenadaX 007B                        __end_of_EEPROM_Rx 2764  
                      __end_of_EEPROM_Tx 24EE                             __end_of_cp_h 7CD1  
                           __end_of_cp_l 7CCD                             __end_of_dp_h 7C65  
                           __end_of_dp_l 7C5D                             __end_of_atoi 12B8  
                           __end_of_main 2612                             __end_of_huge 7CB9  
               ?_Serial_Lectura_MemoriaX 0076                 ?_Serial_Lectura_MemoriaY 0076  
                           __end_of_tiny 7CB5                 ?_Serial_Lectura_MemoriaZ 0076  
                     EEPROM_Tx@direccion 0061                        ?_Actuator_Retract 0001  
                                 ??_atoi 0069                                   ??_main 00A0  
                     ??_Actuator_Retract 0068                            __activetblptr 000002  
                            ?i2___xxtofl 0001                                ??_INT_isr 003F  
         ??_Seria_Decodificacion_Memoria 0068                                   _ADCON1 000FC1  
                           ?i2_PWM_InitF 0001                             ?i2_PWM_InitS 0001  
                                 _ADRESH 000FC4                                   _ADRESL 000FC3  
                                 _EEDATA 000FA8                                   _CCPR1L 000FBE  
                                 _CCPR2L 000FBB                                   _EECON2 000FA7  
                                 i2l1050 1BC0                                   i2l1411 1128  
                                 i2l1340 0976                                   i2l1422 10C0  
                                 i2l1335 0B52                                   i2l1415 1064  
                                 i2l1408 0FCC                                   i2l1337 09B2  
                                 i2l1346 09F8                                   i2l1348 0A70  
                                 i2l1349 0A5E                                   i2l4200 2786  
                                 i2l4202 278A                                   i2l4150 1432  
                                 i2l4142 1412                                   i2l4160 1458  
                                 i2l4152 1434                                   i2l4144 1424  
                                 i2l4170 14B6                                   i2l4162 146A  
                                 i2l4154 143C                                   i2l4146 142C  
                                 i2l3700 26E6                                   i2l4172 14C2  
                                 i2l4164 1472                                   i2l4180 1512  
                                 i2l4156 1444                                   i2l4148 1430  
                                 i2l3702 26EE                                   i2l4190 21C0  
                                 i2l3710 25B6                                   i2l4182 1530  
                                 i2l4174 14E0                                   i2l4166 1490  
                                 i2l4158 1456                                   i2l3704 26F0  
                                 i2l3800 082C                                   i2l4192 21D0  
                                 i2l3712 25C4                                   i2l4184 154E  
                                 i2l4176 14EE                                   i2l4168 149E  
                                 i2l3706 26FE                                   i2l4610 240E  
                                 i2l3810 086C                                   i2l3802 083A  
                                 i2l4194 2228                                   i2l3714 25D6  
                                 i2l3730 25AC                                   i2l3722 2584  
                                 i2l4186 1560                                   i2l4178 1506  
                                 i2l4612 2426                                   i2l3900 0B2E  
                                 i2l3820 08AC                                   i2l3812 086E  
                                 i2l3804 083C                                   i2l3740 1AE6  
                                 i2l3716 25DA                                   i2l3724 2592  
                                 i2l4198 2782                                   i2l4614 242A  
                                 i2l4606 2402                                   i2l3902 0B32  
                                 i2l3830 08DC                                   i2l3822 08B4  
                                 i2l3806 084C                                   i2l3814 0876  
                                 i2l3750 1B34                                   i2l3742 1B10  
                                 i2l3734 1ABC                                   i2l3718 25DE  
                                 i2l3726 25A4                                   i2l4616 2440  
                                 i2l4608 240A                                   i2l3904 0B40  
                                 i2l3840 091A                                   i2l3832 08DC  
                                 i2l3824 08B8                                   i2l3816 0886  
                                 i2l3808 085C                                   i2l3760 1B60  
                                 i2l3744 1B12                                   i2l3736 1AD2  
                                 i2l3920 0F96                                   i2l3728 25A8  
                                 i2l3906 0B46                                   i2l3850 0966  
                                 i2l3842 092A                                   i2l3818 089C  
                                 i2l3770 1B90                                   i2l3746 1B22  
                                 i2l3930 100E                                   i2l3922 0FDC  
                                 i2l3690 26B2                                   i2l4810 23B4  
                                 i2l4802 2372                                   i2l3908 0B48  
                                 i2l3860 09B0                                   i2l3852 0974  
                                 i2l3844 093A                                   i2l3836 08F0  
                                 i2l3828 08CC                                   i2l3780 07C6  
                                 i2l3772 1BA0                                   i2l3756 1B4C  
                                 i2l3748 1B26                                   i2l3940 1096  
                                 i2l3932 101A                                   i2l3924 0FF2  
                                 i2l3916 0F78                                   i2l3692 26B4  
                                 i2l4556 23BC                                   i2l4804 2376  
                                 i2l4820 2356                                   i2l4830 2744  
                                 i2l3870 09F6                                   i2l3862 09C2  
                                 i2l3854 0980                                   i2l3846 0942  
                                 i2l3838 090A                                   i2l3790 0806  
                                 i2l3782 07D4                                   i2l3774 1BB0  
                                 i2l3766 1B74                                   i2l3758 1B56  
                                 i2l3950 10D4                                   i2l3942 10A2  
                                 i2l3934 104C                                   i2l3918 0F88  
                                 i2l3694 26C2                                   i2l4558 23C2  
                                 i2l4806 238E                                   i2l4822 236C  
                                 i2l4814 232A                                   i2l3880 0A56  
                                 i2l3864 09D8                                   i2l3872 0A08  
                                 i2l3856 099E                                   i2l3848 0952  
                                 i2l3792 0808                                   i2l3784 07D6  
                                 i2l3768 1B80                                   i2l3952 10F8  
                                 i2l3944 10B0                                   i2l3936 104E  
                                 i2l3928 1006                                   i2l3688 26A6  
                                 i2l4808 239E                                   i2l4816 232E  
                                 i2l3698 26E4                                   i2l4826 2736  
                                 i2l3890 0AC4                                   i2l3874 0A16  
                                 i2l3866 09DE                                   i2l3858 09A0  
                                 i2l3786 07E6                                   i2l3794 0810  
                                 i2l3778 07BA                                   i2l3954 1108  
                                 i2l3946 10CE                                   i2l3938 105A  
                                 i2l4818 2346                                   i2l5730 2150  
                                 i2l4828 273A                                   i2l3884 0A80  
                                 i2l3892 0AC8                                   i2l3876 0A1A  
                                 i2l3868 09E8                                   i2l3796 0820  
                                 i2l3788 07F6                                   i2l3956 1116  
                                 i2l3948 10D0                                   i2l5740 2182  
                                 i2l5732 215E                                   i2l3894 0AE2  
                                 i2l3886 0A8C                                   i2l3878 0A28  
                                 i2l3798 0826                                   i2l3958 1118  
                                 i2l5750 21AA                                   i2l5742 2186  
                                 i2l5734 2162                                   i2l3896 0AF8  
                                 i2l3888 0A9A                                   i2l5752 21BA  
                                 i2l5744 2196                                   i2l5736 2172  
                                 i2l3898 0B12                                   i2l5746 2198  
                                 i2l5738 2174                                   i2l5748 21A6  
                                 _OSCCON 000FD3                   __end_of_Serial_Oupcode 041E  
                       __end_of___xxtofl 0F76                                   _DeltaX 00AA  
                                 _DeltaY 00A8                                ??_Int_Ext 0060  
                         __CFG_XINST$OFF 000000                                   _PasosX 00AE  
                                 _PasosY 00AC                               _Motor_Home 2776  
      Serial_DecodificacionY@coordenadaY 007C                                ??___aldiv 0068  
                                 ___wmul 2612                                ??___fldiv 0076  
                         __CFG_STVREN$ON 000000                                ??___fltol 008B  
                                 clear_0 2640                                   clear_1 264C  
               __end_of_Motor_Movimiento 1EEA                              _CoordenadaX 00CD  
                            _CoordenadaY 00CB                              _CoordenadaZ 00C9  
                         i2___fldiv@aexp 0027                           i2___fldiv@bexp 0026  
                       _coordenada_array 00C2                           i2___fldiv@sign 001F  
                   __size_of_INT0_ACTION 0018                        __end_of_USART_RxC 2776  
                      __end_of_USART_RxS 228E                        __end_of_USART_TxS 214E  
               _Serial_RangosCoordenadas 24EE                     __size_of_INT1_ACTION 0048  
                   __size_of_INT2_ACTION 0048                        __end_of_PWM_InitF 26A6  
                      __end_of_PWM_InitS 26E4                                ??_isdigit 0062  
                      __end_ofi2___fldiv 0B54                        __end_ofi2___fltol 1BC2  
                           __mediumconst 7C54                                ??_isspace 0062  
                                 tblptrh 000FF7                                   tblptrl 000FF6  
                                 tblptru 000FF8                      __size_of_USART_Init 0076  
                     i2_Motor_Conversion 21C0                             ___xxtofl@arg 006A  
                           ___xxtofl@exp 0069                             ___xxtofl@val 0060  
                             __accesstop 0060                  __end_of__initialization 2652  
                         i2___fltol@exp1 0031                          __CFG_PBADEN$OFF 000000  
                        ?_Serial_Oupcode 0001               Motor_Conversion@conversion 0093  
                    ?i2_Motor_Conversion 0032                            ___rparam_used 000001  
                Serial_DecodificacionX@i 007E                  Serial_DecodificacionY@i 007F  
                             ___fltol@f1 0087          __end_of_Serial_Lectura_MemoriaX 1CC6  
        __end_of_Serial_Lectura_MemoriaY 1ABC          __end_of_Serial_Lectura_MemoriaZ 19B6  
                    __size_ofi2___xxtofl 01B4                           __pcstackCOMRAM 0001  
                         i2_PWM_OneshotX 25B6                           i2_PWM_OneshotY 2584  
                          __end_of_lg2_h 7C81                            __end_of_lg2_l 7C7D  
                          __end_of_ivln2 7C71                            __end_of_two24 7CBD  
                             __end_of_L1 7CB1                               __end_of_L2 7CAD  
                             __end_of_L3 7CA9                               __end_of_L4 7CA5  
                             __end_of_L5 7CA1                               __end_of_L6 7C9D  
                             __end_of_P1 7C99                               __end_of_P2 7C95  
                             __end_of_P3 7C91                               __end_of_P4 7C8D  
                             __end_of_P5 7C89                               __end_of_bp 7CC5  
                             __end_of_cp 7C75          Serial_DecodificacionX@pointerCX 0078  
                   ??i2_Motor_Conversion 0034                         ??_Actuator_Touch 0068  
        Serial_DecodificacionY@pointerCY 0078                       __size_of_main_Home 0048  
      Motor_Movimiento@Motor_CoordenadaX 0097        Motor_Movimiento@Motor_CoordenadaY 0099  
                             __pbssBANK0 00A0  Motor_Calcular_PasosY@coordenada_actualY 0060  
           Motor_Movimiento_Home@Oupcode 003C                   __end_ofi2_PWM_OneshotX 25E8  
                 __end_ofi2_PWM_OneshotY 25B6                              ?_Motor_Home 0001  
         Serial_Escritura_Memoria@i_1320 0072           Serial_Escritura_Memoria@i_1318 0070  
                                ?___wmul 0060                                  _CCP1CON 000FBD  
                                _CCP2CON 000FBA                               _bites_masS 0057  
                 __size_of_Actuator_Hold 001A                             ?i2_main_Home 0001  
          __size_ofi2_PWM_GeneratePulsos 0154        Serial_Escritura_Memoria@direccion 006C  
                              ?___xxtofl 0060                                  _INT_isr 0008  
                  _Motor_Movimiento_Home 23BA                     __size_ofi2_PWM_InitF 0020  
                   __size_ofi2_PWM_InitS 001E                          __CFG_VREGEN$OFF 000000  
      __size_of_Serial_Escritura_Memoria 0136                ?_Serial_Escritura_Memoria 0068  
                ??_Motor_Calcular_PasosX 0062                  ??_Motor_Calcular_PasosY 0062  
                                _Lectura 0053                                  _Int_Ext 2660  
                           _bites_menosS 0058                             ??_USART_Init 0072  
                      ?_Motor_Conversion 0091                                  __Hparam 0000  
                        ?i2_PWM_OneshotX 0001                          ?i2_PWM_OneshotY 0001  
                                __Lparam 0000                       ??_Motor_Conversion 0093  
                                ___aldiv 169A                                  ___fldiv 041E  
                                ___fltol 17A8                          __size_of___wmul 0028  
                      __end_of_main_Home 232A                                _EEPROM_Rx 274E  
                              _EEPROM_Tx 24BA                           USART_Init@BAUD 006E  
                                __pcinit 263A                                  __ramtop 0800  
                                __ptext0 25E8                                  __ptext1 22E2  
                                __ptext2 2776                                  __ptext3 1FF2  
                                __ptext4 169A                                  __ptext5 0012  
                                __ptext6 2232                                  __ptext7 2764  
                                __ptext8 18B0                                  __ptext9 19B6  
  Seria_Decodificacion_Memoria@direccion 006A                                _T2CONbits 000FCA  
                     _PWM_GeneratePulsos 12B8                                  _isdigit 244A  
                                _ivln2_h 7CC5                             ??i2___xxtofl 0005  
                                _ivln2_l 7C69                               ??___xxtofl 0064  
                           _CoordenadaXX 004F                             _CoordenadaYY 004D  
                       ___aldiv@dividend 0060                                  _isspace 228E  
       __size_of_Serial_Lectura_MemoriaX 0104         __size_of_Serial_Lectura_MemoriaY 0106  
       __size_of_Serial_Lectura_MemoriaZ 0106                                  atoi@neg 006D  
                     __end_of_USART_Init 2068                      __size_of_Motor_Home 000C  
               ??_Serial_DecodificacionX 007A                 ??_Serial_DecodificacionY 007A  
                         __pintcode_body 214E                      ?_PWM_GeneratePulsos 0062  
              __size_of_Actuator_Retract 001A                     end_of_initialization 2652  
                        _Coordenadas_mal 00B2               i2PWM_GeneratePulsos@countX 0009  
             i2PWM_GeneratePulsos@countY 000B                            __Lmediumconst 7C54  
                                int_func 214E                            _Actuator_Hold 271C  
                      _pasos_convertidos 00B0                           i2___xxtofl@arg 000B  
                         i2___xxtofl@exp 000A                           i2___xxtofl@val 0001  
                   _coordenada_anteriorX 00A6                     _coordenada_anteriorY 00A4  
            i2PWM_GeneratePulsos@Oupcode 0008               ??_Serial_RangosCoordenadas 0062  
                              _RCSTAbits 000FAB                       __end_ofi2___xxtofl 112A  
                       ___aldiv@quotient 006A                                  postdec2 000FDD  
                                postinc0 000FEE                                  postinc2 000FDE  
                   ??_PWM_GeneratePulsos 0066                  Motor_Movimiento@Oupcode 009B  
                  Serial_Oupcode@Oupcode 009F                               ?_EEPROM_Rx 0001  
                             ?_EEPROM_Tx 0060                        ?_Motor_Movimiento 0097  
                              _PORTCbits 000F82                                _PORTDbits 000F83  
           i2Motor_Conversion@Coordenada 0032                       ??_Motor_Movimiento 009B  
                          ___xxtofl@sign 0068                                _USART_RxC 2764  
                 ?_Motor_Movimiento_Home 0038                                _TRISAbits 000F92  
                              _USART_RxS 2232                                _USART_TxS 20DC  
                              _TRISBbits 000F93                                _TRISCbits 000F94  
                              _TRISDbits 000F95                                _TRISEbits 000F96  
            i2PWM_GeneratePulsos@pulsosX 0003              i2PWM_GeneratePulsos@pulsosY 0005  
                            ___fldiv@grs 0081                              ___fldiv@rem 007A  
                        i2___fltol@sign1 0030                            EEPROM_Tx@dato 0060  
                       ??_Serial_Oupcode 009C                                _PWM_InitF 2686  
                              _PWM_InitS 26C6                                i2___fldiv 07BA  
                              i2___fltol 1ABC                           ?_Actuator_Hold 0001  
                              _TXSTAbits 000FAC        Serial_Oupcode@instruction_counter 009E  
                          ?i2_Motor_Home 0001                            ??_INT0_ACTION 0001  
                          ??_INT1_ACTION 003D                            ??_INT2_ACTION 003D  
                         __end_of___wmul 263A                                _Distancia 00A0  
                    start_initialization 263A                               ?_USART_RxC 0001  
                             ?_USART_RxS 0060                     __size_ofi2_main_Home 0048  
                             ?_USART_TxS 0060                              __end_of_lg2 7C85  
                      _Direccion_Memoria 00B4                              __end_of_ovt 7C79  
                             ?_PWM_InitF 0001                               ?_PWM_InitS 0001  
                             ?i2___fldiv 000F                               ?i2___fltol 0028  
        __size_of_Serial_DecodificacionX 00CA          __size_of_Serial_DecodificacionY 00D6  
Serial_DecodificacionX@string_coordenada 0076                            ?_PWM_OneshotX 0060  
                          ?_PWM_OneshotY 0060                           ??i2_Motor_Home 0001  
                           ??_Motor_Home 0060                                 ??___wmul 0064  
                       __CFG_LPT1OSC$OFF 000000                              ??_EEPROM_Rx 0060  
                            ??_EEPROM_Tx 0061  Serial_Escritura_Memoria@string_setpoint 0068  
            __size_ofi2_Motor_Conversion 0072                      __end_of_INT0_ACTION 274E  
                              ___fldiv@a 0072                                ___fldiv@b 006E  
       __end_of_Serial_Escritura_Memoria 169A                      __end_of_INT1_ACTION 23BA  
                _Serial_Lectura_MemoriaX 1BC2                  _Serial_Lectura_MemoriaY 19B6  
                _Serial_Lectura_MemoriaZ 18B0                              __pbssCOMRAM 0040  
                    __end_of_INT2_ACTION 2372                            __pcstackBANK0 0060  
                               ?_INT_isr 0001                        __end_ofsqrtf@tiny 7C69  
                      __size_of___xxtofl 01B8                 Serial_Lectura_MemoriaX@i 007E  
               Serial_Lectura_MemoriaY@i 007E                 Serial_Lectura_MemoriaZ@i 007E  
                     PWM_OneshotX@countX 0060                       __end_of_Motor_Home 2782  
                       _Actuator_Retract 2702                          ??_Actuator_Hold 0068  
                     PWM_OneshotY@countY 0060                         ??i2_PWM_OneshotX 0003  
                       ??i2_PWM_OneshotY 0003             __end_ofi2_PWM_GeneratePulsos 1564  
                              _atoi$2381 006F                                _atoi$2382 0073  
                              _atoi$2383 0071                           ??_PWM_OneshotX 0062  
                         ??_PWM_OneshotY 0062                                 ?_Int_Ext 0001  
Motor_Calcular_PasosX@coordenada_actualX 0060           __size_of_Motor_Calcular_PasosX 0084  
         __size_of_Motor_Calcular_PasosY 0084            __end_of_Motor_Calcular_PasosX 1FF2  
          __end_of_Motor_Calcular_PasosY 1F6E                                __pintcode 0008  
                          __pmediumconst 7C54                                 ?___aldiv 0060  
                               ?___fldiv 006E                   _Serial_DecodificacionX 1D9C  
                 _Serial_DecodificacionY 1CC6                                 ?___fltol 0087  
                              _main_Home 22E2                                fabsf@F463 0040  
              __size_of_Motor_Conversion 0074                                 ?_isdigit 0060  
                               ?_isspace 0060                              ??_USART_RxC 0060  
                            ??_USART_RxS 0062                              ??_USART_TxS 0064  
                          ??i2_PWM_InitF 0001                            ??i2_PWM_InitS 0001  
                            ??_PWM_InitF 0060                              ??_PWM_InitS 0060  
                            ??i2___fldiv 0017                              ??i2___fltol 002C  
                __size_of_Actuator_Touch 0036                 PWM_GeneratePulsos@countX 0068  
               PWM_GeneratePulsos@countY 006A                          ___aldiv@divisor 0064  
                        ___aldiv@counter 0068                Serial_RangosCoordenadas@C 0060  
                         ___wmul@product 0064                                 _LATCbits 000F8B  
                               _LATDbits 000F8C                                 i2u240_40 25C4  
                               i2u320_40 154E                                 i2u312_40 1424  
                               i2u240_41 25C0                                 i2u320_41 154A  
                               i2u312_41 1420                                 i2u241_40 25D6  
                               i2u313_40 1456                                 i2u241_41 25D2  
                               i2u313_41 1452                                 i2u250_40 1BA0  
                               i2u242_40 2592                                 i2u314_40 146A  
                               i2u250_41 1B9C                                 i2u242_41 258E  
                               i2u314_41 1466                                 i2u251_40 07D4  
                               i2u243_40 25A4                                 i2u315_40 1490  
                               i2u251_41 07D0                                 i2u243_41 25A0  
                               i2u315_41 148C                                 i2u260_40 0974  
                               i2u252_40 07E6                                 i2u244_40 1AD2  
                               i2u316_40 149E                                 i2u260_41 0970  
                               i2u252_41 07E2                                 i2u244_41 1ACE  
                               i2u316_41 149A                                 i2u261_40 099E  
                               i2u253_40 07F6                                 i2u245_40 1B06  
                               i2u317_40 14E0                                 i2u261_41 099A  
                               i2u253_41 07F2                                 i2u317_41 14DC  
                               i2u245_45 1AFC                                 i2u270_40 0A9A  
                               i2u262_40 09C2                                 i2u254_40 083A  
                               i2u246_40 1B34                                 i2u318_40 14EE  
                               i2u270_41 0A96                                 i2u262_41 09BE  
                               i2u254_41 0836                                 i2u246_41 1B30  
                               i2u318_41 14EA                                 i2u271_40 0AE2  
                               i2u263_40 09D8                                 i2u255_40 084C  
                               i2u247_40 1B48                                 i2u319_40 1530  
                               i2u271_41 0ADE                                 i2u263_41 09D4  
                               i2u255_41 0848                                 i2u247_41 1B44  
                               i2u319_41 152C                                 i2u272_40 0B12  
                               i2u264_40 09F6                                 i2u256_40 085C  
                               i2u248_40 1B70                                 i2u280_40 10C0  
                               i2u272_41 0B0E                                 i2u264_41 09F2  
                               i2u256_41 0858                                 i2u248_41 1B6C  
                               i2u280_41 10BC                                 i2u353_40 241E  
                               i2u273_40 0B40                                 i2u265_40 0A16  
                               i2u257_40 089C                                 i2u249_40 1B90  
                               i2u281_40 10CE                                 i2u353_41 241A  
                               i2u273_41 0B3C                                 i2u265_41 0A12  
                               i2u257_41 0898                                 i2u249_41 1B8C  
                               i2u281_41 10CA                                 _PIR1bits 000F9E  
     Serial_Lectura_MemoriaX@coordenadaX 007B                                 i2u354_40 243A  
                               i2u266_40 0A28                                 i2u258_40 08DC  
                               i2u282_40 1108                                 i2u274_40 0F88  
                               i2u354_41 2436                                 i2u266_41 0A24  
                               i2u258_41 08D8                                 i2u282_41 1104  
                               i2u274_41 0F84                                 i2u522_47 2168  
                               i2u267_40 0A56                                 i2u259_40 0952  
                               i2u283_40 1116                                 i2u275_40 0F96  
                               i2u267_41 0A52                                 i2u259_41 094E  
                               i2u283_41 1112                                 i2u275_41 0F92  
                               _PIR2bits 000FA1                                 i2u523_47 218C  
                               i2u268_40 0A6C                                 i2u276_40 0FF2  
                               i2u364_40 239E                                 i2u268_41 0A68  
                               i2u276_41 0FEE                                 i2u364_41 239A  
                               i2u524_47 21B0                                 i2u269_40 0A80  
                               i2u277_40 1048                                 i2u365_40 2356  
                               i2u269_41 0A7C                                 i2u277_41 1044  
                               i2u365_41 2352                                 i2u525_47 2338  
                               i2u278_40 1092                                 i2u278_41 108E  
                               i2u526_47 2380                                 i2u279_40 10B0  
                               i2u279_41 10AC                                 i2u497_40 215E  
                               i2u497_41 215A                                 i2u498_40 2182  
                               i2u498_41 217E                                 i2u499_40 21A6  
                               i2u499_41 21A2                                 _RCONbits 000FD0  
                      i2___fldiv@new_exp 0020                         __CFG_WDTPS$32768 000000  
                            _INT0_ACTION 2736                              _INT1_ACTION 2372  
                            _INT2_ACTION 232A                ??_Serial_Lectura_MemoriaX 0078  
              ??_Serial_Lectura_MemoriaY 0078                ??_Serial_Lectura_MemoriaZ 0078  
                             _ADCON0bits 000FC2                               _ADCON1bits 000FC1  
                             _ADCON2bits 000FC0                        ___wmul@multiplier 0060  
                ??_Motor_Movimiento_Home 003C                               ?_main_Home 0001  
                               _BanderaX 005A                                 _BanderaY 0059  
                    _coordenada_setpoint 00B7                     __end_ofi2_Motor_Home 278E  
                           _isspace$2399 0066             Serial_DecodificacionX@i_1253 0080  
           i2Motor_Conversion@conversion 0034             Serial_DecodificacionY@i_1259 0081  
                       __size_of_INT_isr 21B8                              _INTCON2bits 000FF1  
                            _INTCON3bits 000FF0                 _Serial_Escritura_Memoria 1564  
                             USART_RxS@i 0066                               USART_TxS@i 0066  
              __size_of_Motor_Movimiento 0084                        _Coordenadas_fuera 00B3  
                       USART_RxS@pointer 0060                      __end_ofi2_PWM_InitF 26C6  
                    __end_ofi2_PWM_InitS 2702                               _EECON1bits 000FA6  
                               __Hrparam 0000                         __size_of_Int_Ext 0026  
     Serial_Lectura_MemoriaY@coordenadaY 007B                                 __Lrparam 0000  
            __size_of_PWM_GeneratePulsos 0158                         __size_of___aldiv 010E  
                       __size_of___fldiv 039C                         __size_of___fltol 0108  
                  __CFG_FOSC$INTOSCIO_EC 000000                     i2_PWM_GeneratePulsos 1410  
                   __end_of_PWM_OneshotX 2584                     __end_of_PWM_OneshotY 2552  
                               ___xxtofl 0DBE        __size_of_Serial_RangosCoordenadas 0032  
                       __size_of_isdigit 003A                ?_Serial_RangosCoordenadas 0060  
                       __size_of_isspace 0054                                 __ptext10 1BC2  
                               __ptext11 24EE                                 __ptext20 2612  
                               __ptext12 274E                                 __ptext21 0B54  
                               __ptext13 1564                                 __ptext30 17A8  
                               __ptext22 1E66                                 __ptext14 24BA  
                               __ptext31 041E                                 __ptext23 12B8  
                               __ptext15 1CC6                                 __ptext40 232A  
                               __ptext32 1EEA                                 __ptext24 2520  
                               __ptext16 1D9C                                 __ptext41 2372  
                               __ptext33 1F6E                                 __ptext25 2552  
                               __ptext17 112A                                 __ptext50 07BA  
                               __ptext42 23BA                                 __ptext34 2484  
                               __ptext26 26C6                                 __ptext18 228E  
                               __ptext51 2736                                 __ptext43 1410  
                               __ptext35 2702                                 __ptext27 2686  
                               __ptext19 244A                                 __ptext52 2402  
                               __ptext44 2584                                 __ptext36 271C  
                               __ptext28 2068                                 __ptext53 2782  
                               __ptext45 25B6                                 __ptext37 20DC  
                               __ptext29 0DBE                                 __ptext54 26E4  
                               __ptext46 26A6                                 __ptext38 2660  
                               __ptext47 21C0                                 __ptext48 0F76  
                               __ptext49 1ABC                            __size_of_atoi 018E  
                          __size_of_main 002A                          _USART_Init$2794 0072  
                               _oneshotX 00B6                                 _oneshotY 00B5  
     Serial_Lectura_MemoriaZ@coordenadaZ 007B                                 int$flags 005B  
               __end_of_Actuator_Retract 271C                          USART_RxS@length 0065  
                          ??i2_main_Home 0001                    __CFG_CPUDIV$OSC1_PLL2 000000  
                            ??_main_Home 0060                    ?i2_PWM_GeneratePulsos 0003  
                       _Motor_Conversion 2068                               _INTCONbits 000FF2  
                               isdigit@c 0060                          USART_TxS@length 0062  
                            i2_PWM_InitF 26A6                              i2_PWM_InitS 26E4  
                               intlevel2 0000                           _Actuator_Touch 2484  
Serial_DecodificacionY@string_coordenada 0076                                sqrtf@tiny 7C65  
                        i2___xxtofl@sign 0009                                 isspace@c 0060  
                __size_of_Serial_Oupcode 040C                  ?_Serial_DecodificacionX 0076  
                ?_Serial_DecodificacionY 0076                Serial_Escritura_Memoria@i 006E  
   __end_of_Seria_Decodificacion_Memoria 0DBE    __size_of_Seria_Decodificacion_Memoria 026A  
           _Seria_Decodificacion_Memoria 0B54               __end_ofi2_Motor_Conversion 2232  
                  __size_ofi2_Motor_Home 000C                             ___aldiv@sign 0069  
                 __end_of_Actuator_Touch 24BA                      __end_ofi2_main_Home 244A  
 Motor_Movimiento_Home@Motor_CoordenadaX 0038   Motor_Movimiento_Home@Motor_CoordenadaY 003A  
             Motor_Conversion@Coordenada 0091                         _Motor_Movimiento 1E66  
                  __end_of_Actuator_Hold 2736           __end_of_Serial_DecodificacionX 1E66  
         __end_of_Serial_DecodificacionY 1D9C                               _USART_Init 1FF2  
