

Microchip MPLAB XC8 Assembler V2.10 build 88905656 
                                                                                               Thu Nov 21 16:56:55 2019

Microchip MPLAB XC8 C Compiler v2.10 (Free license) build 20190730164152 Og1 
     1                           	processor	18F4550
     2                           	fnconf	rparam,??,?,0
     3                           	opt	pw 120
     4                           	opt	flic
     5                           	psect	cinit,global,reloc=2,class=CODE,delta=1
     6                           	psect	bssCOMRAM,global,class=COMRAM,space=1,delta=1,noexec
     7                           	psect	cstackCOMRAM,global,class=COMRAM,space=1,delta=1,noexec
     8                           	psect	text0,global,reloc=2,class=CODE,delta=1
     9                           	psect	text1,global,reloc=2,class=CODE,delta=1
    10                           	psect	text2,global,reloc=2,class=CODE,delta=1
    11                           	psect	text3,global,reloc=2,class=CODE,delta=1
    12                           	psect	text4,global,reloc=2,class=CODE,delta=1,group=1
    13                           	psect	text5,global,reloc=2,class=CODE,delta=1
    14                           	psect	text6,global,reloc=2,class=CODE,delta=1
    15                           	psect	text7,global,reloc=2,class=CODE,delta=1,group=2
    16                           	psect	text8,global,reloc=2,class=CODE,delta=1,group=2
    17                           	psect	text9,global,reloc=2,class=CODE,delta=1,group=2
    18                           	psect	text10,global,reloc=2,class=CODE,delta=1,group=1
    19                           	psect	text11,global,reloc=2,class=CODE,delta=1
    20                           	psect	text12,global,reloc=2,class=CODE,delta=1
    21                           	psect	text13,global,reloc=2,class=CODE,delta=1
    22                           	psect	text14,global,reloc=2,class=CODE,delta=1
    23                           	psect	text15,global,reloc=2,class=CODE,delta=1
    24                           	psect	text16,global,reloc=2,class=CODE,delta=1
    25                           	psect	text17,global,reloc=2,class=CODE,delta=1,group=1
    26                           	psect	text18,global,reloc=2,class=CODE,delta=1,group=1
    27                           	psect	text19,global,reloc=2,class=CODE,delta=1,group=1
    28                           	psect	intsave_regs,global,class=BIGRAM,space=1,delta=1,noexec
    29                           	psect	rparam,global,class=COMRAM,space=1,delta=1,noexec
    30  0000                     
    31                           ; Version 2.10
    32                           ; Generated 31/07/2019 GMT
    33                           ; 
    34                           ; Copyright © 2019, Microchip Technology Inc. and its subsidiaries ("Microchip")
    35                           ; All rights reserved.
    36                           ; 
    37                           ; This software is developed by Microchip Technology Inc. and its subsidiaries ("Microch
      +                          ip").
    38                           ; 
    39                           ; Redistribution and use in source and binary forms, with or without modification, are
    40                           ; permitted provided that the following conditions are met:
    41                           ; 
    42                           ;     1. Redistributions of source code must retain the above copyright notice, this lis
      +                          t of
    43                           ;        conditions and the following disclaimer.
    44                           ; 
    45                           ;     2. Redistributions in binary form must reproduce the above copyright notice, this 
      +                          list
    46                           ;        of conditions and the following disclaimer in the documentation and/or other
    47                           ;        materials provided with the distribution.
    48                           ; 
    49                           ;     3. Microchip's name may not be used to endorse or promote products derived from th
      +                          is
    50                           ;        software without specific prior written permission.
    51                           ; 
    52                           ; THIS SOFTWARE IS PROVIDED BY MICROCHIP "AS IS" AND ANY EXPRESS OR IMPLIED WARRANTIES,
    53                           ; INCLUDING, BUT NOT LIMITED TO, THE IMPLIED WARRANTIES OF MERCHANTABILITY AND FITNESS F
      +                          OR
    54                           ; PURPOSE ARE DISCLAIMED.  IN NO EVENT SHALL MICROCHIP BE LIABLE FOR ANY DIRECT, INDIREC
      +                          T,
    55                           ; INCIDENTAL, SPECIAL, EXEMPLARY, OR CONSEQUENTIAL DAMAGES (INCLUDING BUT NOT LIMITED TO
    56                           ; PROCUREMENT OF SUBSTITUTE GOODS OR SERVICES; LOSS OF USE, DATA OR PROFITS; OR BUSINESS
    57                           ; INTERRUPTION) HOWSOEVER CAUSED AND ON ANY THEORY OF LIABILITY, WHETHER IN CONTRACT, ST
      +                          RICT
    58                           ; LIABILITY, OR TORT (INCLUDING NEGLIGENCE OR OTHERWISE) ARISING IN ANY WAY OUT OF THE U
      +                          SE OF
    59                           ; THIS SOFTWARE, EVEN IF ADVISED OF THE POSSIBILITY OF SUCH DAMAGE.
    60                           ; 
    61                           ; 
    62                           ; Code-generator required, PIC18F4550 Definitions
    63                           ; 
    64                           ; SFR Addresses
    65  0000                     _CCP2CON	set	4026
    66  0000                     _CCP1CON	set	4029
    67  0000                     _T2CON	set	4042
    68  0000                     _CCPR2L	set	4027
    69  0000                     _CCPR1L	set	4030
    70  0000                     _PR2	set	4043
    71  0000                     _T2CONbits	set	4042
    72  0000                     _PORTCbits	set	3970
    73  0000                     _RCREG	set	4014
    74  0000                     _TXREG	set	4013
    75  0000                     _PIR1bits	set	3998
    76  0000                     _RCSTAbits	set	4011
    77  0000                     _TXSTAbits	set	4012
    78  0000                     _SPBRG	set	4015
    79  0000                     _TRISCbits	set	3988
    80  0000                     _OSCCON	set	4051
    81  0000                     _RCIF	set	31989
    82                           
    83                           ; #config settings
    84  0000                     
    85                           	psect	cinit
    86  007182                     __pcinit:
    87                           	opt callstack 0
    88  007182                     start_initialization:
    89                           	opt callstack 0
    90  007182                     __initialization:
    91                           	opt callstack 0
    92                           
    93                           ; Clear objects allocated to COMRAM (23 bytes)
    94  007182  EE00  F03F         	lfsr	0,__pbssCOMRAM
    95  007186  0E17               	movlw	23
    96  007188                     clear_0:
    97  007188  6AEE               	clrf	postinc0,c
    98  00718A  06E8               	decf	wreg,f,c
    99  00718C  E1FD               	bnz	clear_0
   100  00718E                     end_of_initialization:
   101                           	opt callstack 0
   102  00718E                     __end_of__initialization:
   103                           	opt callstack 0
   104  00718E  0E00               	movlw	low (__Lmediumconst shr (0+16))
   105  007190  6EF8               	movwf	tblptru,c
   106  007192  0100               	movlb	0
   107  007194  EF8C  F03A         	goto	_main	;jump to C main() function
   108                           
   109                           	psect	bssCOMRAM
   110  00003F                     __pbssCOMRAM:
   111                           	opt callstack 0
   112  00003F                     _pasosY:
   113                           	opt callstack 0
   114  00003F                     	ds	2
   115  000041                     _pasosX:
   116                           	opt callstack 0
   117  000041                     	ds	2
   118  000043                     _pasos_convertidos:
   119                           	opt callstack 0
   120  000043                     	ds	2
   121  000045                     _pulsosY:
   122                           	opt callstack 0
   123  000045                     	ds	2
   124  000047                     _pulsosX:
   125                           	opt callstack 0
   126  000047                     	ds	2
   127  000049                     _oneshotY:
   128                           	opt callstack 0
   129  000049                     	ds	1
   130  00004A                     _oneshotX:
   131                           	opt callstack 0
   132  00004A                     	ds	1
   133  00004B                     _coordenada_array:
   134                           	opt callstack 0
   135  00004B                     	ds	7
   136  000052                     _CY:
   137                           	opt callstack 0
   138  000052                     	ds	2
   139  000054                     _CX:
   140                           	opt callstack 0
   141  000054                     	ds	2
   142                           
   143                           	psect	cstackCOMRAM
   144  000001                     __pcstackCOMRAM:
   145                           	opt callstack 0
   146  000001                     ?_PWM_OneshotX:
   147                           	opt callstack 0
   148  000001                     ?_PWM_OneshotY:
   149                           	opt callstack 0
   150  000001                     ?_isspace:
   151                           	opt callstack 0
   152  000001                     ?_isdigit:
   153                           	opt callstack 0
   154  000001                     ?___wmul:
   155                           	opt callstack 0
   156  000001                     ?___aldiv:
   157                           	opt callstack 0
   158  000001                     ?___xxtofl:
   159                           	opt callstack 0
   160  000001                     USART_RxS@pointer:
   161                           	opt callstack 0
   162  000001                     PWM_OneshotX@pasosX:
   163                           	opt callstack 0
   164  000001                     PWM_OneshotY@pasosY:
   165                           	opt callstack 0
   166  000001                     ___wmul@multiplier:
   167                           	opt callstack 0
   168  000001                     isdigit@c:
   169                           	opt callstack 0
   170  000001                     isspace@c:
   171                           	opt callstack 0
   172  000001                     ___aldiv@dividend:
   173                           	opt callstack 0
   174  000001                     ___xxtofl@val:
   175                           	opt callstack 0
   176                           
   177                           ; 4 bytes @ 0x0
   178  000001                     	ds	2
   179  000003                     ??_isspace:
   180  000003                     ??_isdigit:
   181  000003                     ??_USART_RxS:
   182  000003                     PWM_GeneratePulsos@pulsosX:
   183                           	opt callstack 0
   184  000003                     ___wmul@multiplicand:
   185                           	opt callstack 0
   186                           
   187                           ; 2 bytes @ 0x2
   188  000003                     	ds	2
   189  000005                     ??___xxtofl:
   190  000005                     PWM_GeneratePulsos@pulsosY:
   191                           	opt callstack 0
   192  000005                     ___wmul@product:
   193                           	opt callstack 0
   194  000005                     ___aldiv@divisor:
   195                           	opt callstack 0
   196                           
   197                           ; 4 bytes @ 0x4
   198  000005                     	ds	1
   199  000006                     USART_RxS@lenght:
   200                           	opt callstack 0
   201                           
   202                           ; 1 bytes @ 0x5
   203  000006                     	ds	1
   204  000007                     ??_PWM_GeneratePulsos:
   205  000007                     _isspace$959:
   206                           	opt callstack 0
   207  000007                     USART_RxS@i:
   208                           	opt callstack 0
   209                           
   210                           ; 2 bytes @ 0x6
   211  000007                     	ds	1
   212  000008                     ?_atoi:
   213                           	opt callstack 0
   214  000008                     PWM_GeneratePulsos@pasosX:
   215                           	opt callstack 0
   216  000008                     atoi@s:
   217                           	opt callstack 0
   218                           
   219                           ; 2 bytes @ 0x7
   220  000008                     	ds	1
   221  000009                     ___aldiv@counter:
   222                           	opt callstack 0
   223  000009                     ___xxtofl@sign:
   224                           	opt callstack 0
   225                           
   226                           ; 1 bytes @ 0x8
   227  000009                     	ds	1
   228  00000A                     ??_atoi:
   229  00000A                     ___aldiv@sign:
   230                           	opt callstack 0
   231  00000A                     ___xxtofl@exp:
   232                           	opt callstack 0
   233  00000A                     PWM_GeneratePulsos@pasosY:
   234                           	opt callstack 0
   235                           
   236                           ; 2 bytes @ 0x9
   237  00000A                     	ds	1
   238  00000B                     ___aldiv@quotient:
   239                           	opt callstack 0
   240  00000B                     ___xxtofl@arg:
   241                           	opt callstack 0
   242                           
   243                           ; 4 bytes @ 0xA
   244  00000B                     	ds	3
   245  00000E                     atoi@neg:
   246                           	opt callstack 0
   247                           
   248                           ; 2 bytes @ 0xD
   249  00000E                     	ds	1
   250  00000F                     ?___fldiv:
   251                           	opt callstack 0
   252  00000F                     USART_Init@BAUD:
   253                           	opt callstack 0
   254  00000F                     ___fldiv@b:
   255                           	opt callstack 0
   256                           
   257                           ; 4 bytes @ 0xE
   258  00000F                     	ds	1
   259  000010                     _atoi$941:
   260                           	opt callstack 0
   261                           
   262                           ; 2 bytes @ 0xF
   263  000010                     	ds	2
   264  000012                     _atoi$943:
   265                           	opt callstack 0
   266                           
   267                           ; 2 bytes @ 0x11
   268  000012                     	ds	1
   269  000013                     ___fldiv@a:
   270                           	opt callstack 0
   271  000013                     _USART_Init$1159:
   272                           	opt callstack 0
   273                           
   274                           ; 4 bytes @ 0x12
   275  000013                     	ds	1
   276  000014                     _atoi$942:
   277                           	opt callstack 0
   278                           
   279                           ; 1 bytes @ 0x13
   280  000014                     	ds	1
   281  000015                     atoi@n:
   282                           	opt callstack 0
   283                           
   284                           ; 2 bytes @ 0x14
   285  000015                     	ds	2
   286  000017                     ??___fldiv:
   287  000017                     Serial_DecodificacionX@string_coordenada:
   288                           	opt callstack 0
   289  000017                     Serial_DecodificacionY@string_coordenada:
   290                           	opt callstack 0
   291                           
   292                           ; 2 bytes @ 0x16
   293  000017                     	ds	2
   294  000019                     Serial_DecodificacionX@pointerCX:
   295                           	opt callstack 0
   296  000019                     Serial_DecodificacionY@pointerCY:
   297                           	opt callstack 0
   298                           
   299                           ; 2 bytes @ 0x18
   300  000019                     	ds	2
   301  00001B                     ??_Serial_DecodificacionY:
   302  00001B                     Serial_DecodificacionX@coordenadaX:
   303                           	opt callstack 0
   304  00001B                     ___fldiv@rem:
   305                           	opt callstack 0
   306                           
   307                           ; 4 bytes @ 0x1A
   308  00001B                     	ds	2
   309  00001D                     Serial_DecodificacionY@coordenadaY:
   310                           	opt callstack 0
   311                           
   312                           ; 3 bytes @ 0x1C
   313  00001D                     	ds	1
   314  00001E                     Serial_DecodificacionX@i:
   315                           	opt callstack 0
   316                           
   317                           ; 2 bytes @ 0x1D
   318  00001E                     	ds	1
   319  00001F                     ___fldiv@sign:
   320                           	opt callstack 0
   321                           
   322                           ; 1 bytes @ 0x1E
   323  00001F                     	ds	1
   324  000020                     Serial_DecodificacionY@i:
   325                           	opt callstack 0
   326  000020                     ___fldiv@new_exp:
   327                           	opt callstack 0
   328                           
   329                           ; 2 bytes @ 0x1F
   330  000020                     	ds	2
   331  000022                     ___fldiv@grs:
   332                           	opt callstack 0
   333                           
   334                           ; 4 bytes @ 0x21
   335  000022                     	ds	4
   336  000026                     ___fldiv@bexp:
   337                           	opt callstack 0
   338                           
   339                           ; 1 bytes @ 0x25
   340  000026                     	ds	1
   341  000027                     ___fldiv@aexp:
   342                           	opt callstack 0
   343                           
   344                           ; 1 bytes @ 0x26
   345  000027                     	ds	1
   346  000028                     ?___fltol:
   347                           	opt callstack 0
   348  000028                     ___fltol@f1:
   349                           	opt callstack 0
   350                           
   351                           ; 4 bytes @ 0x27
   352  000028                     	ds	4
   353  00002C                     ??___fltol:
   354                           
   355                           ; 1 bytes @ 0x2B
   356  00002C                     	ds	4
   357  000030                     ___fltol@sign1:
   358                           	opt callstack 0
   359                           
   360                           ; 1 bytes @ 0x2F
   361  000030                     	ds	1
   362  000031                     ___fltol@exp1:
   363                           	opt callstack 0
   364                           
   365                           ; 1 bytes @ 0x30
   366  000031                     	ds	1
   367  000032                     ?_Motor_Conversion:
   368                           	opt callstack 0
   369  000032                     Motor_Conversion@Coordenada:
   370                           	opt callstack 0
   371                           
   372                           ; 2 bytes @ 0x31
   373  000032                     	ds	2
   374  000034                     Motor_Conversion@conversion:
   375                           	opt callstack 0
   376                           
   377                           ; 4 bytes @ 0x33
   378  000034                     	ds	4
   379  000038                     Motor_Movimiento@CoordenadaX:
   380                           	opt callstack 0
   381                           
   382                           ; 2 bytes @ 0x37
   383  000038                     	ds	2
   384  00003A                     Motor_Movimiento@CoordenadaY:
   385                           	opt callstack 0
   386                           
   387                           ; 2 bytes @ 0x39
   388  00003A                     	ds	2
   389  00003C                     ??_main:
   390                           
   391                           ; 1 bytes @ 0x3B
   392  00003C                     	ds	2
   393  00003E                     main@Oupcode:
   394                           	opt callstack 0
   395                           
   396                           ; 1 bytes @ 0x3D
   397  00003E                     	ds	1
   398                           
   399 ;;
   400 ;;Main: autosize = 0, tempsize = 2, incstack = 0, save=0
   401 ;;
   402 ;; *************** function _main *****************
   403 ;; Defined at:
   404 ;;		line 18 in file "serial.c"
   405 ;; Parameters:    Size  Location     Type
   406 ;;		None
   407 ;; Auto vars:     Size  Location     Type
   408 ;;  Oupcode         1   61[COMRAM] unsigned char 
   409 ;; Return value:  Size  Location     Type
   410 ;;                  1    wreg      void 
   411 ;; Registers used:
   412 ;;		wreg, fsr1l, fsr1h, fsr2l, fsr2h, status,2, status,0, prodl, prodh, cstack
   413 ;; Tracked objects:
   414 ;;		On entry : 0/0
   415 ;;		On exit  : 0/0
   416 ;;		Unchanged: 0/0
   417 ;; Data sizes:     COMRAM   BANK0   BANK1   BANK2   BANK3   BANK4   BANK5   BANK6   BANK7
   418 ;;      Params:         0       0       0       0       0       0       0       0       0
   419 ;;      Locals:         1       0       0       0       0       0       0       0       0
   420 ;;      Temps:          2       0       0       0       0       0       0       0       0
   421 ;;      Totals:         3       0       0       0       0       0       0       0       0
   422 ;;Total ram usage:        3 bytes
   423 ;; Hardware stack levels required when called:    3
   424 ;; This function calls:
   425 ;;		_Motor_Movimiento
   426 ;;		_Serial_DecodificacionX
   427 ;;		_Serial_DecodificacionY
   428 ;;		_USART_Init
   429 ;;		_USART_Rx
   430 ;;		_USART_RxS
   431 ;; This function is called by:
   432 ;;		Startup code after reset
   433 ;; This function uses a non-reentrant model
   434 ;;
   435                           
   436                           	psect	text0
   437  007518                     __ptext0:
   438                           	opt callstack 0
   439  007518                     _main:
   440                           	opt callstack 28
   441  007518                     
   442                           ;serial.c: 19:     USART_Init(9600);
   443  007518  0E80               	movlw	128
   444  00751A  6E0F               	movwf	USART_Init@BAUD^0,c
   445  00751C  0E25               	movlw	37
   446  00751E  6E10               	movwf	(USART_Init@BAUD+1)^0,c
   447  007520  0E00               	movlw	0
   448  007522  6E11               	movwf	(USART_Init@BAUD+2)^0,c
   449  007524  0E00               	movlw	0
   450  007526  6E12               	movwf	(USART_Init@BAUD+3)^0,c
   451  007528  EC52  F03A         	call	_USART_Init	;wreg free
   452  00752C                     l1951:
   453                           
   454                           ;serial.c: 21:         char Oupcode = USART_Rx();
   455  00752C  ECB8  F038         	call	_USART_Rx	;wreg free
   456  007530  6E3E               	movwf	main@Oupcode^0,c
   457                           
   458                           ;serial.c: 22:         switch (Oupcode) {
   459  007532  EFDF  F03A         	goto	l1969
   460  007536                     l1953:
   461                           
   462                           ;serial.c: 24:                 USART_RxS(7, coordenada_array);
   463  007536  0E4B               	movlw	low _coordenada_array
   464  007538  6E01               	movwf	USART_RxS@pointer^0,c
   465  00753A  0E00               	movlw	high _coordenada_array
   466  00753C  6E02               	movwf	(USART_RxS@pointer+1)^0,c
   467  00753E  0E07               	movlw	7
   468  007540  EC86  F039         	call	_USART_RxS
   469  007544                     
   470                           ;serial.c: 25:                 Serial_DecodificacionX(coordenada_array, &CX);
   471  007544  0E4B               	movlw	low _coordenada_array
   472  007546  6E17               	movwf	Serial_DecodificacionX@string_coordenada^0,c
   473  007548  0E00               	movlw	high _coordenada_array
   474  00754A  6E18               	movwf	(Serial_DecodificacionX@string_coordenada+1)^0,c
   475  00754C  0E54               	movlw	low _CX
   476  00754E  6E19               	movwf	Serial_DecodificacionX@pointerCX^0,c
   477  007550  0E00               	movlw	high _CX
   478  007552  6E1A               	movwf	(Serial_DecodificacionX@pointerCX+1)^0,c
   479  007554  ECB1  F039         	call	_Serial_DecodificacionX	;wreg free
   480  007558                     
   481                           ;serial.c: 26:                 Serial_DecodificacionY(coordenada_array, &CY);
   482  007558  0E4B               	movlw	low _coordenada_array
   483  00755A  6E17               	movwf	Serial_DecodificacionY@string_coordenada^0,c
   484  00755C  0E00               	movlw	high _coordenada_array
   485  00755E  6E18               	movwf	(Serial_DecodificacionY@string_coordenada+1)^0,c
   486  007560  0E52               	movlw	low _CY
   487  007562  6E19               	movwf	Serial_DecodificacionY@pointerCY^0,c
   488  007564  0E00               	movlw	high _CY
   489  007566  6E1A               	movwf	(Serial_DecodificacionY@pointerCY+1)^0,c
   490  007568  ECE2  F039         	call	_Serial_DecodificacionY	;wreg free
   491  00756C                     
   492                           ;serial.c: 27:                 Motor_Movimiento(CX,CY);
   493  00756C  C054  F038         	movff	_CX,Motor_Movimiento@CoordenadaX
   494  007570  C055  F039         	movff	_CX+1,Motor_Movimiento@CoordenadaX+1
   495  007574  C052  F03A         	movff	_CY,Motor_Movimiento@CoordenadaY
   496  007578  C053  F03B         	movff	_CY+1,Motor_Movimiento@CoordenadaY+1
   497  00757C  EC3E  F039         	call	_Motor_Movimiento	;wreg free
   498                           
   499                           ;serial.c: 28:                 break;
   500  007580  EF96  F03A         	goto	l1951
   501  007584                     l1961:
   502                           
   503                           ;serial.c: 30:                 USART_RxS(7, coordenada_array);
   504  007584  0E4B               	movlw	low _coordenada_array
   505  007586  6E01               	movwf	USART_RxS@pointer^0,c
   506  007588  0E00               	movlw	high _coordenada_array
   507  00758A  6E02               	movwf	(USART_RxS@pointer+1)^0,c
   508  00758C  0E07               	movlw	7
   509  00758E  EC86  F039         	call	_USART_RxS
   510  007592                     
   511                           ;serial.c: 31:                 Serial_DecodificacionX(coordenada_array, &CX);
   512  007592  0E4B               	movlw	low _coordenada_array
   513  007594  6E17               	movwf	Serial_DecodificacionX@string_coordenada^0,c
   514  007596  0E00               	movlw	high _coordenada_array
   515  007598  6E18               	movwf	(Serial_DecodificacionX@string_coordenada+1)^0,c
   516  00759A  0E54               	movlw	low _CX
   517  00759C  6E19               	movwf	Serial_DecodificacionX@pointerCX^0,c
   518  00759E  0E00               	movlw	high _CX
   519  0075A0  6E1A               	movwf	(Serial_DecodificacionX@pointerCX+1)^0,c
   520  0075A2  ECB1  F039         	call	_Serial_DecodificacionX	;wreg free
   521  0075A6                     
   522                           ;serial.c: 32:                 Serial_DecodificacionY(coordenada_array, &CY);
   523  0075A6  0E4B               	movlw	low _coordenada_array
   524  0075A8  6E17               	movwf	Serial_DecodificacionY@string_coordenada^0,c
   525  0075AA  0E00               	movlw	high _coordenada_array
   526  0075AC  6E18               	movwf	(Serial_DecodificacionY@string_coordenada+1)^0,c
   527  0075AE  0E52               	movlw	low _CY
   528  0075B0  6E19               	movwf	Serial_DecodificacionY@pointerCY^0,c
   529  0075B2  0E00               	movlw	high _CY
   530  0075B4  6E1A               	movwf	(Serial_DecodificacionY@pointerCY+1)^0,c
   531  0075B6  ECE2  F039         	call	_Serial_DecodificacionY	;wreg free
   532                           
   533                           ;serial.c: 33:                 break;
   534  0075BA  EF96  F03A         	goto	l1951
   535  0075BE                     l1969:
   536  0075BE  503E               	movf	main@Oupcode^0,w,c
   537  0075C0  6E3C               	movwf	??_main^0,c
   538  0075C2  6A3D               	clrf	(??_main+1)^0,c
   539                           
   540                           ; Switch on 2 bytes has been partitioned into a top level switch of size 1, and 1 sub-sw
      +                          itches
   541                           ; Switch size 1, requested type "simple"
   542                           ; Number of cases is 1, Range of values is 0 to 0
   543                           ; switch strategies available:
   544                           ; Name         Instructions Cycles
   545                           ; simple_byte            4     3 (average)
   546                           ;	Chosen strategy is simple_byte
   547  0075C4  503D               	movf	(??_main+1)^0,w,c
   548  0075C6  0A00               	xorlw	0	; case 0
   549  0075C8  B4D8               	btfsc	status,2,c
   550  0075CA  EFE9  F03A         	goto	l1983
   551  0075CE  EF96  F03A         	goto	l1951
   552  0075D2                     l1983:
   553                           
   554                           ; Switch size 1, requested type "simple"
   555                           ; Number of cases is 6, Range of values is 70 to 84
   556                           ; switch strategies available:
   557                           ; Name         Instructions Cycles
   558                           ; simple_byte           19    10 (average)
   559                           ;	Chosen strategy is simple_byte
   560  0075D2  503C               	movf	??_main^0,w,c
   561  0075D4  0A46               	xorlw	70	; case 70
   562  0075D6  B4D8               	btfsc	status,2,c
   563  0075D8  EF9B  F03A         	goto	l1953
   564  0075DC  0A0E               	xorlw	14	; case 72
   565  0075DE  B4D8               	btfsc	status,2,c
   566  0075E0  EF96  F03A         	goto	l1951
   567  0075E4  0A07               	xorlw	7	; case 79
   568  0075E6  B4D8               	btfsc	status,2,c
   569  0075E8  EF96  F03A         	goto	l1951
   570  0075EC  0A1D               	xorlw	29	; case 82
   571  0075EE  B4D8               	btfsc	status,2,c
   572  0075F0  EF96  F03A         	goto	l1951
   573  0075F4  0A01               	xorlw	1	; case 83
   574  0075F6  B4D8               	btfsc	status,2,c
   575  0075F8  EFC2  F03A         	goto	l1961
   576  0075FC  0A07               	xorlw	7	; case 84
   577  0075FE  B4D8               	btfsc	status,2,c
   578  007600  EF96  F03A         	goto	l1951
   579  007604  EF96  F03A         	goto	l1951
   580  007608  EF00  F000         	goto	start
   581  00760C                     __end_of_main:
   582                           	opt callstack 0
   583                           
   584 ;; *************** function _USART_RxS *****************
   585 ;; Defined at:
   586 ;;		line 48 in file "UART.c"
   587 ;; Parameters:    Size  Location     Type
   588 ;;  lenght          1    wreg     unsigned char 
   589 ;;  pointer         2    0[COMRAM] PTR unsigned char 
   590 ;;		 -> coordenada_array(7), 
   591 ;; Auto vars:     Size  Location     Type
   592 ;;  lenght          1    5[COMRAM] unsigned char 
   593 ;;  i               2    6[COMRAM] int 
   594 ;; Return value:  Size  Location     Type
   595 ;;                  1    wreg      void 
   596 ;; Registers used:
   597 ;;		wreg, fsr2l, fsr2h, status,2, status,0
   598 ;; Tracked objects:
   599 ;;		On entry : 0/0
   600 ;;		On exit  : 0/0
   601 ;;		Unchanged: 0/0
   602 ;; Data sizes:     COMRAM   BANK0   BANK1   BANK2   BANK3   BANK4   BANK5   BANK6   BANK7
   603 ;;      Params:         2       0       0       0       0       0       0       0       0
   604 ;;      Locals:         3       0       0       0       0       0       0       0       0
   605 ;;      Temps:          3       0       0       0       0       0       0       0       0
   606 ;;      Totals:         8       0       0       0       0       0       0       0       0
   607 ;;Total ram usage:        8 bytes
   608 ;; Hardware stack levels used:    1
   609 ;; This function calls:
   610 ;;		Nothing
   611 ;; This function is called by:
   612 ;;		_main
   613 ;; This function uses a non-reentrant model
   614 ;;
   615                           
   616                           	psect	text1
   617  00730C                     __ptext1:
   618                           	opt callstack 0
   619  00730C                     _USART_RxS:
   620                           	opt callstack 30
   621                           
   622                           ;incstack = 0
   623                           ;USART_RxS@lenght stored from wreg
   624  00730C  6E06               	movwf	USART_RxS@lenght^0,c
   625  00730E                     
   626                           ;UART.c: 49:     for (int i = 0; i < lenght; i++)
   627  00730E  0E00               	movlw	0
   628  007310  6E08               	movwf	(USART_RxS@i+1)^0,c
   629  007312  0E00               	movlw	0
   630  007314  6E07               	movwf	USART_RxS@i^0,c
   631  007316  EF9E  F039         	goto	l1917
   632  00731A                     l52:
   633  00731A  AA9E               	btfss	3998,5,c	;volatile
   634  00731C  EF92  F039         	goto	u1441
   635  007320  EF94  F039         	goto	u1440
   636  007324                     u1441:
   637  007324  EF8D  F039         	goto	l52
   638  007328                     u1440:
   639  007328                     
   640                           ;UART.c: 52:             pointer[i] = RCREG;
   641  007328  5007               	movf	USART_RxS@i^0,w,c
   642  00732A  2401               	addwf	USART_RxS@pointer^0,w,c
   643  00732C  6ED9               	movwf	fsr2l,c
   644  00732E  5008               	movf	(USART_RxS@i+1)^0,w,c
   645  007330  2002               	addwfc	(USART_RxS@pointer+1)^0,w,c
   646  007332  6EDA               	movwf	fsr2h,c
   647  007334  CFAE FFDF          	movff	4014,indf2	;volatile
   648  007338                     
   649                           ;UART.c: 53:         }
   650  007338  4A07               	infsnz	USART_RxS@i^0,f,c
   651  00733A  2A08               	incf	(USART_RxS@i+1)^0,f,c
   652  00733C                     l1917:
   653  00733C  5006               	movf	USART_RxS@lenght^0,w,c
   654  00733E  6E03               	movwf	??_USART_RxS^0,c
   655  007340  6A04               	clrf	(??_USART_RxS+1)^0,c
   656  007342  5003               	movf	??_USART_RxS^0,w,c
   657  007344  5C07               	subwf	USART_RxS@i^0,w,c
   658  007346  5008               	movf	(USART_RxS@i+1)^0,w,c
   659  007348  0A80               	xorlw	128
   660  00734A  6E05               	movwf	(??_USART_RxS+2)^0,c
   661  00734C  5004               	movf	(??_USART_RxS+1)^0,w,c
   662  00734E  0A80               	xorlw	128
   663  007350  5805               	subwfb	(??_USART_RxS+2)^0,w,c
   664  007352  A0D8               	btfss	status,0,c
   665  007354  EFAE  F039         	goto	u1451
   666  007358  EFB0  F039         	goto	u1450
   667  00735C                     u1451:
   668  00735C  EF8D  F039         	goto	l52
   669  007360                     u1450:
   670  007360  0012               	return		;funcret
   671  007362                     __end_of_USART_RxS:
   672                           	opt callstack 0
   673                           
   674 ;; *************** function _USART_Rx *****************
   675 ;; Defined at:
   676 ;;		line 30 in file "UART.c"
   677 ;; Parameters:    Size  Location     Type
   678 ;;		None
   679 ;; Auto vars:     Size  Location     Type
   680 ;;		None
   681 ;; Return value:  Size  Location     Type
   682 ;;                  1    wreg      unsigned char 
   683 ;; Registers used:
   684 ;;		wreg, status,2
   685 ;; Tracked objects:
   686 ;;		On entry : 0/0
   687 ;;		On exit  : 0/0
   688 ;;		Unchanged: 0/0
   689 ;; Data sizes:     COMRAM   BANK0   BANK1   BANK2   BANK3   BANK4   BANK5   BANK6   BANK7
   690 ;;      Params:         0       0       0       0       0       0       0       0       0
   691 ;;      Locals:         0       0       0       0       0       0       0       0       0
   692 ;;      Temps:          0       0       0       0       0       0       0       0       0
   693 ;;      Totals:         0       0       0       0       0       0       0       0       0
   694 ;;Total ram usage:        0 bytes
   695 ;; Hardware stack levels used:    1
   696 ;; This function calls:
   697 ;;		Nothing
   698 ;; This function is called by:
   699 ;;		_main
   700 ;; This function uses a non-reentrant model
   701 ;;
   702                           
   703                           	psect	text2
   704  007170                     __ptext2:
   705                           	opt callstack 0
   706  007170                     _USART_Rx:
   707                           	opt callstack 30
   708  007170                     l30:
   709  007170  AA9E               	btfss	158,5,c	;volatile
   710  007172  EFBD  F038         	goto	u691
   711  007176  EFBF  F038         	goto	u690
   712  00717A                     u691:
   713  00717A  EFB8  F038         	goto	l30
   714  00717E                     u690:
   715  00717E                     
   716                           ;UART.c: 32:     return RCREG;
   717  00717E  50AE               	movf	174,w,c	;volatile
   718  007180  0012               	return		;funcret
   719  007182                     __end_of_USART_Rx:
   720                           	opt callstack 0
   721                           
   722 ;; *************** function _USART_Init *****************
   723 ;; Defined at:
   724 ;;		line 6 in file "UART.c"
   725 ;; Parameters:    Size  Location     Type
   726 ;;  BAUD            4   14[COMRAM] long 
   727 ;; Auto vars:     Size  Location     Type
   728 ;;		None
   729 ;; Return value:  Size  Location     Type
   730 ;;                  1    wreg      void 
   731 ;; Registers used:
   732 ;;		wreg, status,2, status,0, cstack
   733 ;; Tracked objects:
   734 ;;		On entry : 0/0
   735 ;;		On exit  : 0/0
   736 ;;		Unchanged: 0/0
   737 ;; Data sizes:     COMRAM   BANK0   BANK1   BANK2   BANK3   BANK4   BANK5   BANK6   BANK7
   738 ;;      Params:         4       0       0       0       0       0       0       0       0
   739 ;;      Locals:         4       0       0       0       0       0       0       0       0
   740 ;;      Temps:          0       0       0       0       0       0       0       0       0
   741 ;;      Totals:         8       0       0       0       0       0       0       0       0
   742 ;;Total ram usage:        8 bytes
   743 ;; Hardware stack levels used:    1
   744 ;; Hardware stack levels required when called:    1
   745 ;; This function calls:
   746 ;;		___aldiv
   747 ;; This function is called by:
   748 ;;		_main
   749 ;; This function uses a non-reentrant model
   750 ;;
   751                           
   752                           	psect	text3
   753  0074A4                     __ptext3:
   754                           	opt callstack 0
   755  0074A4                     _USART_Init:
   756                           	opt callstack 29
   757  0074A4                     
   758                           ;UART.c: 7:       OSCCON= 0x72;
   759  0074A4  0E72               	movlw	114
   760  0074A6  6ED3               	movwf	211,c	;volatile
   761  0074A8                     
   762                           ;UART.c: 8:     TRISCbits.RC6 = 0;
   763  0074A8  9C94               	bcf	148,6,c	;volatile
   764  0074AA                     
   765                           ;UART.c: 9:     TRISCbits.RC7 = 1;
   766  0074AA  8E94               	bsf	148,7,c	;volatile
   767  0074AC                     
   768                           ;UART.c: 12:     SPBRG = (unsigned char)(((8000000/BAUD)/64)-1);
   769  0074AC  C00F  F005         	movff	USART_Init@BAUD,___aldiv@divisor
   770  0074B0  C010  F006         	movff	USART_Init@BAUD+1,___aldiv@divisor+1
   771  0074B4  C011  F007         	movff	USART_Init@BAUD+2,___aldiv@divisor+2
   772  0074B8  C012  F008         	movff	USART_Init@BAUD+3,___aldiv@divisor+3
   773  0074BC  0E00               	movlw	0
   774  0074BE  6E01               	movwf	___aldiv@dividend^0,c
   775  0074C0  0E12               	movlw	18
   776  0074C2  6E02               	movwf	(___aldiv@dividend+1)^0,c
   777  0074C4  0E7A               	movlw	122
   778  0074C6  6E03               	movwf	(___aldiv@dividend+2)^0,c
   779  0074C8  0E00               	movlw	0
   780  0074CA  6E04               	movwf	(___aldiv@dividend+3)^0,c
   781  0074CC  EC0E  F03C         	call	___aldiv	;wreg free
   782  0074D0  C001  F013         	movff	?___aldiv,_USART_Init$1159
   783  0074D4  C002  F014         	movff	?___aldiv+1,_USART_Init$1159+1
   784  0074D8  C003  F015         	movff	?___aldiv+2,_USART_Init$1159+2
   785  0074DC  C004  F016         	movff	?___aldiv+3,_USART_Init$1159+3
   786  0074E0                     
   787                           ;UART.c: 12:     SPBRG = (unsigned char)(((8000000/BAUD)/64)-1);
   788  0074E0  C013  F001         	movff	_USART_Init$1159,___aldiv@dividend
   789  0074E4  C014  F002         	movff	_USART_Init$1159+1,___aldiv@dividend+1
   790  0074E8  C015  F003         	movff	_USART_Init$1159+2,___aldiv@dividend+2
   791  0074EC  C016  F004         	movff	_USART_Init$1159+3,___aldiv@dividend+3
   792  0074F0  0E40               	movlw	64
   793  0074F2  6E05               	movwf	___aldiv@divisor^0,c
   794  0074F4  0E00               	movlw	0
   795  0074F6  6E06               	movwf	(___aldiv@divisor+1)^0,c
   796  0074F8  0E00               	movlw	0
   797  0074FA  6E07               	movwf	(___aldiv@divisor+2)^0,c
   798  0074FC  0E00               	movlw	0
   799  0074FE  6E08               	movwf	(___aldiv@divisor+3)^0,c
   800  007500  EC0E  F03C         	call	___aldiv	;wreg free
   801  007504  0401               	decf	?___aldiv^0,w,c
   802  007506  6EAF               	movwf	175,c	;volatile
   803  007508                     
   804                           ;UART.c: 14:     TXSTAbits.BRGH = 0;
   805  007508  94AC               	bcf	172,2,c	;volatile
   806  00750A                     
   807                           ;UART.c: 15:     TXSTAbits.SYNC = 0;
   808  00750A  98AC               	bcf	172,4,c	;volatile
   809  00750C                     
   810                           ;UART.c: 16:     RCSTAbits.SPEN = 1;
   811  00750C  8EAB               	bsf	171,7,c	;volatile
   812  00750E                     
   813                           ;UART.c: 18:     TXSTAbits.TX9 = 0;
   814  00750E  9CAC               	bcf	172,6,c	;volatile
   815  007510                     
   816                           ;UART.c: 19:     TXSTAbits.TXEN = 1;
   817  007510  8AAC               	bsf	172,5,c	;volatile
   818  007512                     
   819                           ;UART.c: 21:     RCSTAbits.RC9 = 0;
   820  007512  9CAB               	bcf	171,6,c	;volatile
   821  007514                     
   822                           ;UART.c: 22:     RCSTAbits.CREN = 1;
   823  007514  88AB               	bsf	171,4,c	;volatile
   824  007516  0012               	return		;funcret
   825  007518                     __end_of_USART_Init:
   826                           	opt callstack 0
   827                           
   828 ;; *************** function ___aldiv *****************
   829 ;; Defined at:
   830 ;;		line 7 in file "C:\Program Files (x86)\Microchip\xc8\v2.10\pic\sources\c99\common\aldiv.c"
   831 ;; Parameters:    Size  Location     Type
   832 ;;  dividend        4    0[COMRAM] long 
   833 ;;  divisor         4    4[COMRAM] long 
   834 ;; Auto vars:     Size  Location     Type
   835 ;;  quotient        4   10[COMRAM] long 
   836 ;;  sign            1    9[COMRAM] unsigned char 
   837 ;;  counter         1    8[COMRAM] unsigned char 
   838 ;; Return value:  Size  Location     Type
   839 ;;                  4    0[COMRAM] long 
   840 ;; Registers used:
   841 ;;		wreg, status,2, status,0
   842 ;; Tracked objects:
   843 ;;		On entry : 0/0
   844 ;;		On exit  : 0/0
   845 ;;		Unchanged: 0/0
   846 ;; Data sizes:     COMRAM   BANK0   BANK1   BANK2   BANK3   BANK4   BANK5   BANK6   BANK7
   847 ;;      Params:         8       0       0       0       0       0       0       0       0
   848 ;;      Locals:         6       0       0       0       0       0       0       0       0
   849 ;;      Temps:          0       0       0       0       0       0       0       0       0
   850 ;;      Totals:        14       0       0       0       0       0       0       0       0
   851 ;;Total ram usage:       14 bytes
   852 ;; Hardware stack levels used:    1
   853 ;; This function calls:
   854 ;;		Nothing
   855 ;; This function is called by:
   856 ;;		_USART_Init
   857 ;; This function uses a non-reentrant model
   858 ;;
   859                           
   860                           	psect	text4
   861  00781C                     __ptext4:
   862                           	opt callstack 0
   863  00781C                     ___aldiv:
   864                           	opt callstack 29
   865  00781C  0E00               	movlw	0
   866  00781E  6E0A               	movwf	___aldiv@sign^0,c
   867  007820  BE08               	btfsc	(___aldiv@divisor+3)^0,7,c
   868  007822  EF17  F03C         	goto	u1380
   869  007826  EF15  F03C         	goto	u1381
   870  00782A                     u1381:
   871  00782A  EF21  F03C         	goto	l1851
   872  00782E                     u1380:
   873  00782E  1E08               	comf	(___aldiv@divisor+3)^0,f,c
   874  007830  1E07               	comf	(___aldiv@divisor+2)^0,f,c
   875  007832  1E06               	comf	(___aldiv@divisor+1)^0,f,c
   876  007834  6C05               	negf	___aldiv@divisor^0,c
   877  007836  0E00               	movlw	0
   878  007838  2206               	addwfc	(___aldiv@divisor+1)^0,f,c
   879  00783A  2207               	addwfc	(___aldiv@divisor+2)^0,f,c
   880  00783C  2208               	addwfc	(___aldiv@divisor+3)^0,f,c
   881  00783E  0E01               	movlw	1
   882  007840  6E0A               	movwf	___aldiv@sign^0,c
   883  007842                     l1851:
   884  007842  BE04               	btfsc	(___aldiv@dividend+3)^0,7,c
   885  007844  EF28  F03C         	goto	u1390
   886  007848  EF26  F03C         	goto	u1391
   887  00784C                     u1391:
   888  00784C  EF32  F03C         	goto	l1857
   889  007850                     u1390:
   890  007850  1E04               	comf	(___aldiv@dividend+3)^0,f,c
   891  007852  1E03               	comf	(___aldiv@dividend+2)^0,f,c
   892  007854  1E02               	comf	(___aldiv@dividend+1)^0,f,c
   893  007856  6C01               	negf	___aldiv@dividend^0,c
   894  007858  0E00               	movlw	0
   895  00785A  2202               	addwfc	(___aldiv@dividend+1)^0,f,c
   896  00785C  2203               	addwfc	(___aldiv@dividend+2)^0,f,c
   897  00785E  2204               	addwfc	(___aldiv@dividend+3)^0,f,c
   898  007860  0E01               	movlw	1
   899  007862  1A0A               	xorwf	___aldiv@sign^0,f,c
   900  007864                     l1857:
   901  007864  0E00               	movlw	0
   902  007866  6E0B               	movwf	___aldiv@quotient^0,c
   903  007868  0E00               	movlw	0
   904  00786A  6E0C               	movwf	(___aldiv@quotient+1)^0,c
   905  00786C  0E00               	movlw	0
   906  00786E  6E0D               	movwf	(___aldiv@quotient+2)^0,c
   907  007870  0E00               	movlw	0
   908  007872  6E0E               	movwf	(___aldiv@quotient+3)^0,c
   909  007874  5005               	movf	___aldiv@divisor^0,w,c
   910  007876  1006               	iorwf	(___aldiv@divisor+1)^0,w,c
   911  007878  1007               	iorwf	(___aldiv@divisor+2)^0,w,c
   912  00787A  1008               	iorwf	(___aldiv@divisor+3)^0,w,c
   913  00787C  B4D8               	btfsc	status,2,c
   914  00787E  EF43  F03C         	goto	u1401
   915  007882  EF45  F03C         	goto	u1400
   916  007886                     u1401:
   917  007886  EF7B  F03C         	goto	l1879
   918  00788A                     u1400:
   919  00788A  0E01               	movlw	1
   920  00788C  6E09               	movwf	___aldiv@counter^0,c
   921  00788E  EF4F  F03C         	goto	l1865
   922  007892                     l1863:
   923  007892  90D8               	bcf	status,0,c
   924  007894  3605               	rlcf	___aldiv@divisor^0,f,c
   925  007896  3606               	rlcf	(___aldiv@divisor+1)^0,f,c
   926  007898  3607               	rlcf	(___aldiv@divisor+2)^0,f,c
   927  00789A  3608               	rlcf	(___aldiv@divisor+3)^0,f,c
   928  00789C  2A09               	incf	___aldiv@counter^0,f,c
   929  00789E                     l1865:
   930  00789E  AE08               	btfss	(___aldiv@divisor+3)^0,7,c
   931  0078A0  EF54  F03C         	goto	u1411
   932  0078A4  EF56  F03C         	goto	u1410
   933  0078A8                     u1411:
   934  0078A8  EF49  F03C         	goto	l1863
   935  0078AC                     u1410:
   936  0078AC                     l1867:
   937  0078AC  90D8               	bcf	status,0,c
   938  0078AE  360B               	rlcf	___aldiv@quotient^0,f,c
   939  0078B0  360C               	rlcf	(___aldiv@quotient+1)^0,f,c
   940  0078B2  360D               	rlcf	(___aldiv@quotient+2)^0,f,c
   941  0078B4  360E               	rlcf	(___aldiv@quotient+3)^0,f,c
   942  0078B6  5005               	movf	___aldiv@divisor^0,w,c
   943  0078B8  5C01               	subwf	___aldiv@dividend^0,w,c
   944  0078BA  5006               	movf	(___aldiv@divisor+1)^0,w,c
   945  0078BC  5802               	subwfb	(___aldiv@dividend+1)^0,w,c
   946  0078BE  5007               	movf	(___aldiv@divisor+2)^0,w,c
   947  0078C0  5803               	subwfb	(___aldiv@dividend+2)^0,w,c
   948  0078C2  5008               	movf	(___aldiv@divisor+3)^0,w,c
   949  0078C4  5804               	subwfb	(___aldiv@dividend+3)^0,w,c
   950  0078C6  A0D8               	btfss	status,0,c
   951  0078C8  EF68  F03C         	goto	u1421
   952  0078CC  EF6A  F03C         	goto	u1420
   953  0078D0                     u1421:
   954  0078D0  EF73  F03C         	goto	l1875
   955  0078D4                     u1420:
   956  0078D4  5005               	movf	___aldiv@divisor^0,w,c
   957  0078D6  5E01               	subwf	___aldiv@dividend^0,f,c
   958  0078D8  5006               	movf	(___aldiv@divisor+1)^0,w,c
   959  0078DA  5A02               	subwfb	(___aldiv@dividend+1)^0,f,c
   960  0078DC  5007               	movf	(___aldiv@divisor+2)^0,w,c
   961  0078DE  5A03               	subwfb	(___aldiv@dividend+2)^0,f,c
   962  0078E0  5008               	movf	(___aldiv@divisor+3)^0,w,c
   963  0078E2  5A04               	subwfb	(___aldiv@dividend+3)^0,f,c
   964  0078E4  800B               	bsf	___aldiv@quotient^0,0,c
   965  0078E6                     l1875:
   966  0078E6  90D8               	bcf	status,0,c
   967  0078E8  3208               	rrcf	(___aldiv@divisor+3)^0,f,c
   968  0078EA  3207               	rrcf	(___aldiv@divisor+2)^0,f,c
   969  0078EC  3206               	rrcf	(___aldiv@divisor+1)^0,f,c
   970  0078EE  3205               	rrcf	___aldiv@divisor^0,f,c
   971  0078F0  2E09               	decfsz	___aldiv@counter^0,f,c
   972  0078F2  EF56  F03C         	goto	l1867
   973  0078F6                     l1879:
   974  0078F6  500A               	movf	___aldiv@sign^0,w,c
   975  0078F8  B4D8               	btfsc	status,2,c
   976  0078FA  EF81  F03C         	goto	u1431
   977  0078FE  EF83  F03C         	goto	u1430
   978  007902                     u1431:
   979  007902  EF8B  F03C         	goto	l1883
   980  007906                     u1430:
   981  007906  1E0E               	comf	(___aldiv@quotient+3)^0,f,c
   982  007908  1E0D               	comf	(___aldiv@quotient+2)^0,f,c
   983  00790A  1E0C               	comf	(___aldiv@quotient+1)^0,f,c
   984  00790C  6C0B               	negf	___aldiv@quotient^0,c
   985  00790E  0E00               	movlw	0
   986  007910  220C               	addwfc	(___aldiv@quotient+1)^0,f,c
   987  007912  220D               	addwfc	(___aldiv@quotient+2)^0,f,c
   988  007914  220E               	addwfc	(___aldiv@quotient+3)^0,f,c
   989  007916                     l1883:
   990  007916  C00B  F001         	movff	___aldiv@quotient,?___aldiv
   991  00791A  C00C  F002         	movff	___aldiv@quotient+1,?___aldiv+1
   992  00791E  C00D  F003         	movff	___aldiv@quotient+2,?___aldiv+2
   993  007922  C00E  F004         	movff	___aldiv@quotient+3,?___aldiv+3
   994  007926  0012               	return		;funcret
   995  007928                     __end_of___aldiv:
   996                           	opt callstack 0
   997                           
   998 ;; *************** function _Serial_DecodificacionY *****************
   999 ;; Defined at:
  1000 ;;		line 60 in file "serial.c"
  1001 ;; Parameters:    Size  Location     Type
  1002 ;;  string_coord    2   22[COMRAM] PTR unsigned char 
  1003 ;;		 -> coordenada_array(7), 
  1004 ;;  pointerCY       2   24[COMRAM] PTR int 
  1005 ;;		 -> CY(2), 
  1006 ;; Auto vars:     Size  Location     Type
  1007 ;;  i               2   31[COMRAM] int 
  1008 ;;  coordenadaY     3   28[COMRAM] unsigned char [3]
  1009 ;; Return value:  Size  Location     Type
  1010 ;;                  1    wreg      void 
  1011 ;; Registers used:
  1012 ;;		wreg, fsr1l, fsr1h, fsr2l, fsr2h, status,2, status,0, prodl, prodh, cstack
  1013 ;; Tracked objects:
  1014 ;;		On entry : 0/0
  1015 ;;		On exit  : 0/0
  1016 ;;		Unchanged: 0/0
  1017 ;; Data sizes:     COMRAM   BANK0   BANK1   BANK2   BANK3   BANK4   BANK5   BANK6   BANK7
  1018 ;;      Params:         4       0       0       0       0       0       0       0       0
  1019 ;;      Locals:         5       0       0       0       0       0       0       0       0
  1020 ;;      Temps:          2       0       0       0       0       0       0       0       0
  1021 ;;      Totals:        11       0       0       0       0       0       0       0       0
  1022 ;;Total ram usage:       11 bytes
  1023 ;; Hardware stack levels used:    1
  1024 ;; Hardware stack levels required when called:    2
  1025 ;; This function calls:
  1026 ;;		_atoi
  1027 ;; This function is called by:
  1028 ;;		_main
  1029 ;; This function uses a non-reentrant model
  1030 ;;
  1031                           
  1032                           	psect	text5
  1033  0073C4                     __ptext5:
  1034                           	opt callstack 0
  1035  0073C4                     _Serial_DecodificacionY:
  1036                           	opt callstack 28
  1037  0073C4                     
  1038                           ;serial.c: 61:     char coordenadaY[3];;serial.c: 62:     for (int i = 0; i < 3; i++) {
  1039  0073C4  0E00               	movlw	0
  1040  0073C6  6E21               	movwf	(Serial_DecodificacionY@i+1)^0,c
  1041  0073C8  0E00               	movlw	0
  1042  0073CA  6E20               	movwf	Serial_DecodificacionY@i^0,c
  1043  0073CC                     l1939:
  1044                           
  1045                           ;serial.c: 63:         coordenadaY[i] = string_coordenada[4 + i];
  1046  0073CC  5020               	movf	Serial_DecodificacionY@i^0,w,c
  1047  0073CE  2417               	addwf	Serial_DecodificacionY@string_coordenada^0,w,c
  1048  0073D0  6E1B               	movwf	??_Serial_DecodificacionY^0,c
  1049  0073D2  5021               	movf	(Serial_DecodificacionY@i+1)^0,w,c
  1050  0073D4  2018               	addwfc	(Serial_DecodificacionY@string_coordenada+1)^0,w,c
  1051  0073D6  6E1C               	movwf	(??_Serial_DecodificacionY+1)^0,c
  1052  0073D8  0E04               	movlw	4
  1053  0073DA  241B               	addwf	??_Serial_DecodificacionY^0,w,c
  1054  0073DC  6ED9               	movwf	fsr2l,c
  1055  0073DE  0E00               	movlw	0
  1056  0073E0  201C               	addwfc	(??_Serial_DecodificacionY+1)^0,w,c
  1057  0073E2  6EDA               	movwf	fsr2h,c
  1058  0073E4  0E1D               	movlw	low Serial_DecodificacionY@coordenadaY
  1059  0073E6  2420               	addwf	Serial_DecodificacionY@i^0,w,c
  1060  0073E8  6EE1               	movwf	fsr1l,c
  1061  0073EA  0E00               	movlw	high Serial_DecodificacionY@coordenadaY
  1062  0073EC  2021               	addwfc	(Serial_DecodificacionY@i+1)^0,w,c
  1063  0073EE  6EE2               	movwf	fsr1h,c
  1064  0073F0  CFDF FFE7          	movff	indf2,indf1
  1065  0073F4                     
  1066                           ;serial.c: 64:     }
  1067  0073F4  4A20               	infsnz	Serial_DecodificacionY@i^0,f,c
  1068  0073F6  2A21               	incf	(Serial_DecodificacionY@i+1)^0,f,c
  1069  0073F8  BE21               	btfsc	(Serial_DecodificacionY@i+1)^0,7,c
  1070  0073FA  EF08  F03A         	goto	u1471
  1071  0073FE  5021               	movf	(Serial_DecodificacionY@i+1)^0,w,c
  1072  007400  E109               	bnz	u1470
  1073  007402  0E03               	movlw	3
  1074  007404  5C20               	subwf	Serial_DecodificacionY@i^0,w,c
  1075  007406  A0D8               	btfss	status,0,c
  1076  007408  EF08  F03A         	goto	u1471
  1077  00740C  EF0A  F03A         	goto	u1470
  1078  007410                     u1471:
  1079  007410  EFE6  F039         	goto	l1939
  1080  007414                     u1470:
  1081  007414                     
  1082                           ;serial.c: 65:     *pointerCY = atoi(coordenadaY);
  1083  007414  0E1D               	movlw	low Serial_DecodificacionY@coordenadaY
  1084  007416  6E08               	movwf	atoi@s^0,c
  1085  007418  0E00               	movlw	high Serial_DecodificacionY@coordenadaY
  1086  00741A  6E09               	movwf	(atoi@s+1)^0,c
  1087  00741C  EC94  F03C         	call	_atoi	;wreg free
  1088  007420  C019  FFD9         	movff	Serial_DecodificacionY@pointerCY,fsr2l
  1089  007424  C01A  FFDA         	movff	Serial_DecodificacionY@pointerCY+1,fsr2h
  1090  007428  C008  FFDE         	movff	?_atoi,postinc2
  1091  00742C  C009  FFDD         	movff	?_atoi+1,postdec2
  1092  007430  0012               	return		;funcret
  1093  007432                     __end_of_Serial_DecodificacionY:
  1094                           	opt callstack 0
  1095                           
  1096 ;; *************** function _Serial_DecodificacionX *****************
  1097 ;; Defined at:
  1098 ;;		line 51 in file "serial.c"
  1099 ;; Parameters:    Size  Location     Type
  1100 ;;  string_coord    2   22[COMRAM] PTR unsigned char 
  1101 ;;		 -> coordenada_array(7), 
  1102 ;;  pointerCX       2   24[COMRAM] PTR int 
  1103 ;;		 -> CX(2), 
  1104 ;; Auto vars:     Size  Location     Type
  1105 ;;  i               2   29[COMRAM] int 
  1106 ;;  coordenadaX     3   26[COMRAM] unsigned char [3]
  1107 ;; Return value:  Size  Location     Type
  1108 ;;                  1    wreg      void 
  1109 ;; Registers used:
  1110 ;;		wreg, fsr1l, fsr1h, fsr2l, fsr2h, status,2, status,0, prodl, prodh, cstack
  1111 ;; Tracked objects:
  1112 ;;		On entry : 0/0
  1113 ;;		On exit  : 0/0
  1114 ;;		Unchanged: 0/0
  1115 ;; Data sizes:     COMRAM   BANK0   BANK1   BANK2   BANK3   BANK4   BANK5   BANK6   BANK7
  1116 ;;      Params:         4       0       0       0       0       0       0       0       0
  1117 ;;      Locals:         5       0       0       0       0       0       0       0       0
  1118 ;;      Temps:          0       0       0       0       0       0       0       0       0
  1119 ;;      Totals:         9       0       0       0       0       0       0       0       0
  1120 ;;Total ram usage:        9 bytes
  1121 ;; Hardware stack levels used:    1
  1122 ;; Hardware stack levels required when called:    2
  1123 ;; This function calls:
  1124 ;;		_atoi
  1125 ;; This function is called by:
  1126 ;;		_main
  1127 ;; This function uses a non-reentrant model
  1128 ;;
  1129                           
  1130                           	psect	text6
  1131  007362                     __ptext6:
  1132                           	opt callstack 0
  1133  007362                     _Serial_DecodificacionX:
  1134                           	opt callstack 28
  1135  007362                     
  1136                           ;serial.c: 52:     char coordenadaX[3];;serial.c: 53:     for (int i = 0; i < 3; i++) {
  1137  007362  0E00               	movlw	0
  1138  007364  6E1F               	movwf	(Serial_DecodificacionX@i+1)^0,c
  1139  007366  0E00               	movlw	0
  1140  007368  6E1E               	movwf	Serial_DecodificacionX@i^0,c
  1141  00736A                     l1925:
  1142                           
  1143                           ;serial.c: 54:         coordenadaX[i] = string_coordenada[i];
  1144  00736A  501E               	movf	Serial_DecodificacionX@i^0,w,c
  1145  00736C  2417               	addwf	Serial_DecodificacionX@string_coordenada^0,w,c
  1146  00736E  6ED9               	movwf	fsr2l,c
  1147  007370  501F               	movf	(Serial_DecodificacionX@i+1)^0,w,c
  1148  007372  2018               	addwfc	(Serial_DecodificacionX@string_coordenada+1)^0,w,c
  1149  007374  6EDA               	movwf	fsr2h,c
  1150  007376  0E1B               	movlw	low Serial_DecodificacionX@coordenadaX
  1151  007378  241E               	addwf	Serial_DecodificacionX@i^0,w,c
  1152  00737A  6EE1               	movwf	fsr1l,c
  1153  00737C  0E00               	movlw	high Serial_DecodificacionX@coordenadaX
  1154  00737E  201F               	addwfc	(Serial_DecodificacionX@i+1)^0,w,c
  1155  007380  6EE2               	movwf	fsr1h,c
  1156  007382  CFDF FFE7          	movff	indf2,indf1
  1157  007386                     
  1158                           ;serial.c: 55:     }
  1159  007386  4A1E               	infsnz	Serial_DecodificacionX@i^0,f,c
  1160  007388  2A1F               	incf	(Serial_DecodificacionX@i+1)^0,f,c
  1161  00738A  BE1F               	btfsc	(Serial_DecodificacionX@i+1)^0,7,c
  1162  00738C  EFD1  F039         	goto	u1461
  1163  007390  501F               	movf	(Serial_DecodificacionX@i+1)^0,w,c
  1164  007392  E109               	bnz	u1460
  1165  007394  0E03               	movlw	3
  1166  007396  5C1E               	subwf	Serial_DecodificacionX@i^0,w,c
  1167  007398  A0D8               	btfss	status,0,c
  1168  00739A  EFD1  F039         	goto	u1461
  1169  00739E  EFD3  F039         	goto	u1460
  1170  0073A2                     u1461:
  1171  0073A2  EFB5  F039         	goto	l1925
  1172  0073A6                     u1460:
  1173  0073A6                     
  1174                           ;serial.c: 56:     *pointerCX = atoi(coordenadaX);
  1175  0073A6  0E1B               	movlw	low Serial_DecodificacionX@coordenadaX
  1176  0073A8  6E08               	movwf	atoi@s^0,c
  1177  0073AA  0E00               	movlw	high Serial_DecodificacionX@coordenadaX
  1178  0073AC  6E09               	movwf	(atoi@s+1)^0,c
  1179  0073AE  EC94  F03C         	call	_atoi	;wreg free
  1180  0073B2  C019  FFD9         	movff	Serial_DecodificacionX@pointerCX,fsr2l
  1181  0073B6  C01A  FFDA         	movff	Serial_DecodificacionX@pointerCX+1,fsr2h
  1182  0073BA  C008  FFDE         	movff	?_atoi,postinc2
  1183  0073BE  C009  FFDD         	movff	?_atoi+1,postdec2
  1184  0073C2  0012               	return		;funcret
  1185  0073C4                     __end_of_Serial_DecodificacionX:
  1186                           	opt callstack 0
  1187                           
  1188 ;; *************** function _atoi *****************
  1189 ;; Defined at:
  1190 ;;		line 4 in file "C:\Program Files (x86)\Microchip\xc8\v2.10\pic\sources\c99\common\atoi.c"
  1191 ;; Parameters:    Size  Location     Type
  1192 ;;  s               2    7[COMRAM] PTR const unsigned char 
  1193 ;;		 -> Serial_DecodificacionY@coordenadaY(3), Serial_DecodificacionX@coordenadaX(3), 
  1194 ;; Auto vars:     Size  Location     Type
  1195 ;;  n               2   20[COMRAM] int 
  1196 ;;  neg             2   13[COMRAM] int 
  1197 ;; Return value:  Size  Location     Type
  1198 ;;                  2    7[COMRAM] int 
  1199 ;; Registers used:
  1200 ;;		wreg, fsr2l, fsr2h, status,2, status,0, prodl, prodh, cstack
  1201 ;; Tracked objects:
  1202 ;;		On entry : 0/0
  1203 ;;		On exit  : 0/0
  1204 ;;		Unchanged: 0/0
  1205 ;; Data sizes:     COMRAM   BANK0   BANK1   BANK2   BANK3   BANK4   BANK5   BANK6   BANK7
  1206 ;;      Params:         2       0       0       0       0       0       0       0       0
  1207 ;;      Locals:         9       0       0       0       0       0       0       0       0
  1208 ;;      Temps:          4       0       0       0       0       0       0       0       0
  1209 ;;      Totals:        15       0       0       0       0       0       0       0       0
  1210 ;;Total ram usage:       15 bytes
  1211 ;; Hardware stack levels used:    1
  1212 ;; Hardware stack levels required when called:    1
  1213 ;; This function calls:
  1214 ;;		___wmul
  1215 ;;		_isdigit
  1216 ;;		_isspace
  1217 ;; This function is called by:
  1218 ;;		_Serial_DecodificacionX
  1219 ;;		_Serial_DecodificacionY
  1220 ;; This function uses a non-reentrant model
  1221 ;;
  1222                           
  1223                           	psect	text7
  1224  007928                     __ptext7:
  1225                           	opt callstack 0
  1226  007928                     _atoi:
  1227                           	opt callstack 28
  1228  007928  0E00               	movlw	0
  1229  00792A  6E16               	movwf	(atoi@n+1)^0,c
  1230  00792C  0E00               	movlw	0
  1231  00792E  6E15               	movwf	atoi@n^0,c
  1232  007930  0E00               	movlw	0
  1233  007932  6E0F               	movwf	(atoi@neg+1)^0,c
  1234  007934  0E00               	movlw	0
  1235  007936  6E0E               	movwf	atoi@neg^0,c
  1236  007938  EFA0  F03C         	goto	l1761
  1237  00793C                     l1759:
  1238  00793C  4A08               	infsnz	atoi@s^0,f,c
  1239  00793E  2A09               	incf	(atoi@s+1)^0,f,c
  1240  007940                     l1761:
  1241  007940  0E01               	movlw	1
  1242  007942  6E14               	movwf	_atoi$942^0,c
  1243  007944  C008  FFD9         	movff	atoi@s,fsr2l
  1244  007948  C009  FFDA         	movff	atoi@s+1,fsr2h
  1245  00794C  0E20               	movlw	32
  1246  00794E  18DE               	xorwf	postinc2,w,c
  1247  007950  B4D8               	btfsc	status,2,c
  1248  007952  EFAD  F03C         	goto	u1251
  1249  007956  EFAF  F03C         	goto	u1250
  1250  00795A                     u1251:
  1251  00795A  EFCB  F03C         	goto	l1769
  1252  00795E                     u1250:
  1253  00795E  0EF7               	movlw	247
  1254  007960  6E0A               	movwf	??_atoi^0,c
  1255  007962  0EFF               	movlw	255
  1256  007964  6E0B               	movwf	(??_atoi+1)^0,c
  1257  007966  C008  FFD9         	movff	atoi@s,fsr2l
  1258  00796A  C009  FFDA         	movff	atoi@s+1,fsr2h
  1259  00796E  50DF               	movf	indf2,w,c
  1260  007970  6E0C               	movwf	(??_atoi+2)^0,c
  1261  007972  6A0D               	clrf	(??_atoi+3)^0,c
  1262  007974  500A               	movf	??_atoi^0,w,c
  1263  007976  260C               	addwf	(??_atoi+2)^0,f,c
  1264  007978  500B               	movf	(??_atoi+1)^0,w,c
  1265  00797A  220D               	addwfc	(??_atoi+3)^0,f,c
  1266  00797C  500D               	movf	(??_atoi+3)^0,w,c
  1267  00797E  E109               	bnz	u1260
  1268  007980  0E05               	movlw	5
  1269  007982  5C0C               	subwf	(??_atoi+2)^0,w,c
  1270  007984  A0D8               	btfss	status,0,c
  1271  007986  EFC7  F03C         	goto	u1261
  1272  00798A  EFC9  F03C         	goto	u1260
  1273  00798E                     u1261:
  1274  00798E  EFCB  F03C         	goto	l1769
  1275  007992                     u1260:
  1276  007992  0E00               	movlw	0
  1277  007994  6E14               	movwf	_atoi$942^0,c
  1278  007996                     l1769:
  1279  007996  C014  F010         	movff	_atoi$942,_atoi$941
  1280  00799A  6A11               	clrf	(_atoi$941+1)^0,c
  1281  00799C  5010               	movf	_atoi$941^0,w,c
  1282  00799E  1011               	iorwf	(_atoi$941+1)^0,w,c
  1283  0079A0  A4D8               	btfss	status,2,c
  1284  0079A2  EFD5  F03C         	goto	u1271
  1285  0079A6  EFD7  F03C         	goto	u1270
  1286  0079AA                     u1271:
  1287  0079AA  EF9E  F03C         	goto	l1759
  1288  0079AE                     u1270:
  1289  0079AE  EFE1  F03C         	goto	l1779
  1290  0079B2                     l1775:
  1291  0079B2  0E00               	movlw	0
  1292  0079B4  6E0F               	movwf	(atoi@neg+1)^0,c
  1293  0079B6  0E01               	movlw	1
  1294  0079B8  6E0E               	movwf	atoi@neg^0,c
  1295  0079BA                     l1777:
  1296  0079BA  4A08               	infsnz	atoi@s^0,f,c
  1297  0079BC  2A09               	incf	(atoi@s+1)^0,f,c
  1298  0079BE  EF16  F03D         	goto	l1785
  1299  0079C2                     l1779:
  1300  0079C2  C008  FFD9         	movff	atoi@s,fsr2l
  1301  0079C6  C009  FFDA         	movff	atoi@s+1,fsr2h
  1302  0079CA  50DF               	movf	indf2,w,c
  1303  0079CC  6E0A               	movwf	??_atoi^0,c
  1304  0079CE  6A0B               	clrf	(??_atoi+1)^0,c
  1305                           
  1306                           ; Switch on 2 bytes has been partitioned into a top level switch of size 1, and 1 sub-sw
      +                          itches
  1307                           ; Switch size 1, requested type "simple"
  1308                           ; Number of cases is 1, Range of values is 0 to 0
  1309                           ; switch strategies available:
  1310                           ; Name         Instructions Cycles
  1311                           ; simple_byte            4     3 (average)
  1312                           ;	Chosen strategy is simple_byte
  1313  0079D0  500B               	movf	(??_atoi+1)^0,w,c
  1314  0079D2  0A00               	xorlw	0	; case 0
  1315  0079D4  B4D8               	btfsc	status,2,c
  1316  0079D6  EFEF  F03C         	goto	l1985
  1317  0079DA  EF16  F03D         	goto	l1785
  1318  0079DE                     l1985:
  1319                           
  1320                           ; Switch size 1, requested type "simple"
  1321                           ; Number of cases is 2, Range of values is 43 to 45
  1322                           ; switch strategies available:
  1323                           ; Name         Instructions Cycles
  1324                           ; simple_byte            7     4 (average)
  1325                           ;	Chosen strategy is simple_byte
  1326  0079DE  500A               	movf	??_atoi^0,w,c
  1327  0079E0  0A2B               	xorlw	43	; case 43
  1328  0079E2  B4D8               	btfsc	status,2,c
  1329  0079E4  EFDD  F03C         	goto	l1777
  1330  0079E8  0A06               	xorlw	6	; case 45
  1331  0079EA  B4D8               	btfsc	status,2,c
  1332  0079EC  EFD9  F03C         	goto	l1775
  1333  0079F0  EF16  F03D         	goto	l1785
  1334  0079F4                     l1781:
  1335  0079F4  C015  F001         	movff	atoi@n,___wmul@multiplier
  1336  0079F8  C016  F002         	movff	atoi@n+1,___wmul@multiplier+1
  1337  0079FC  0E00               	movlw	0
  1338  0079FE  6E04               	movwf	(___wmul@multiplicand+1)^0,c
  1339  007A00  0E0A               	movlw	10
  1340  007A02  6E03               	movwf	___wmul@multiplicand^0,c
  1341  007A04  ECDF  F038         	call	___wmul	;wreg free
  1342  007A08  C008  FFD9         	movff	atoi@s,fsr2l
  1343  007A0C  C009  FFDA         	movff	atoi@s+1,fsr2h
  1344  007A10  50DF               	movf	indf2,w,c
  1345  007A12  6E0A               	movwf	??_atoi^0,c
  1346  007A14  500A               	movf	??_atoi^0,w,c
  1347  007A16  5E01               	subwf	?___wmul^0,f,c
  1348  007A18  0E00               	movlw	0
  1349  007A1A  5A02               	subwfb	(?___wmul+1)^0,f,c
  1350  007A1C  0E30               	movlw	48
  1351  007A1E  2401               	addwf	?___wmul^0,w,c
  1352  007A20  6E15               	movwf	atoi@n^0,c
  1353  007A22  0E00               	movlw	0
  1354  007A24  2002               	addwfc	(?___wmul+1)^0,w,c
  1355  007A26  6E16               	movwf	(atoi@n+1)^0,c
  1356  007A28  EFDD  F03C         	goto	l1777
  1357  007A2C                     l1785:
  1358  007A2C  0ED0               	movlw	208
  1359  007A2E  6E0A               	movwf	??_atoi^0,c
  1360  007A30  0EFF               	movlw	255
  1361  007A32  6E0B               	movwf	(??_atoi+1)^0,c
  1362  007A34  C008  FFD9         	movff	atoi@s,fsr2l
  1363  007A38  C009  FFDA         	movff	atoi@s+1,fsr2h
  1364  007A3C  50DF               	movf	indf2,w,c
  1365  007A3E  6E0C               	movwf	(??_atoi+2)^0,c
  1366  007A40  6A0D               	clrf	(??_atoi+3)^0,c
  1367  007A42  500A               	movf	??_atoi^0,w,c
  1368  007A44  260C               	addwf	(??_atoi+2)^0,f,c
  1369  007A46  500B               	movf	(??_atoi+1)^0,w,c
  1370  007A48  220D               	addwfc	(??_atoi+3)^0,f,c
  1371  007A4A  500D               	movf	(??_atoi+3)^0,w,c
  1372  007A4C  E10A               	bnz	u1280
  1373  007A4E  0E0A               	movlw	10
  1374  007A50  5C0C               	subwf	(??_atoi+2)^0,w,c
  1375  007A52  A0D8               	btfss	status,0,c
  1376  007A54  EF2E  F03D         	goto	u1281
  1377  007A58  EF31  F03D         	goto	u1280
  1378  007A5C                     u1281:
  1379  007A5C  0E01               	movlw	1
  1380  007A5E  EF32  F03D         	goto	u1290
  1381  007A62                     u1280:
  1382  007A62  0E00               	movlw	0
  1383  007A64                     u1290:
  1384  007A64  6E12               	movwf	_atoi$943^0,c
  1385  007A66  6A13               	clrf	(_atoi$943+1)^0,c
  1386  007A68  5012               	movf	_atoi$943^0,w,c
  1387  007A6A  1013               	iorwf	(_atoi$943+1)^0,w,c
  1388  007A6C  A4D8               	btfss	status,2,c
  1389  007A6E  EF3B  F03D         	goto	u1301
  1390  007A72  EF3D  F03D         	goto	u1300
  1391  007A76                     u1301:
  1392  007A76  EFFA  F03C         	goto	l1781
  1393  007A7A                     u1300:
  1394  007A7A  500E               	movf	atoi@neg^0,w,c
  1395  007A7C  100F               	iorwf	(atoi@neg+1)^0,w,c
  1396  007A7E  A4D8               	btfss	status,2,c
  1397  007A80  EF44  F03D         	goto	u1311
  1398  007A84  EF46  F03D         	goto	u1310
  1399  007A88                     u1311:
  1400  007A88  EF54  F03D         	goto	l902
  1401  007A8C                     u1310:
  1402  007A8C  C015  F00A         	movff	atoi@n,??_atoi
  1403  007A90  C016  F00B         	movff	atoi@n+1,??_atoi+1
  1404  007A94  1E0A               	comf	??_atoi^0,f,c
  1405  007A96  1E0B               	comf	(??_atoi+1)^0,f,c
  1406  007A98  4A0A               	infsnz	??_atoi^0,f,c
  1407  007A9A  2A0B               	incf	(??_atoi+1)^0,f,c
  1408  007A9C  C00A  F008         	movff	??_atoi,?_atoi
  1409  007AA0  C00B  F009         	movff	??_atoi+1,?_atoi+1
  1410  007AA4  EF58  F03D         	goto	l905
  1411  007AA8                     l902:
  1412  007AA8  C015  F008         	movff	atoi@n,?_atoi
  1413  007AAC  C016  F009         	movff	atoi@n+1,?_atoi+1
  1414  007AB0                     l905:
  1415  007AB0  0012               	return		;funcret
  1416  007AB2                     __end_of_atoi:
  1417                           	opt callstack 0
  1418                           
  1419 ;; *************** function _isspace *****************
  1420 ;; Defined at:
  1421 ;;		line 5 in file "C:\Program Files (x86)\Microchip\xc8\v2.10\pic\sources\c99\common\isspace.c"
  1422 ;; Parameters:    Size  Location     Type
  1423 ;;  c               2    0[COMRAM] int 
  1424 ;; Auto vars:     Size  Location     Type
  1425 ;;		None
  1426 ;; Return value:  Size  Location     Type
  1427 ;;                  2    0[COMRAM] int 
  1428 ;; Registers used:
  1429 ;;		wreg, status,2, status,0
  1430 ;; Tracked objects:
  1431 ;;		On entry : 0/0
  1432 ;;		On exit  : 0/0
  1433 ;;		Unchanged: 0/0
  1434 ;; Data sizes:     COMRAM   BANK0   BANK1   BANK2   BANK3   BANK4   BANK5   BANK6   BANK7
  1435 ;;      Params:         2       0       0       0       0       0       0       0       0
  1436 ;;      Locals:         1       0       0       0       0       0       0       0       0
  1437 ;;      Temps:          4       0       0       0       0       0       0       0       0
  1438 ;;      Totals:         7       0       0       0       0       0       0       0       0
  1439 ;;Total ram usage:        7 bytes
  1440 ;; Hardware stack levels used:    1
  1441 ;; This function calls:
  1442 ;;		Nothing
  1443 ;; This function is called by:
  1444 ;;		_atoi
  1445 ;; This function uses a non-reentrant model
  1446 ;;
  1447                           
  1448                           	psect	text8
  1449  0072BA                     __ptext8:
  1450                           	opt callstack 0
  1451  0072BA                     _isspace:
  1452                           	opt callstack 28
  1453  0072BA  0E01               	movlw	1
  1454  0072BC  6E07               	movwf	_isspace$959^0,c
  1455  0072BE  0E20               	movlw	32
  1456  0072C0  1801               	xorwf	isspace@c^0,w,c
  1457  0072C2  1002               	iorwf	(isspace@c+1)^0,w,c
  1458  0072C4  B4D8               	btfsc	status,2,c
  1459  0072C6  EF67  F039         	goto	u1211
  1460  0072CA  EF69  F039         	goto	u1210
  1461  0072CE                     u1211:
  1462  0072CE  EF82  F039         	goto	l1749
  1463  0072D2                     u1210:
  1464  0072D2  0EF7               	movlw	247
  1465  0072D4  6E03               	movwf	??_isspace^0,c
  1466  0072D6  0EFF               	movlw	255
  1467  0072D8  6E04               	movwf	(??_isspace+1)^0,c
  1468  0072DA  C001  F005         	movff	isspace@c,??_isspace+2
  1469  0072DE  C002  F006         	movff	isspace@c+1,??_isspace+3
  1470  0072E2  5003               	movf	??_isspace^0,w,c
  1471  0072E4  2605               	addwf	(??_isspace+2)^0,f,c
  1472  0072E6  5004               	movf	(??_isspace+1)^0,w,c
  1473  0072E8  2206               	addwfc	(??_isspace+3)^0,f,c
  1474  0072EA  5006               	movf	(??_isspace+3)^0,w,c
  1475  0072EC  E109               	bnz	u1220
  1476  0072EE  0E05               	movlw	5
  1477  0072F0  5C05               	subwf	(??_isspace+2)^0,w,c
  1478  0072F2  A0D8               	btfss	status,0,c
  1479  0072F4  EF7E  F039         	goto	u1221
  1480  0072F8  EF80  F039         	goto	u1220
  1481  0072FC                     u1221:
  1482  0072FC  EF82  F039         	goto	l1749
  1483  007300                     u1220:
  1484  007300  0E00               	movlw	0
  1485  007302  6E07               	movwf	_isspace$959^0,c
  1486  007304                     l1749:
  1487  007304  C007  F001         	movff	_isspace$959,?_isspace
  1488  007308  6A02               	clrf	(?_isspace+1)^0,c
  1489  00730A  0012               	return		;funcret
  1490  00730C                     __end_of_isspace:
  1491                           	opt callstack 0
  1492                           
  1493 ;; *************** function _isdigit *****************
  1494 ;; Defined at:
  1495 ;;		line 5 in file "C:\Program Files (x86)\Microchip\xc8\v2.10\pic\sources\c99\common\isdigit.c"
  1496 ;; Parameters:    Size  Location     Type
  1497 ;;  c               2    0[COMRAM] int 
  1498 ;; Auto vars:     Size  Location     Type
  1499 ;;		None
  1500 ;; Return value:  Size  Location     Type
  1501 ;;                  2    0[COMRAM] int 
  1502 ;; Registers used:
  1503 ;;		wreg, status,2, status,0
  1504 ;; Tracked objects:
  1505 ;;		On entry : 0/0
  1506 ;;		On exit  : 0/0
  1507 ;;		Unchanged: 0/0
  1508 ;; Data sizes:     COMRAM   BANK0   BANK1   BANK2   BANK3   BANK4   BANK5   BANK6   BANK7
  1509 ;;      Params:         2       0       0       0       0       0       0       0       0
  1510 ;;      Locals:         0       0       0       0       0       0       0       0       0
  1511 ;;      Temps:          4       0       0       0       0       0       0       0       0
  1512 ;;      Totals:         6       0       0       0       0       0       0       0       0
  1513 ;;Total ram usage:        6 bytes
  1514 ;; Hardware stack levels used:    1
  1515 ;; This function calls:
  1516 ;;		Nothing
  1517 ;; This function is called by:
  1518 ;;		_atoi
  1519 ;; This function uses a non-reentrant model
  1520 ;;
  1521                           
  1522                           	psect	text9
  1523  007244                     __ptext9:
  1524                           	opt callstack 0
  1525  007244                     _isdigit:
  1526                           	opt callstack 28
  1527  007244  0ED0               	movlw	208
  1528  007246  6E03               	movwf	??_isdigit^0,c
  1529  007248  0EFF               	movlw	255
  1530  00724A  6E04               	movwf	(??_isdigit+1)^0,c
  1531  00724C  C001  F005         	movff	isdigit@c,??_isdigit+2
  1532  007250  C002  F006         	movff	isdigit@c+1,??_isdigit+3
  1533  007254  5003               	movf	??_isdigit^0,w,c
  1534  007256  2605               	addwf	(??_isdigit+2)^0,f,c
  1535  007258  5004               	movf	(??_isdigit+1)^0,w,c
  1536  00725A  2206               	addwfc	(??_isdigit+3)^0,f,c
  1537  00725C  5006               	movf	(??_isdigit+3)^0,w,c
  1538  00725E  E10A               	bnz	u1230
  1539  007260  0E0A               	movlw	10
  1540  007262  5C05               	subwf	(??_isdigit+2)^0,w,c
  1541  007264  A0D8               	btfss	status,0,c
  1542  007266  EF37  F039         	goto	u1231
  1543  00726A  EF3A  F039         	goto	u1230
  1544  00726E                     u1231:
  1545  00726E  0E01               	movlw	1
  1546  007270  EF3B  F039         	goto	u1240
  1547  007274                     u1230:
  1548  007274  0E00               	movlw	0
  1549  007276                     u1240:
  1550  007276  6E01               	movwf	?_isdigit^0,c
  1551  007278  6A02               	clrf	(?_isdigit+1)^0,c
  1552  00727A  0012               	return		;funcret
  1553  00727C                     __end_of_isdigit:
  1554                           	opt callstack 0
  1555                           
  1556 ;; *************** function ___wmul *****************
  1557 ;; Defined at:
  1558 ;;		line 15 in file "C:\Program Files (x86)\Microchip\xc8\v2.10\pic\sources\c99\common\Umul16.c"
  1559 ;; Parameters:    Size  Location     Type
  1560 ;;  multiplier      2    0[COMRAM] unsigned int 
  1561 ;;  multiplicand    2    2[COMRAM] unsigned int 
  1562 ;; Auto vars:     Size  Location     Type
  1563 ;;  product         2    4[COMRAM] unsigned int 
  1564 ;; Return value:  Size  Location     Type
  1565 ;;                  2    0[COMRAM] unsigned int 
  1566 ;; Registers used:
  1567 ;;		wreg, status,2, status,0, prodl, prodh
  1568 ;; Tracked objects:
  1569 ;;		On entry : 0/0
  1570 ;;		On exit  : 0/0
  1571 ;;		Unchanged: 0/0
  1572 ;; Data sizes:     COMRAM   BANK0   BANK1   BANK2   BANK3   BANK4   BANK5   BANK6   BANK7
  1573 ;;      Params:         4       0       0       0       0       0       0       0       0
  1574 ;;      Locals:         2       0       0       0       0       0       0       0       0
  1575 ;;      Temps:          0       0       0       0       0       0       0       0       0
  1576 ;;      Totals:         6       0       0       0       0       0       0       0       0
  1577 ;;Total ram usage:        6 bytes
  1578 ;; Hardware stack levels used:    1
  1579 ;; This function calls:
  1580 ;;		Nothing
  1581 ;; This function is called by:
  1582 ;;		_atoi
  1583 ;; This function uses a non-reentrant model
  1584 ;;
  1585                           
  1586                           	psect	text10
  1587  0071BE                     __ptext10:
  1588                           	opt callstack 0
  1589  0071BE                     ___wmul:
  1590                           	opt callstack 28
  1591  0071BE  5001               	movf	___wmul@multiplier^0,w,c
  1592  0071C0  0203               	mulwf	___wmul@multiplicand^0,c
  1593  0071C2  CFF3 F005          	movff	prodl,___wmul@product
  1594  0071C6  CFF4 F006          	movff	prodh,___wmul@product+1
  1595  0071CA  5001               	movf	___wmul@multiplier^0,w,c
  1596  0071CC  0204               	mulwf	(___wmul@multiplicand+1)^0,c
  1597  0071CE  50F3               	movf	243,w,c
  1598  0071D0  2606               	addwf	(___wmul@product+1)^0,f,c
  1599  0071D2  5002               	movf	(___wmul@multiplier+1)^0,w,c
  1600  0071D4  0203               	mulwf	___wmul@multiplicand^0,c
  1601  0071D6  50F3               	movf	243,w,c
  1602  0071D8  2606               	addwf	(___wmul@product+1)^0,f,c
  1603  0071DA  C005  F001         	movff	___wmul@product,?___wmul
  1604  0071DE  C006  F002         	movff	___wmul@product+1,?___wmul+1
  1605  0071E2  0012               	return		;funcret
  1606  0071E4                     __end_of___wmul:
  1607                           	opt callstack 0
  1608                           
  1609 ;; *************** function _Motor_Movimiento *****************
  1610 ;; Defined at:
  1611 ;;		line 21 in file "Motor.c"
  1612 ;; Parameters:    Size  Location     Type
  1613 ;;  CoordenadaX     2   55[COMRAM] int 
  1614 ;;  CoordenadaY     2   57[COMRAM] int 
  1615 ;; Auto vars:     Size  Location     Type
  1616 ;;		None
  1617 ;; Return value:  Size  Location     Type
  1618 ;;                  1    wreg      void 
  1619 ;; Registers used:
  1620 ;;		wreg, status,2, status,0, cstack
  1621 ;; Tracked objects:
  1622 ;;		On entry : 0/0
  1623 ;;		On exit  : 0/0
  1624 ;;		Unchanged: 0/0
  1625 ;; Data sizes:     COMRAM   BANK0   BANK1   BANK2   BANK3   BANK4   BANK5   BANK6   BANK7
  1626 ;;      Params:         4       0       0       0       0       0       0       0       0
  1627 ;;      Locals:         0       0       0       0       0       0       0       0       0
  1628 ;;      Temps:          0       0       0       0       0       0       0       0       0
  1629 ;;      Totals:         4       0       0       0       0       0       0       0       0
  1630 ;;Total ram usage:        4 bytes
  1631 ;; Hardware stack levels used:    1
  1632 ;; Hardware stack levels required when called:    2
  1633 ;; This function calls:
  1634 ;;		_Motor_Conversion
  1635 ;;		_PWM_GeneratePulsos
  1636 ;; This function is called by:
  1637 ;;		_main
  1638 ;; This function uses a non-reentrant model
  1639 ;;
  1640                           
  1641                           	psect	text11
  1642  00727C                     __ptext11:
  1643                           	opt callstack 0
  1644  00727C                     _Motor_Movimiento:
  1645                           	opt callstack 28
  1646  00727C                     
  1647                           ;Motor.c: 22:     pasosX=Motor_Conversion(CoordenadaX);
  1648  00727C  C038  F032         	movff	Motor_Movimiento@CoordenadaX,Motor_Conversion@Coordenada
  1649  007280  C039  F033         	movff	Motor_Movimiento@CoordenadaX+1,Motor_Conversion@Coordenada+1
  1650  007284  EC19  F03A         	call	_Motor_Conversion	;wreg free
  1651  007288  C032  F041         	movff	?_Motor_Conversion,_pasosX
  1652  00728C  C033  F042         	movff	?_Motor_Conversion+1,_pasosX+1
  1653                           
  1654                           ;Motor.c: 23:     pasosY=Motor_Conversion(CoordenadaY);
  1655  007290  C03A  F032         	movff	Motor_Movimiento@CoordenadaY,Motor_Conversion@Coordenada
  1656  007294  C03B  F033         	movff	Motor_Movimiento@CoordenadaY+1,Motor_Conversion@Coordenada+1
  1657  007298  EC19  F03A         	call	_Motor_Conversion	;wreg free
  1658  00729C  C032  F03F         	movff	?_Motor_Conversion,_pasosY
  1659  0072A0  C033  F040         	movff	?_Motor_Conversion+1,_pasosY+1
  1660                           
  1661                           ;Motor.c: 24:     PWM_GeneratePulsos(pasosX,pasosY);
  1662  0072A4  C041  F003         	movff	_pasosX,PWM_GeneratePulsos@pulsosX
  1663  0072A8  C042  F004         	movff	_pasosX+1,PWM_GeneratePulsos@pulsosX+1
  1664  0072AC  C03F  F005         	movff	_pasosY,PWM_GeneratePulsos@pulsosY
  1665  0072B0  C040  F006         	movff	_pasosY+1,PWM_GeneratePulsos@pulsosY+1
  1666  0072B4  EC89  F03B         	call	_PWM_GeneratePulsos	;wreg free
  1667  0072B8  0012               	return		;funcret
  1668  0072BA                     __end_of_Motor_Movimiento:
  1669                           	opt callstack 0
  1670                           
  1671 ;; *************** function _PWM_GeneratePulsos *****************
  1672 ;; Defined at:
  1673 ;;		line 6 in file "PWM.c"
  1674 ;; Parameters:    Size  Location     Type
  1675 ;;  pulsosX         2    2[COMRAM] int 
  1676 ;;  pulsosY         2    4[COMRAM] int 
  1677 ;; Auto vars:     Size  Location     Type
  1678 ;;  pasosY          2    9[COMRAM] int 
  1679 ;;  pasosX          2    7[COMRAM] int 
  1680 ;; Return value:  Size  Location     Type
  1681 ;;                  1    wreg      void 
  1682 ;; Registers used:
  1683 ;;		wreg, status,2, status,0, cstack
  1684 ;; Tracked objects:
  1685 ;;		On entry : 0/0
  1686 ;;		On exit  : 0/0
  1687 ;;		Unchanged: 0/0
  1688 ;; Data sizes:     COMRAM   BANK0   BANK1   BANK2   BANK3   BANK4   BANK5   BANK6   BANK7
  1689 ;;      Params:         4       0       0       0       0       0       0       0       0
  1690 ;;      Locals:         4       0       0       0       0       0       0       0       0
  1691 ;;      Temps:          1       0       0       0       0       0       0       0       0
  1692 ;;      Totals:         9       0       0       0       0       0       0       0       0
  1693 ;;Total ram usage:        9 bytes
  1694 ;; Hardware stack levels used:    1
  1695 ;; Hardware stack levels required when called:    1
  1696 ;; This function calls:
  1697 ;;		_PWM_InitF
  1698 ;;		_PWM_OneshotX
  1699 ;;		_PWM_OneshotY
  1700 ;; This function is called by:
  1701 ;;		_Motor_Movimiento
  1702 ;; This function uses a non-reentrant model
  1703 ;;
  1704                           
  1705                           	psect	text12
  1706  007712                     __ptext12:
  1707                           	opt callstack 0
  1708  007712                     _PWM_GeneratePulsos:
  1709                           	opt callstack 28
  1710  007712                     
  1711                           ;PWM.c: 7:     PWM_InitF();
  1712  007712  ECCC  F038         	call	_PWM_InitF	;wreg free
  1713  007716                     
  1714                           ;PWM.c: 8:     PORTCbits.RC0 = 0;
  1715  007716  9082               	bcf	130,0,c	;volatile
  1716  007718                     
  1717                           ;PWM.c: 9:     PORTCbits.RC4 = 0;
  1718  007718  9882               	bcf	130,4,c	;volatile
  1719  00771A                     
  1720                           ;PWM.c: 10:     T2CONbits.TMR2ON = 1;
  1721  00771A  84CA               	bsf	202,2,c	;volatile
  1722  00771C                     
  1723                           ;PWM.c: 11:     int pasosX = 0;
  1724  00771C  0E00               	movlw	0
  1725  00771E  6E09               	movwf	(PWM_GeneratePulsos@pasosX+1)^0,c
  1726  007720  0E00               	movlw	0
  1727  007722  6E08               	movwf	PWM_GeneratePulsos@pasosX^0,c
  1728  007724                     
  1729                           ;PWM.c: 12:     int pasosY = 0;
  1730  007724  0E00               	movlw	0
  1731  007726  6E0B               	movwf	(PWM_GeneratePulsos@pasosY+1)^0,c
  1732  007728  0E00               	movlw	0
  1733  00772A  6E0A               	movwf	PWM_GeneratePulsos@pasosY^0,c
  1734                           
  1735                           ;PWM.c: 13:     while (pasosX < pulsosX && pasosY < pulsosY) {
  1736  00772C  EFE6  F03B         	goto	l1827
  1737  007730                     l1811:
  1738                           
  1739                           ;PWM.c: 14:         if (pasosX < pulsosX) {
  1740  007730  5003               	movf	PWM_GeneratePulsos@pulsosX^0,w,c
  1741  007732  5C08               	subwf	PWM_GeneratePulsos@pasosX^0,w,c
  1742  007734  5009               	movf	(PWM_GeneratePulsos@pasosX+1)^0,w,c
  1743  007736  0A80               	xorlw	128
  1744  007738  6E07               	movwf	??_PWM_GeneratePulsos^0,c
  1745  00773A  5004               	movf	(PWM_GeneratePulsos@pulsosX+1)^0,w,c
  1746  00773C  0A80               	xorlw	128
  1747  00773E  5807               	subwfb	??_PWM_GeneratePulsos^0,w,c
  1748  007740  B0D8               	btfsc	status,0,c
  1749  007742  EFA5  F03B         	goto	u1321
  1750  007746  EFA7  F03B         	goto	u1320
  1751  00774A                     u1321:
  1752  00774A  EFBE  F03B         	goto	l153
  1753  00774E                     u1320:
  1754  00774E                     
  1755                           ;PWM.c: 15:             if (PORTCbits.RC2 == 1) {
  1756  00774E  A482               	btfss	130,2,c	;volatile
  1757  007750  EFAC  F03B         	goto	u1331
  1758  007754  EFAE  F03B         	goto	u1330
  1759  007758                     u1331:
  1760  007758  EFBA  F03B         	goto	l1817
  1761  00775C                     u1330:
  1762  00775C                     
  1763                           ;PWM.c: 16:                 pasosX = PWM_OneshotX(pasosX);
  1764  00775C  C008  F001         	movff	PWM_GeneratePulsos@pasosX,PWM_OneshotX@pasosX
  1765  007760  C009  F002         	movff	PWM_GeneratePulsos@pasosX+1,PWM_OneshotX@pasosX+1
  1766  007764  ECF2  F038         	call	_PWM_OneshotX	;wreg free
  1767  007768  C001  F008         	movff	?_PWM_OneshotX,PWM_GeneratePulsos@pasosX
  1768  00776C  C002  F009         	movff	?_PWM_OneshotX+1,PWM_GeneratePulsos@pasosX+1
  1769                           
  1770                           ;PWM.c: 17:             } else {
  1771  007770  EFBF  F03B         	goto	l1819
  1772  007774                     l1817:
  1773                           
  1774                           ;PWM.c: 18:                 oneshotX = 0;
  1775  007774  0E00               	movlw	0
  1776  007776  6E4A               	movwf	_oneshotX^0,c
  1777  007778  EFBF  F03B         	goto	l1819
  1778  00777C                     l153:
  1779                           
  1780                           ;PWM.c: 21:             PORTCbits.RC0 = 1;
  1781  00777C  8082               	bsf	130,0,c	;volatile
  1782  00777E                     l1819:
  1783                           
  1784                           ;PWM.c: 23:         if (pasosY < pulsosY) {
  1785  00777E  5005               	movf	PWM_GeneratePulsos@pulsosY^0,w,c
  1786  007780  5C0A               	subwf	PWM_GeneratePulsos@pasosY^0,w,c
  1787  007782  500B               	movf	(PWM_GeneratePulsos@pasosY+1)^0,w,c
  1788  007784  0A80               	xorlw	128
  1789  007786  6E07               	movwf	??_PWM_GeneratePulsos^0,c
  1790  007788  5006               	movf	(PWM_GeneratePulsos@pulsosY+1)^0,w,c
  1791  00778A  0A80               	xorlw	128
  1792  00778C  5807               	subwfb	??_PWM_GeneratePulsos^0,w,c
  1793  00778E  B0D8               	btfsc	status,0,c
  1794  007790  EFCC  F03B         	goto	u1341
  1795  007794  EFCE  F03B         	goto	u1340
  1796  007798                     u1341:
  1797  007798  EFE5  F03B         	goto	l157
  1798  00779C                     u1340:
  1799  00779C                     
  1800                           ;PWM.c: 24:             if (PORTCbits.RC1 == 1) {
  1801  00779C  A282               	btfss	130,1,c	;volatile
  1802  00779E  EFD3  F03B         	goto	u1351
  1803  0077A2  EFD5  F03B         	goto	u1350
  1804  0077A6                     u1351:
  1805  0077A6  EFE1  F03B         	goto	l1825
  1806  0077AA                     u1350:
  1807  0077AA                     
  1808                           ;PWM.c: 25:                 pasosY = PWM_OneshotY(pasosY);
  1809  0077AA  C00A  F001         	movff	PWM_GeneratePulsos@pasosY,PWM_OneshotY@pasosY
  1810  0077AE  C00B  F002         	movff	PWM_GeneratePulsos@pasosY+1,PWM_OneshotY@pasosY+1
  1811  0077B2  EC0A  F039         	call	_PWM_OneshotY	;wreg free
  1812  0077B6  C001  F00A         	movff	?_PWM_OneshotY,PWM_GeneratePulsos@pasosY
  1813  0077BA  C002  F00B         	movff	?_PWM_OneshotY+1,PWM_GeneratePulsos@pasosY+1
  1814                           
  1815                           ;PWM.c: 26:             } else {
  1816  0077BE  EFE6  F03B         	goto	l1827
  1817  0077C2                     l1825:
  1818                           
  1819                           ;PWM.c: 27:                 oneshotY = 0;
  1820  0077C2  0E00               	movlw	0
  1821  0077C4  6E49               	movwf	_oneshotY^0,c
  1822  0077C6  EFE6  F03B         	goto	l1827
  1823  0077CA                     l157:
  1824                           
  1825                           ;PWM.c: 30:             PORTCbits.RC4 = 1;
  1826  0077CA  8882               	bsf	130,4,c	;volatile
  1827  0077CC                     l1827:
  1828                           
  1829                           ;PWM.c: 13:     while (pasosX < pulsosX && pasosY < pulsosY) {
  1830  0077CC  5003               	movf	PWM_GeneratePulsos@pulsosX^0,w,c
  1831  0077CE  5C08               	subwf	PWM_GeneratePulsos@pasosX^0,w,c
  1832  0077D0  5009               	movf	(PWM_GeneratePulsos@pasosX+1)^0,w,c
  1833  0077D2  0A80               	xorlw	128
  1834  0077D4  6E07               	movwf	??_PWM_GeneratePulsos^0,c
  1835  0077D6  5004               	movf	(PWM_GeneratePulsos@pulsosX+1)^0,w,c
  1836  0077D8  0A80               	xorlw	128
  1837  0077DA  5807               	subwfb	??_PWM_GeneratePulsos^0,w,c
  1838  0077DC  B0D8               	btfsc	status,0,c
  1839  0077DE  EFF3  F03B         	goto	u1361
  1840  0077E2  EFF5  F03B         	goto	u1360
  1841  0077E6                     u1361:
  1842  0077E6  EF04  F03C         	goto	l1831
  1843  0077EA                     u1360:
  1844  0077EA  5005               	movf	PWM_GeneratePulsos@pulsosY^0,w,c
  1845  0077EC  5C0A               	subwf	PWM_GeneratePulsos@pasosY^0,w,c
  1846  0077EE  500B               	movf	(PWM_GeneratePulsos@pasosY+1)^0,w,c
  1847  0077F0  0A80               	xorlw	128
  1848  0077F2  6E07               	movwf	??_PWM_GeneratePulsos^0,c
  1849  0077F4  5006               	movf	(PWM_GeneratePulsos@pulsosY+1)^0,w,c
  1850  0077F6  0A80               	xorlw	128
  1851  0077F8  5807               	subwfb	??_PWM_GeneratePulsos^0,w,c
  1852  0077FA  A0D8               	btfss	status,0,c
  1853  0077FC  EF02  F03C         	goto	u1371
  1854  007800  EF04  F03C         	goto	u1370
  1855  007804                     u1371:
  1856  007804  EF98  F03B         	goto	l1811
  1857  007808                     u1370:
  1858  007808                     l1831:
  1859                           
  1860                           ;PWM.c: 34:     oneshotX = 0;
  1861  007808  0E00               	movlw	0
  1862  00780A  6E4A               	movwf	_oneshotX^0,c
  1863                           
  1864                           ;PWM.c: 35:     pasosY = 0;
  1865  00780C  0E00               	movlw	0
  1866  00780E  6E0B               	movwf	(PWM_GeneratePulsos@pasosY+1)^0,c
  1867  007810  0E00               	movlw	0
  1868  007812  6E0A               	movwf	PWM_GeneratePulsos@pasosY^0,c
  1869                           
  1870                           ;PWM.c: 36:     oneshotY = 0;
  1871  007814  0E00               	movlw	0
  1872  007816  6E49               	movwf	_oneshotY^0,c
  1873  007818                     
  1874                           ;PWM.c: 37:     T2CONbits.TMR2ON = 0;
  1875  007818  94CA               	bcf	202,2,c	;volatile
  1876  00781A  0012               	return		;funcret
  1877  00781C                     __end_of_PWM_GeneratePulsos:
  1878                           	opt callstack 0
  1879                           
  1880 ;; *************** function _PWM_OneshotY *****************
  1881 ;; Defined at:
  1882 ;;		line 78 in file "PWM.c"
  1883 ;; Parameters:    Size  Location     Type
  1884 ;;  pasosY          2    0[COMRAM] int 
  1885 ;; Auto vars:     Size  Location     Type
  1886 ;;		None
  1887 ;; Return value:  Size  Location     Type
  1888 ;;                  2    0[COMRAM] int 
  1889 ;; Registers used:
  1890 ;;		wreg, status,2, status,0
  1891 ;; Tracked objects:
  1892 ;;		On entry : 0/0
  1893 ;;		On exit  : 0/0
  1894 ;;		Unchanged: 0/0
  1895 ;; Data sizes:     COMRAM   BANK0   BANK1   BANK2   BANK3   BANK4   BANK5   BANK6   BANK7
  1896 ;;      Params:         2       0       0       0       0       0       0       0       0
  1897 ;;      Locals:         0       0       0       0       0       0       0       0       0
  1898 ;;      Temps:          0       0       0       0       0       0       0       0       0
  1899 ;;      Totals:         2       0       0       0       0       0       0       0       0
  1900 ;;Total ram usage:        2 bytes
  1901 ;; Hardware stack levels used:    1
  1902 ;; This function calls:
  1903 ;;		Nothing
  1904 ;; This function is called by:
  1905 ;;		_PWM_GeneratePulsos
  1906 ;; This function uses a non-reentrant model
  1907 ;;
  1908                           
  1909                           	psect	text13
  1910  007214                     __ptext13:
  1911                           	opt callstack 0
  1912  007214                     _PWM_OneshotY:
  1913                           	opt callstack 28
  1914  007214                     
  1915                           ;PWM.c: 79:     if (PORTCbits.RC1 == 1 & oneshotY == 0) {
  1916  007214  A282               	btfss	130,1,c	;volatile
  1917  007216  EF0F  F039         	goto	u791
  1918  00721A  EF11  F039         	goto	u790
  1919  00721E                     u791:
  1920  00721E  EF1D  F039         	goto	l1503
  1921  007222                     u790:
  1922  007222  5049               	movf	_oneshotY^0,w,c
  1923  007224  A4D8               	btfss	status,2,c
  1924  007226  EF17  F039         	goto	u801
  1925  00722A  EF19  F039         	goto	u800
  1926  00722E                     u801:
  1927  00722E  EF1D  F039         	goto	l1503
  1928  007232                     u800:
  1929  007232                     
  1930                           ;PWM.c: 80:         pasosY++;
  1931  007232  4A01               	infsnz	PWM_OneshotY@pasosY^0,f,c
  1932  007234  2A02               	incf	(PWM_OneshotY@pasosY+1)^0,f,c
  1933  007236                     
  1934                           ;PWM.c: 81:         oneshotY = 1;
  1935  007236  0E01               	movlw	1
  1936  007238  6E49               	movwf	_oneshotY^0,c
  1937  00723A                     l1503:
  1938                           
  1939                           ;PWM.c: 83:     return pasosY;
  1940  00723A  C001  F001         	movff	PWM_OneshotY@pasosY,?_PWM_OneshotY
  1941  00723E  C002  F002         	movff	PWM_OneshotY@pasosY+1,?_PWM_OneshotY+1
  1942  007242  0012               	return		;funcret
  1943  007244                     __end_of_PWM_OneshotY:
  1944                           	opt callstack 0
  1945                           
  1946 ;; *************** function _PWM_OneshotX *****************
  1947 ;; Defined at:
  1948 ;;		line 70 in file "PWM.c"
  1949 ;; Parameters:    Size  Location     Type
  1950 ;;  pasosX          2    0[COMRAM] int 
  1951 ;; Auto vars:     Size  Location     Type
  1952 ;;		None
  1953 ;; Return value:  Size  Location     Type
  1954 ;;                  2    0[COMRAM] int 
  1955 ;; Registers used:
  1956 ;;		wreg, status,2, status,0
  1957 ;; Tracked objects:
  1958 ;;		On entry : 0/0
  1959 ;;		On exit  : 0/0
  1960 ;;		Unchanged: 0/0
  1961 ;; Data sizes:     COMRAM   BANK0   BANK1   BANK2   BANK3   BANK4   BANK5   BANK6   BANK7
  1962 ;;      Params:         2       0       0       0       0       0       0       0       0
  1963 ;;      Locals:         0       0       0       0       0       0       0       0       0
  1964 ;;      Temps:          0       0       0       0       0       0       0       0       0
  1965 ;;      Totals:         2       0       0       0       0       0       0       0       0
  1966 ;;Total ram usage:        2 bytes
  1967 ;; Hardware stack levels used:    1
  1968 ;; This function calls:
  1969 ;;		Nothing
  1970 ;; This function is called by:
  1971 ;;		_PWM_GeneratePulsos
  1972 ;; This function uses a non-reentrant model
  1973 ;;
  1974                           
  1975                           	psect	text14
  1976  0071E4                     __ptext14:
  1977                           	opt callstack 0
  1978  0071E4                     _PWM_OneshotX:
  1979                           	opt callstack 28
  1980  0071E4                     
  1981                           ;PWM.c: 71:     if (PORTCbits.RC2 == 1 & oneshotX == 0) {
  1982  0071E4  A482               	btfss	130,2,c	;volatile
  1983  0071E6  EFF7  F038         	goto	u771
  1984  0071EA  EFF9  F038         	goto	u770
  1985  0071EE                     u771:
  1986  0071EE  EF05  F039         	goto	l1491
  1987  0071F2                     u770:
  1988  0071F2  504A               	movf	_oneshotX^0,w,c
  1989  0071F4  A4D8               	btfss	status,2,c
  1990  0071F6  EFFF  F038         	goto	u781
  1991  0071FA  EF01  F039         	goto	u780
  1992  0071FE                     u781:
  1993  0071FE  EF05  F039         	goto	l1491
  1994  007202                     u780:
  1995  007202                     
  1996                           ;PWM.c: 72:         pasosX++;
  1997  007202  4A01               	infsnz	PWM_OneshotX@pasosX^0,f,c
  1998  007204  2A02               	incf	(PWM_OneshotX@pasosX+1)^0,f,c
  1999  007206                     
  2000                           ;PWM.c: 73:         oneshotX = 1;
  2001  007206  0E01               	movlw	1
  2002  007208  6E4A               	movwf	_oneshotX^0,c
  2003  00720A                     l1491:
  2004                           
  2005                           ;PWM.c: 75:     return pasosX;
  2006  00720A  C001  F001         	movff	PWM_OneshotX@pasosX,?_PWM_OneshotX
  2007  00720E  C002  F002         	movff	PWM_OneshotX@pasosX+1,?_PWM_OneshotX+1
  2008  007212  0012               	return		;funcret
  2009  007214                     __end_of_PWM_OneshotX:
  2010                           	opt callstack 0
  2011                           
  2012 ;; *************** function _PWM_InitF *****************
  2013 ;; Defined at:
  2014 ;;		line 40 in file "PWM.c"
  2015 ;; Parameters:    Size  Location     Type
  2016 ;;		None
  2017 ;; Auto vars:     Size  Location     Type
  2018 ;;		None
  2019 ;; Return value:  Size  Location     Type
  2020 ;;                  1    wreg      void 
  2021 ;; Registers used:
  2022 ;;		wreg, status,2
  2023 ;; Tracked objects:
  2024 ;;		On entry : 0/0
  2025 ;;		On exit  : 0/0
  2026 ;;		Unchanged: 0/0
  2027 ;; Data sizes:     COMRAM   BANK0   BANK1   BANK2   BANK3   BANK4   BANK5   BANK6   BANK7
  2028 ;;      Params:         0       0       0       0       0       0       0       0       0
  2029 ;;      Locals:         0       0       0       0       0       0       0       0       0
  2030 ;;      Temps:          0       0       0       0       0       0       0       0       0
  2031 ;;      Totals:         0       0       0       0       0       0       0       0       0
  2032 ;;Total ram usage:        0 bytes
  2033 ;; Hardware stack levels used:    1
  2034 ;; This function calls:
  2035 ;;		Nothing
  2036 ;; This function is called by:
  2037 ;;		_PWM_GeneratePulsos
  2038 ;; This function uses a non-reentrant model
  2039 ;;
  2040                           
  2041                           	psect	text15
  2042  007198                     __ptext15:
  2043                           	opt callstack 0
  2044  007198                     _PWM_InitF:
  2045                           	opt callstack 28
  2046  007198                     
  2047                           ;PWM.c: 42:     PR2 = 0X7C;
  2048  007198  0E7C               	movlw	124
  2049  00719A  6ECB               	movwf	203,c	;volatile
  2050                           
  2051                           ;PWM.c: 43:     CCPR1L = 0X3E;
  2052  00719C  0E3E               	movlw	62
  2053  00719E  6EBE               	movwf	190,c	;volatile
  2054                           
  2055                           ;PWM.c: 44:     CCPR2L = 0X3E;
  2056  0071A0  0E3E               	movlw	62
  2057  0071A2  6EBB               	movwf	187,c	;volatile
  2058  0071A4                     
  2059                           ;PWM.c: 45:     TRISCbits.RC1 = 0;
  2060  0071A4  9294               	bcf	148,1,c	;volatile
  2061  0071A6                     
  2062                           ;PWM.c: 46:     TRISCbits.RC0 = 0;
  2063  0071A6  9094               	bcf	148,0,c	;volatile
  2064  0071A8                     
  2065                           ;PWM.c: 47:     TRISCbits.RC2 = 0;
  2066  0071A8  9494               	bcf	148,2,c	;volatile
  2067                           
  2068                           ;PWM.c: 48:     T2CON = 0X03;
  2069  0071AA  0E03               	movlw	3
  2070  0071AC  6ECA               	movwf	202,c	;volatile
  2071                           
  2072                           ;PWM.c: 49:     CCP1CON = 0X0C;
  2073  0071AE  0E0C               	movlw	12
  2074  0071B0  6EBD               	movwf	189,c	;volatile
  2075                           
  2076                           ;PWM.c: 50:     CCP2CON = 0X0C;
  2077  0071B2  0E0C               	movlw	12
  2078  0071B4  6EBA               	movwf	186,c	;volatile
  2079  0071B6                     
  2080                           ;PWM.c: 51:     T2CONbits.TMR2ON = 0;
  2081  0071B6  94CA               	bcf	202,2,c	;volatile
  2082  0071B8                     
  2083                           ;PWM.c: 52:     PORTCbits.RC0 = 1;
  2084  0071B8  8082               	bsf	130,0,c	;volatile
  2085  0071BA                     
  2086                           ;PWM.c: 53:      PORTCbits.RC4 = 1;
  2087  0071BA  8882               	bsf	130,4,c	;volatile
  2088  0071BC  0012               	return		;funcret
  2089  0071BE                     __end_of_PWM_InitF:
  2090                           	opt callstack 0
  2091                           
  2092 ;; *************** function _Motor_Conversion *****************
  2093 ;; Defined at:
  2094 ;;		line 15 in file "Motor.c"
  2095 ;; Parameters:    Size  Location     Type
  2096 ;;  Coordenada      2   49[COMRAM] int 
  2097 ;; Auto vars:     Size  Location     Type
  2098 ;;  conversion      4   51[COMRAM] float 
  2099 ;; Return value:  Size  Location     Type
  2100 ;;                  2   49[COMRAM] int 
  2101 ;; Registers used:
  2102 ;;		wreg, status,2, status,0, cstack
  2103 ;; Tracked objects:
  2104 ;;		On entry : 0/0
  2105 ;;		On exit  : 0/0
  2106 ;;		Unchanged: 0/0
  2107 ;; Data sizes:     COMRAM   BANK0   BANK1   BANK2   BANK3   BANK4   BANK5   BANK6   BANK7
  2108 ;;      Params:         2       0       0       0       0       0       0       0       0
  2109 ;;      Locals:         4       0       0       0       0       0       0       0       0
  2110 ;;      Temps:          0       0       0       0       0       0       0       0       0
  2111 ;;      Totals:         6       0       0       0       0       0       0       0       0
  2112 ;;Total ram usage:        6 bytes
  2113 ;; Hardware stack levels used:    1
  2114 ;; Hardware stack levels required when called:    1
  2115 ;; This function calls:
  2116 ;;		___fldiv
  2117 ;;		___fltol
  2118 ;;		___xxtofl
  2119 ;; This function is called by:
  2120 ;;		_Motor_Movimiento
  2121 ;; This function uses a non-reentrant model
  2122 ;;
  2123                           
  2124                           	psect	text16
  2125  007432                     __ptext16:
  2126                           	opt callstack 0
  2127  007432                     _Motor_Conversion:
  2128                           	opt callstack 28
  2129  007432                     
  2130                           ;Motor.c: 16:     float conversion=0.2;
  2131  007432  0ECD               	movlw	205
  2132  007434  6E34               	movwf	Motor_Conversion@conversion^0,c
  2133  007436  0ECC               	movlw	204
  2134  007438  6E35               	movwf	(Motor_Conversion@conversion+1)^0,c
  2135  00743A  0E4C               	movlw	76
  2136  00743C  6E36               	movwf	(Motor_Conversion@conversion+2)^0,c
  2137  00743E  0E3E               	movlw	62
  2138  007440  6E37               	movwf	(Motor_Conversion@conversion+3)^0,c
  2139  007442                     
  2140                           ;Motor.c: 17:     pasos_convertidos=Coordenada/conversion;
  2141  007442  C034  F013         	movff	Motor_Conversion@conversion,___fldiv@a
  2142  007446  C035  F014         	movff	Motor_Conversion@conversion+1,___fldiv@a+1
  2143  00744A  C036  F015         	movff	Motor_Conversion@conversion+2,___fldiv@a+2
  2144  00744E  C037  F016         	movff	Motor_Conversion@conversion+3,___fldiv@a+3
  2145  007452  C032  F001         	movff	Motor_Conversion@Coordenada,___xxtofl@val
  2146  007456  C033  F002         	movff	Motor_Conversion@Coordenada+1,___xxtofl@val+1
  2147  00745A  0E00               	movlw	0
  2148  00745C  BE02               	btfsc	(___xxtofl@val+1)^0,7,c
  2149  00745E  0EFF               	movlw	-1
  2150  007460  6E03               	movwf	(___xxtofl@val+2)^0,c
  2151  007462  6E04               	movwf	(___xxtofl@val+3)^0,c
  2152  007464  0E01               	movlw	1
  2153  007466  EC59  F03D         	call	___xxtofl
  2154  00746A  C001  F00F         	movff	?___xxtofl,___fldiv@b
  2155  00746E  C002  F010         	movff	?___xxtofl+1,___fldiv@b+1
  2156  007472  C003  F011         	movff	?___xxtofl+2,___fldiv@b+2
  2157  007476  C004  F012         	movff	?___xxtofl+3,___fldiv@b+3
  2158  00747A  EC33  F03E         	call	___fldiv	;wreg free
  2159  00747E  C00F  F028         	movff	?___fldiv,___fltol@f1
  2160  007482  C010  F029         	movff	?___fldiv+1,___fltol@f1+1
  2161  007486  C011  F02A         	movff	?___fldiv+2,___fltol@f1+2
  2162  00748A  C012  F02B         	movff	?___fldiv+3,___fltol@f1+3
  2163  00748E  EC06  F03B         	call	___fltol	;wreg free
  2164  007492  C028  F043         	movff	?___fltol,_pasos_convertidos
  2165  007496  C029  F044         	movff	?___fltol+1,_pasos_convertidos+1
  2166  00749A                     
  2167                           ;Motor.c: 18:     return pasos_convertidos;
  2168  00749A  C043  F032         	movff	_pasos_convertidos,?_Motor_Conversion
  2169  00749E  C044  F033         	movff	_pasos_convertidos+1,?_Motor_Conversion+1
  2170  0074A2  0012               	return		;funcret
  2171  0074A4                     __end_of_Motor_Conversion:
  2172                           	opt callstack 0
  2173                           
  2174 ;; *************** function ___xxtofl *****************
  2175 ;; Defined at:
  2176 ;;		line 10 in file "C:\Program Files (x86)\Microchip\xc8\v2.10\pic\sources\c99\common\xxtofl.c"
  2177 ;; Parameters:    Size  Location     Type
  2178 ;;  sign            1    wreg     unsigned char 
  2179 ;;  val             4    0[COMRAM] long 
  2180 ;; Auto vars:     Size  Location     Type
  2181 ;;  sign            1    8[COMRAM] unsigned char 
  2182 ;;  arg             4   10[COMRAM] unsigned long 
  2183 ;;  exp             1    9[COMRAM] unsigned char 
  2184 ;; Return value:  Size  Location     Type
  2185 ;;                  4    0[COMRAM] unsigned char 
  2186 ;; Registers used:
  2187 ;;		wreg, status,2, status,0
  2188 ;; Tracked objects:
  2189 ;;		On entry : 0/0
  2190 ;;		On exit  : 0/0
  2191 ;;		Unchanged: 0/0
  2192 ;; Data sizes:     COMRAM   BANK0   BANK1   BANK2   BANK3   BANK4   BANK5   BANK6   BANK7
  2193 ;;      Params:         4       0       0       0       0       0       0       0       0
  2194 ;;      Locals:         6       0       0       0       0       0       0       0       0
  2195 ;;      Temps:          4       0       0       0       0       0       0       0       0
  2196 ;;      Totals:        14       0       0       0       0       0       0       0       0
  2197 ;;Total ram usage:       14 bytes
  2198 ;; Hardware stack levels used:    1
  2199 ;; This function calls:
  2200 ;;		Nothing
  2201 ;; This function is called by:
  2202 ;;		_Motor_Conversion
  2203 ;; This function uses a non-reentrant model
  2204 ;;
  2205                           
  2206                           	psect	text17
  2207  007AB2                     __ptext17:
  2208                           	opt callstack 0
  2209  007AB2                     ___xxtofl:
  2210                           	opt callstack 28
  2211                           
  2212                           ;incstack = 0
  2213                           ;___xxtofl@sign stored from wreg
  2214  007AB2  6E09               	movwf	___xxtofl@sign^0,c
  2215  007AB4  5009               	movf	___xxtofl@sign^0,w,c
  2216  007AB6  B4D8               	btfsc	status,2,c
  2217  007AB8  EF60  F03D         	goto	u1111
  2218  007ABC  EF62  F03D         	goto	u1110
  2219  007AC0                     u1111:
  2220  007AC0  EF84  F03D         	goto	l858
  2221  007AC4                     u1110:
  2222  007AC4  BE04               	btfsc	(___xxtofl@val+3)^0,7,c
  2223  007AC6  EF69  F03D         	goto	u1120
  2224  007ACA  EF67  F03D         	goto	u1121
  2225  007ACE                     u1121:
  2226  007ACE  EF84  F03D         	goto	l858
  2227  007AD2                     u1120:
  2228  007AD2  C001  F005         	movff	___xxtofl@val,??___xxtofl
  2229  007AD6  C002  F006         	movff	___xxtofl@val+1,??___xxtofl+1
  2230  007ADA  C003  F007         	movff	___xxtofl@val+2,??___xxtofl+2
  2231  007ADE  C004  F008         	movff	___xxtofl@val+3,??___xxtofl+3
  2232  007AE2  1E05               	comf	??___xxtofl^0,f,c
  2233  007AE4  1E06               	comf	(??___xxtofl+1)^0,f,c
  2234  007AE6  1E07               	comf	(??___xxtofl+2)^0,f,c
  2235  007AE8  1E08               	comf	(??___xxtofl+3)^0,f,c
  2236  007AEA  2A05               	incf	??___xxtofl^0,f,c
  2237  007AEC  0E00               	movlw	0
  2238  007AEE  2206               	addwfc	(??___xxtofl+1)^0,f,c
  2239  007AF0  2207               	addwfc	(??___xxtofl+2)^0,f,c
  2240  007AF2  2208               	addwfc	(??___xxtofl+3)^0,f,c
  2241  007AF4  C005  F00B         	movff	??___xxtofl,___xxtofl@arg
  2242  007AF8  C006  F00C         	movff	??___xxtofl+1,___xxtofl@arg+1
  2243  007AFC  C007  F00D         	movff	??___xxtofl+2,___xxtofl@arg+2
  2244  007B00  C008  F00E         	movff	??___xxtofl+3,___xxtofl@arg+3
  2245  007B04  EF8C  F03D         	goto	l1701
  2246  007B08                     l858:
  2247  007B08  C001  F00B         	movff	___xxtofl@val,___xxtofl@arg
  2248  007B0C  C002  F00C         	movff	___xxtofl@val+1,___xxtofl@arg+1
  2249  007B10  C003  F00D         	movff	___xxtofl@val+2,___xxtofl@arg+2
  2250  007B14  C004  F00E         	movff	___xxtofl@val+3,___xxtofl@arg+3
  2251  007B18                     l1701:
  2252  007B18  5001               	movf	___xxtofl@val^0,w,c
  2253  007B1A  1002               	iorwf	(___xxtofl@val+1)^0,w,c
  2254  007B1C  1003               	iorwf	(___xxtofl@val+2)^0,w,c
  2255  007B1E  1004               	iorwf	(___xxtofl@val+3)^0,w,c
  2256  007B20  A4D8               	btfss	status,2,c
  2257  007B22  EF95  F03D         	goto	u1131
  2258  007B26  EF97  F03D         	goto	u1130
  2259  007B2A                     u1131:
  2260  007B2A  EFA1  F03D         	goto	l1707
  2261  007B2E                     u1130:
  2262  007B2E  0E00               	movlw	0
  2263  007B30  6E01               	movwf	?___xxtofl^0,c
  2264  007B32  0E00               	movlw	0
  2265  007B34  6E02               	movwf	(?___xxtofl+1)^0,c
  2266  007B36  0E00               	movlw	0
  2267  007B38  6E03               	movwf	(?___xxtofl+2)^0,c
  2268  007B3A  0E00               	movlw	0
  2269  007B3C  6E04               	movwf	(?___xxtofl+3)^0,c
  2270  007B3E  EF32  F03E         	goto	l861
  2271  007B42                     l1707:
  2272  007B42  0E96               	movlw	150
  2273  007B44  6E0A               	movwf	___xxtofl@exp^0,c
  2274  007B46  EFAB  F03D         	goto	l1711
  2275  007B4A                     l1709:
  2276  007B4A  2A0A               	incf	___xxtofl@exp^0,f,c
  2277  007B4C  90D8               	bcf	status,0,c
  2278  007B4E  320E               	rrcf	(___xxtofl@arg+3)^0,f,c
  2279  007B50  320D               	rrcf	(___xxtofl@arg+2)^0,f,c
  2280  007B52  320C               	rrcf	(___xxtofl@arg+1)^0,f,c
  2281  007B54  320B               	rrcf	___xxtofl@arg^0,f,c
  2282  007B56                     l1711:
  2283  007B56  0E00               	movlw	0
  2284  007B58  140B               	andwf	___xxtofl@arg^0,w,c
  2285  007B5A  6E05               	movwf	??___xxtofl^0,c
  2286  007B5C  0E00               	movlw	0
  2287  007B5E  140C               	andwf	(___xxtofl@arg+1)^0,w,c
  2288  007B60  6E06               	movwf	(??___xxtofl+1)^0,c
  2289  007B62  0E00               	movlw	0
  2290  007B64  140D               	andwf	(___xxtofl@arg+2)^0,w,c
  2291  007B66  6E07               	movwf	(??___xxtofl+2)^0,c
  2292  007B68  0EFE               	movlw	254
  2293  007B6A  140E               	andwf	(___xxtofl@arg+3)^0,w,c
  2294  007B6C  6E08               	movwf	(??___xxtofl+3)^0,c
  2295  007B6E  5005               	movf	??___xxtofl^0,w,c
  2296  007B70  1006               	iorwf	(??___xxtofl+1)^0,w,c
  2297  007B72  1007               	iorwf	(??___xxtofl+2)^0,w,c
  2298  007B74  1008               	iorwf	(??___xxtofl+3)^0,w,c
  2299  007B76  A4D8               	btfss	status,2,c
  2300  007B78  EFC0  F03D         	goto	u1141
  2301  007B7C  EFC2  F03D         	goto	u1140
  2302  007B80                     u1141:
  2303  007B80  EFA5  F03D         	goto	l1709
  2304  007B84                     u1140:
  2305  007B84  EFD0  F03D         	goto	l865
  2306  007B88                     l1713:
  2307  007B88  2A0A               	incf	___xxtofl@exp^0,f,c
  2308  007B8A  0E01               	movlw	1
  2309  007B8C  260B               	addwf	___xxtofl@arg^0,f,c
  2310  007B8E  0E00               	movlw	0
  2311  007B90  220C               	addwfc	(___xxtofl@arg+1)^0,f,c
  2312  007B92  220D               	addwfc	(___xxtofl@arg+2)^0,f,c
  2313  007B94  220E               	addwfc	(___xxtofl@arg+3)^0,f,c
  2314  007B96  90D8               	bcf	status,0,c
  2315  007B98  320E               	rrcf	(___xxtofl@arg+3)^0,f,c
  2316  007B9A  320D               	rrcf	(___xxtofl@arg+2)^0,f,c
  2317  007B9C  320C               	rrcf	(___xxtofl@arg+1)^0,f,c
  2318  007B9E  320B               	rrcf	___xxtofl@arg^0,f,c
  2319  007BA0                     l865:
  2320  007BA0  0E00               	movlw	0
  2321  007BA2  140B               	andwf	___xxtofl@arg^0,w,c
  2322  007BA4  6E05               	movwf	??___xxtofl^0,c
  2323  007BA6  0E00               	movlw	0
  2324  007BA8  140C               	andwf	(___xxtofl@arg+1)^0,w,c
  2325  007BAA  6E06               	movwf	(??___xxtofl+1)^0,c
  2326  007BAC  0E00               	movlw	0
  2327  007BAE  140D               	andwf	(___xxtofl@arg+2)^0,w,c
  2328  007BB0  6E07               	movwf	(??___xxtofl+2)^0,c
  2329  007BB2  0EFF               	movlw	255
  2330  007BB4  140E               	andwf	(___xxtofl@arg+3)^0,w,c
  2331  007BB6  6E08               	movwf	(??___xxtofl+3)^0,c
  2332  007BB8  5005               	movf	??___xxtofl^0,w,c
  2333  007BBA  1006               	iorwf	(??___xxtofl+1)^0,w,c
  2334  007BBC  1007               	iorwf	(??___xxtofl+2)^0,w,c
  2335  007BBE  1008               	iorwf	(??___xxtofl+3)^0,w,c
  2336  007BC0  A4D8               	btfss	status,2,c
  2337  007BC2  EFE5  F03D         	goto	u1151
  2338  007BC6  EFE7  F03D         	goto	u1150
  2339  007BCA                     u1151:
  2340  007BCA  EFC4  F03D         	goto	l1713
  2341  007BCE                     u1150:
  2342  007BCE  EFEF  F03D         	goto	l1721
  2343  007BD2                     l1719:
  2344  007BD2  060A               	decf	___xxtofl@exp^0,f,c
  2345  007BD4  90D8               	bcf	status,0,c
  2346  007BD6  360B               	rlcf	___xxtofl@arg^0,f,c
  2347  007BD8  360C               	rlcf	(___xxtofl@arg+1)^0,f,c
  2348  007BDA  360D               	rlcf	(___xxtofl@arg+2)^0,f,c
  2349  007BDC  360E               	rlcf	(___xxtofl@arg+3)^0,f,c
  2350  007BDE                     l1721:
  2351  007BDE  BE0D               	btfsc	(___xxtofl@arg+2)^0,7,c
  2352  007BE0  EFF4  F03D         	goto	u1161
  2353  007BE4  EFF6  F03D         	goto	u1160
  2354  007BE8                     u1161:
  2355  007BE8  EFFE  F03D         	goto	l872
  2356  007BEC                     u1160:
  2357  007BEC  0E02               	movlw	2
  2358  007BEE  600A               	cpfslt	___xxtofl@exp^0,c
  2359  007BF0  EFFC  F03D         	goto	u1171
  2360  007BF4  EFFE  F03D         	goto	u1170
  2361  007BF8                     u1171:
  2362  007BF8  EFE9  F03D         	goto	l1719
  2363  007BFC                     u1170:
  2364  007BFC                     l872:
  2365  007BFC  B00A               	btfsc	___xxtofl@exp^0,0,c
  2366  007BFE  EF03  F03E         	goto	u1181
  2367  007C02  EF05  F03E         	goto	u1180
  2368  007C06                     u1181:
  2369  007C06  EF06  F03E         	goto	l1727
  2370  007C0A                     u1180:
  2371  007C0A  9E0D               	bcf	(___xxtofl@arg+2)^0,7,c
  2372  007C0C                     l1727:
  2373  007C0C  90D8               	bcf	status,0,c
  2374  007C0E  320A               	rrcf	___xxtofl@exp^0,f,c
  2375  007C10  C00A  F005         	movff	___xxtofl@exp,??___xxtofl
  2376  007C14  6A06               	clrf	(??___xxtofl+1)^0,c
  2377  007C16  6A07               	clrf	(??___xxtofl+2)^0,c
  2378  007C18  6A08               	clrf	(??___xxtofl+3)^0,c
  2379  007C1A  C005  F008         	movff	??___xxtofl,??___xxtofl+3
  2380  007C1E  6A07               	clrf	(??___xxtofl+2)^0,c
  2381  007C20  6A06               	clrf	(??___xxtofl+1)^0,c
  2382  007C22  6A05               	clrf	??___xxtofl^0,c
  2383  007C24  5005               	movf	??___xxtofl^0,w,c
  2384  007C26  120B               	iorwf	___xxtofl@arg^0,f,c
  2385  007C28  5006               	movf	(??___xxtofl+1)^0,w,c
  2386  007C2A  120C               	iorwf	(___xxtofl@arg+1)^0,f,c
  2387  007C2C  5007               	movf	(??___xxtofl+2)^0,w,c
  2388  007C2E  120D               	iorwf	(___xxtofl@arg+2)^0,f,c
  2389  007C30  5008               	movf	(??___xxtofl+3)^0,w,c
  2390  007C32  120E               	iorwf	(___xxtofl@arg+3)^0,f,c
  2391  007C34  5009               	movf	___xxtofl@sign^0,w,c
  2392  007C36  B4D8               	btfsc	status,2,c
  2393  007C38  EF20  F03E         	goto	u1191
  2394  007C3C  EF22  F03E         	goto	u1190
  2395  007C40                     u1191:
  2396  007C40  EF2A  F03E         	goto	l1737
  2397  007C44                     u1190:
  2398  007C44  BE04               	btfsc	(___xxtofl@val+3)^0,7,c
  2399  007C46  EF29  F03E         	goto	u1200
  2400  007C4A  EF27  F03E         	goto	u1201
  2401  007C4E                     u1201:
  2402  007C4E  EF2A  F03E         	goto	l1737
  2403  007C52                     u1200:
  2404  007C52  8E0E               	bsf	(___xxtofl@arg+3)^0,7,c
  2405  007C54                     l1737:
  2406  007C54  C00B  F001         	movff	___xxtofl@arg,?___xxtofl
  2407  007C58  C00C  F002         	movff	___xxtofl@arg+1,?___xxtofl+1
  2408  007C5C  C00D  F003         	movff	___xxtofl@arg+2,?___xxtofl+2
  2409  007C60  C00E  F004         	movff	___xxtofl@arg+3,?___xxtofl+3
  2410  007C64                     l861:
  2411  007C64  0012               	return		;funcret
  2412  007C66                     __end_of___xxtofl:
  2413                           	opt callstack 0
  2414                           
  2415 ;; *************** function ___fltol *****************
  2416 ;; Defined at:
  2417 ;;		line 43 in file "C:\Program Files (x86)\Microchip\xc8\v2.10\pic\sources\c99\common\fltol.c"
  2418 ;; Parameters:    Size  Location     Type
  2419 ;;  f1              4   39[COMRAM] unsigned char 
  2420 ;; Auto vars:     Size  Location     Type
  2421 ;;  exp1            1   48[COMRAM] unsigned char 
  2422 ;;  sign1           1   47[COMRAM] unsigned char 
  2423 ;; Return value:  Size  Location     Type
  2424 ;;                  4   39[COMRAM] long 
  2425 ;; Registers used:
  2426 ;;		wreg, status,2, status,0
  2427 ;; Tracked objects:
  2428 ;;		On entry : 0/0
  2429 ;;		On exit  : 0/0
  2430 ;;		Unchanged: 0/0
  2431 ;; Data sizes:     COMRAM   BANK0   BANK1   BANK2   BANK3   BANK4   BANK5   BANK6   BANK7
  2432 ;;      Params:         4       0       0       0       0       0       0       0       0
  2433 ;;      Locals:         2       0       0       0       0       0       0       0       0
  2434 ;;      Temps:          4       0       0       0       0       0       0       0       0
  2435 ;;      Totals:        10       0       0       0       0       0       0       0       0
  2436 ;;Total ram usage:       10 bytes
  2437 ;; Hardware stack levels used:    1
  2438 ;; This function calls:
  2439 ;;		Nothing
  2440 ;; This function is called by:
  2441 ;;		_Motor_Conversion
  2442 ;; This function uses a non-reentrant model
  2443 ;;
  2444                           
  2445                           	psect	text18
  2446  00760C                     __ptext18:
  2447                           	opt callstack 0
  2448  00760C                     ___fltol:
  2449                           	opt callstack 28
  2450  00760C  342A               	rlcf	(___fltol@f1+2)^0,w,c
  2451  00760E  342B               	rlcf	(___fltol@f1+3)^0,w,c
  2452  007610  6E31               	movwf	___fltol@exp1^0,c
  2453  007612  5031               	movf	___fltol@exp1^0,w,c
  2454  007614  A4D8               	btfss	status,2,c
  2455  007616  EF0F  F03B         	goto	u1041
  2456  00761A  EF11  F03B         	goto	u1040
  2457  00761E                     u1041:
  2458  00761E  EF1B  F03B         	goto	l1657
  2459  007622                     u1040:
  2460  007622                     l1653:
  2461  007622  0E00               	movlw	0
  2462  007624  6E28               	movwf	?___fltol^0,c
  2463  007626  0E00               	movlw	0
  2464  007628  6E29               	movwf	(?___fltol+1)^0,c
  2465  00762A  0E00               	movlw	0
  2466  00762C  6E2A               	movwf	(?___fltol+2)^0,c
  2467  00762E  0E00               	movlw	0
  2468  007630  6E2B               	movwf	(?___fltol+3)^0,c
  2469  007632  EF88  F03B         	goto	l500
  2470  007636                     l1657:
  2471  007636  C028  F02C         	movff	___fltol@f1,??___fltol
  2472  00763A  C029  F02D         	movff	___fltol@f1+1,??___fltol+1
  2473  00763E  C02A  F02E         	movff	___fltol@f1+2,??___fltol+2
  2474  007642  C02B  F02F         	movff	___fltol@f1+3,??___fltol+3
  2475  007646  0E20               	movlw	32
  2476  007648  EF2B  F03B         	goto	u1050
  2477  00764C                     u1055:
  2478  00764C  90D8               	bcf	status,0,c
  2479  00764E  322F               	rrcf	(??___fltol+3)^0,f,c
  2480  007650  322E               	rrcf	(??___fltol+2)^0,f,c
  2481  007652  322D               	rrcf	(??___fltol+1)^0,f,c
  2482  007654  322C               	rrcf	??___fltol^0,f,c
  2483  007656                     u1050:
  2484  007656  2EE8               	decfsz	wreg,f,c
  2485  007658  EF26  F03B         	goto	u1055
  2486  00765C  502C               	movf	??___fltol^0,w,c
  2487  00765E  6E30               	movwf	___fltol@sign1^0,c
  2488  007660  8E2A               	bsf	(___fltol@f1+2)^0,7,c
  2489  007662  0EFF               	movlw	255
  2490  007664  1628               	andwf	___fltol@f1^0,f,c
  2491  007666  0EFF               	movlw	255
  2492  007668  1629               	andwf	(___fltol@f1+1)^0,f,c
  2493  00766A  0EFF               	movlw	255
  2494  00766C  162A               	andwf	(___fltol@f1+2)^0,f,c
  2495  00766E  0E00               	movlw	0
  2496  007670  162B               	andwf	(___fltol@f1+3)^0,f,c
  2497  007672  0E96               	movlw	150
  2498  007674  5E31               	subwf	___fltol@exp1^0,f,c
  2499  007676  BE31               	btfsc	___fltol@exp1^0,7,c
  2500  007678  EF42  F03B         	goto	u1060
  2501  00767C  EF40  F03B         	goto	u1061
  2502  007680                     u1061:
  2503  007680  EF58  F03B         	goto	l1677
  2504  007684                     u1060:
  2505  007684  5031               	movf	___fltol@exp1^0,w,c
  2506  007686  0A80               	xorlw	128
  2507  007688  0F97               	addlw	151
  2508  00768A  B0D8               	btfsc	status,0,c
  2509  00768C  EF4A  F03B         	goto	u1071
  2510  007690  EF4C  F03B         	goto	u1070
  2511  007694                     u1071:
  2512  007694  EF4E  F03B         	goto	l1673
  2513  007698                     u1070:
  2514  007698  EF11  F03B         	goto	l1653
  2515  00769C                     l1673:
  2516  00769C  90D8               	bcf	status,0,c
  2517  00769E  322B               	rrcf	(___fltol@f1+3)^0,f,c
  2518  0076A0  322A               	rrcf	(___fltol@f1+2)^0,f,c
  2519  0076A2  3229               	rrcf	(___fltol@f1+1)^0,f,c
  2520  0076A4  3228               	rrcf	___fltol@f1^0,f,c
  2521  0076A6  3E31               	incfsz	___fltol@exp1^0,f,c
  2522  0076A8  EF4E  F03B         	goto	l1673
  2523  0076AC  EF70  F03B         	goto	l1687
  2524  0076B0                     l1677:
  2525  0076B0  0E1F               	movlw	31
  2526  0076B2  6431               	cpfsgt	___fltol@exp1^0,c
  2527  0076B4  EF5E  F03B         	goto	u1081
  2528  0076B8  EF60  F03B         	goto	u1080
  2529  0076BC                     u1081:
  2530  0076BC  EF68  F03B         	goto	l1685
  2531  0076C0                     u1080:
  2532  0076C0  EF11  F03B         	goto	l1653
  2533  0076C4                     l1683:
  2534  0076C4  90D8               	bcf	status,0,c
  2535  0076C6  3628               	rlcf	___fltol@f1^0,f,c
  2536  0076C8  3629               	rlcf	(___fltol@f1+1)^0,f,c
  2537  0076CA  362A               	rlcf	(___fltol@f1+2)^0,f,c
  2538  0076CC  362B               	rlcf	(___fltol@f1+3)^0,f,c
  2539  0076CE  0631               	decf	___fltol@exp1^0,f,c
  2540  0076D0                     l1685:
  2541  0076D0  5031               	movf	___fltol@exp1^0,w,c
  2542  0076D2  A4D8               	btfss	status,2,c
  2543  0076D4  EF6E  F03B         	goto	u1091
  2544  0076D8  EF70  F03B         	goto	u1090
  2545  0076DC                     u1091:
  2546  0076DC  EF62  F03B         	goto	l1683
  2547  0076E0                     u1090:
  2548  0076E0                     l1687:
  2549  0076E0  5030               	movf	___fltol@sign1^0,w,c
  2550  0076E2  B4D8               	btfsc	status,2,c
  2551  0076E4  EF76  F03B         	goto	u1101
  2552  0076E8  EF78  F03B         	goto	u1100
  2553  0076EC                     u1101:
  2554  0076EC  EF80  F03B         	goto	l1691
  2555  0076F0                     u1100:
  2556  0076F0  1E2B               	comf	(___fltol@f1+3)^0,f,c
  2557  0076F2  1E2A               	comf	(___fltol@f1+2)^0,f,c
  2558  0076F4  1E29               	comf	(___fltol@f1+1)^0,f,c
  2559  0076F6  6C28               	negf	___fltol@f1^0,c
  2560  0076F8  0E00               	movlw	0
  2561  0076FA  2229               	addwfc	(___fltol@f1+1)^0,f,c
  2562  0076FC  222A               	addwfc	(___fltol@f1+2)^0,f,c
  2563  0076FE  222B               	addwfc	(___fltol@f1+3)^0,f,c
  2564  007700                     l1691:
  2565  007700  C028  F028         	movff	___fltol@f1,?___fltol
  2566  007704  C029  F029         	movff	___fltol@f1+1,?___fltol+1
  2567  007708  C02A  F02A         	movff	___fltol@f1+2,?___fltol+2
  2568  00770C  C02B  F02B         	movff	___fltol@f1+3,?___fltol+3
  2569  007710                     l500:
  2570  007710  0012               	return		;funcret
  2571  007712                     __end_of___fltol:
  2572                           	opt callstack 0
  2573                           
  2574 ;; *************** function ___fldiv *****************
  2575 ;; Defined at:
  2576 ;;		line 11 in file "C:\Program Files (x86)\Microchip\xc8\v2.10\pic\sources\c99\common\sprcdiv.c"
  2577 ;; Parameters:    Size  Location     Type
  2578 ;;  b               4   14[COMRAM] long 
  2579 ;;  a               4   18[COMRAM] long 
  2580 ;; Auto vars:     Size  Location     Type
  2581 ;;  grs             4   33[COMRAM] unsigned long 
  2582 ;;  rem             4   26[COMRAM] unsigned long 
  2583 ;;  new_exp         2   31[COMRAM] short 
  2584 ;;  aexp            1   38[COMRAM] unsigned char 
  2585 ;;  bexp            1   37[COMRAM] unsigned char 
  2586 ;;  sign            1   30[COMRAM] unsigned char 
  2587 ;; Return value:  Size  Location     Type
  2588 ;;                  4   14[COMRAM] unsigned char 
  2589 ;; Registers used:
  2590 ;;		wreg, status,2, status,0
  2591 ;; Tracked objects:
  2592 ;;		On entry : 0/0
  2593 ;;		On exit  : 0/0
  2594 ;;		Unchanged: 0/0
  2595 ;; Data sizes:     COMRAM   BANK0   BANK1   BANK2   BANK3   BANK4   BANK5   BANK6   BANK7
  2596 ;;      Params:         8       0       0       0       0       0       0       0       0
  2597 ;;      Locals:        13       0       0       0       0       0       0       0       0
  2598 ;;      Temps:          4       0       0       0       0       0       0       0       0
  2599 ;;      Totals:        25       0       0       0       0       0       0       0       0
  2600 ;;Total ram usage:       25 bytes
  2601 ;; Hardware stack levels used:    1
  2602 ;; This function calls:
  2603 ;;		Nothing
  2604 ;; This function is called by:
  2605 ;;		_Motor_Conversion
  2606 ;; This function uses a non-reentrant model
  2607 ;;
  2608                           
  2609                           	psect	text19
  2610  007C66                     __ptext19:
  2611                           	opt callstack 0
  2612  007C66                     ___fldiv:
  2613                           	opt callstack 28
  2614  007C66  5012               	movf	(___fldiv@b+3)^0,w,c
  2615  007C68  0B80               	andlw	128
  2616  007C6A  6E1F               	movwf	___fldiv@sign^0,c
  2617  007C6C  5012               	movf	(___fldiv@b+3)^0,w,c
  2618  007C6E  2412               	addwf	(___fldiv@b+3)^0,w,c
  2619  007C70  6E26               	movwf	___fldiv@bexp^0,c
  2620  007C72  AE11               	btfss	(___fldiv@b+2)^0,7,c
  2621  007C74  EF3E  F03E         	goto	u811
  2622  007C78  EF40  F03E         	goto	u810
  2623  007C7C                     u811:
  2624  007C7C  EF41  F03E         	goto	l1519
  2625  007C80                     u810:
  2626  007C80  8026               	bsf	___fldiv@bexp^0,0,c
  2627  007C82                     l1519:
  2628  007C82  5026               	movf	___fldiv@bexp^0,w,c
  2629  007C84  B4D8               	btfsc	status,2,c
  2630  007C86  EF47  F03E         	goto	u821
  2631  007C8A  EF49  F03E         	goto	u820
  2632  007C8E                     u821:
  2633  007C8E  EF5E  F03E         	goto	l1529
  2634  007C92                     u820:
  2635  007C92  2826               	incf	___fldiv@bexp^0,w,c
  2636  007C94  A4D8               	btfss	status,2,c
  2637  007C96  EF4F  F03E         	goto	u831
  2638  007C9A  EF51  F03E         	goto	u830
  2639  007C9E                     u831:
  2640  007C9E  EF59  F03E         	goto	l1525
  2641  007CA2                     u830:
  2642  007CA2  0E00               	movlw	0
  2643  007CA4  6E0F               	movwf	___fldiv@b^0,c
  2644  007CA6  0E00               	movlw	0
  2645  007CA8  6E10               	movwf	(___fldiv@b+1)^0,c
  2646  007CAA  0E00               	movlw	0
  2647  007CAC  6E11               	movwf	(___fldiv@b+2)^0,c
  2648  007CAE  0E00               	movlw	0
  2649  007CB0  6E12               	movwf	(___fldiv@b+3)^0,c
  2650  007CB2                     l1525:
  2651  007CB2  8E11               	bsf	(___fldiv@b+2)^0,7,c
  2652  007CB4  0E00               	movlw	0
  2653  007CB6  6E12               	movwf	(___fldiv@b+3)^0,c
  2654  007CB8  EF66  F03E         	goto	l1531
  2655  007CBC                     l1529:
  2656  007CBC  0E00               	movlw	0
  2657  007CBE  6E0F               	movwf	___fldiv@b^0,c
  2658  007CC0  0E00               	movlw	0
  2659  007CC2  6E10               	movwf	(___fldiv@b+1)^0,c
  2660  007CC4  0E00               	movlw	0
  2661  007CC6  6E11               	movwf	(___fldiv@b+2)^0,c
  2662  007CC8  0E00               	movlw	0
  2663  007CCA  6E12               	movwf	(___fldiv@b+3)^0,c
  2664  007CCC                     l1531:
  2665  007CCC  5016               	movf	(___fldiv@a+3)^0,w,c
  2666  007CCE  0B80               	andlw	128
  2667  007CD0  1A1F               	xorwf	___fldiv@sign^0,f,c
  2668  007CD2  5016               	movf	(___fldiv@a+3)^0,w,c
  2669  007CD4  2416               	addwf	(___fldiv@a+3)^0,w,c
  2670  007CD6  6E27               	movwf	___fldiv@aexp^0,c
  2671  007CD8  AE15               	btfss	(___fldiv@a+2)^0,7,c
  2672  007CDA  EF71  F03E         	goto	u841
  2673  007CDE  EF73  F03E         	goto	u840
  2674  007CE2                     u841:
  2675  007CE2  EF74  F03E         	goto	l1539
  2676  007CE6                     u840:
  2677  007CE6  8027               	bsf	___fldiv@aexp^0,0,c
  2678  007CE8                     l1539:
  2679  007CE8  5027               	movf	___fldiv@aexp^0,w,c
  2680  007CEA  B4D8               	btfsc	status,2,c
  2681  007CEC  EF7A  F03E         	goto	u851
  2682  007CF0  EF7C  F03E         	goto	u850
  2683  007CF4                     u851:
  2684  007CF4  EF91  F03E         	goto	l1549
  2685  007CF8                     u850:
  2686  007CF8  2827               	incf	___fldiv@aexp^0,w,c
  2687  007CFA  A4D8               	btfss	status,2,c
  2688  007CFC  EF82  F03E         	goto	u861
  2689  007D00  EF84  F03E         	goto	u860
  2690  007D04                     u861:
  2691  007D04  EF8C  F03E         	goto	l1545
  2692  007D08                     u860:
  2693  007D08  0E00               	movlw	0
  2694  007D0A  6E13               	movwf	___fldiv@a^0,c
  2695  007D0C  0E00               	movlw	0
  2696  007D0E  6E14               	movwf	(___fldiv@a+1)^0,c
  2697  007D10  0E00               	movlw	0
  2698  007D12  6E15               	movwf	(___fldiv@a+2)^0,c
  2699  007D14  0E00               	movlw	0
  2700  007D16  6E16               	movwf	(___fldiv@a+3)^0,c
  2701  007D18                     l1545:
  2702  007D18  8E15               	bsf	(___fldiv@a+2)^0,7,c
  2703  007D1A  0E00               	movlw	0
  2704  007D1C  6E16               	movwf	(___fldiv@a+3)^0,c
  2705  007D1E  EF99  F03E         	goto	l1551
  2706  007D22                     l1549:
  2707  007D22  0E00               	movlw	0
  2708  007D24  6E13               	movwf	___fldiv@a^0,c
  2709  007D26  0E00               	movlw	0
  2710  007D28  6E14               	movwf	(___fldiv@a+1)^0,c
  2711  007D2A  0E00               	movlw	0
  2712  007D2C  6E15               	movwf	(___fldiv@a+2)^0,c
  2713  007D2E  0E00               	movlw	0
  2714  007D30  6E16               	movwf	(___fldiv@a+3)^0,c
  2715  007D32                     l1551:
  2716  007D32  5013               	movf	___fldiv@a^0,w,c
  2717  007D34  1014               	iorwf	(___fldiv@a+1)^0,w,c
  2718  007D36  1015               	iorwf	(___fldiv@a+2)^0,w,c
  2719  007D38  1016               	iorwf	(___fldiv@a+3)^0,w,c
  2720  007D3A  A4D8               	btfss	status,2,c
  2721  007D3C  EFA2  F03E         	goto	u871
  2722  007D40  EFA4  F03E         	goto	u870
  2723  007D44                     u871:
  2724  007D44  EFBC  F03E         	goto	l1563
  2725  007D48                     u870:
  2726  007D48  0E00               	movlw	0
  2727  007D4A  6E0F               	movwf	___fldiv@b^0,c
  2728  007D4C  0E00               	movlw	0
  2729  007D4E  6E10               	movwf	(___fldiv@b+1)^0,c
  2730  007D50  0E00               	movlw	0
  2731  007D52  6E11               	movwf	(___fldiv@b+2)^0,c
  2732  007D54  0E00               	movlw	0
  2733  007D56  6E12               	movwf	(___fldiv@b+3)^0,c
  2734  007D58  0E80               	movlw	128
  2735  007D5A  1211               	iorwf	(___fldiv@b+2)^0,f,c
  2736  007D5C  0E7F               	movlw	127
  2737  007D5E  1212               	iorwf	(___fldiv@b+3)^0,f,c
  2738  007D60                     l1557:
  2739  007D60  501F               	movf	___fldiv@sign^0,w,c
  2740  007D62  1212               	iorwf	(___fldiv@b+3)^0,f,c
  2741  007D64  C00F  F00F         	movff	___fldiv@b,?___fldiv
  2742  007D68  C010  F010         	movff	___fldiv@b+1,?___fldiv+1
  2743  007D6C  C011  F011         	movff	___fldiv@b+2,?___fldiv+2
  2744  007D70  C012  F012         	movff	___fldiv@b+3,?___fldiv+3
  2745  007D74  EFFF  F03F         	goto	l785
  2746  007D78                     l1563:
  2747  007D78  5026               	movf	___fldiv@bexp^0,w,c
  2748  007D7A  A4D8               	btfss	status,2,c
  2749  007D7C  EFC2  F03E         	goto	u881
  2750  007D80  EFC4  F03E         	goto	u880
  2751  007D84                     u881:
  2752  007D84  EFCE  F03E         	goto	l1571
  2753  007D88                     u880:
  2754  007D88  0E00               	movlw	0
  2755  007D8A  6E0F               	movwf	?___fldiv^0,c
  2756  007D8C  0E00               	movlw	0
  2757  007D8E  6E10               	movwf	(?___fldiv+1)^0,c
  2758  007D90  0E00               	movlw	0
  2759  007D92  6E11               	movwf	(?___fldiv+2)^0,c
  2760  007D94  0E00               	movlw	0
  2761  007D96  6E12               	movwf	(?___fldiv+3)^0,c
  2762  007D98  EFFF  F03F         	goto	l785
  2763  007D9C                     l1571:
  2764  007D9C  5027               	movf	___fldiv@aexp^0,w,c
  2765  007D9E  C026  F017         	movff	___fldiv@bexp,??___fldiv
  2766  007DA2  6A18               	clrf	(??___fldiv+1)^0,c
  2767  007DA4  5E17               	subwf	??___fldiv^0,f,c
  2768  007DA6  0E00               	movlw	0
  2769  007DA8  5A18               	subwfb	(??___fldiv+1)^0,f,c
  2770  007DAA  0E7F               	movlw	127
  2771  007DAC  2417               	addwf	??___fldiv^0,w,c
  2772  007DAE  6E20               	movwf	___fldiv@new_exp^0,c
  2773  007DB0  0E00               	movlw	0
  2774  007DB2  2018               	addwfc	(??___fldiv+1)^0,w,c
  2775  007DB4  6E21               	movwf	(___fldiv@new_exp+1)^0,c
  2776  007DB6  C00F  F01B         	movff	___fldiv@b,___fldiv@rem
  2777  007DBA  C010  F01C         	movff	___fldiv@b+1,___fldiv@rem+1
  2778  007DBE  C011  F01D         	movff	___fldiv@b+2,___fldiv@rem+2
  2779  007DC2  C012  F01E         	movff	___fldiv@b+3,___fldiv@rem+3
  2780  007DC6  0E00               	movlw	0
  2781  007DC8  6E0F               	movwf	___fldiv@b^0,c
  2782  007DCA  0E00               	movlw	0
  2783  007DCC  6E10               	movwf	(___fldiv@b+1)^0,c
  2784  007DCE  0E00               	movlw	0
  2785  007DD0  6E11               	movwf	(___fldiv@b+2)^0,c
  2786  007DD2  0E00               	movlw	0
  2787  007DD4  6E12               	movwf	(___fldiv@b+3)^0,c
  2788  007DD6  0E00               	movlw	0
  2789  007DD8  6E22               	movwf	___fldiv@grs^0,c
  2790  007DDA  0E00               	movlw	0
  2791  007DDC  6E23               	movwf	(___fldiv@grs+1)^0,c
  2792  007DDE  0E00               	movlw	0
  2793  007DE0  6E24               	movwf	(___fldiv@grs+2)^0,c
  2794  007DE2  0E00               	movlw	0
  2795  007DE4  6E25               	movwf	(___fldiv@grs+3)^0,c
  2796  007DE6  0E00               	movlw	0
  2797  007DE8  6E27               	movwf	___fldiv@aexp^0,c
  2798  007DEA  EF2F  F03F         	goto	l787
  2799  007DEE                     l1581:
  2800  007DEE  5027               	movf	___fldiv@aexp^0,w,c
  2801  007DF0  B4D8               	btfsc	status,2,c
  2802  007DF2  EFFD  F03E         	goto	u891
  2803  007DF6  EFFF  F03E         	goto	u890
  2804  007DFA                     u891:
  2805  007DFA  EF16  F03F         	goto	l1589
  2806  007DFE                     u890:
  2807  007DFE  90D8               	bcf	status,0,c
  2808  007E00  361B               	rlcf	___fldiv@rem^0,f,c
  2809  007E02  361C               	rlcf	(___fldiv@rem+1)^0,f,c
  2810  007E04  361D               	rlcf	(___fldiv@rem+2)^0,f,c
  2811  007E06  361E               	rlcf	(___fldiv@rem+3)^0,f,c
  2812  007E08  90D8               	bcf	status,0,c
  2813  007E0A  360F               	rlcf	___fldiv@b^0,f,c
  2814  007E0C  3610               	rlcf	(___fldiv@b+1)^0,f,c
  2815  007E0E  3611               	rlcf	(___fldiv@b+2)^0,f,c
  2816  007E10  3612               	rlcf	(___fldiv@b+3)^0,f,c
  2817  007E12  AE25               	btfss	(___fldiv@grs+3)^0,7,c
  2818  007E14  EF0E  F03F         	goto	u901
  2819  007E18  EF10  F03F         	goto	u900
  2820  007E1C                     u901:
  2821  007E1C  EF11  F03F         	goto	l790
  2822  007E20                     u900:
  2823  007E20  800F               	bsf	___fldiv@b^0,0,c
  2824  007E22                     l790:
  2825  007E22  90D8               	bcf	status,0,c
  2826  007E24  3622               	rlcf	___fldiv@grs^0,f,c
  2827  007E26  3623               	rlcf	(___fldiv@grs+1)^0,f,c
  2828  007E28  3624               	rlcf	(___fldiv@grs+2)^0,f,c
  2829  007E2A  3625               	rlcf	(___fldiv@grs+3)^0,f,c
  2830  007E2C                     l1589:
  2831  007E2C  5013               	movf	___fldiv@a^0,w,c
  2832  007E2E  5C1B               	subwf	___fldiv@rem^0,w,c
  2833  007E30  5014               	movf	(___fldiv@a+1)^0,w,c
  2834  007E32  581C               	subwfb	(___fldiv@rem+1)^0,w,c
  2835  007E34  5015               	movf	(___fldiv@a+2)^0,w,c
  2836  007E36  581D               	subwfb	(___fldiv@rem+2)^0,w,c
  2837  007E38  5016               	movf	(___fldiv@a+3)^0,w,c
  2838  007E3A  581E               	subwfb	(___fldiv@rem+3)^0,w,c
  2839  007E3C  A0D8               	btfss	status,0,c
  2840  007E3E  EF23  F03F         	goto	u911
  2841  007E42  EF25  F03F         	goto	u910
  2842  007E46                     u911:
  2843  007E46  EF2E  F03F         	goto	l1595
  2844  007E4A                     u910:
  2845  007E4A  8C25               	bsf	(___fldiv@grs+3)^0,6,c
  2846  007E4C  5013               	movf	___fldiv@a^0,w,c
  2847  007E4E  5E1B               	subwf	___fldiv@rem^0,f,c
  2848  007E50  5014               	movf	(___fldiv@a+1)^0,w,c
  2849  007E52  5A1C               	subwfb	(___fldiv@rem+1)^0,f,c
  2850  007E54  5015               	movf	(___fldiv@a+2)^0,w,c
  2851  007E56  5A1D               	subwfb	(___fldiv@rem+2)^0,f,c
  2852  007E58  5016               	movf	(___fldiv@a+3)^0,w,c
  2853  007E5A  5A1E               	subwfb	(___fldiv@rem+3)^0,f,c
  2854  007E5C                     l1595:
  2855  007E5C  2A27               	incf	___fldiv@aexp^0,f,c
  2856  007E5E                     l787:
  2857  007E5E  0E19               	movlw	25
  2858  007E60  6427               	cpfsgt	___fldiv@aexp^0,c
  2859  007E62  EF35  F03F         	goto	u921
  2860  007E66  EF37  F03F         	goto	u920
  2861  007E6A                     u921:
  2862  007E6A  EFF7  F03E         	goto	l1581
  2863  007E6E                     u920:
  2864  007E6E  501B               	movf	___fldiv@rem^0,w,c
  2865  007E70  101C               	iorwf	(___fldiv@rem+1)^0,w,c
  2866  007E72  101D               	iorwf	(___fldiv@rem+2)^0,w,c
  2867  007E74  101E               	iorwf	(___fldiv@rem+3)^0,w,c
  2868  007E76  B4D8               	btfsc	status,2,c
  2869  007E78  EF40  F03F         	goto	u931
  2870  007E7C  EF42  F03F         	goto	u930
  2871  007E80                     u931:
  2872  007E80  EF5A  F03F         	goto	l1607
  2873  007E84                     u930:
  2874  007E84  8022               	bsf	___fldiv@grs^0,0,c
  2875  007E86  EF5A  F03F         	goto	l1607
  2876  007E8A                     l1601:
  2877  007E8A  90D8               	bcf	status,0,c
  2878  007E8C  360F               	rlcf	___fldiv@b^0,f,c
  2879  007E8E  3610               	rlcf	(___fldiv@b+1)^0,f,c
  2880  007E90  3611               	rlcf	(___fldiv@b+2)^0,f,c
  2881  007E92  3612               	rlcf	(___fldiv@b+3)^0,f,c
  2882  007E94  AE25               	btfss	(___fldiv@grs+3)^0,7,c
  2883  007E96  EF4F  F03F         	goto	u941
  2884  007E9A  EF51  F03F         	goto	u940
  2885  007E9E                     u941:
  2886  007E9E  EF52  F03F         	goto	l796
  2887  007EA2                     u940:
  2888  007EA2  800F               	bsf	___fldiv@b^0,0,c
  2889  007EA4                     l796:
  2890  007EA4  90D8               	bcf	status,0,c
  2891  007EA6  3622               	rlcf	___fldiv@grs^0,f,c
  2892  007EA8  3623               	rlcf	(___fldiv@grs+1)^0,f,c
  2893  007EAA  3624               	rlcf	(___fldiv@grs+2)^0,f,c
  2894  007EAC  3625               	rlcf	(___fldiv@grs+3)^0,f,c
  2895  007EAE  0620               	decf	___fldiv@new_exp^0,f,c
  2896  007EB0  A0D8               	btfss	status,0,c
  2897  007EB2  0621               	decf	(___fldiv@new_exp+1)^0,f,c
  2898  007EB4                     l1607:
  2899  007EB4  AE11               	btfss	(___fldiv@b+2)^0,7,c
  2900  007EB6  EF5F  F03F         	goto	u951
  2901  007EBA  EF61  F03F         	goto	u950
  2902  007EBE                     u951:
  2903  007EBE  EF45  F03F         	goto	l1601
  2904  007EC2                     u950:
  2905  007EC2  0E00               	movlw	0
  2906  007EC4  6E27               	movwf	___fldiv@aexp^0,c
  2907  007EC6  AE25               	btfss	(___fldiv@grs+3)^0,7,c
  2908  007EC8  EF68  F03F         	goto	u961
  2909  007ECC  EF6A  F03F         	goto	u960
  2910  007ED0                     u961:
  2911  007ED0  EF8E  F03F         	goto	l798
  2912  007ED4                     u960:
  2913  007ED4  0EFF               	movlw	255
  2914  007ED6  1422               	andwf	___fldiv@grs^0,w,c
  2915  007ED8  6E17               	movwf	??___fldiv^0,c
  2916  007EDA  0EFF               	movlw	255
  2917  007EDC  1423               	andwf	(___fldiv@grs+1)^0,w,c
  2918  007EDE  6E18               	movwf	(??___fldiv+1)^0,c
  2919  007EE0  0EFF               	movlw	255
  2920  007EE2  1424               	andwf	(___fldiv@grs+2)^0,w,c
  2921  007EE4  6E19               	movwf	(??___fldiv+2)^0,c
  2922  007EE6  0E7F               	movlw	127
  2923  007EE8  1425               	andwf	(___fldiv@grs+3)^0,w,c
  2924  007EEA  6E1A               	movwf	(??___fldiv+3)^0,c
  2925  007EEC  5017               	movf	??___fldiv^0,w,c
  2926  007EEE  1018               	iorwf	(??___fldiv+1)^0,w,c
  2927  007EF0  1019               	iorwf	(??___fldiv+2)^0,w,c
  2928  007EF2  101A               	iorwf	(??___fldiv+3)^0,w,c
  2929  007EF4  B4D8               	btfsc	status,2,c
  2930  007EF6  EF7F  F03F         	goto	u971
  2931  007EFA  EF81  F03F         	goto	u970
  2932  007EFE                     u971:
  2933  007EFE  EF85  F03F         	goto	l799
  2934  007F02                     u970:
  2935  007F02                     l1615:
  2936  007F02  0E01               	movlw	1
  2937  007F04  6E27               	movwf	___fldiv@aexp^0,c
  2938  007F06  EF8E  F03F         	goto	l798
  2939  007F0A                     l799:
  2940  007F0A  A00F               	btfss	___fldiv@b^0,0,c
  2941  007F0C  EF8A  F03F         	goto	u981
  2942  007F10  EF8C  F03F         	goto	u980
  2943  007F14                     u981:
  2944  007F14  EF8E  F03F         	goto	l798
  2945  007F18                     u980:
  2946  007F18  EF81  F03F         	goto	l1615
  2947  007F1C                     l798:
  2948  007F1C  5027               	movf	___fldiv@aexp^0,w,c
  2949  007F1E  B4D8               	btfsc	status,2,c
  2950  007F20  EF94  F03F         	goto	u991
  2951  007F24  EF96  F03F         	goto	u990
  2952  007F28                     u991:
  2953  007F28  EFBA  F03F         	goto	l1627
  2954  007F2C                     u990:
  2955  007F2C  0E01               	movlw	1
  2956  007F2E  260F               	addwf	___fldiv@b^0,f,c
  2957  007F30  0E00               	movlw	0
  2958  007F32  2210               	addwfc	(___fldiv@b+1)^0,f,c
  2959  007F34  2211               	addwfc	(___fldiv@b+2)^0,f,c
  2960  007F36  2212               	addwfc	(___fldiv@b+3)^0,f,c
  2961  007F38  A012               	btfss	(___fldiv@b+3)^0,0,c
  2962  007F3A  EFA1  F03F         	goto	u1001
  2963  007F3E  EFA3  F03F         	goto	u1000
  2964  007F42                     u1001:
  2965  007F42  EFBA  F03F         	goto	l1627
  2966  007F46                     u1000:
  2967  007F46  C00F  F017         	movff	___fldiv@b,??___fldiv
  2968  007F4A  C010  F018         	movff	___fldiv@b+1,??___fldiv+1
  2969  007F4E  C011  F019         	movff	___fldiv@b+2,??___fldiv+2
  2970  007F52  C012  F01A         	movff	___fldiv@b+3,??___fldiv+3
  2971  007F56  341A               	rlcf	(??___fldiv+3)^0,w,c
  2972  007F58  321A               	rrcf	(??___fldiv+3)^0,f,c
  2973  007F5A  3219               	rrcf	(??___fldiv+2)^0,f,c
  2974  007F5C  3218               	rrcf	(??___fldiv+1)^0,f,c
  2975  007F5E  3217               	rrcf	??___fldiv^0,f,c
  2976  007F60  C017  F00F         	movff	??___fldiv,___fldiv@b
  2977  007F64  C018  F010         	movff	??___fldiv+1,___fldiv@b+1
  2978  007F68  C019  F011         	movff	??___fldiv+2,___fldiv@b+2
  2979  007F6C  C01A  F012         	movff	??___fldiv+3,___fldiv@b+3
  2980  007F70  4A20               	infsnz	___fldiv@new_exp^0,f,c
  2981  007F72  2A21               	incf	(___fldiv@new_exp+1)^0,f,c
  2982  007F74                     l1627:
  2983  007F74  BE21               	btfsc	(___fldiv@new_exp+1)^0,7,c
  2984  007F76  EFC5  F03F         	goto	u1011
  2985  007F7A  5021               	movf	(___fldiv@new_exp+1)^0,w,c
  2986  007F7C  E108               	bnz	u1010
  2987  007F7E  2820               	incf	___fldiv@new_exp^0,w,c
  2988  007F80  A0D8               	btfss	status,0,c
  2989  007F82  EFC5  F03F         	goto	u1011
  2990  007F86  EFC7  F03F         	goto	u1010
  2991  007F8A                     u1011:
  2992  007F8A  EFD2  F03F         	goto	l1631
  2993  007F8E                     u1010:
  2994  007F8E  0E00               	movlw	0
  2995  007F90  6E21               	movwf	(___fldiv@new_exp+1)^0,c
  2996  007F92  6820               	setf	___fldiv@new_exp^0,c
  2997  007F94  0E00               	movlw	0
  2998  007F96  6E0F               	movwf	___fldiv@b^0,c
  2999  007F98  0E00               	movlw	0
  3000  007F9A  6E10               	movwf	(___fldiv@b+1)^0,c
  3001  007F9C  0E00               	movlw	0
  3002  007F9E  6E11               	movwf	(___fldiv@b+2)^0,c
  3003  007FA0  0E00               	movlw	0
  3004  007FA2  6E12               	movwf	(___fldiv@b+3)^0,c
  3005  007FA4                     l1631:
  3006  007FA4  BE21               	btfsc	(___fldiv@new_exp+1)^0,7,c
  3007  007FA6  EFDF  F03F         	goto	u1020
  3008  007FAA  5021               	movf	(___fldiv@new_exp+1)^0,w,c
  3009  007FAC  E106               	bnz	u1021
  3010  007FAE  0420               	decf	___fldiv@new_exp^0,w,c
  3011  007FB0  B0D8               	btfsc	status,0,c
  3012  007FB2  EFDD  F03F         	goto	u1021
  3013  007FB6  EFDF  F03F         	goto	u1020
  3014  007FBA                     u1021:
  3015  007FBA  EFED  F03F         	goto	l1635
  3016  007FBE                     u1020:
  3017  007FBE  0E00               	movlw	0
  3018  007FC0  6E21               	movwf	(___fldiv@new_exp+1)^0,c
  3019  007FC2  0E00               	movlw	0
  3020  007FC4  6E20               	movwf	___fldiv@new_exp^0,c
  3021  007FC6  0E00               	movlw	0
  3022  007FC8  6E0F               	movwf	___fldiv@b^0,c
  3023  007FCA  0E00               	movlw	0
  3024  007FCC  6E10               	movwf	(___fldiv@b+1)^0,c
  3025  007FCE  0E00               	movlw	0
  3026  007FD0  6E11               	movwf	(___fldiv@b+2)^0,c
  3027  007FD2  0E00               	movlw	0
  3028  007FD4  6E12               	movwf	(___fldiv@b+3)^0,c
  3029  007FD6  0E00               	movlw	0
  3030  007FD8  6E1F               	movwf	___fldiv@sign^0,c
  3031  007FDA                     l1635:
  3032  007FDA  C020  F026         	movff	___fldiv@new_exp,___fldiv@bexp
  3033  007FDE  A026               	btfss	___fldiv@bexp^0,0,c
  3034  007FE0  EFF4  F03F         	goto	u1031
  3035  007FE4  EFF6  F03F         	goto	u1030
  3036  007FE8                     u1031:
  3037  007FE8  EFF9  F03F         	goto	l1641
  3038  007FEC                     u1030:
  3039  007FEC  8E11               	bsf	(___fldiv@b+2)^0,7,c
  3040  007FEE  EFFA  F03F         	goto	l1643
  3041  007FF2                     l1641:
  3042  007FF2  9E11               	bcf	(___fldiv@b+2)^0,7,c
  3043  007FF4                     l1643:
  3044  007FF4  90D8               	bcf	status,0,c
  3045  007FF6  3026               	rrcf	___fldiv@bexp^0,w,c
  3046  007FF8  6E12               	movwf	(___fldiv@b+3)^0,c
  3047  007FFA  EFB0  F03E         	goto	l1557
  3048  007FFE                     l785:
  3049  007FFE  0012               	return		;funcret
  3050  008000                     __end_of___fldiv:
  3051                           	opt callstack 0
  3052  0000                     
  3053                           	psect	rparam
  3054  0000                     tosu	equ	0xFFF
  3055                           tosh	equ	0xFFE
  3056                           tosl	equ	0xFFD
  3057                           stkptr	equ	0xFFC
  3058                           pclatu	equ	0xFFB
  3059                           pclath	equ	0xFFA
  3060                           pcl	equ	0xFF9
  3061                           tblptru	equ	0xFF8
  3062                           tblptrh	equ	0xFF7
  3063                           tblptrl	equ	0xFF6
  3064                           tablat	equ	0xFF5
  3065                           prodh	equ	0xFF4
  3066                           prodl	equ	0xFF3
  3067                           indf0	equ	0xFEF
  3068                           postinc0	equ	0xFEE
  3069                           postdec0	equ	0xFED
  3070                           preinc0	equ	0xFEC
  3071                           plusw0	equ	0xFEB
  3072                           fsr0h	equ	0xFEA
  3073                           fsr0l	equ	0xFE9
  3074                           wreg	equ	0xFE8
  3075                           indf1	equ	0xFE7
  3076                           postinc1	equ	0xFE6
  3077                           postdec1	equ	0xFE5
  3078                           preinc1	equ	0xFE4
  3079                           plusw1	equ	0xFE3
  3080                           fsr1h	equ	0xFE2
  3081                           fsr1l	equ	0xFE1
  3082                           bsr	equ	0xFE0
  3083                           indf2	equ	0xFDF
  3084                           postinc2	equ	0xFDE
  3085                           postdec2	equ	0xFDD
  3086                           preinc2	equ	0xFDC
  3087                           plusw2	equ	0xFDB
  3088                           fsr2h	equ	0xFDA
  3089                           fsr2l	equ	0xFD9
  3090                           status	equ	0xFD8


Data Sizes:
    Strings     0
    Constant    0
    Data        0
    BSS         23
    Persistent  0
    Stack       0

Auto Spaces:
    Space          Size  Autos    Used
    COMRAM           95     62      85
    BANK0           160      0       0
    BANK1           256      0       0
    BANK2           256      0       0
    BANK3           256      0       0
    BANK4           256      0       0
    BANK5           256      0       0
    BANK6           256      0       0
    BANK7           256      0       0

Pointer List with Targets:

    atoi@s	PTR const unsigned char  size(2) Largest target is 3
		 -> Serial_DecodificacionY@coordenadaY(COMRAM[3]), Serial_DecodificacionX@coordenadaX(COMRAM[3]), 

    Serial_DecodificacionY@pointerCY	PTR int  size(2) Largest target is 2
		 -> CY(COMRAM[2]), 

    Serial_DecodificacionY@string_coordenada	PTR unsigned char  size(2) Largest target is 7
		 -> coordenada_array(COMRAM[7]), 

    Serial_DecodificacionX@pointerCX	PTR int  size(2) Largest target is 2
		 -> CX(COMRAM[2]), 

    Serial_DecodificacionX@string_coordenada	PTR unsigned char  size(2) Largest target is 7
		 -> coordenada_array(COMRAM[7]), 

    USART_RxS@pointer	PTR unsigned char  size(2) Largest target is 7
		 -> coordenada_array(COMRAM[7]), 


Critical Paths under _main in COMRAM

    _main->_Motor_Movimiento
    _USART_Init->___aldiv
    _Serial_DecodificacionY->_atoi
    _Serial_DecodificacionX->_atoi
    _atoi->_isspace
    _Motor_Movimiento->_Motor_Conversion
    _PWM_GeneratePulsos->_PWM_OneshotX
    _PWM_GeneratePulsos->_PWM_OneshotY
    _Motor_Conversion->___fltol
    ___fltol->___fldiv
    ___fldiv->___xxtofl

Critical Paths under _main in BANK0

    None.

Critical Paths under _main in BANK1

    None.

Critical Paths under _main in BANK2

    None.

Critical Paths under _main in BANK3

    None.

Critical Paths under _main in BANK4

    None.

Critical Paths under _main in BANK5

    None.

Critical Paths under _main in BANK6

    None.

Critical Paths under _main in BANK7

    None.

Call Graph Tables:

 ---------------------------------------------------------------------------------
 (Depth) Function   	        Calls       Base Space   Used Autos Params    Refs
 ---------------------------------------------------------------------------------
 (0) _main                                                 3     3      0    7347
                                             59 COMRAM     3     3      0
                   _Motor_Movimiento
             _Serial_DecodificacionX
             _Serial_DecodificacionY
                         _USART_Init
                           _USART_Rx
                          _USART_RxS
 ---------------------------------------------------------------------------------
 (1) _USART_RxS                                            8     6      2     242
                                              0 COMRAM     8     6      2
 ---------------------------------------------------------------------------------
 (1) _USART_Rx                                             0     0      0       0
 ---------------------------------------------------------------------------------
 (1) _USART_Init                                           8     4      4     725
                                             14 COMRAM     8     4      4
                            ___aldiv
 ---------------------------------------------------------------------------------
 (2) ___aldiv                                             14     6      8     604
                                              0 COMRAM    14     6      8
 ---------------------------------------------------------------------------------
 (1) _Serial_DecodificacionY                              11     7      4    1643
                                             22 COMRAM    11     7      4
                               _atoi
 ---------------------------------------------------------------------------------
 (1) _Serial_DecodificacionX                               9     5      4    1643
                                             22 COMRAM     9     5      4
                               _atoi
 ---------------------------------------------------------------------------------
 (2) _atoi                                                15    13      2    1152
                                              7 COMRAM    15    13      2
                             ___wmul
                            _isdigit
                            _isspace
 ---------------------------------------------------------------------------------
 (3) _isspace                                              7     5      2     207
                                              0 COMRAM     7     5      2
 ---------------------------------------------------------------------------------
 (3) _isdigit                                              6     4      2     161
                                              0 COMRAM     6     4      2
 ---------------------------------------------------------------------------------
 (3) ___wmul                                               6     2      4     311
                                              0 COMRAM     6     2      4
 ---------------------------------------------------------------------------------
 (1) _Motor_Movimiento                                     4     0      4    3071
                                             55 COMRAM     4     0      4
                   _Motor_Conversion
                 _PWM_GeneratePulsos
 ---------------------------------------------------------------------------------
 (2) _PWM_GeneratePulsos                                   9     5      4     576
                                              2 COMRAM     9     5      4
                          _PWM_InitF
                       _PWM_OneshotX
                       _PWM_OneshotY
 ---------------------------------------------------------------------------------
 (3) _PWM_OneshotY                                         2     0      2      99
                                              0 COMRAM     2     0      2
 ---------------------------------------------------------------------------------
 (3) _PWM_OneshotX                                         2     0      2      99
                                              0 COMRAM     2     0      2
 ---------------------------------------------------------------------------------
 (3) _PWM_InitF                                            0     0      0       0
 ---------------------------------------------------------------------------------
 (2) _Motor_Conversion                                     6     4      2    2299
                                             49 COMRAM     6     4      2
                            ___fldiv
                            ___fltol
                           ___xxtofl
 ---------------------------------------------------------------------------------
 (3) ___xxtofl                                            14    10      4     398
                                              0 COMRAM    14    10      4
 ---------------------------------------------------------------------------------
 (3) ___fltol                                             10     6      4     305
                                             39 COMRAM    10     6      4
                            ___fldiv (ARG)
                           ___xxtofl (ARG)
 ---------------------------------------------------------------------------------
 (3) ___fldiv                                             25    17      8    1399
                                             14 COMRAM    25    17      8
                           ___xxtofl (ARG)
 ---------------------------------------------------------------------------------
 Estimated maximum stack depth 3
 ---------------------------------------------------------------------------------

 Call Graph Graphs:

 _main (ROOT)
   _Motor_Movimiento
     _Motor_Conversion
       ___fldiv
         ___xxtofl (ARG)
       ___fltol
         ___fldiv (ARG)
           ___xxtofl (ARG)
         ___xxtofl (ARG)
       ___xxtofl
     _PWM_GeneratePulsos
       _PWM_InitF
       _PWM_OneshotX
       _PWM_OneshotY
   _Serial_DecodificacionX
     _atoi
       ___wmul
       _isdigit
       _isspace
   _Serial_DecodificacionY
     _atoi
       ___wmul
       _isdigit
       _isspace
   _USART_Init
     ___aldiv
   _USART_Rx
   _USART_RxS

 Address spaces:
Name               Size   Autos  Total    Cost      Usage
BIGRAM             7FF      0       0      21        0.0%
EEDATA             100      0       0       0        0.0%
BITBANK7           100      0       0      18        0.0%
BANK7              100      0       0      19        0.0%
BITBANK6           100      0       0      16        0.0%
BANK6              100      0       0      17        0.0%
BITBANK5           100      0       0      14        0.0%
BANK5              100      0       0      15        0.0%
BITBANK4           100      0       0      12        0.0%
BANK4              100      0       0      13        0.0%
BITBANK3           100      0       0      10        0.0%
BANK3              100      0       0      11        0.0%
BITBANK2           100      0       0       8        0.0%
BANK2              100      0       0       9        0.0%
BITBANK1           100      0       0       6        0.0%
BANK1              100      0       0       7        0.0%
BITBANK0            A0      0       0       4        0.0%
BANK0               A0      0       0       5        0.0%
BITCOMRAM           5F      0       0       0        0.0%
COMRAM              5F     3E      55       1       89.5%
BITSFR               0      0       0     200        0.0%
SFR                  0      0       0     200        0.0%
STACK                0      0       0       2        0.0%
NULL                 0      0       0       0        0.0%
ABS                  0      0      55      20        0.0%
DATA                 0      0      55       3        0.0%
CODE                 0      0       0       0        0.0%


Microchip Technology PIC18 Macro Assembler V2.10 build 88905656 
Symbol Table                                                                                   Thu Nov 21 16:56:55 2019

                           ___fldiv@aexp 0027                             ___fldiv@bexp 0026  
                           ___fldiv@sign 001F                                       l21 7516  
                                     l30 7170                                       l33 7180  
                                     l52 731A                                       l56 7360  
                                     _CX 0054                                       _CY 0052  
                  __size_of_PWM_OneshotX 0030                    __size_of_PWM_OneshotY 0030  
                    ___wmul@multiplicand 0003                                      l111 73C2  
                                    l200 72B8                                      l203 71E2  
                                    l116 7430                                      l153 777C  
                                    l500 7710                                      l164 781A  
                                    l157 77CA                                      l174 7212  
                                    l167 71BC                                      l178 7242  
                                    l282 7926                                      l197 74A2  
                                    l902 7AA8                                      l921 7198  
                                    l905 7AB0                                      l931 71B8  
                                    l923 71A4                                      l908 727A  
                                    l916 730A                                      l861 7C64  
                                    l933 71BA                                      l925 71A6  
                                    l790 7E22                                      l927 71A8  
                                    l872 7BFC                                      l785 7FFE  
                                    l865 7BA0                                      l929 71B6  
                                    l858 7B08                                      l787 7E5E  
                                    l796 7EA4                                      l798 7F1C  
                                    l799 7F0A                             __CFG_CPB$OFF 000000  
                                    _PR2 000FCB                             __CFG_CPD$OFF 000000  
                                    u800 7232                                      u801 722E  
                                    u810 7C80                                      u811 7C7C  
                                    u900 7E20                                      u820 7C92  
                                    u901 7E1C                                      u821 7C8E  
                                    u910 7E4A                                      u830 7CA2  
                                    u911 7E46                                      u831 7C9E  
                                    u920 7E6E                                      u840 7CE6  
                                    u921 7E6A                                      u841 7CE2  
                                    u930 7E84                                      u850 7CF8  
                                    u770 71F2                                      u690 717E  
                                    u931 7E80                                      u851 7CF4  
                                    u771 71EE                                      u691 717A  
                                    u940 7EA2                                      u860 7D08  
                                    u780 7202                                      u941 7E9E  
                                    u861 7D04                                      u781 71FE  
                                    u950 7EC2                                      u870 7D48  
                                    u790 7222                                      u951 7EBE  
                                    u871 7D44                                      u791 721E  
                                    u960 7ED4                                      u880 7D88  
                                    u961 7ED0                                      u881 7D84  
                                    u970 7F02                                      u890 7DFE  
                                    u971 7EFE                                      u891 7DFA  
                                    u980 7F18                                      u981 7F14  
                                    u990 7F2C                                      u991 7F28  
                            main@Oupcode 003E                                      wreg 000FE8  
              PWM_GeneratePulsos@pulsosX 0003                PWM_GeneratePulsos@pulsosY 0005  
                           __CFG_LVP$OFF 000000                             ___fltol@exp1 0031  
                           __CFG_WDT$OFF 000000                                     l1501 7236  
                                   l1503 723A                                     l1601 7E8A  
                                   l1521 7C92                                     l1513 7C66  
                                   l1611 7EC6                                     l1603 7E94  
                                   l1531 7CCC                                     l1523 7CA2  
                                   l1515 7C72                                     l1507 71BE  
                                   l1621 7F38                                     l1613 7ED4  
                                   l1605 7EA2                                     l1541 7CF8  
                                   l1533 7CD2                                     l1525 7CB2  
                                   l1517 7C80                                     l1701 7B18  
                                   l1509 71DA                                     l1631 7FA4  
                                   l1623 7F46                                     l1615 7F02  
                                   l1607 7EB4                                     l1551 7D32  
                                   l1543 7D08                                     l1535 7CD8  
                                   l1527 7CB4                                     l1519 7C82  
                                   l1711 7B56                                     l1703 7B2E  
                                   l1367 7170                                     l1641 7FF2  
                                   l1633 7FBE                                     l1625 7F70  
                                   l1609 7EC2                                     l1553 7D48  
                                   l1545 7D18                                     l1537 7CE6  
                                   l1529 7CBC                                     l1721 7BDE  
                                   l1713 7B88                                     l1801 7716  
                                   l1369 717E                                     l1643 7FF4  
                                   l1635 7FDA                                     l1619 7F2C  
                                   l1627 7F74                                     l1571 7D9C  
                                   l1555 7D58                                     l1563 7D78  
                                   l1547 7D1A                                     l1539 7CE8  
                                   l1651 760C                                     l1731 7C34  
                                   l1723 7BEC                                     l1715 7B8A  
                                   l1707 7B42                                     l1491 720A  
                                   l1483 71E4                                     l1811 7730  
                                   l1803 7718                                     l1637 7FDE  
                                   l1629 7F8E                                     l1581 7DEE  
                                   l1573 7DB6                                     l1565 7D88  
                                   l1557 7D60                                     l1549 7D22  
                                   l1661 7662                                     l1653 7622  
                                   l1733 7C44                                     l1725 7C0A  
                                   l1717 7B96                                     l1709 7B4A  
                                   l1485 71F2                                     l1821 779C  
                                   l1813 774E                                     l1805 771A  
                                   l1741 72BA                                     l1901 750C  
                                   l1639 7FEC                                     l1591 7E4A  
                                   l1583 7DFE                                     l1575 7DC6  
                                   l1567 7D88                                     l1559 7D64  
                                   l1663 7672                                     l1735 7C52  
                                   l1727 7C0C                                     l1719 7BD2  
                                   l1487 7202                                     l1495 7214  
                                   l1831 7808                                     l1823 77AA  
                                   l1815 775C                                     l1807 771C  
                                   l1743 72BE                                     l1903 750E  
                                   l1911 730E                                     l1593 7E4C  
                                   l1585 7E12                                     l1577 7DD6  
                                   l1673 769C                                     l1665 7676  
                                   l1657 7636                                     l1737 7C54  
                                   l1729 7C10                                     l1489 7206  
                                   l1497 7222                                     l1833 7818  
                                   l1825 77C2                                     l1817 7774  
                                   l1809 7724                                     l1753 7244  
                                   l1745 72D2                                     l1761 7940  
                                   l1905 7510                                     l1913 7328  
                                   l1595 7E5C                                     l1587 7E20  
                                   l1579 7DE6                                     l1691 7700  
                                   l1683 76C4                                     l1675 76A6  
                                   l1667 7684                                     l1659 7660  
                                   l1835 7432                                     l1499 7232  
                                   l1819 777E                                     l1827 77CC  
                                   l1747 7300                                     l1763 7944  
                                   l1931 73A6                                     l1851 7842  
                                   l1843 781C                                     l1907 7512  
                                   l1915 7338                                     l1597 7E6E  
                                   l1589 7E2C                                     l1685 76D0  
                                   l1677 76B0                                     l1837 7442  
                                   l1829 77EA                                     l1749 7304  
                                   l1781 79F4                                     l1773 799C  
                                   l1765 795E                                     l1757 7928  
                                   l1925 736A                                     l1941 73F4  
                                   l1933 73C4                                     l1861 788A  
                                   l1853 7850                                     l1845 7820  
                                   l1909 7514                                     l1917 733C  
                                   l1599 7E84                                     l1687 76E0  
                                   l1695 7AB4                                     l1839 749A  
                                   l1791 7A7A                                     l1775 79B2  
                                   l1767 7992                                     l1759 793C  
                                   l1927 7386                                     l1919 7362  
                                   l1943 73F8                                     l1871 78D4  
                                   l1863 7892                                     l1855 7860  
                                   l1847 782E                                     l1951 752C  
                                   l1689 76F0                                     l1697 7AC4  
                                   l1793 7A8C                                     l1785 7A2C  
                                   l1777 79BA                                     l1769 7996  
                                   l1929 738A                                     l1945 7414  
                                   l1881 7906                                     l1873 78E4  
                                   l1865 789E                                     l1857 7864  
                                   l1849 783E                                     l1961 7584  
                                   l1953 7536                                     l1699 7AD2  
                                   l1947 727C                                     l1779 79C2  
                                   l1939 73CC                                     l1883 7916  
                                   l1875 78E6                                     l1867 78AC  
                                   l1859 7874                                     l1891 74AA  
                                   l1963 7592                                     l1955 7544  
                                   l1789 7A68                                     l1877 78F0  
                                   l1869 78B6                                     l1893 74AC  
                                   l1965 75A6                                     l1957 7558  
                                   l1949 7518                                     l1799 7712  
                                   l1879 78F6                                     l1895 74E0  
                                   l1887 74A4                                     l1983 75D2  
                                   l1959 756C                                     l1985 79DE  
                                   l1897 7508                                     l1889 74A8  
                                   l1969 75BE                                     l1899 750A  
                                   u1000 7F46                                     u1001 7F42  
                                   u1010 7F8E                                     u1011 7F8A  
                                   u1020 7FBE                                     u1100 76F0  
                                   u1021 7FBA                                     u1101 76EC  
                                   u1030 7FEC                                     u1110 7AC4  
                                   u1031 7FE8                                     u1111 7AC0  
                                   u1040 7622                                     u1200 7C52  
                                   u1120 7AD2                                     u1041 761E  
                                   u1201 7C4E                                     u1121 7ACE  
                                   u1050 7656                                     u1130 7B2E  
                                   u1210 72D2                                     u1131 7B2A  
                                   u1211 72CE                                     u1060 7684  
                                   u1140 7B84                                     u1220 7300  
                                   u1300 7A7A                                     u1061 7680  
                                   u1141 7B80                                     u1221 72FC  
                                   u1301 7A76                                     u1070 7698  
                                   u1150 7BCE                                     u1230 7274  
                                   u1310 7A8C                                     u1071 7694  
                                   u1055 764C                                     u1151 7BCA  
                                   u1231 726E                                     u1311 7A88  
                                   u1080 76C0                                     u1160 7BEC  
                                   u1320 774E                                     u1240 7276  
                                   u1400 788A                                     u1081 76BC  
                                   u1161 7BE8                                     u1321 774A  
                                   u1401 7886                                     u1090 76E0  
                                   u1170 7BFC                                     u1330 775C  
                                   u1250 795E                                     u1410 78AC  
                                   u1091 76DC                                     u1171 7BF8  
                                   u1331 7758                                     u1251 795A  
                                   u1411 78A8                                     u1180 7C0A  
                                   u1340 779C                                     u1260 7992  
                                   u1420 78D4                                     u1181 7C06  
                                   u1341 7798                                     u1261 798E  
                                   u1421 78D0                                     u1190 7C44  
                                   u1350 77AA                                     u1270 79AE  
                                   u1430 7906                                     u1191 7C40  
                                   u1351 77A6                                     u1271 79AA  
                                   u1431 7902                                     u1360 77EA  
                                   u1280 7A62                                     u1440 7328  
                                   u1361 77E6                                     u1281 7A5C  
                                   u1441 7324                                     u1370 7808  
                                   u1290 7A64                                     u1450 7360  
                                   u1371 7804                                     u1451 735C  
                                   u1460 73A6                                     u1380 782E  
                                   u1461 73A2                                     u1381 782A  
                                   u1470 7414                                     u1390 7850  
                                   u1471 7410                                     u1391 784C  
                                   _RCIF 007CF5                                     _atoi 7928  
                                   _main 7518                                     fsr2h 000FDA  
                                   indf1 000FE7                                     indf2 000FDF  
                                   fsr1l 000FE1                                     fsr2l 000FD9  
                                   prodh 000FF4                                     prodl 000FF3  
                                   start 0000                          ___fldiv@new_exp 0020  
                           _PWM_OneshotX 71E4                             _PWM_OneshotY 7214  
                          __CFG_MCLRE$ON 000000                             ___param_bank 000000  
                          ___fltol@sign1 0030                          __end_of___aldiv 7928  
                                  ?_atoi 0008                                    ?_main 0001  
                        __end_of___fldiv 8000                          __end_of___fltol 7712  
                                  _T2CON 000FCA                                    _RCREG 000FAE  
                                  _SPBRG 000FAF                                    _TXREG 000FAD  
                         __CFG_FCMEN$OFF 000000                          __end_of_isdigit 727C  
                                  atoi@n 0015                                    atoi@s 0008  
                       __end_of_USART_Rx 7182                          __end_of_isspace 730C  
                     __size_of_USART_RxS 0056                                    status 000FD8  
                     __size_of_PWM_InitF 0026                 __end_of_Motor_Conversion 74A4  
                            ?_USART_Init 000F                          __initialization 7182  
             __end_of_PWM_GeneratePulsos 781C        Serial_DecodificacionX@coordenadaX 001B  
                           __end_of_atoi 7AB2                             __end_of_main 760C  
                                 ??_atoi 000A                                   ??_main 003C  
                          __activetblptr 000002                                   _CCPR1L 000FBE  
                                 _CCPR2L 000FBB                                   _OSCCON 000FD3  
                       __end_of___xxtofl 7C66        Serial_DecodificacionY@coordenadaY 001D  
                              ??___aldiv 0009                                   ___wmul 71BE  
                              ??___fldiv 0017                                ??___fltol 002C  
                                 clear_0 7188                 __end_of_Motor_Movimiento 72BA  
                                 _pasosX 0041                                   _pasosY 003F  
                       _coordenada_array 004B                        __end_of_USART_RxS 7362  
                      __end_of_PWM_InitF 71BE                                ??_isdigit 0003  
                              ??_isspace 0003                                   tblptru 000FF8  
                    __size_of_USART_Init 0074                             ___xxtofl@arg 000B  
                           ___xxtofl@exp 000A                             ___xxtofl@val 0001  
                             __accesstop 0060                  __end_of__initialization 718E  
             Motor_Conversion@conversion 0034                            ___rparam_used 000001  
                Serial_DecodificacionX@i 001E                  Serial_DecodificacionY@i 0020  
                             ___fltol@f1 0028                           __pcstackCOMRAM 0001  
                              ?_USART_Rx 0001          Serial_DecodificacionX@pointerCX 0019  
        Serial_DecodificacionY@pointerCY 0019              Motor_Movimiento@CoordenadaX 0038  
            Motor_Movimiento@CoordenadaY 003A                                  ?___wmul 0001  
                                _CCP1CON 000FBD                                  _CCP2CON 000FBA  
                             ??_USART_Rx 0001                                ?___xxtofl 0001  
                           ??_USART_Init 0013                        ?_Motor_Conversion 0032  
                                __Hparam 0000                                  __Lparam 0000  
                     ??_Motor_Conversion 0034                                  ___aldiv 781C  
                                ___fldiv 7C66                                  ___fltol 760C  
                        __size_of___wmul 0026                           USART_Init@BAUD 000F  
                                __pcinit 7182                                  __ramtop 0800  
                                __ptext0 7518                                  __ptext1 730C  
                                __ptext2 7170                                  __ptext3 74A4  
                                __ptext4 781C                                  __ptext5 73C4  
                                __ptext6 7362                                  __ptext7 7928  
                                __ptext8 72BA                                  __ptext9 7244  
                              _T2CONbits 000FCA                       _PWM_GeneratePulsos 7712  
                                _isdigit 7244                               ??___xxtofl 0005  
                       ___aldiv@dividend 0001                                  _isspace 72BA  
                                atoi@neg 000E                       __end_of_USART_Init 7518  
                                _pulsosX 0047                                  _pulsosY 0045  
               ??_Serial_DecodificacionX 001B                 ??_Serial_DecodificacionY 001B  
                    ?_PWM_GeneratePulsos 0003                     end_of_initialization 718E  
                          __Lmediumconst 0000                        _pasos_convertidos 0043  
                              _RCSTAbits 000FAB                         ___aldiv@quotient 000B  
                                postdec2 000FDD                                  postinc0 000FEE  
                                postinc2 000FDE                     ??_PWM_GeneratePulsos 0007  
                      ?_Motor_Movimiento 0038                                _PORTCbits 000F82  
                     ??_Motor_Movimiento 003C                            ___xxtofl@sign 0009  
                              _USART_RxS 730C                                _TRISCbits 000F94  
                            ___fldiv@grs 0022                              ___fldiv@rem 001B  
                              _PWM_InitF 7198                                _TXSTAbits 000FAC  
                         __end_of___wmul 71E4                        __size_of_USART_Rx 0012  
                    start_initialization 7182                               ?_USART_RxS 0001  
                             ?_PWM_InitF 0001          __size_of_Serial_DecodificacionX 0062  
        __size_of_Serial_DecodificacionY 006E  Serial_DecodificacionX@string_coordenada 0017  
                          ?_PWM_OneshotX 0001                            ?_PWM_OneshotY 0001  
                               ??___wmul 0005                                ___fldiv@a 0013  
                              ___fldiv@b 000F                              __pbssCOMRAM 003F  
                      __size_of___xxtofl 01B4                       PWM_OneshotX@pasosX 0001  
                     PWM_OneshotY@pasosY 0001                           ??_PWM_OneshotX 0003  
                         ??_PWM_OneshotY 0003                                 ?___aldiv 0001  
                               ?___fldiv 000F                   _Serial_DecodificacionX 7362  
                 _Serial_DecodificacionY 73C4                                 ?___fltol 0028  
              __size_of_Motor_Conversion 0072                                 ?_isdigit 0001  
                               ?_isspace 0001                              ??_USART_RxS 0003  
                            ??_PWM_InitF 0001                          ___aldiv@divisor 0005  
                        ___aldiv@counter 0009                 PWM_GeneratePulsos@pasosX 0008  
               PWM_GeneratePulsos@pasosY 000A                           ___wmul@product 0005  
                               _PIR1bits 000F9E                                 _USART_Rx 7170  
                      ___wmul@multiplier 0001                               USART_RxS@i 0007  
              __size_of_Motor_Movimiento 003E                         USART_RxS@pointer 0001  
                               __Hrparam 0000                                 __Lrparam 0000  
            __size_of_PWM_GeneratePulsos 010A                         __size_of___aldiv 010C  
                       __size_of___fldiv 039A                         __size_of___fltol 0106  
                  __CFG_FOSC$INTOSCIO_EC 000000                     __end_of_PWM_OneshotX 7214  
                   __end_of_PWM_OneshotY 7244                                 ___xxtofl 7AB2  
                               _atoi$941 0010                                 _atoi$942 0014  
                               _atoi$943 0012                         __size_of_isdigit 0038  
                       __size_of_isspace 0052                                 __ptext10 71BE  
                               __ptext11 727C                                 __ptext12 7712  
                               __ptext13 7214                                 __ptext14 71E4  
                               __ptext15 7198                                 __ptext16 7432  
                               __ptext17 7AB2                                 __ptext18 760C  
                               __ptext19 7C66                            __size_of_atoi 018A  
                          __size_of_main 00F4                          _USART_Init$1159 0013  
                               _oneshotX 004A                                 _oneshotY 0049  
                            _isspace$959 0007                          USART_RxS@lenght 0006  
                       _Motor_Conversion 7432                                 isdigit@c 0001  
Serial_DecodificacionY@string_coordenada 0017                                 isspace@c 0001  
                ?_Serial_DecodificacionX 0017                  ?_Serial_DecodificacionY 0017  
                           ___aldiv@sign 000A               Motor_Conversion@Coordenada 0032  
                       _Motor_Movimiento 727C           __end_of_Serial_DecodificacionX 73C4  
         __end_of_Serial_DecodificacionY 7432                               _USART_Init 74A4  
