

Microchip MPLAB XC8 Assembler V2.10 build 88905656 
                                                                                               Wed Dec 04 23:10:04 2019

Microchip MPLAB XC8 C Compiler v2.10 (Free license) build 20190730164152 Og1 
     1                           	processor	18F4550
     2                           	fnconf	rparam,??,?,0
     3                           	opt	pw 120
     4                           	opt	flic
     5                           	psect	smallconst,global,reloc=2,class=SMALLCONST,delta=1,noexec
     6                           	psect	cinit,global,reloc=2,class=CODE,delta=1
     7                           	psect	bssCOMRAM,global,class=COMRAM,space=1,delta=1,noexec
     8                           	psect	bssBANK0,global,class=BANK0,space=1,delta=1,lowdata,noexec
     9                           	psect	cstackBANK0,global,class=BANK0,space=1,delta=1,noexec
    10                           	psect	cstackCOMRAM,global,class=COMRAM,space=1,delta=1,noexec
    11                           	psect	text0,global,reloc=2,class=CODE,delta=1
    12                           	psect	text1,global,reloc=2,class=CODE,delta=1
    13                           	psect	text2,global,reloc=2,class=CODE,delta=1
    14                           	psect	text3,global,reloc=2,class=CODE,delta=1
    15                           	psect	text4,global,reloc=2,class=CODE,delta=1
    16                           	psect	text5,global,reloc=2,class=CODE,delta=1
    17                           	psect	text6,global,reloc=2,class=CODE,delta=1,group=1
    18                           	psect	text7,global,reloc=2,class=CODE,delta=1
    19                           	psect	text8,global,reloc=2,class=CODE,delta=1
    20                           	psect	text9,global,reloc=2,class=CODE,delta=1
    21                           	psect	text10,global,reloc=2,class=CODE,delta=1
    22                           	psect	text11,global,reloc=2,class=CODE,delta=1
    23                           	psect	text12,global,reloc=2,class=CODE,delta=1
    24                           	psect	text13,global,reloc=2,class=CODE,delta=1
    25                           	psect	text14,global,reloc=2,class=CODE,delta=1
    26                           	psect	text15,global,reloc=2,class=CODE,delta=1
    27                           	psect	text16,global,reloc=2,class=CODE,delta=1
    28                           	psect	text17,global,reloc=2,class=CODE,delta=1
    29                           	psect	text18,global,reloc=2,class=CODE,delta=1
    30                           	psect	text19,global,reloc=2,class=CODE,delta=1,group=2
    31                           	psect	text20,global,reloc=2,class=CODE,delta=1,group=2
    32                           	psect	text21,global,reloc=2,class=CODE,delta=1,group=2
    33                           	psect	text22,global,reloc=2,class=CODE,delta=1,group=1
    34                           	psect	text23,global,reloc=2,class=CODE,delta=1
    35                           	psect	text24,global,reloc=2,class=CODE,delta=1
    36                           	psect	text25,global,reloc=2,class=CODE,delta=1
    37                           	psect	text26,global,reloc=2,class=CODE,delta=1
    38                           	psect	text27,global,reloc=2,class=CODE,delta=1
    39                           	psect	text28,global,reloc=2,class=CODE,delta=1
    40                           	psect	text29,global,reloc=2,class=CODE,delta=1
    41                           	psect	text30,global,reloc=2,class=CODE,delta=1
    42                           	psect	text31,global,reloc=2,class=CODE,delta=1
    43                           	psect	text32,global,reloc=2,class=CODE,delta=1
    44                           	psect	text33,global,reloc=2,class=CODE,delta=1,group=1
    45                           	psect	text34,global,reloc=2,class=CODE,delta=1,group=1
    46                           	psect	text35,global,reloc=2,class=CODE,delta=1,group=1
    47                           	psect	text36,global,reloc=2,class=CODE,delta=1
    48                           	psect	text37,global,reloc=2,class=CODE,delta=1
    49                           	psect	text38,global,reloc=2,class=CODE,delta=1
    50                           	psect	text39,global,reloc=2,class=CODE,delta=1
    51                           	psect	text40,global,reloc=2,class=CODE,delta=1
    52                           	psect	text41,global,reloc=2,class=CODE,delta=1
    53                           	psect	text42,global,reloc=2,class=CODE,delta=1
    54                           	psect	text43,global,reloc=2,class=CODE,delta=1
    55                           	psect	text44,global,reloc=2,class=CODE,delta=1
    56                           	psect	text45,global,reloc=2,class=CODE,delta=1
    57                           	psect	text46,global,reloc=2,class=CODE,delta=1
    58                           	psect	text47,global,reloc=2,class=CODE,delta=1
    59                           	psect	intcode,global,reloc=2,class=CODE,delta=1
    60                           	psect	intcode_body,global,reloc=2,class=CODE,delta=1
    61                           	psect	text49,global,reloc=2,class=CODE,delta=1
    62                           	psect	text50,global,reloc=2,class=CODE,delta=1
    63                           	psect	text51,global,reloc=2,class=CODE,delta=1
    64                           	psect	text52,global,reloc=2,class=CODE,delta=1
    65                           	psect	text53,global,reloc=2,class=CODE,delta=1
    66                           	psect	text54,global,reloc=2,class=CODE,delta=1
    67                           	psect	text55,global,reloc=2,class=CODE,delta=1
    68                           	psect	text56,global,reloc=2,class=CODE,delta=1
    69                           	psect	text57,global,reloc=2,class=CODE,delta=1
    70                           	psect	text58,global,reloc=2,class=CODE,delta=1
    71                           	psect	text59,global,reloc=2,class=CODE,delta=1
    72                           	psect	text60,global,reloc=2,class=CODE,delta=1
    73                           	psect	text61,global,reloc=2,class=CODE,delta=1
    74                           	psect	text62,global,reloc=2,class=CODE,delta=1
    75                           	psect	text63,global,reloc=2,class=CODE,delta=1
    76                           	psect	intsave_regs,global,class=BIGRAM,space=1,delta=1,noexec
    77                           	psect	rparam,global,class=COMRAM,space=1,delta=1,noexec
    78                           	psect	temp,global,ovrld,common,class=COMRAM,space=1,delta=1
    79  0000                     
    80                           ; Version 2.10
    81                           ; Generated 31/07/2019 GMT
    82                           ; 
    83                           ; Copyright © 2019, Microchip Technology Inc. and its subsidiaries ("Microchip")
    84                           ; All rights reserved.
    85                           ; 
    86                           ; This software is developed by Microchip Technology Inc. and its subsidiaries ("Microch
      +                          ip").
    87                           ; 
    88                           ; Redistribution and use in source and binary forms, with or without modification, are
    89                           ; permitted provided that the following conditions are met:
    90                           ; 
    91                           ;     1. Redistributions of source code must retain the above copyright notice, this lis
      +                          t of
    92                           ;        conditions and the following disclaimer.
    93                           ; 
    94                           ;     2. Redistributions in binary form must reproduce the above copyright notice, this 
      +                          list
    95                           ;        of conditions and the following disclaimer in the documentation and/or other
    96                           ;        materials provided with the distribution.
    97                           ; 
    98                           ;     3. Microchip's name may not be used to endorse or promote products derived from th
      +                          is
    99                           ;        software without specific prior written permission.
   100                           ; 
   101                           ; THIS SOFTWARE IS PROVIDED BY MICROCHIP "AS IS" AND ANY EXPRESS OR IMPLIED WARRANTIES,
   102                           ; INCLUDING, BUT NOT LIMITED TO, THE IMPLIED WARRANTIES OF MERCHANTABILITY AND FITNESS F
      +                          OR
   103                           ; PURPOSE ARE DISCLAIMED.  IN NO EVENT SHALL MICROCHIP BE LIABLE FOR ANY DIRECT, INDIREC
      +                          T,
   104                           ; INCIDENTAL, SPECIAL, EXEMPLARY, OR CONSEQUENTIAL DAMAGES (INCLUDING BUT NOT LIMITED TO
   105                           ; PROCUREMENT OF SUBSTITUTE GOODS OR SERVICES; LOSS OF USE, DATA OR PROFITS; OR BUSINESS
   106                           ; INTERRUPTION) HOWSOEVER CAUSED AND ON ANY THEORY OF LIABILITY, WHETHER IN CONTRACT, ST
      +                          RICT
   107                           ; LIABILITY, OR TORT (INCLUDING NEGLIGENCE OR OTHERWISE) ARISING IN ANY WAY OUT OF THE U
      +                          SE OF
   108                           ; THIS SOFTWARE, EVEN IF ADVISED OF THE POSSIBILITY OF SUCH DAMAGE.
   109                           ; 
   110                           ; 
   111                           ; Code-generator required, PIC18F4550 Definitions
   112                           ; 
   113                           ; SFR Addresses
   114  0000                     
   115                           	psect	smallconst
   116  000800                     __psmallconst:
   117                           	opt callstack 0
   118  000800  00                 	db	0
   119  000801                     _dp_l:
   120                           	opt callstack 0
   121  000801  0000               	dw	0
   122  000803  0000               	dw	0
   123  000805  CFDC               	dw	53212
   124  000807  35D1               	dw	13777
   125  000809                     __end_of_dp_l:
   126                           	opt callstack 0
   127  000809                     _dp_h:
   128                           	opt callstack 0
   129  000809  0000               	dw	0
   130  00080B  0000               	dw	0
   131  00080D  C000               	dw	49152
   132  00080F  3F15               	dw	16149
   133  000811                     __end_of_dp_h:
   134                           	opt callstack 0
   135  000811  4260               	dw	16992
   136  000813  0DA2               	dw	3490
   137  000815                     __end_ofsqrtf@tiny:
   138                           	opt callstack 0
   139  000815  A570               	dw	42352
   140  000817  36EC               	dw	14060
   141  000819                     __end_of_ivln2_l:
   142                           	opt callstack 0
   143  000819  AA3B               	dw	43579
   144  00081B  3FB8               	dw	16312
   145  00081D                     __end_of_ivln2:
   146                           	opt callstack 0
   147  00081D  384F               	dw	14415
   148  00081F  3F76               	dw	16246
   149  000821                     __end_of_cp:
   150                           	opt callstack 0
   151  000821  AA3C               	dw	43580
   152  000823  3338               	dw	13112
   153  000825                     __end_of_ovt:
   154                           	opt callstack 0
   155  000825  BE8C               	dw	48780
   156  000827  35BF               	dw	13759
   157  000829                     __end_of_lg2_l:
   158                           	opt callstack 0
   159  000829  7200               	dw	29184
   160  00082B  3F31               	dw	16177
   161  00082D                     __end_of_lg2_h:
   162                           	opt callstack 0
   163  00082D  7218               	dw	29208
   164  00082F  3F31               	dw	16177
   165  000831                     __end_of_lg2:
   166                           	opt callstack 0
   167  000831  BB4C               	dw	47948
   168  000833  3331               	dw	13105
   169  000835                     __end_of_P5:
   170                           	opt callstack 0
   171  000835  EA0E               	dw	59918
   172  000837  B5DD               	dw	46557
   173  000839                     __end_of_P4:
   174                           	opt callstack 0
   175  000839  B355               	dw	45909
   176  00083B  388A               	dw	14474
   177  00083D                     __end_of_P3:
   178                           	opt callstack 0
   179  00083D  0B61               	dw	2913
   180  00083F  BB36               	dw	47926
   181  000841                     __end_of_P2:
   182                           	opt callstack 0
   183  000841  AAAB               	dw	43691
   184  000843  3E2A               	dw	15914
   185  000845                     __end_of_P1:
   186                           	opt callstack 0
   187  000845  F142               	dw	61762
   188  000847  3E53               	dw	15955
   189  000849                     __end_of_L6:
   190                           	opt callstack 0
   191  000849  3255               	dw	12885
   192  00084B  3E6C               	dw	15980
   193  00084D                     __end_of_L5:
   194                           	opt callstack 0
   195  00084D  A305               	dw	41733
   196  00084F  3E8B               	dw	16011
   197  000851                     __end_of_L4:
   198                           	opt callstack 0
   199  000851  AAAB               	dw	43691
   200  000853  3EAA               	dw	16042
   201  000855                     __end_of_L3:
   202                           	opt callstack 0
   203  000855  6DB7               	dw	28087
   204  000857  3EDB               	dw	16091
   205  000859                     __end_of_L2:
   206                           	opt callstack 0
   207  000859  999A               	dw	39322
   208  00085B  3F19               	dw	16153
   209  00085D                     __end_of_L1:
   210                           	opt callstack 0
   211  00085D  4260               	dw	16992
   212  00085F  0DA2               	dw	3490
   213  000861                     __end_of_tiny:
   214                           	opt callstack 0
   215  000861  F2CA               	dw	62154
   216  000863  7149               	dw	29001
   217  000865                     __end_of_huge:
   218                           	opt callstack 0
   219  000865  0000               	dw	0
   220  000867  4B80               	dw	19328
   221  000869                     __end_of_two24:
   222                           	opt callstack 0
   223  000869                     _bp:
   224                           	opt callstack 0
   225  000869  0000               	dw	0
   226  00086B  3F80               	dw	16256
   227  00086D  0000               	dw	0
   228  00086F  3FC0               	dw	16320
   229  000871                     __end_of_bp:
   230                           	opt callstack 0
   231  000871  AA00               	dw	43520
   232  000873  3FB8               	dw	16312
   233  000875                     __end_of_ivln2_h:
   234                           	opt callstack 0
   235  000875  23C6               	dw	9158
   236  000877  B8F6               	dw	47350
   237  000879                     __end_of_cp_l:
   238                           	opt callstack 0
   239  000879  4000               	dw	16384
   240  00087B  3F76               	dw	16246
   241  00087D                     __end_of_cp_h:
   242                           	opt callstack 0
   243  0000                     _LATBbits	set	3978
   244  0000                     _INTCON3bits	set	4080
   245  0000                     _RCONbits	set	4048
   246  0000                     _INTCON2bits	set	4081
   247  0000                     _TRISD	set	3989
   248  0000                     _OSCCON	set	4051
   249  0000                     _LATCbits	set	3979
   250  0000                     _LATDbits	set	3980
   251  0000                     _PORTAbits	set	3968
   252  0000                     _PIR2bits	set	4001
   253  0000                     _EECON2	set	4007
   254  0000                     _INTCONbits	set	4082
   255  0000                     _EEDATA	set	4008
   256  0000                     _EEADR	set	4009
   257  0000                     _EECON1bits	set	4006
   258  0000                     _ADCON2bits	set	4032
   259  0000                     _ADCON1bits	set	4033
   260  0000                     _ADRESH	set	4036
   261  0000                     _ADRESL	set	4035
   262  0000                     _ADCON0bits	set	4034
   263  0000                     _TRISEbits	set	3990
   264  0000                     _LATE	set	3981
   265  0000                     _PORTE	set	3972
   266  0000                     _TRISDbits	set	3989
   267  0000                     _LATD	set	3980
   268  0000                     _PORTD	set	3971
   269  0000                     _LATC	set	3979
   270  0000                     _PORTC	set	3970
   271  0000                     _TRISBbits	set	3987
   272  0000                     _LATB	set	3978
   273  0000                     _PORTB	set	3969
   274  0000                     _TRISAbits	set	3986
   275  0000                     _CMCON	set	4020
   276  0000                     _ADCON1	set	4033
   277  0000                     _LATA	set	3977
   278  0000                     _PORTA	set	3968
   279  0000                     _UCFGbits	set	3951
   280  0000                     _UCONbits	set	3949
   281  0000                     _RCREG	set	4014
   282  0000                     _TXREG	set	4013
   283  0000                     _PIR1bits	set	3998
   284  0000                     _RCSTAbits	set	4011
   285  0000                     _TXSTAbits	set	4012
   286  0000                     _SPBRG	set	4015
   287  0000                     _CCP2CON	set	4026
   288  0000                     _CCP1CON	set	4029
   289  0000                     _T2CON	set	4042
   290  0000                     _TRISCbits	set	3988
   291  0000                     _CCPR2L	set	4027
   292  0000                     _CCPR1L	set	4030
   293  0000                     _PR2	set	4043
   294  0000                     _PORTCbits	set	3970
   295  0000                     _T2CONbits	set	4042
   296  0000                     _PORTDbits	set	3971
   297  0000                     _RCIF	set	31989
   298  00087D                     STR_44:
   299  00087D  57                 	db	87	;'W'
   300  00087E  45                 	db	69	;'E'
   301  00087F  4C                 	db	76	;'L'
   302  000880  43                 	db	67	;'C'
   303  000881  4F                 	db	79	;'O'
   304  000882  4D                 	db	77	;'M'
   305  000883  45                 	db	69	;'E'
   306  000884  20                 	db	32
   307  000885  54                 	db	84	;'T'
   308  000886  4F                 	db	79	;'O'
   309  000887  20                 	db	32
   310  000888  53                 	db	83	;'S'
   311  000889  50                 	db	80	;'P'
   312  00088A  41                 	db	65	;'A'
   313  00088B  52                 	db	82	;'R'
   314  00088C  43                 	db	67	;'C'
   315  00088D  0A                 	db	10
   316  00088E  00                 	db	0
   317  00088F                     STR_37:
   318  00088F  43                 	db	67	;'C'
   319  000890  58                 	db	88	;'X'
   320  000891  53                 	db	83	;'S'
   321  000892  0A                 	db	10
   322  000893  00                 	db	0
   323  000894                     STR_38:
   324  000894  43                 	db	67	;'C'
   325  000895  59                 	db	89	;'Y'
   326  000896  53                 	db	83	;'S'
   327  000897  0A                 	db	10
   328  000898  00                 	db	0
   329  000899                     STR_39:
   330  000899  43                 	db	67	;'C'
   331  00089A  5A                 	db	90	;'Z'
   332  00089B  53                 	db	83	;'S'
   333  00089C  0A                 	db	10
   334  00089D  00                 	db	0
   335  00089E                     STR_18:
   336  00089E  43                 	db	67	;'C'
   337  00089F  30                 	db	48	;'0'
   338  0008A0  0A                 	db	10
   339  0008A1  00                 	db	0
   340  0008A2                     STR_19:
   341  0008A2  43                 	db	67	;'C'
   342  0008A3  31                 	db	49	;'1'
   343  0008A4  0A                 	db	10
   344  0008A5  00                 	db	0
   345  0008A6                     STR_3:
   346  0008A6  45                 	db	69	;'E'
   347  0008A7  31                 	db	49	;'1'
   348  0008A8  0A                 	db	10
   349  0008A9  00                 	db	0
   350  0008AA                     STR_20:
   351  0008AA  43                 	db	67	;'C'
   352  0008AB  32                 	db	50	;'2'
   353  0008AC  0A                 	db	10
   354  0008AD  00                 	db	0
   355  0008AE                     STR_4:
   356  0008AE  45                 	db	69	;'E'
   357  0008AF  32                 	db	50	;'2'
   358  0008B0  0A                 	db	10
   359  0008B1  00                 	db	0
   360  0008B2                     STR_21:
   361  0008B2  43                 	db	67	;'C'
   362  0008B3  33                 	db	51	;'3'
   363  0008B4  0A                 	db	10
   364  0008B5  00                 	db	0
   365  0008B6                     STR_22:
   366  0008B6  43                 	db	67	;'C'
   367  0008B7  34                 	db	52	;'4'
   368  0008B8  0A                 	db	10
   369  0008B9  00                 	db	0
   370  0008BA                     STR_23:
   371  0008BA  43                 	db	67	;'C'
   372  0008BB  35                 	db	53	;'5'
   373  0008BC  0A                 	db	10
   374  0008BD  00                 	db	0
   375  0008BE                     STR_24:
   376  0008BE  43                 	db	67	;'C'
   377  0008BF  36                 	db	54	;'6'
   378  0008C0  0A                 	db	10
   379  0008C1  00                 	db	0
   380  0008C2                     STR_25:
   381  0008C2  43                 	db	67	;'C'
   382  0008C3  37                 	db	55	;'7'
   383  0008C4  0A                 	db	10
   384  0008C5  00                 	db	0
   385  0008C6                     STR_26:
   386  0008C6  43                 	db	67	;'C'
   387  0008C7  38                 	db	56	;'8'
   388  0008C8  0A                 	db	10
   389  0008C9  00                 	db	0
   390  0008CA                     STR_27:
   391  0008CA  43                 	db	67	;'C'
   392  0008CB  39                 	db	57	;'9'
   393  0008CC  0A                 	db	10
   394  0008CD  00                 	db	0
   395  0008CE                     STR_28:
   396  0008CE  43                 	db	67	;'C'
   397  0008CF  41                 	db	65	;'A'
   398  0008D0  0A                 	db	10
   399  0008D1  00                 	db	0
   400  0008D2                     STR_29:
   401  0008D2  43                 	db	67	;'C'
   402  0008D3  42                 	db	66	;'B'
   403  0008D4  0A                 	db	10
   404  0008D5  00                 	db	0
   405  0008D6                     STR_30:
   406  0008D6  43                 	db	67	;'C'
   407  0008D7  43                 	db	67	;'C'
   408  0008D8  0A                 	db	10
   409  0008D9  00                 	db	0
   410  0008DA                     STR_31:
   411  0008DA  43                 	db	67	;'C'
   412  0008DB  44                 	db	68	;'D'
   413  0008DC  0A                 	db	10
   414  0008DD  00                 	db	0
   415  0008DE                     STR_32:
   416  0008DE  43                 	db	67	;'C'
   417  0008DF  45                 	db	69	;'E'
   418  0008E0  0A                 	db	10
   419  0008E1  00                 	db	0
   420  0008E2                     STR_33:
   421  0008E2  43                 	db	67	;'C'
   422  0008E3  46                 	db	70	;'F'
   423  0008E4  0A                 	db	10
   424  0008E5  00                 	db	0
   425  0008E6                     STR_1:
   426  0008E6  52                 	db	82	;'R'
   427  0008E7  0A                 	db	10
   428  0008E8  00                 	db	0
   429  0008E9                     STR_2:
   430  0008E9  57                 	db	87	;'W'
   431  0008EA  0A                 	db	10
   432  0008EB  00                 	db	0
   433  0008EC                     STR_34:
   434  0008EC  43                 	db	67	;'C'
   435  0008ED  58                 	db	88	;'X'
   436  0008EE  00                 	db	0
   437  0008EF                     STR_35:
   438  0008EF  43                 	db	67	;'C'
   439  0008F0  59                 	db	89	;'Y'
   440  0008F1  00                 	db	0
   441  0008F2                     STR_36:
   442  0008F2  43                 	db	67	;'C'
   443  0008F3  5A                 	db	90	;'Z'
   444  0008F4  00                 	db	0
   445  0008F5                     STR_17:
   446  0008F5  46                 	db	70	;'F'
   447  0008F6  00                 	db	0
   448  0000                     
   449                           ; #config settings
   450  0008F7  00                 	db	0	; dummy byte at the end
   451  0000                     
   452                           	psect	cinit
   453  0031C6                     __pcinit:
   454                           	opt callstack 0
   455  0031C6                     start_initialization:
   456                           	opt callstack 0
   457  0031C6                     __initialization:
   458                           	opt callstack 0
   459                           
   460                           ; Clear objects allocated to BANK0 (51 bytes)
   461  0031C6  EE00  F0A2         	lfsr	0,__pbssBANK0
   462  0031CA  0E33               	movlw	51
   463  0031CC                     clear_0:
   464  0031CC  6AEE               	clrf	postinc0,c
   465  0031CE  06E8               	decf	wreg,f,c
   466  0031D0  E1FD               	bnz	clear_0
   467                           
   468                           ; Clear objects allocated to COMRAM (29 bytes)
   469  0031D2  EE00  F040         	lfsr	0,__pbssCOMRAM
   470  0031D6  0E1D               	movlw	29
   471  0031D8                     clear_1:
   472  0031D8  6AEE               	clrf	postinc0,c
   473  0031DA  06E8               	decf	wreg,f,c
   474  0031DC  E1FD               	bnz	clear_1
   475  0031DE                     end_of_initialization:
   476                           	opt callstack 0
   477  0031DE                     __end_of__initialization:
   478                           	opt callstack 0
   479  0031DE  905D               	bcf	int$flags,0,c	;clear compiler interrupt flag (level 1)
   480  0031E0  925D               	bcf	int$flags,1,c	;clear compiler interrupt flag (level 2)
   481  0031E2  0E00               	movlw	low (__Lmediumconst shr (0+16))
   482  0031E4  6EF8               	movwf	tblptru,c
   483  0031E6  0100               	movlb	0
   484  0031E8  EFCB  F00F         	goto	_main	;jump to C main() function
   485                           
   486                           	psect	bssCOMRAM
   487  000040                     __pbssCOMRAM:
   488                           	opt callstack 0
   489  000040                     _error:
   490                           	opt callstack 0
   491  000040                     	ds	4
   492  000044                     _Suma:
   493                           	opt callstack 0
   494  000044                     	ds	4
   495  000048                     _C:
   496                           	opt callstack 0
   497  000048                     	ds	3
   498  00004B                     _errno:
   499                           	opt callstack 0
   500  00004B                     	ds	2
   501  00004D                     _CoordenadaYY:
   502                           	opt callstack 0
   503  00004D                     	ds	2
   504  00004F                     _CoordenadaXX:
   505                           	opt callstack 0
   506  00004F                     	ds	2
   507  000051                     _LecturaFiltro:
   508                           	opt callstack 0
   509  000051                     	ds	2
   510  000053                     _Lectura:
   511                           	opt callstack 0
   512  000053                     	ds	2
   513  000055                     _home:
   514                           	opt callstack 0
   515  000055                     	ds	1
   516  000056                     _controlZ:
   517                           	opt callstack 0
   518  000056                     	ds	1
   519  000057                     _Flag_Botones:
   520                           	opt callstack 0
   521  000057                     	ds	1
   522  000058                     _data:
   523                           	opt callstack 0
   524  000058                     	ds	1
   525  000059                     _bites_masS:
   526                           	opt callstack 0
   527  000059                     	ds	1
   528  00005A                     _bites_menosS:
   529                           	opt callstack 0
   530  00005A                     	ds	1
   531  00005B                     _BanderaY:
   532                           	opt callstack 0
   533  00005B                     	ds	1
   534  00005C                     _BanderaX:
   535                           	opt callstack 0
   536  00005C                     	ds	1
   537                           
   538                           	psect	bssBANK0
   539  0000A2                     __pbssBANK0:
   540                           	opt callstack 0
   541  0000A2                     fabsf@F463:
   542                           	opt callstack 0
   543  0000A2                     	ds	4
   544  0000A6                     _Distancia:
   545                           	opt callstack 0
   546  0000A6                     	ds	4
   547  0000AA                     _coordenada_anteriorY:
   548                           	opt callstack 0
   549  0000AA                     	ds	2
   550  0000AC                     _coordenada_anteriorX:
   551                           	opt callstack 0
   552  0000AC                     	ds	2
   553  0000AE                     _DeltaY:
   554                           	opt callstack 0
   555  0000AE                     	ds	2
   556  0000B0                     _DeltaX:
   557                           	opt callstack 0
   558  0000B0                     	ds	2
   559  0000B2                     _PasosY:
   560                           	opt callstack 0
   561  0000B2                     	ds	2
   562  0000B4                     _PasosX:
   563                           	opt callstack 0
   564  0000B4                     	ds	2
   565  0000B6                     _pasos_convertidos:
   566                           	opt callstack 0
   567  0000B6                     	ds	2
   568  0000B8                     _Coordenadas_mal:
   569                           	opt callstack 0
   570  0000B8                     	ds	1
   571  0000B9                     _Coordenadas_fuera:
   572                           	opt callstack 0
   573  0000B9                     	ds	1
   574  0000BA                     _Direccion_Memoria:
   575                           	opt callstack 0
   576  0000BA                     	ds	1
   577  0000BB                     _oneshotY:
   578                           	opt callstack 0
   579  0000BB                     	ds	1
   580  0000BC                     _oneshotX:
   581                           	opt callstack 0
   582  0000BC                     	ds	1
   583  0000BD                     _coordenada_setpoint:
   584                           	opt callstack 0
   585  0000BD                     	ds	11
   586  0000C8                     _coordenada_array:
   587                           	opt callstack 0
   588  0000C8                     	ds	7
   589  0000CF                     _CoordenadaZ:
   590                           	opt callstack 0
   591  0000CF                     	ds	2
   592  0000D1                     _CoordenadaY:
   593                           	opt callstack 0
   594  0000D1                     	ds	2
   595  0000D3                     _CoordenadaX:
   596                           	opt callstack 0
   597  0000D3                     	ds	2
   598                           
   599                           	psect	cstackBANK0
   600  000060                     __pcstackBANK0:
   601                           	opt callstack 0
   602  000060                     ??_Usart_Interface_Flash:
   603  000060                     ?_PWM_OneshotX:
   604                           	opt callstack 0
   605  000060                     ?_PWM_OneshotY:
   606                           	opt callstack 0
   607  000060                     ?_isspace:
   608                           	opt callstack 0
   609  000060                     ?_isdigit:
   610                           	opt callstack 0
   611  000060                     ?___wmul:
   612                           	opt callstack 0
   613  000060                     ?___aldiv:
   614                           	opt callstack 0
   615  000060                     ?___xxtofl:
   616                           	opt callstack 0
   617  000060                     USART_TxC@data:
   618                           	opt callstack 0
   619  000060                     EEPROM_Rx@direccion:
   620                           	opt callstack 0
   621  000060                     EEPROM_Tx@dato:
   622                           	opt callstack 0
   623  000060                     Usart_Interface_ON@color:
   624                           	opt callstack 0
   625  000060                     PWM_OneshotX@countX:
   626                           	opt callstack 0
   627  000060                     PWM_OneshotY@countY:
   628                           	opt callstack 0
   629  000060                     USART_TxS@str:
   630                           	opt callstack 0
   631  000060                     USART_RxS@pointer:
   632                           	opt callstack 0
   633  000060                     Serial_RangosCoordenadas@C:
   634                           	opt callstack 0
   635  000060                     Motor_Calcular_PasosX@coordenada_actualX:
   636                           	opt callstack 0
   637  000060                     Motor_Calcular_PasosY@coordenada_actualY:
   638                           	opt callstack 0
   639  000060                     ___wmul@multiplier:
   640                           	opt callstack 0
   641  000060                     isdigit@c:
   642                           	opt callstack 0
   643  000060                     isspace@c:
   644                           	opt callstack 0
   645  000060                     ___aldiv@dividend:
   646                           	opt callstack 0
   647  000060                     ___xxtofl@val:
   648                           	opt callstack 0
   649                           
   650                           ; 4 bytes @ 0x0
   651  000060                     	ds	1
   652  000061                     EEPROM_Tx@direccion:
   653                           	opt callstack 0
   654                           
   655                           ; 1 bytes @ 0x1
   656  000061                     	ds	1
   657  000062                     ??_Motor_Calcular_PasosX:
   658  000062                     ??_Motor_Calcular_PasosY:
   659  000062                     ??_isspace:
   660  000062                     ??_isdigit:
   661  000062                     ??_USART_RxS:
   662  000062                     Usart_Interface_Flash@color:
   663                           	opt callstack 0
   664  000062                     PWM_GeneratePulsos@pulsosX:
   665                           	opt callstack 0
   666  000062                     USART_TxS@length:
   667                           	opt callstack 0
   668  000062                     ___wmul@multiplicand:
   669                           	opt callstack 0
   670                           
   671                           ; 2 bytes @ 0x2
   672  000062                     	ds	2
   673  000064                     ??_USART_TxS:
   674  000064                     ??___xxtofl:
   675  000064                     PWM_GeneratePulsos@pulsosY:
   676                           	opt callstack 0
   677  000064                     ___wmul@product:
   678                           	opt callstack 0
   679  000064                     ___aldiv@divisor:
   680                           	opt callstack 0
   681                           
   682                           ; 4 bytes @ 0x4
   683  000064                     	ds	1
   684  000065                     USART_RxS@length:
   685                           	opt callstack 0
   686                           
   687                           ; 1 bytes @ 0x5
   688  000065                     	ds	1
   689  000066                     ??_PWM_GeneratePulsos:
   690  000066                     _isspace$2735:
   691                           	opt callstack 0
   692  000066                     USART_TxS@i:
   693                           	opt callstack 0
   694  000066                     USART_RxS@i:
   695                           	opt callstack 0
   696                           
   697                           ; 2 bytes @ 0x6
   698  000066                     	ds	1
   699  000067                     ?_atoi:
   700                           	opt callstack 0
   701  000067                     PWM_GeneratePulsos@Oupcode:
   702                           	opt callstack 0
   703  000067                     atoi@s:
   704                           	opt callstack 0
   705                           
   706                           ; 2 bytes @ 0x7
   707  000067                     	ds	1
   708  000068                     ??_Actuator_Touch:
   709  000068                     ??_Seria_Decodificacion_Memoria:
   710  000068                     ___aldiv@counter:
   711                           	opt callstack 0
   712  000068                     ___xxtofl@sign:
   713                           	opt callstack 0
   714  000068                     PWM_GeneratePulsos@countX:
   715                           	opt callstack 0
   716  000068                     Serial_Escritura_Memoria@string_setpoint:
   717                           	opt callstack 0
   718                           
   719                           ; 2 bytes @ 0x8
   720  000068                     	ds	1
   721  000069                     ??_atoi:
   722  000069                     ___aldiv@sign:
   723                           	opt callstack 0
   724  000069                     ___xxtofl@exp:
   725                           	opt callstack 0
   726                           
   727                           ; 1 bytes @ 0x9
   728  000069                     	ds	1
   729  00006A                     ??_Serial_Escritura_Memoria:
   730  00006A                     Seria_Decodificacion_Memoria@direccion:
   731                           	opt callstack 0
   732  00006A                     PWM_GeneratePulsos@countY:
   733                           	opt callstack 0
   734  00006A                     ___aldiv@quotient:
   735                           	opt callstack 0
   736  00006A                     ___xxtofl@arg:
   737                           	opt callstack 0
   738                           
   739                           ; 4 bytes @ 0xA
   740  00006A                     	ds	2
   741  00006C                     Serial_Escritura_Memoria@direccion:
   742                           	opt callstack 0
   743                           
   744                           ; 1 bytes @ 0xC
   745  00006C                     	ds	1
   746  00006D                     Serial_Escritura_Memoria@direccionFinal:
   747                           	opt callstack 0
   748  00006D                     atoi@neg:
   749                           	opt callstack 0
   750                           
   751                           ; 2 bytes @ 0xD
   752  00006D                     	ds	1
   753  00006E                     ?___fldiv:
   754                           	opt callstack 0
   755  00006E                     Serial_Escritura_Memoria@i:
   756                           	opt callstack 0
   757  00006E                     USART_Init@BAUD:
   758                           	opt callstack 0
   759  00006E                     ___fldiv@b:
   760                           	opt callstack 0
   761                           
   762                           ; 4 bytes @ 0xE
   763  00006E                     	ds	1
   764  00006F                     _atoi$2706:
   765                           	opt callstack 0
   766                           
   767                           ; 2 bytes @ 0xF
   768  00006F                     	ds	1
   769  000070                     Serial_Escritura_Memoria@i_1456:
   770                           	opt callstack 0
   771                           
   772                           ; 2 bytes @ 0x10
   773  000070                     	ds	1
   774  000071                     _atoi$2708:
   775                           	opt callstack 0
   776                           
   777                           ; 2 bytes @ 0x11
   778  000071                     	ds	1
   779  000072                     Serial_Escritura_Memoria@i_1458:
   780                           	opt callstack 0
   781  000072                     ___fldiv@a:
   782                           	opt callstack 0
   783  000072                     _USART_Init$3107:
   784                           	opt callstack 0
   785                           
   786                           ; 4 bytes @ 0x12
   787  000072                     	ds	1
   788  000073                     _atoi$2707:
   789                           	opt callstack 0
   790                           
   791                           ; 1 bytes @ 0x13
   792  000073                     	ds	1
   793  000074                     atoi@n:
   794                           	opt callstack 0
   795                           
   796                           ; 2 bytes @ 0x14
   797  000074                     	ds	2
   798  000076                     ??___fldiv:
   799  000076                     Serial_DecodificacionX@string_coordenada:
   800                           	opt callstack 0
   801  000076                     Serial_DecodificacionY@string_coordenada:
   802                           	opt callstack 0
   803  000076                     Serial_Lectura_MemoriaX@pointerCX:
   804                           	opt callstack 0
   805  000076                     Serial_Lectura_MemoriaY@pointerCY:
   806                           	opt callstack 0
   807  000076                     Serial_Lectura_MemoriaZ@pointerCZ:
   808                           	opt callstack 0
   809                           
   810                           ; 2 bytes @ 0x16
   811  000076                     	ds	2
   812  000078                     Serial_DecodificacionX@pointerCX:
   813                           	opt callstack 0
   814  000078                     Serial_DecodificacionY@pointerCY:
   815                           	opt callstack 0
   816                           
   817                           ; 2 bytes @ 0x18
   818  000078                     	ds	1
   819  000079                     Serial_Lectura_MemoriaX@direccion:
   820                           	opt callstack 0
   821  000079                     Serial_Lectura_MemoriaY@direccion:
   822                           	opt callstack 0
   823  000079                     Serial_Lectura_MemoriaZ@direccion:
   824                           	opt callstack 0
   825                           
   826                           ; 1 bytes @ 0x19
   827  000079                     	ds	1
   828  00007A                     ??_Serial_DecodificacionY:
   829  00007A                     Serial_Lectura_MemoriaX@direccionX:
   830                           	opt callstack 0
   831  00007A                     Serial_Lectura_MemoriaY@direccionY:
   832                           	opt callstack 0
   833  00007A                     Serial_Lectura_MemoriaZ@direccionZ:
   834                           	opt callstack 0
   835  00007A                     ___fldiv@rem:
   836                           	opt callstack 0
   837                           
   838                           ; 4 bytes @ 0x1A
   839  00007A                     	ds	1
   840  00007B                     Serial_DecodificacionX@coordenadaX:
   841                           	opt callstack 0
   842  00007B                     Serial_Lectura_MemoriaX@coordenadaX:
   843                           	opt callstack 0
   844  00007B                     Serial_Lectura_MemoriaY@coordenadaY:
   845                           	opt callstack 0
   846  00007B                     Serial_Lectura_MemoriaZ@coordenadaZ:
   847                           	opt callstack 0
   848                           
   849                           ; 3 bytes @ 0x1B
   850  00007B                     	ds	1
   851  00007C                     Serial_DecodificacionY@coordenadaY:
   852                           	opt callstack 0
   853                           
   854                           ; 3 bytes @ 0x1C
   855  00007C                     	ds	2
   856  00007E                     ___fldiv@sign:
   857                           	opt callstack 0
   858  00007E                     Serial_DecodificacionX@i:
   859                           	opt callstack 0
   860  00007E                     Serial_Lectura_MemoriaX@i:
   861                           	opt callstack 0
   862  00007E                     Serial_Lectura_MemoriaY@i:
   863                           	opt callstack 0
   864  00007E                     Serial_Lectura_MemoriaZ@i:
   865                           	opt callstack 0
   866                           
   867                           ; 2 bytes @ 0x1E
   868  00007E                     	ds	1
   869  00007F                     Serial_DecodificacionY@i:
   870                           	opt callstack 0
   871  00007F                     ___fldiv@new_exp:
   872                           	opt callstack 0
   873                           
   874                           ; 2 bytes @ 0x1F
   875  00007F                     	ds	1
   876  000080                     Serial_DecodificacionX@i_1391:
   877                           	opt callstack 0
   878  000080                     Serial_Lectura_MemoriaX@i_1431:
   879                           	opt callstack 0
   880  000080                     Serial_Lectura_MemoriaY@i_1439:
   881                           	opt callstack 0
   882  000080                     Serial_Lectura_MemoriaZ@i_1447:
   883                           	opt callstack 0
   884                           
   885                           ; 2 bytes @ 0x20
   886  000080                     	ds	1
   887  000081                     Serial_DecodificacionY@i_1397:
   888                           	opt callstack 0
   889  000081                     ___fldiv@grs:
   890                           	opt callstack 0
   891                           
   892                           ; 4 bytes @ 0x21
   893  000081                     	ds	4
   894  000085                     ___fldiv@bexp:
   895                           	opt callstack 0
   896                           
   897                           ; 1 bytes @ 0x25
   898  000085                     	ds	1
   899  000086                     ___fldiv@aexp:
   900                           	opt callstack 0
   901                           
   902                           ; 1 bytes @ 0x26
   903  000086                     	ds	1
   904  000087                     ?___fltol:
   905                           	opt callstack 0
   906  000087                     ___fltol@f1:
   907                           	opt callstack 0
   908                           
   909                           ; 4 bytes @ 0x27
   910  000087                     	ds	4
   911  00008B                     ??___fltol:
   912                           
   913                           ; 1 bytes @ 0x2B
   914  00008B                     	ds	4
   915  00008F                     ___fltol@sign1:
   916                           	opt callstack 0
   917                           
   918                           ; 1 bytes @ 0x2F
   919  00008F                     	ds	1
   920  000090                     ___fltol@exp1:
   921                           	opt callstack 0
   922                           
   923                           ; 1 bytes @ 0x30
   924  000090                     	ds	1
   925  000091                     ?_Motor_Conversion:
   926                           	opt callstack 0
   927  000091                     Motor_Conversion@Coordenada:
   928                           	opt callstack 0
   929                           
   930                           ; 2 bytes @ 0x31
   931  000091                     	ds	2
   932  000093                     Motor_Conversion@conversion:
   933                           	opt callstack 0
   934                           
   935                           ; 4 bytes @ 0x33
   936  000093                     	ds	4
   937  000097                     Motor_Movimiento@Motor_CoordenadaX:
   938                           	opt callstack 0
   939                           
   940                           ; 2 bytes @ 0x37
   941  000097                     	ds	2
   942  000099                     Motor_Movimiento@Motor_CoordenadaY:
   943                           	opt callstack 0
   944                           
   945                           ; 2 bytes @ 0x39
   946  000099                     	ds	2
   947  00009B                     Motor_Movimiento@Oupcode:
   948                           	opt callstack 0
   949                           
   950                           ; 1 bytes @ 0x3B
   951  00009B                     	ds	1
   952  00009C                     ??_Serial_Oupcode:
   953                           
   954                           ; 1 bytes @ 0x3C
   955  00009C                     	ds	2
   956  00009E                     Serial_Oupcode@instruction_counter:
   957                           	opt callstack 0
   958                           
   959                           ; 1 bytes @ 0x3E
   960  00009E                     	ds	1
   961  00009F                     Serial_Oupcode@Oupcode:
   962                           	opt callstack 0
   963                           
   964                           ; 1 bytes @ 0x3F
   965  00009F                     	ds	1
   966  0000A0                     ??_main:
   967                           
   968                           ; 1 bytes @ 0x40
   969  0000A0                     	ds	2
   970                           
   971                           	psect	cstackCOMRAM
   972  000001                     __pcstackCOMRAM:
   973                           	opt callstack 0
   974  000001                     ?i2_PWM_OneshotX:
   975                           	opt callstack 0
   976  000001                     ?i2_PWM_OneshotY:
   977                           	opt callstack 0
   978  000001                     ?i2___xxtofl:
   979                           	opt callstack 0
   980  000001                     i2PWM_OneshotX@countX:
   981                           	opt callstack 0
   982  000001                     i2PWM_OneshotY@countY:
   983                           	opt callstack 0
   984  000001                     i2___xxtofl@val:
   985                           	opt callstack 0
   986                           
   987                           ; 4 bytes @ 0x0
   988  000001                     	ds	2
   989  000003                     i2PWM_GeneratePulsos@pulsosX:
   990                           	opt callstack 0
   991                           
   992                           ; 2 bytes @ 0x2
   993  000003                     	ds	2
   994  000005                     ??i2___xxtofl:
   995  000005                     i2PWM_GeneratePulsos@pulsosY:
   996                           	opt callstack 0
   997                           
   998                           ; 2 bytes @ 0x4
   999  000005                     	ds	2
  1000  000007                     ??i2_PWM_GeneratePulsos:
  1001                           
  1002                           ; 1 bytes @ 0x6
  1003  000007                     	ds	1
  1004  000008                     i2PWM_GeneratePulsos@Oupcode:
  1005                           	opt callstack 0
  1006                           
  1007                           ; 1 bytes @ 0x7
  1008  000008                     	ds	1
  1009  000009                     i2___xxtofl@sign:
  1010                           	opt callstack 0
  1011  000009                     i2PWM_GeneratePulsos@countX:
  1012                           	opt callstack 0
  1013                           
  1014                           ; 2 bytes @ 0x8
  1015  000009                     	ds	1
  1016  00000A                     i2___xxtofl@exp:
  1017                           	opt callstack 0
  1018                           
  1019                           ; 1 bytes @ 0x9
  1020  00000A                     	ds	1
  1021  00000B                     i2PWM_GeneratePulsos@countY:
  1022                           	opt callstack 0
  1023  00000B                     i2___xxtofl@arg:
  1024                           	opt callstack 0
  1025                           
  1026                           ; 4 bytes @ 0xA
  1027  00000B                     	ds	4
  1028  00000F                     ?i2___fldiv:
  1029                           	opt callstack 0
  1030  00000F                     i2___fldiv@b:
  1031                           	opt callstack 0
  1032                           
  1033                           ; 4 bytes @ 0xE
  1034  00000F                     	ds	4
  1035  000013                     i2___fldiv@a:
  1036                           	opt callstack 0
  1037                           
  1038                           ; 4 bytes @ 0x12
  1039  000013                     	ds	4
  1040  000017                     ??i2___fldiv:
  1041                           
  1042                           ; 1 bytes @ 0x16
  1043  000017                     	ds	4
  1044  00001B                     i2___fldiv@rem:
  1045                           	opt callstack 0
  1046                           
  1047                           ; 4 bytes @ 0x1A
  1048  00001B                     	ds	4
  1049  00001F                     i2___fldiv@sign:
  1050                           	opt callstack 0
  1051                           
  1052                           ; 1 bytes @ 0x1E
  1053  00001F                     	ds	1
  1054  000020                     i2___fldiv@new_exp:
  1055                           	opt callstack 0
  1056                           
  1057                           ; 2 bytes @ 0x1F
  1058  000020                     	ds	2
  1059  000022                     i2___fldiv@grs:
  1060                           	opt callstack 0
  1061                           
  1062                           ; 4 bytes @ 0x21
  1063  000022                     	ds	4
  1064  000026                     i2___fldiv@bexp:
  1065                           	opt callstack 0
  1066                           
  1067                           ; 1 bytes @ 0x25
  1068  000026                     	ds	1
  1069  000027                     i2___fldiv@aexp:
  1070                           	opt callstack 0
  1071                           
  1072                           ; 1 bytes @ 0x26
  1073  000027                     	ds	1
  1074  000028                     ?i2___fltol:
  1075                           	opt callstack 0
  1076  000028                     i2___fltol@f1:
  1077                           	opt callstack 0
  1078                           
  1079                           ; 4 bytes @ 0x27
  1080  000028                     	ds	4
  1081  00002C                     ??i2___fltol:
  1082                           
  1083                           ; 1 bytes @ 0x2B
  1084  00002C                     	ds	4
  1085  000030                     i2___fltol@sign1:
  1086                           	opt callstack 0
  1087                           
  1088                           ; 1 bytes @ 0x2F
  1089  000030                     	ds	1
  1090  000031                     i2___fltol@exp1:
  1091                           	opt callstack 0
  1092                           
  1093                           ; 1 bytes @ 0x30
  1094  000031                     	ds	1
  1095  000032                     ?i2_Motor_Conversion:
  1096                           	opt callstack 0
  1097  000032                     i2Motor_Conversion@Coordenada:
  1098                           	opt callstack 0
  1099                           
  1100                           ; 2 bytes @ 0x31
  1101  000032                     	ds	2
  1102  000034                     i2Motor_Conversion@conversion:
  1103                           	opt callstack 0
  1104                           
  1105                           ; 4 bytes @ 0x33
  1106  000034                     	ds	4
  1107  000038                     Motor_Movimiento_Home@Motor_CoordenadaX:
  1108                           	opt callstack 0
  1109                           
  1110                           ; 2 bytes @ 0x37
  1111  000038                     	ds	2
  1112  00003A                     Motor_Movimiento_Home@Motor_CoordenadaY:
  1113                           	opt callstack 0
  1114                           
  1115                           ; 2 bytes @ 0x39
  1116  00003A                     	ds	2
  1117  00003C                     Motor_Movimiento_Home@Oupcode:
  1118                           	opt callstack 0
  1119                           
  1120                           ; 1 bytes @ 0x3B
  1121  00003C                     	ds	1
  1122  00003D                     ??_INT1_ACTION:
  1123  00003D                     ??_INT2_ACTION:
  1124                           
  1125                           ; 1 bytes @ 0x3C
  1126  00003D                     	ds	2
  1127  00003F                     ??_INT_isr:
  1128                           
  1129                           ; 1 bytes @ 0x3E
  1130  00003F                     	ds	1
  1131                           
  1132 ;;
  1133 ;;Main: autosize = 0, tempsize = 2, incstack = 0, save=0
  1134 ;;
  1135 ;; *************** function _main *****************
  1136 ;; Defined at:
  1137 ;;		line 20 in file "main.c"
  1138 ;; Parameters:    Size  Location     Type
  1139 ;;		None
  1140 ;; Auto vars:     Size  Location     Type
  1141 ;;		None
  1142 ;; Return value:  Size  Location     Type
  1143 ;;                  1    wreg      void 
  1144 ;; Registers used:
  1145 ;;		wreg, fsr0l, fsr0h, fsr1l, fsr1h, fsr2l, fsr2h, status,2, status,0, tblptrl, tblptrh, tblptru, prodl, prodh, cstack
  1146 ;; Tracked objects:
  1147 ;;		On entry : 0/0
  1148 ;;		On exit  : 0/0
  1149 ;;		Unchanged: 0/0
  1150 ;; Data sizes:     COMRAM   BANK0   BANK1   BANK2   BANK3   BANK4   BANK5   BANK6   BANK7
  1151 ;;      Params:         0       0       0       0       0       0       0       0       0
  1152 ;;      Locals:         0       0       0       0       0       0       0       0       0
  1153 ;;      Temps:          0       2       0       0       0       0       0       0       0
  1154 ;;      Totals:         0       2       0       0       0       0       0       0       0
  1155 ;;Total ram usage:        2 bytes
  1156 ;; Hardware stack levels required when called:    9
  1157 ;; This function calls:
  1158 ;;		_GPIO_init_PORTA
  1159 ;;		_GPIO_init_PORTB
  1160 ;;		_GPIO_init_PORTC
  1161 ;;		_GPIO_init_PORTD
  1162 ;;		_GPIO_init_PORTE
  1163 ;;		_Int_Ext
  1164 ;;		_Serial_Oupcode
  1165 ;;		_USART_Init
  1166 ;;		_USART_TxS
  1167 ;;		_Usart_Interface_Flash
  1168 ;;		_Usart_Interface_ON
  1169 ;;		_main_Home
  1170 ;; This function is called by:
  1171 ;;		Startup code after reset
  1172 ;; This function uses a non-reentrant model
  1173 ;;
  1174                           
  1175                           	psect	text0
  1176  001F96                     __ptext0:
  1177                           	opt callstack 0
  1178  001F96                     _main:
  1179                           	opt callstack 22
  1180  001F96                     
  1181                           ;main.c: 21:     OSCCON = 0x72;
  1182  001F96  0E72               	movlw	114
  1183  001F98  6ED3               	movwf	211,c	;volatile
  1184  001F9A                     
  1185                           ;main.c: 22:     GPIO_init_PORTA();
  1186  001F9A  EC55  F019         	call	_GPIO_init_PORTA	;wreg free
  1187  001F9E                     
  1188                           ;main.c: 23:     GPIO_init_PORTB();
  1189  001F9E  EC7D  F019         	call	_GPIO_init_PORTB	;wreg free
  1190  001FA2                     
  1191                           ;main.c: 24:    GPIO_init_PORTC();
  1192  001FA2  ECB7  F019         	call	_GPIO_init_PORTC	;wreg free
  1193  001FA6                     
  1194                           ;main.c: 25:    GPIO_init_PORTD();
  1195  001FA6  EC47  F019         	call	_GPIO_init_PORTD	;wreg free
  1196  001FAA                     
  1197                           ;main.c: 26:     GPIO_init_PORTE();
  1198  001FAA  ECAD  F019         	call	_GPIO_init_PORTE	;wreg free
  1199  001FAE  988C               	bcf	140,4,c	;volatile
  1200  001FB0                     
  1201                           ;main.c: 28:     USART_Init(9600);
  1202  001FB0  0E80               	movlw	128
  1203  001FB2  0100               	movlb	0	; () banked
  1204  001FB4  6F6E               	movwf	USART_Init@BAUD& (0+255),b
  1205  001FB6  0E25               	movlw	37
  1206  001FB8  6F6F               	movwf	(USART_Init@BAUD+1)& (0+255),b
  1207  001FBA  0E00               	movlw	0
  1208  001FBC  6F70               	movwf	(USART_Init@BAUD+2)& (0+255),b
  1209  001FBE  0E00               	movlw	0
  1210  001FC0  6F71               	movwf	(USART_Init@BAUD+3)& (0+255),b
  1211  001FC2  EC7C  F015         	call	_USART_Init	;wreg free
  1212  001FC6                     
  1213                           ;main.c: 29:     Int_Ext();
  1214  001FC6  ECF6  F018         	call	_Int_Ext	;wreg free
  1215  001FCA                     
  1216                           ;main.c: 30:     USART_TxS("WELCOME TO SPARC\n", sizeof ("WELCOME TO SPARC\n") - 1);
  1217  001FCA  0E7D               	movlw	low STR_44
  1218  001FCC  0100               	movlb	0	; () banked
  1219  001FCE  6F60               	movwf	USART_TxS@str& (0+255),b
  1220  001FD0  0E08               	movlw	high STR_44
  1221  001FD2  6F61               	movwf	(USART_TxS@str+1)& (0+255),b
  1222  001FD4  0E00               	movlw	0
  1223  001FD6  6F63               	movwf	(USART_TxS@length+1)& (0+255),b
  1224  001FD8  0E11               	movlw	17
  1225  001FDA  6F62               	movwf	USART_TxS@length& (0+255),b
  1226  001FDC  ECF1  F015         	call	_USART_TxS	;wreg free
  1227  001FE0                     
  1228                           ;main.c: 31:    Usart_Interface_ON('A');
  1229  001FE0  0E41               	movlw	65
  1230  001FE2  EC26  F017         	call	_Usart_Interface_ON
  1231  001FE6                     
  1232                           ;main.c: 32:     USART_TxS("W\n", sizeof ("W\n") - 1);
  1233  001FE6  0EE9               	movlw	low STR_2
  1234  001FE8  0100               	movlb	0	; () banked
  1235  001FEA  6F60               	movwf	USART_TxS@str& (0+255),b
  1236  001FEC  0E08               	movlw	high STR_2
  1237  001FEE  6F61               	movwf	(USART_TxS@str+1)& (0+255),b
  1238  001FF0  0E00               	movlw	0
  1239  001FF2  6F63               	movwf	(USART_TxS@length+1)& (0+255),b
  1240  001FF4  0E02               	movlw	2
  1241  001FF6  6F62               	movwf	USART_TxS@length& (0+255),b
  1242  001FF8  ECF1  F015         	call	_USART_TxS	;wreg free
  1243  001FFC                     
  1244                           ;main.c: 33:     main_Home();
  1245  001FFC  EC4C  F017         	call	_main_Home	;wreg free
  1246  002000                     
  1247                           ;main.c: 34:     _delay((unsigned long)((200)*(8000000/4000.0)));
  1248  002000  0E03               	movlw	3
  1249  002002  0100               	movlb	0	; () banked
  1250  002004  6FA1               	movwf	(??_main+1)& (0+255),b
  1251  002006  0E08               	movlw	8
  1252  002008  6FA0               	movwf	??_main& (0+255),b
  1253  00200A  0E77               	movlw	119
  1254  00200C                     u5567:
  1255  00200C  2EE8               	decfsz	wreg,f,c
  1256  00200E  D7FE               	bra	u5567
  1257  002010  2FA0               	decfsz	??_main& (0+255),f,b
  1258  002012  D7FC               	bra	u5567
  1259  002014  2FA1               	decfsz	(??_main+1)& (0+255),f,b
  1260  002016  D7FA               	bra	u5567
  1261  002018                     
  1262                           ;main.c: 35:     _delay((unsigned long)((200)*(8000000/4000.0)));
  1263  002018  0E03               	movlw	3
  1264  00201A  0100               	movlb	0	; () banked
  1265  00201C  6FA1               	movwf	(??_main+1)& (0+255),b
  1266  00201E  0E08               	movlw	8
  1267  002020  6FA0               	movwf	??_main& (0+255),b
  1268  002022  0E77               	movlw	119
  1269  002024                     u5577:
  1270  002024  2EE8               	decfsz	wreg,f,c
  1271  002026  D7FE               	bra	u5577
  1272  002028  2FA0               	decfsz	??_main& (0+255),f,b
  1273  00202A  D7FC               	bra	u5577
  1274  00202C  2FA1               	decfsz	(??_main+1)& (0+255),f,b
  1275  00202E  D7FA               	bra	u5577
  1276  002030                     
  1277                           ;main.c: 36:     _delay((unsigned long)((200)*(8000000/4000.0)));
  1278  002030  0E03               	movlw	3
  1279  002032  0100               	movlb	0	; () banked
  1280  002034  6FA1               	movwf	(??_main+1)& (0+255),b
  1281  002036  0E08               	movlw	8
  1282  002038  6FA0               	movwf	??_main& (0+255),b
  1283  00203A  0E77               	movlw	119
  1284  00203C                     u5587:
  1285  00203C  2EE8               	decfsz	wreg,f,c
  1286  00203E  D7FE               	bra	u5587
  1287  002040  2FA0               	decfsz	??_main& (0+255),f,b
  1288  002042  D7FC               	bra	u5587
  1289  002044  2FA1               	decfsz	(??_main+1)& (0+255),f,b
  1290  002046  D7FA               	bra	u5587
  1291  002048                     
  1292                           ;main.c: 37:     Usart_Interface_ON('V');
  1293  002048  0E56               	movlw	86
  1294  00204A  EC26  F017         	call	_Usart_Interface_ON
  1295  00204E                     
  1296                           ;main.c: 38:      _delay((unsigned long)((200)*(8000000/4000.0)));
  1297  00204E  0E03               	movlw	3
  1298  002050  0100               	movlb	0	; () banked
  1299  002052  6FA1               	movwf	(??_main+1)& (0+255),b
  1300  002054  0E08               	movlw	8
  1301  002056  6FA0               	movwf	??_main& (0+255),b
  1302  002058  0E77               	movlw	119
  1303  00205A                     u5597:
  1304  00205A  2EE8               	decfsz	wreg,f,c
  1305  00205C  D7FE               	bra	u5597
  1306  00205E  2FA0               	decfsz	??_main& (0+255),f,b
  1307  002060  D7FC               	bra	u5597
  1308  002062  2FA1               	decfsz	(??_main+1)& (0+255),f,b
  1309  002064  D7FA               	bra	u5597
  1310  002066                     
  1311                           ;main.c: 39:     _delay((unsigned long)((200)*(8000000/4000.0)));
  1312  002066  0E03               	movlw	3
  1313  002068  0100               	movlb	0	; () banked
  1314  00206A  6FA1               	movwf	(??_main+1)& (0+255),b
  1315  00206C  0E08               	movlw	8
  1316  00206E  6FA0               	movwf	??_main& (0+255),b
  1317  002070  0E77               	movlw	119
  1318  002072                     u5607:
  1319  002072  2EE8               	decfsz	wreg,f,c
  1320  002074  D7FE               	bra	u5607
  1321  002076  2FA0               	decfsz	??_main& (0+255),f,b
  1322  002078  D7FC               	bra	u5607
  1323  00207A  2FA1               	decfsz	(??_main+1)& (0+255),f,b
  1324  00207C  D7FA               	bra	u5607
  1325  00207E                     
  1326                           ;main.c: 40:     _delay((unsigned long)((200)*(8000000/4000.0)));
  1327  00207E  0E03               	movlw	3
  1328  002080  0100               	movlb	0	; () banked
  1329  002082  6FA1               	movwf	(??_main+1)& (0+255),b
  1330  002084  0E08               	movlw	8
  1331  002086  6FA0               	movwf	??_main& (0+255),b
  1332  002088  0E77               	movlw	119
  1333  00208A                     u5617:
  1334  00208A  2EE8               	decfsz	wreg,f,c
  1335  00208C  D7FE               	bra	u5617
  1336  00208E  2FA0               	decfsz	??_main& (0+255),f,b
  1337  002090  D7FC               	bra	u5617
  1338  002092  2FA1               	decfsz	(??_main+1)& (0+255),f,b
  1339  002094  D7FA               	bra	u5617
  1340  002096                     
  1341                           ;main.c: 41:      Usart_Interface_Flash('R');
  1342  002096  0E52               	movlw	82
  1343  002098  EC73  F013         	call	_Usart_Interface_Flash
  1344  00209C                     
  1345                           ;main.c: 42:     USART_TxS("C\n", sizeof ("C\n") - 1);
  1346  00209C  0ED7               	movlw	low (STR_30+1)
  1347  00209E  0100               	movlb	0	; () banked
  1348  0020A0  6F60               	movwf	USART_TxS@str& (0+255),b
  1349  0020A2  0E08               	movlw	high (STR_30+1)
  1350  0020A4  6F61               	movwf	(USART_TxS@str+1)& (0+255),b
  1351  0020A6  0E00               	movlw	0
  1352  0020A8  6F63               	movwf	(USART_TxS@length+1)& (0+255),b
  1353  0020AA  0E02               	movlw	2
  1354  0020AC  6F62               	movwf	USART_TxS@length& (0+255),b
  1355  0020AE  ECF1  F015         	call	_USART_TxS	;wreg free
  1356  0020B2                     
  1357                           ;main.c: 44:     Serial_Oupcode();
  1358  0020B2  EC7C  F004         	call	_Serial_Oupcode	;wreg free
  1359  0020B6  EF07  F000         	goto	start
  1360  0020BA                     __end_of_main:
  1361                           	opt callstack 0
  1362                           
  1363 ;; *************** function _main_Home *****************
  1364 ;; Defined at:
  1365 ;;		line 116 in file "main.c"
  1366 ;; Parameters:    Size  Location     Type
  1367 ;;		None
  1368 ;; Auto vars:     Size  Location     Type
  1369 ;;		None
  1370 ;; Return value:  Size  Location     Type
  1371 ;;                  1    wreg      void 
  1372 ;; Registers used:
  1373 ;;		wreg, status,2, cstack
  1374 ;; Tracked objects:
  1375 ;;		On entry : 0/0
  1376 ;;		On exit  : 0/0
  1377 ;;		Unchanged: 0/0
  1378 ;; Data sizes:     COMRAM   BANK0   BANK1   BANK2   BANK3   BANK4   BANK5   BANK6   BANK7
  1379 ;;      Params:         0       0       0       0       0       0       0       0       0
  1380 ;;      Locals:         0       0       0       0       0       0       0       0       0
  1381 ;;      Temps:          0       0       0       0       0       0       0       0       0
  1382 ;;      Totals:         0       0       0       0       0       0       0       0       0
  1383 ;;Total ram usage:        0 bytes
  1384 ;; Hardware stack levels used:    1
  1385 ;; Hardware stack levels required when called:    7
  1386 ;; This function calls:
  1387 ;;		_Motor_Home
  1388 ;; This function is called by:
  1389 ;;		_main
  1390 ;; This function uses a non-reentrant model
  1391 ;;
  1392                           
  1393                           	psect	text1
  1394  002E98                     __ptext1:
  1395                           	opt callstack 0
  1396  002E98                     _main_Home:
  1397                           	opt callstack 23
  1398  002E98                     
  1399                           ;main.c: 117:     while (BanderaX == 0) {
  1400  002E98  EF52  F017         	goto	l5257
  1401  002E9C                     l868:
  1402                           
  1403                           ;main.c: 118:         PORTDbits.RD0 = 0;
  1404  002E9C  9083               	bcf	131,0,c	;volatile
  1405                           
  1406                           ;main.c: 119:         PORTDbits.RD2 = 1;
  1407  002E9E  8483               	bsf	131,2,c	;volatile
  1408  002EA0                     
  1409                           ;main.c: 120:         Motor_Home();
  1410  002EA0  ECCA  F019         	call	_Motor_Home	;wreg free
  1411  002EA4                     l5257:
  1412                           
  1413                           ;main.c: 117:     while (BanderaX == 0) {
  1414  002EA4  505C               	movf	_BanderaX^0,w,c
  1415  002EA6  B4D8               	btfsc	status,2,c
  1416  002EA8  EF58  F017         	goto	u3901
  1417  002EAC  EF5A  F017         	goto	u3900
  1418  002EB0                     u3901:
  1419  002EB0  EF4E  F017         	goto	l868
  1420  002EB4                     u3900:
  1421  002EB4  EF60  F017         	goto	l5261
  1422  002EB8                     l871:
  1423                           
  1424                           ;main.c: 123:         PORTDbits.RD0 = 1;
  1425  002EB8  8083               	bsf	131,0,c	;volatile
  1426                           
  1427                           ;main.c: 124:         PORTDbits.RD2 = 0;
  1428  002EBA  9483               	bcf	131,2,c	;volatile
  1429  002EBC                     
  1430                           ;main.c: 125:         Motor_Home();
  1431  002EBC  ECCA  F019         	call	_Motor_Home	;wreg free
  1432  002EC0                     l5261:
  1433                           
  1434                           ;main.c: 122:     while (BanderaY == 0) {
  1435  002EC0  505B               	movf	_BanderaY^0,w,c
  1436  002EC2  B4D8               	btfsc	status,2,c
  1437  002EC4  EF66  F017         	goto	u3911
  1438  002EC8  EF68  F017         	goto	u3910
  1439  002ECC                     u3911:
  1440  002ECC  EF5C  F017         	goto	l871
  1441  002ED0                     u3910:
  1442  002ED0                     
  1443                           ;main.c: 127:     PORTDbits.RD0 = 1;
  1444  002ED0  8083               	bsf	131,0,c	;volatile
  1445                           
  1446                           ;main.c: 128:     PORTDbits.RD2 = 1;
  1447  002ED2  8483               	bsf	131,2,c	;volatile
  1448                           
  1449                           ;main.c: 129:     T2CONbits.TMR2ON = 0;
  1450  002ED4  94CA               	bcf	202,2,c	;volatile
  1451  002ED6                     
  1452                           ;main.c: 130:     BanderaX = 0;
  1453  002ED6  0E00               	movlw	0
  1454  002ED8  6E5C               	movwf	_BanderaX^0,c
  1455                           
  1456                           ;main.c: 131:     BanderaY = 0;
  1457  002EDA  0E00               	movlw	0
  1458  002EDC  6E5B               	movwf	_BanderaY^0,c
  1459  002EDE  0012               	return		;funcret
  1460  002EE0                     __end_of_main_Home:
  1461                           	opt callstack 0
  1462                           
  1463 ;; *************** function _Motor_Home *****************
  1464 ;; Defined at:
  1465 ;;		line 88 in file "Motor.c"
  1466 ;; Parameters:    Size  Location     Type
  1467 ;;		None
  1468 ;; Auto vars:     Size  Location     Type
  1469 ;;		None
  1470 ;; Return value:  Size  Location     Type
  1471 ;;                  1    wreg      void 
  1472 ;; Registers used:
  1473 ;;		wreg, status,2, cstack
  1474 ;; Tracked objects:
  1475 ;;		On entry : 0/0
  1476 ;;		On exit  : 0/0
  1477 ;;		Unchanged: 0/0
  1478 ;; Data sizes:     COMRAM   BANK0   BANK1   BANK2   BANK3   BANK4   BANK5   BANK6   BANK7
  1479 ;;      Params:         0       0       0       0       0       0       0       0       0
  1480 ;;      Locals:         0       0       0       0       0       0       0       0       0
  1481 ;;      Temps:          0       0       0       0       0       0       0       0       0
  1482 ;;      Totals:         0       0       0       0       0       0       0       0       0
  1483 ;;Total ram usage:        0 bytes
  1484 ;; Hardware stack levels used:    1
  1485 ;; Hardware stack levels required when called:    6
  1486 ;; This function calls:
  1487 ;;		_PWM_InitS
  1488 ;; This function is called by:
  1489 ;;		_main_Home
  1490 ;; This function uses a non-reentrant model
  1491 ;;
  1492                           
  1493                           	psect	text2
  1494  003394                     __ptext2:
  1495                           	opt callstack 0
  1496  003394                     _Motor_Home:
  1497                           	opt callstack 23
  1498  003394                     
  1499                           ;Motor.c: 89:     PORTDbits.RD1 = 1;
  1500  003394  8283               	bsf	131,1,c	;volatile
  1501                           
  1502                           ;Motor.c: 90:     PORTDbits.RD3 = 1;
  1503  003396  8683               	bsf	131,3,c	;volatile
  1504  003398                     
  1505                           ;Motor.c: 91:     PWM_InitS();
  1506  003398  EC29  F019         	call	_PWM_InitS	;wreg free
  1507  00339C                     
  1508                           ;Motor.c: 92:     T2CONbits.TMR2ON = 1;
  1509  00339C  84CA               	bsf	202,2,c	;volatile
  1510  00339E  0012               	return		;funcret
  1511  0033A0                     __end_of_Motor_Home:
  1512                           	opt callstack 0
  1513                           
  1514 ;; *************** function _Usart_Interface_ON *****************
  1515 ;; Defined at:
  1516 ;;		line 24 in file "User_Interface.c"
  1517 ;; Parameters:    Size  Location     Type
  1518 ;;  color           1    wreg     unsigned char 
  1519 ;; Auto vars:     Size  Location     Type
  1520 ;;  color           1    0[BANK0 ] unsigned char 
  1521 ;; Return value:  Size  Location     Type
  1522 ;;                  1    wreg      void 
  1523 ;; Registers used:
  1524 ;;		wreg, status,2, status,0
  1525 ;; Tracked objects:
  1526 ;;		On entry : 0/0
  1527 ;;		On exit  : 0/0
  1528 ;;		Unchanged: 0/0
  1529 ;; Data sizes:     COMRAM   BANK0   BANK1   BANK2   BANK3   BANK4   BANK5   BANK6   BANK7
  1530 ;;      Params:         0       0       0       0       0       0       0       0       0
  1531 ;;      Locals:         0       1       0       0       0       0       0       0       0
  1532 ;;      Temps:          0       0       0       0       0       0       0       0       0
  1533 ;;      Totals:         0       1       0       0       0       0       0       0       0
  1534 ;;Total ram usage:        1 bytes
  1535 ;; Hardware stack levels used:    1
  1536 ;; Hardware stack levels required when called:    5
  1537 ;; This function calls:
  1538 ;;		Nothing
  1539 ;; This function is called by:
  1540 ;;		_main
  1541 ;; This function uses a non-reentrant model
  1542 ;;
  1543                           
  1544                           	psect	text3
  1545  002E4C                     __ptext3:
  1546                           	opt callstack 0
  1547  002E4C                     _Usart_Interface_ON:
  1548                           	opt callstack 25
  1549                           
  1550                           ;incstack = 0
  1551                           ;Usart_Interface_ON@color stored from wreg
  1552  002E4C  0100               	movlb	0	; () banked
  1553  002E4E  6F60               	movwf	Usart_Interface_ON@color& (0+255),b
  1554  002E50                     
  1555                           ;User_Interface.c: 25:     if (color=='A'){
  1556  002E50  0E41               	movlw	65
  1557  002E52  0100               	movlb	0	; () banked
  1558  002E54  1960               	xorwf	Usart_Interface_ON@color& (0+255),w,b
  1559  002E56  A4D8               	btfss	status,2,c
  1560  002E58  EF30  F017         	goto	u3871
  1561  002E5C  EF32  F017         	goto	u3870
  1562  002E60                     u3871:
  1563  002E60  EF35  F017         	goto	l5249
  1564  002E64                     u3870:
  1565  002E64                     
  1566                           ; BSR set to: 0
  1567  002E64  8E8A               	bsf	138,7,c	;volatile
  1568  002E66  EF4B  F017         	goto	l905
  1569  002E6A                     l5249:
  1570                           
  1571                           ; BSR set to: 0
  1572  002E6A  0E56               	movlw	86
  1573  002E6C  1960               	xorwf	Usart_Interface_ON@color& (0+255),w,b
  1574  002E6E  A4D8               	btfss	status,2,c
  1575  002E70  EF3C  F017         	goto	u3881
  1576  002E74  EF3E  F017         	goto	u3880
  1577  002E78                     u3881:
  1578  002E78  EF41  F017         	goto	l5251
  1579  002E7C                     u3880:
  1580  002E7C                     
  1581                           ; BSR set to: 0
  1582  002E7C  8C8A               	bsf	138,6,c	;volatile
  1583  002E7E  EF4B  F017         	goto	l905
  1584  002E82                     l5251:
  1585                           
  1586                           ; BSR set to: 0
  1587  002E82  0E52               	movlw	82
  1588  002E84  1960               	xorwf	Usart_Interface_ON@color& (0+255),w,b
  1589  002E86  A4D8               	btfss	status,2,c
  1590  002E88  EF48  F017         	goto	u3891
  1591  002E8C  EF4A  F017         	goto	u3890
  1592  002E90                     u3891:
  1593  002E90  EF4B  F017         	goto	l905
  1594  002E94                     u3890:
  1595  002E94                     
  1596                           ; BSR set to: 0
  1597  002E94  8A8A               	bsf	138,5,c	;volatile
  1598  002E96                     l905:
  1599                           
  1600                           ; BSR set to: 0
  1601  002E96  0012               	return		;funcret
  1602  002E98                     __end_of_Usart_Interface_ON:
  1603                           	opt callstack 0
  1604                           
  1605 ;; *************** function _Usart_Interface_Flash *****************
  1606 ;; Defined at:
  1607 ;;		line 35 in file "User_Interface.c"
  1608 ;; Parameters:    Size  Location     Type
  1609 ;;  color           1    wreg     unsigned char 
  1610 ;; Auto vars:     Size  Location     Type
  1611 ;;  color           1    2[BANK0 ] unsigned char 
  1612 ;; Return value:  Size  Location     Type
  1613 ;;                  1    wreg      void 
  1614 ;; Registers used:
  1615 ;;		wreg, status,2, status,0
  1616 ;; Tracked objects:
  1617 ;;		On entry : 0/0
  1618 ;;		On exit  : 0/0
  1619 ;;		Unchanged: 0/0
  1620 ;; Data sizes:     COMRAM   BANK0   BANK1   BANK2   BANK3   BANK4   BANK5   BANK6   BANK7
  1621 ;;      Params:         0       0       0       0       0       0       0       0       0
  1622 ;;      Locals:         0       1       0       0       0       0       0       0       0
  1623 ;;      Temps:          0       2       0       0       0       0       0       0       0
  1624 ;;      Totals:         0       3       0       0       0       0       0       0       0
  1625 ;;Total ram usage:        3 bytes
  1626 ;; Hardware stack levels used:    1
  1627 ;; Hardware stack levels required when called:    5
  1628 ;; This function calls:
  1629 ;;		Nothing
  1630 ;; This function is called by:
  1631 ;;		_main
  1632 ;; This function uses a non-reentrant model
  1633 ;;
  1634                           
  1635                           	psect	text4
  1636  0026E6                     __ptext4:
  1637                           	opt callstack 0
  1638  0026E6                     _Usart_Interface_Flash:
  1639                           	opt callstack 25
  1640                           
  1641                           ; BSR set to: 0
  1642                           ;incstack = 0
  1643                           ;Usart_Interface_Flash@color stored from wreg
  1644  0026E6  0100               	movlb	0	; () banked
  1645  0026E8  6F62               	movwf	Usart_Interface_Flash@color& (0+255),b
  1646  0026EA                     
  1647                           ;User_Interface.c: 36:       if (color=='A'){
  1648  0026EA  0E41               	movlw	65
  1649  0026EC  0100               	movlb	0	; () banked
  1650  0026EE  1962               	xorwf	Usart_Interface_Flash@color& (0+255),w,b
  1651  0026F0  A4D8               	btfss	status,2,c
  1652  0026F2  EF7D  F013         	goto	u3921
  1653  0026F6  EF7F  F013         	goto	u3920
  1654  0026FA                     u3921:
  1655  0026FA  EF9B  F013         	goto	l5273
  1656  0026FE                     u3920:
  1657  0026FE                     
  1658                           ; BSR set to: 0
  1659  0026FE  8E8A               	bsf	138,7,c	;volatile
  1660  002700                     
  1661                           ; BSR set to: 0
  1662                           ;User_Interface.c: 38:         _delay((unsigned long)((200)*(8000000/4000.0)));
  1663  002700  0E03               	movlw	3
  1664  002702  0100               	movlb	0	; () banked
  1665  002704  6F61               	movwf	(??_Usart_Interface_Flash+1)& (0+255),b
  1666  002706  0E08               	movlw	8
  1667  002708  6F60               	movwf	??_Usart_Interface_Flash& (0+255),b
  1668  00270A  0E77               	movlw	119
  1669  00270C                     u5627:
  1670  00270C  2EE8               	decfsz	wreg,f,c
  1671  00270E  D7FE               	bra	u5627
  1672  002710  2F60               	decfsz	??_Usart_Interface_Flash& (0+255),f,b
  1673  002712  D7FC               	bra	u5627
  1674  002714  2F61               	decfsz	(??_Usart_Interface_Flash+1)& (0+255),f,b
  1675  002716  D7FA               	bra	u5627
  1676                           
  1677                           ;User_Interface.c: 39:           _delay((unsigned long)((200)*(8000000/4000.0)));
  1678  002718  0E03               	movlw	3
  1679  00271A  0100               	movlb	0	; () banked
  1680  00271C  6F61               	movwf	(??_Usart_Interface_Flash+1)& (0+255),b
  1681  00271E  0E08               	movlw	8
  1682  002720  6F60               	movwf	??_Usart_Interface_Flash& (0+255),b
  1683  002722  0E77               	movlw	119
  1684  002724                     u5637:
  1685  002724  2EE8               	decfsz	wreg,f,c
  1686  002726  D7FE               	bra	u5637
  1687  002728  2F60               	decfsz	??_Usart_Interface_Flash& (0+255),f,b
  1688  00272A  D7FC               	bra	u5637
  1689  00272C  2F61               	decfsz	(??_Usart_Interface_Flash+1)& (0+255),f,b
  1690  00272E  D7FA               	bra	u5637
  1691  002730  9E8A               	bcf	138,7,c	;volatile
  1692  002732  EFE5  F013         	goto	l925
  1693  002736                     l5273:
  1694                           
  1695                           ; BSR set to: 0
  1696  002736  0E56               	movlw	86
  1697  002738  1962               	xorwf	Usart_Interface_Flash@color& (0+255),w,b
  1698  00273A  A4D8               	btfss	status,2,c
  1699  00273C  EFA2  F013         	goto	u3931
  1700  002740  EFA4  F013         	goto	u3930
  1701  002744                     u3931:
  1702  002744  EFC0  F013         	goto	l5279
  1703  002748                     u3930:
  1704  002748                     
  1705                           ; BSR set to: 0
  1706  002748  8C8A               	bsf	138,6,c	;volatile
  1707  00274A                     
  1708                           ; BSR set to: 0
  1709                           ;User_Interface.c: 43:         _delay((unsigned long)((200)*(8000000/4000.0)));
  1710  00274A  0E03               	movlw	3
  1711  00274C  0100               	movlb	0	; () banked
  1712  00274E  6F61               	movwf	(??_Usart_Interface_Flash+1)& (0+255),b
  1713  002750  0E08               	movlw	8
  1714  002752  6F60               	movwf	??_Usart_Interface_Flash& (0+255),b
  1715  002754  0E77               	movlw	119
  1716  002756                     u5647:
  1717  002756  2EE8               	decfsz	wreg,f,c
  1718  002758  D7FE               	bra	u5647
  1719  00275A  2F60               	decfsz	??_Usart_Interface_Flash& (0+255),f,b
  1720  00275C  D7FC               	bra	u5647
  1721  00275E  2F61               	decfsz	(??_Usart_Interface_Flash+1)& (0+255),f,b
  1722  002760  D7FA               	bra	u5647
  1723                           
  1724                           ;User_Interface.c: 44:           _delay((unsigned long)((200)*(8000000/4000.0)));
  1725  002762  0E03               	movlw	3
  1726  002764  0100               	movlb	0	; () banked
  1727  002766  6F61               	movwf	(??_Usart_Interface_Flash+1)& (0+255),b
  1728  002768  0E08               	movlw	8
  1729  00276A  6F60               	movwf	??_Usart_Interface_Flash& (0+255),b
  1730  00276C  0E77               	movlw	119
  1731  00276E                     u5657:
  1732  00276E  2EE8               	decfsz	wreg,f,c
  1733  002770  D7FE               	bra	u5657
  1734  002772  2F60               	decfsz	??_Usart_Interface_Flash& (0+255),f,b
  1735  002774  D7FC               	bra	u5657
  1736  002776  2F61               	decfsz	(??_Usart_Interface_Flash+1)& (0+255),f,b
  1737  002778  D7FA               	bra	u5657
  1738  00277A  9C8A               	bcf	138,6,c	;volatile
  1739  00277C  EFE5  F013         	goto	l925
  1740  002780                     l5279:
  1741                           
  1742                           ; BSR set to: 0
  1743  002780  0E52               	movlw	82
  1744  002782  1962               	xorwf	Usart_Interface_Flash@color& (0+255),w,b
  1745  002784  A4D8               	btfss	status,2,c
  1746  002786  EFC7  F013         	goto	u3941
  1747  00278A  EFC9  F013         	goto	u3940
  1748  00278E                     u3941:
  1749  00278E  EFE5  F013         	goto	l913
  1750  002792                     u3940:
  1751  002792                     
  1752                           ; BSR set to: 0
  1753  002792  8A8A               	bsf	138,5,c	;volatile
  1754  002794                     
  1755                           ; BSR set to: 0
  1756                           ;User_Interface.c: 48:         _delay((unsigned long)((200)*(8000000/4000.0)));
  1757  002794  0E03               	movlw	3
  1758  002796  0100               	movlb	0	; () banked
  1759  002798  6F61               	movwf	(??_Usart_Interface_Flash+1)& (0+255),b
  1760  00279A  0E08               	movlw	8
  1761  00279C  6F60               	movwf	??_Usart_Interface_Flash& (0+255),b
  1762  00279E  0E77               	movlw	119
  1763  0027A0                     u5667:
  1764  0027A0  2EE8               	decfsz	wreg,f,c
  1765  0027A2  D7FE               	bra	u5667
  1766  0027A4  2F60               	decfsz	??_Usart_Interface_Flash& (0+255),f,b
  1767  0027A6  D7FC               	bra	u5667
  1768  0027A8  2F61               	decfsz	(??_Usart_Interface_Flash+1)& (0+255),f,b
  1769  0027AA  D7FA               	bra	u5667
  1770                           
  1771                           ;User_Interface.c: 49:           _delay((unsigned long)((200)*(8000000/4000.0)));
  1772  0027AC  0E03               	movlw	3
  1773  0027AE  0100               	movlb	0	; () banked
  1774  0027B0  6F61               	movwf	(??_Usart_Interface_Flash+1)& (0+255),b
  1775  0027B2  0E08               	movlw	8
  1776  0027B4  6F60               	movwf	??_Usart_Interface_Flash& (0+255),b
  1777  0027B6  0E77               	movlw	119
  1778  0027B8                     u5677:
  1779  0027B8  2EE8               	decfsz	wreg,f,c
  1780  0027BA  D7FE               	bra	u5677
  1781  0027BC  2F60               	decfsz	??_Usart_Interface_Flash& (0+255),f,b
  1782  0027BE  D7FC               	bra	u5677
  1783  0027C0  2F61               	decfsz	(??_Usart_Interface_Flash+1)& (0+255),f,b
  1784  0027C2  D7FA               	bra	u5677
  1785  0027C4  9A8A               	bcf	138,5,c	;volatile
  1786  0027C6  EFE5  F013         	goto	l925
  1787  0027CA                     l913:
  1788  0027CA                     l925:
  1789  0027CA  0012               	return		;funcret
  1790  0027CC                     __end_of_Usart_Interface_Flash:
  1791                           	opt callstack 0
  1792                           
  1793 ;; *************** function _USART_Init *****************
  1794 ;; Defined at:
  1795 ;;		line 6 in file "UART.c"
  1796 ;; Parameters:    Size  Location     Type
  1797 ;;  BAUD            4   14[BANK0 ] long 
  1798 ;; Auto vars:     Size  Location     Type
  1799 ;;		None
  1800 ;; Return value:  Size  Location     Type
  1801 ;;                  1    wreg      void 
  1802 ;; Registers used:
  1803 ;;		wreg, status,2, status,0, cstack
  1804 ;; Tracked objects:
  1805 ;;		On entry : 0/0
  1806 ;;		On exit  : 0/0
  1807 ;;		Unchanged: 0/0
  1808 ;; Data sizes:     COMRAM   BANK0   BANK1   BANK2   BANK3   BANK4   BANK5   BANK6   BANK7
  1809 ;;      Params:         0       4       0       0       0       0       0       0       0
  1810 ;;      Locals:         0       4       0       0       0       0       0       0       0
  1811 ;;      Temps:          0       0       0       0       0       0       0       0       0
  1812 ;;      Totals:         0       8       0       0       0       0       0       0       0
  1813 ;;Total ram usage:        8 bytes
  1814 ;; Hardware stack levels used:    1
  1815 ;; Hardware stack levels required when called:    6
  1816 ;; This function calls:
  1817 ;;		___aldiv
  1818 ;; This function is called by:
  1819 ;;		_main
  1820 ;; This function uses a non-reentrant model
  1821 ;;
  1822                           
  1823                           	psect	text5
  1824  002AF8                     __ptext5:
  1825                           	opt callstack 0
  1826  002AF8                     _USART_Init:
  1827                           	opt callstack 24
  1828  002AF8                     
  1829                           ;UART.c: 7:     TRISCbits.RC6 = 0;
  1830  002AF8  9C94               	bcf	148,6,c	;volatile
  1831                           
  1832                           ;UART.c: 8:     TRISCbits.RC7 = 1;
  1833  002AFA  8E94               	bsf	148,7,c	;volatile
  1834  002AFC                     
  1835                           ;UART.c: 11:     SPBRG = (unsigned char)(((8000000/BAUD)/64)-1);
  1836  002AFC  C06E  F064         	movff	USART_Init@BAUD,___aldiv@divisor
  1837  002B00  C06F  F065         	movff	USART_Init@BAUD+1,___aldiv@divisor+1
  1838  002B04  C070  F066         	movff	USART_Init@BAUD+2,___aldiv@divisor+2
  1839  002B08  C071  F067         	movff	USART_Init@BAUD+3,___aldiv@divisor+3
  1840  002B0C  0E00               	movlw	0
  1841  002B0E  0100               	movlb	0	; () banked
  1842  002B10  6F60               	movwf	___aldiv@dividend& (0+255),b
  1843  002B12  0E12               	movlw	18
  1844  002B14  6F61               	movwf	(___aldiv@dividend+1)& (0+255),b
  1845  002B16  0E7A               	movlw	122
  1846  002B18  6F62               	movwf	(___aldiv@dividend+2)& (0+255),b
  1847  002B1A  0E00               	movlw	0
  1848  002B1C  6F63               	movwf	(___aldiv@dividend+3)& (0+255),b
  1849  002B1E  EC5D  F010         	call	___aldiv	;wreg free
  1850  002B22  C060  F072         	movff	?___aldiv,_USART_Init$3107
  1851  002B26  C061  F073         	movff	?___aldiv+1,_USART_Init$3107+1
  1852  002B2A  C062  F074         	movff	?___aldiv+2,_USART_Init$3107+2
  1853  002B2E  C063  F075         	movff	?___aldiv+3,_USART_Init$3107+3
  1854                           
  1855                           ;UART.c: 11:     SPBRG = (unsigned char)(((8000000/BAUD)/64)-1);
  1856  002B32  C072  F060         	movff	_USART_Init$3107,___aldiv@dividend
  1857  002B36  C073  F061         	movff	_USART_Init$3107+1,___aldiv@dividend+1
  1858  002B3A  C074  F062         	movff	_USART_Init$3107+2,___aldiv@dividend+2
  1859  002B3E  C075  F063         	movff	_USART_Init$3107+3,___aldiv@dividend+3
  1860  002B42  0E40               	movlw	64
  1861  002B44  0100               	movlb	0	; () banked
  1862  002B46  6F64               	movwf	___aldiv@divisor& (0+255),b
  1863  002B48  0E00               	movlw	0
  1864  002B4A  6F65               	movwf	(___aldiv@divisor+1)& (0+255),b
  1865  002B4C  0E00               	movlw	0
  1866  002B4E  6F66               	movwf	(___aldiv@divisor+2)& (0+255),b
  1867  002B50  0E00               	movlw	0
  1868  002B52  6F67               	movwf	(___aldiv@divisor+3)& (0+255),b
  1869  002B54  EC5D  F010         	call	___aldiv	;wreg free
  1870  002B58  0100               	movlb	0	; () banked
  1871  002B5A  0560               	decf	?___aldiv& (0+255),w,b
  1872  002B5C  6EAF               	movwf	175,c	;volatile
  1873  002B5E                     
  1874                           ; BSR set to: 0
  1875                           ;UART.c: 13:     TXSTAbits.BRGH = 0;
  1876  002B5E  94AC               	bcf	172,2,c	;volatile
  1877  002B60                     
  1878                           ; BSR set to: 0
  1879                           ;UART.c: 14:     TXSTAbits.SYNC = 0;
  1880  002B60  98AC               	bcf	172,4,c	;volatile
  1881  002B62                     
  1882                           ; BSR set to: 0
  1883                           ;UART.c: 15:     RCSTAbits.SPEN = 1;
  1884  002B62  8EAB               	bsf	171,7,c	;volatile
  1885  002B64                     
  1886                           ; BSR set to: 0
  1887                           ;UART.c: 17:     TXSTAbits.TX9 = 0;
  1888  002B64  9CAC               	bcf	172,6,c	;volatile
  1889  002B66                     
  1890                           ; BSR set to: 0
  1891                           ;UART.c: 18:     TXSTAbits.TXEN = 1;
  1892  002B66  8AAC               	bsf	172,5,c	;volatile
  1893  002B68                     
  1894                           ; BSR set to: 0
  1895                           ;UART.c: 21:     RCSTAbits.RC9 = 0;
  1896  002B68  9CAB               	bcf	171,6,c	;volatile
  1897  002B6A                     
  1898                           ; BSR set to: 0
  1899                           ;UART.c: 22:     RCSTAbits.CREN = 1;
  1900  002B6A  88AB               	bsf	171,4,c	;volatile
  1901  002B6C                     
  1902                           ; BSR set to: 0
  1903  002B6C  0012               	return		;funcret
  1904  002B6E                     __end_of_USART_Init:
  1905                           	opt callstack 0
  1906                           
  1907 ;; *************** function ___aldiv *****************
  1908 ;; Defined at:
  1909 ;;		line 7 in file "C:\Program Files (x86)\Microchip\xc8\v2.10\pic\sources\c99\common\aldiv.c"
  1910 ;; Parameters:    Size  Location     Type
  1911 ;;  dividend        4    0[BANK0 ] long 
  1912 ;;  divisor         4    4[BANK0 ] long 
  1913 ;; Auto vars:     Size  Location     Type
  1914 ;;  quotient        4   10[BANK0 ] long 
  1915 ;;  sign            1    9[BANK0 ] unsigned char 
  1916 ;;  counter         1    8[BANK0 ] unsigned char 
  1917 ;; Return value:  Size  Location     Type
  1918 ;;                  4    0[BANK0 ] long 
  1919 ;; Registers used:
  1920 ;;		wreg, status,2, status,0
  1921 ;; Tracked objects:
  1922 ;;		On entry : 0/0
  1923 ;;		On exit  : 0/0
  1924 ;;		Unchanged: 0/0
  1925 ;; Data sizes:     COMRAM   BANK0   BANK1   BANK2   BANK3   BANK4   BANK5   BANK6   BANK7
  1926 ;;      Params:         0       8       0       0       0       0       0       0       0
  1927 ;;      Locals:         0       6       0       0       0       0       0       0       0
  1928 ;;      Temps:          0       0       0       0       0       0       0       0       0
  1929 ;;      Totals:         0      14       0       0       0       0       0       0       0
  1930 ;;Total ram usage:       14 bytes
  1931 ;; Hardware stack levels used:    1
  1932 ;; Hardware stack levels required when called:    5
  1933 ;; This function calls:
  1934 ;;		Nothing
  1935 ;; This function is called by:
  1936 ;;		_USART_Init
  1937 ;;		_ADC_LecturaFiltro
  1938 ;; This function uses a non-reentrant model
  1939 ;;
  1940                           
  1941                           	psect	text6
  1942  0020BA                     __ptext6:
  1943                           	opt callstack 0
  1944  0020BA                     ___aldiv:
  1945                           	opt callstack 24
  1946  0020BA  0E00               	movlw	0
  1947  0020BC  0100               	movlb	0	; () banked
  1948  0020BE  6F69               	movwf	___aldiv@sign& (0+255),b
  1949  0020C0                     
  1950                           ; BSR set to: 0
  1951  0020C0  BF67               	btfsc	(___aldiv@divisor+3)& (0+255),7,b
  1952  0020C2  EF67  F010         	goto	u3690
  1953  0020C6  EF65  F010         	goto	u3691
  1954  0020CA                     u3691:
  1955  0020CA  EF71  F010         	goto	l4925
  1956  0020CE                     u3690:
  1957  0020CE                     
  1958                           ; BSR set to: 0
  1959  0020CE  1F67               	comf	(___aldiv@divisor+3)& (0+255),f,b
  1960  0020D0  1F66               	comf	(___aldiv@divisor+2)& (0+255),f,b
  1961  0020D2  1F65               	comf	(___aldiv@divisor+1)& (0+255),f,b
  1962  0020D4  6D64               	negf	___aldiv@divisor& (0+255),b
  1963  0020D6  0E00               	movlw	0
  1964  0020D8  2365               	addwfc	(___aldiv@divisor+1)& (0+255),f,b
  1965  0020DA  2366               	addwfc	(___aldiv@divisor+2)& (0+255),f,b
  1966  0020DC  2367               	addwfc	(___aldiv@divisor+3)& (0+255),f,b
  1967  0020DE                     
  1968                           ; BSR set to: 0
  1969  0020DE  0E01               	movlw	1
  1970  0020E0  6F69               	movwf	___aldiv@sign& (0+255),b
  1971  0020E2                     l4925:
  1972                           
  1973                           ; BSR set to: 0
  1974  0020E2  BF63               	btfsc	(___aldiv@dividend+3)& (0+255),7,b
  1975  0020E4  EF78  F010         	goto	u3700
  1976  0020E8  EF76  F010         	goto	u3701
  1977  0020EC                     u3701:
  1978  0020EC  EF82  F010         	goto	l4931
  1979  0020F0                     u3700:
  1980  0020F0                     
  1981                           ; BSR set to: 0
  1982  0020F0  1F63               	comf	(___aldiv@dividend+3)& (0+255),f,b
  1983  0020F2  1F62               	comf	(___aldiv@dividend+2)& (0+255),f,b
  1984  0020F4  1F61               	comf	(___aldiv@dividend+1)& (0+255),f,b
  1985  0020F6  6D60               	negf	___aldiv@dividend& (0+255),b
  1986  0020F8  0E00               	movlw	0
  1987  0020FA  2361               	addwfc	(___aldiv@dividend+1)& (0+255),f,b
  1988  0020FC  2362               	addwfc	(___aldiv@dividend+2)& (0+255),f,b
  1989  0020FE  2363               	addwfc	(___aldiv@dividend+3)& (0+255),f,b
  1990  002100                     
  1991                           ; BSR set to: 0
  1992  002100  0E01               	movlw	1
  1993  002102  1B69               	xorwf	___aldiv@sign& (0+255),f,b
  1994  002104                     l4931:
  1995                           
  1996                           ; BSR set to: 0
  1997  002104  0E00               	movlw	0
  1998  002106  6F6A               	movwf	___aldiv@quotient& (0+255),b
  1999  002108  0E00               	movlw	0
  2000  00210A  6F6B               	movwf	(___aldiv@quotient+1)& (0+255),b
  2001  00210C  0E00               	movlw	0
  2002  00210E  6F6C               	movwf	(___aldiv@quotient+2)& (0+255),b
  2003  002110  0E00               	movlw	0
  2004  002112  6F6D               	movwf	(___aldiv@quotient+3)& (0+255),b
  2005  002114                     
  2006                           ; BSR set to: 0
  2007  002114  5164               	movf	___aldiv@divisor& (0+255),w,b
  2008  002116  1165               	iorwf	(___aldiv@divisor+1)& (0+255),w,b
  2009  002118  1166               	iorwf	(___aldiv@divisor+2)& (0+255),w,b
  2010  00211A  1167               	iorwf	(___aldiv@divisor+3)& (0+255),w,b
  2011  00211C  B4D8               	btfsc	status,2,c
  2012  00211E  EF93  F010         	goto	u3711
  2013  002122  EF95  F010         	goto	u3710
  2014  002126                     u3711:
  2015  002126  EFCB  F010         	goto	l4953
  2016  00212A                     u3710:
  2017  00212A                     
  2018                           ; BSR set to: 0
  2019  00212A  0E01               	movlw	1
  2020  00212C  6F68               	movwf	___aldiv@counter& (0+255),b
  2021  00212E  EF9F  F010         	goto	l4939
  2022  002132                     l4937:
  2023                           
  2024                           ; BSR set to: 0
  2025  002132  90D8               	bcf	status,0,c
  2026  002134  3764               	rlcf	___aldiv@divisor& (0+255),f,b
  2027  002136  3765               	rlcf	(___aldiv@divisor+1)& (0+255),f,b
  2028  002138  3766               	rlcf	(___aldiv@divisor+2)& (0+255),f,b
  2029  00213A  3767               	rlcf	(___aldiv@divisor+3)& (0+255),f,b
  2030  00213C  2B68               	incf	___aldiv@counter& (0+255),f,b
  2031  00213E                     l4939:
  2032                           
  2033                           ; BSR set to: 0
  2034  00213E  AF67               	btfss	(___aldiv@divisor+3)& (0+255),7,b
  2035  002140  EFA4  F010         	goto	u3721
  2036  002144  EFA6  F010         	goto	u3720
  2037  002148                     u3721:
  2038  002148  EF99  F010         	goto	l4937
  2039  00214C                     u3720:
  2040  00214C                     l4941:
  2041                           
  2042                           ; BSR set to: 0
  2043  00214C  90D8               	bcf	status,0,c
  2044  00214E  376A               	rlcf	___aldiv@quotient& (0+255),f,b
  2045  002150  376B               	rlcf	(___aldiv@quotient+1)& (0+255),f,b
  2046  002152  376C               	rlcf	(___aldiv@quotient+2)& (0+255),f,b
  2047  002154  376D               	rlcf	(___aldiv@quotient+3)& (0+255),f,b
  2048  002156                     
  2049                           ; BSR set to: 0
  2050  002156  5164               	movf	___aldiv@divisor& (0+255),w,b
  2051  002158  5D60               	subwf	___aldiv@dividend& (0+255),w,b
  2052  00215A  5165               	movf	(___aldiv@divisor+1)& (0+255),w,b
  2053  00215C  5961               	subwfb	(___aldiv@dividend+1)& (0+255),w,b
  2054  00215E  5166               	movf	(___aldiv@divisor+2)& (0+255),w,b
  2055  002160  5962               	subwfb	(___aldiv@dividend+2)& (0+255),w,b
  2056  002162  5167               	movf	(___aldiv@divisor+3)& (0+255),w,b
  2057  002164  5963               	subwfb	(___aldiv@dividend+3)& (0+255),w,b
  2058  002166  A0D8               	btfss	status,0,c
  2059  002168  EFB8  F010         	goto	u3731
  2060  00216C  EFBA  F010         	goto	u3730
  2061  002170                     u3731:
  2062  002170  EFC3  F010         	goto	l4949
  2063  002174                     u3730:
  2064  002174                     
  2065                           ; BSR set to: 0
  2066  002174  5164               	movf	___aldiv@divisor& (0+255),w,b
  2067  002176  5F60               	subwf	___aldiv@dividend& (0+255),f,b
  2068  002178  5165               	movf	(___aldiv@divisor+1)& (0+255),w,b
  2069  00217A  5B61               	subwfb	(___aldiv@dividend+1)& (0+255),f,b
  2070  00217C  5166               	movf	(___aldiv@divisor+2)& (0+255),w,b
  2071  00217E  5B62               	subwfb	(___aldiv@dividend+2)& (0+255),f,b
  2072  002180  5167               	movf	(___aldiv@divisor+3)& (0+255),w,b
  2073  002182  5B63               	subwfb	(___aldiv@dividend+3)& (0+255),f,b
  2074  002184                     
  2075                           ; BSR set to: 0
  2076  002184  816A               	bsf	___aldiv@quotient& (0+255),0,b
  2077  002186                     l4949:
  2078                           
  2079                           ; BSR set to: 0
  2080  002186  90D8               	bcf	status,0,c
  2081  002188  3367               	rrcf	(___aldiv@divisor+3)& (0+255),f,b
  2082  00218A  3366               	rrcf	(___aldiv@divisor+2)& (0+255),f,b
  2083  00218C  3365               	rrcf	(___aldiv@divisor+1)& (0+255),f,b
  2084  00218E  3364               	rrcf	___aldiv@divisor& (0+255),f,b
  2085  002190                     
  2086                           ; BSR set to: 0
  2087  002190  2F68               	decfsz	___aldiv@counter& (0+255),f,b
  2088  002192  EFA6  F010         	goto	l4941
  2089  002196                     l4953:
  2090                           
  2091                           ; BSR set to: 0
  2092  002196  5169               	movf	___aldiv@sign& (0+255),w,b
  2093  002198  B4D8               	btfsc	status,2,c
  2094  00219A  EFD1  F010         	goto	u3741
  2095  00219E  EFD3  F010         	goto	u3740
  2096  0021A2                     u3741:
  2097  0021A2  EFDB  F010         	goto	l4957
  2098  0021A6                     u3740:
  2099  0021A6                     
  2100                           ; BSR set to: 0
  2101  0021A6  1F6D               	comf	(___aldiv@quotient+3)& (0+255),f,b
  2102  0021A8  1F6C               	comf	(___aldiv@quotient+2)& (0+255),f,b
  2103  0021AA  1F6B               	comf	(___aldiv@quotient+1)& (0+255),f,b
  2104  0021AC  6D6A               	negf	___aldiv@quotient& (0+255),b
  2105  0021AE  0E00               	movlw	0
  2106  0021B0  236B               	addwfc	(___aldiv@quotient+1)& (0+255),f,b
  2107  0021B2  236C               	addwfc	(___aldiv@quotient+2)& (0+255),f,b
  2108  0021B4  236D               	addwfc	(___aldiv@quotient+3)& (0+255),f,b
  2109  0021B6                     l4957:
  2110                           
  2111                           ; BSR set to: 0
  2112  0021B6  C06A  F060         	movff	___aldiv@quotient,?___aldiv
  2113  0021BA  C06B  F061         	movff	___aldiv@quotient+1,?___aldiv+1
  2114  0021BE  C06C  F062         	movff	___aldiv@quotient+2,?___aldiv+2
  2115  0021C2  C06D  F063         	movff	___aldiv@quotient+3,?___aldiv+3
  2116  0021C6                     
  2117                           ; BSR set to: 0
  2118  0021C6  0012               	return		;funcret
  2119  0021C8                     __end_of___aldiv:
  2120                           	opt callstack 0
  2121                           
  2122 ;; *************** function _Serial_Oupcode *****************
  2123 ;; Defined at:
  2124 ;;		line 22 in file "serial.c"
  2125 ;; Parameters:    Size  Location     Type
  2126 ;;		None
  2127 ;; Auto vars:     Size  Location     Type
  2128 ;;  Oupcode         1   63[BANK0 ] unsigned char 
  2129 ;;  instruction_    1   62[BANK0 ] unsigned char 
  2130 ;; Return value:  Size  Location     Type
  2131 ;;                  1    wreg      void 
  2132 ;; Registers used:
  2133 ;;		wreg, fsr0l, fsr0h, fsr1l, fsr1h, fsr2l, fsr2h, status,2, status,0, tblptrl, tblptrh, tblptru, prodl, prodh, cstack
  2134 ;; Tracked objects:
  2135 ;;		On entry : 0/0
  2136 ;;		On exit  : 0/0
  2137 ;;		Unchanged: 0/0
  2138 ;; Data sizes:     COMRAM   BANK0   BANK1   BANK2   BANK3   BANK4   BANK5   BANK6   BANK7
  2139 ;;      Params:         0       0       0       0       0       0       0       0       0
  2140 ;;      Locals:         0       2       0       0       0       0       0       0       0
  2141 ;;      Temps:          0       2       0       0       0       0       0       0       0
  2142 ;;      Totals:         0       4       0       0       0       0       0       0       0
  2143 ;;Total ram usage:        4 bytes
  2144 ;; Hardware stack levels used:    1
  2145 ;; Hardware stack levels required when called:    8
  2146 ;; This function calls:
  2147 ;;		_Actuator_Hold
  2148 ;;		_Actuator_Retract
  2149 ;;		_Actuator_Touch
  2150 ;;		_Motor_Movimiento
  2151 ;;		_Motor_MovimientoZ
  2152 ;;		_Seria_Decodificacion_Memoria
  2153 ;;		_Serial_DecodificacionX
  2154 ;;		_Serial_DecodificacionY
  2155 ;;		_Serial_Escritura_Memoria
  2156 ;;		_Serial_Lectura_MemoriaX
  2157 ;;		_Serial_Lectura_MemoriaY
  2158 ;;		_Serial_Lectura_MemoriaZ
  2159 ;;		_Serial_RangosCoordenadas
  2160 ;;		_USART_RxC
  2161 ;;		_USART_RxS
  2162 ;;		_USART_TxS
  2163 ;; This function is called by:
  2164 ;;		_main
  2165 ;; This function uses a non-reentrant model
  2166 ;;
  2167                           
  2168                           	psect	text7
  2169  0008F8                     __ptext7:
  2170                           	opt callstack 0
  2171  0008F8                     _Serial_Oupcode:
  2172                           	opt callstack 22
  2173  0008F8                     
  2174                           ;serial.c: 24:     TRISDbits.TRISD0 = 0;
  2175  0008F8  9095               	bcf	149,0,c	;volatile
  2176                           
  2177                           ;serial.c: 25:     TRISDbits.TRISD2 = 0;
  2178  0008FA  9495               	bcf	149,2,c	;volatile
  2179                           
  2180                           ;serial.c: 26:     TRISDbits.TRISD1 = 0;
  2181  0008FC  9295               	bcf	149,1,c	;volatile
  2182                           
  2183                           ;serial.c: 27:     TRISDbits.TRISD3 = 0;
  2184  0008FE  9695               	bcf	149,3,c	;volatile
  2185                           
  2186                           ;serial.c: 28:     PORTDbits.RD0 = 1;
  2187  000900  8083               	bsf	131,0,c	;volatile
  2188                           
  2189                           ;serial.c: 29:     PORTDbits.RD0 = 1;
  2190  000902  8083               	bsf	131,0,c	;volatile
  2191                           
  2192                           ;serial.c: 30:     TRISCbits.RC1 = 0;
  2193  000904  9294               	bcf	148,1,c	;volatile
  2194                           
  2195                           ;serial.c: 31:     TRISCbits.RC2 = 0;
  2196  000906  9494               	bcf	148,2,c	;volatile
  2197                           
  2198                           ;serial.c: 32:     PORTCbits.RC1 = 0;
  2199  000908  9282               	bcf	130,1,c	;volatile
  2200  00090A                     
  2201                           ;serial.c: 33:     char instruction_counter = 0;
  2202  00090A  0E00               	movlw	0
  2203  00090C  0100               	movlb	0	; () banked
  2204  00090E  6F9E               	movwf	Serial_Oupcode@instruction_counter& (0+255),b
  2205  000910                     l395:
  2206                           
  2207                           ;serial.c: 36:         if (instruction_counter == 0) {
  2208  000910  0100               	movlb	0	; () banked
  2209  000912  519E               	movf	Serial_Oupcode@instruction_counter& (0+255),w,b
  2210  000914  A4D8               	btfss	status,2,c
  2211  000916  EF8F  F004         	goto	u3791
  2212  00091A  EF91  F004         	goto	u3790
  2213  00091E                     u3791:
  2214  00091E  EF9E  F004         	goto	l5087
  2215  000922                     u3790:
  2216  000922                     
  2217                           ; BSR set to: 0
  2218                           ;serial.c: 37:             USART_TxS("R\n", sizeof ("R\n") - 1);
  2219  000922  0EE6               	movlw	low STR_1
  2220  000924  6F60               	movwf	USART_TxS@str& (0+255),b
  2221  000926  0E08               	movlw	high STR_1
  2222  000928  6F61               	movwf	(USART_TxS@str+1)& (0+255),b
  2223  00092A  0E00               	movlw	0
  2224  00092C  6F63               	movwf	(USART_TxS@length+1)& (0+255),b
  2225  00092E  0E02               	movlw	2
  2226  000930  6F62               	movwf	USART_TxS@length& (0+255),b
  2227  000932  ECF1  F015         	call	_USART_TxS	;wreg free
  2228  000936                     
  2229                           ;serial.c: 38:             instruction_counter = 1;
  2230  000936  0E01               	movlw	1
  2231  000938  0100               	movlb	0	; () banked
  2232  00093A  6F9E               	movwf	Serial_Oupcode@instruction_counter& (0+255),b
  2233  00093C                     l5087:
  2234                           
  2235                           ; BSR set to: 0
  2236                           ;serial.c: 40:         char Oupcode = USART_RxC();
  2237  00093C  ECC1  F019         	call	_USART_RxC	;wreg free
  2238  000940  0100               	movlb	0	; () banked
  2239  000942  6F9F               	movwf	Serial_Oupcode@Oupcode& (0+255),b
  2240                           
  2241                           ;serial.c: 41:         switch (Oupcode) {
  2242  000944  EF5B  F006         	goto	l5199
  2243  000948                     l5089:
  2244                           
  2245                           ; BSR set to: 0
  2246                           ;serial.c: 43:                 USART_RxS(7, coordenada_array);
  2247  000948  0EC8               	movlw	low _coordenada_array
  2248  00094A  6F60               	movwf	USART_RxS@pointer& (0+255),b
  2249  00094C  0E00               	movlw	high _coordenada_array
  2250  00094E  6F61               	movwf	(USART_RxS@pointer+1)& (0+255),b
  2251  000950  0E07               	movlw	7
  2252  000952  ECCE  F016         	call	_USART_RxS
  2253  000956                     
  2254                           ;serial.c: 44:                 USART_TxS("W\n", sizeof ("W\n") - 1);
  2255  000956  0EE9               	movlw	low STR_2
  2256  000958  0100               	movlb	0	; () banked
  2257  00095A  6F60               	movwf	USART_TxS@str& (0+255),b
  2258  00095C  0E08               	movlw	high STR_2
  2259  00095E  6F61               	movwf	(USART_TxS@str+1)& (0+255),b
  2260  000960  0E00               	movlw	0
  2261  000962  6F63               	movwf	(USART_TxS@length+1)& (0+255),b
  2262  000964  0E02               	movlw	2
  2263  000966  6F62               	movwf	USART_TxS@length& (0+255),b
  2264  000968  ECF1  F015         	call	_USART_TxS	;wreg free
  2265  00096C                     
  2266                           ;serial.c: 45:                 Serial_DecodificacionX(coordenada_array, &CoordenadaX);
  2267  00096C  0EC8               	movlw	low _coordenada_array
  2268  00096E  0100               	movlb	0	; () banked
  2269  000970  6F76               	movwf	Serial_DecodificacionX@string_coordenada& (0+255),b
  2270  000972  0E00               	movlw	high _coordenada_array
  2271  000974  6F77               	movwf	(Serial_DecodificacionX@string_coordenada+1)& (0+255),b
  2272  000976  0ED3               	movlw	low _CoordenadaX
  2273  000978  6F78               	movwf	Serial_DecodificacionX@pointerCX& (0+255),b
  2274  00097A  0E00               	movlw	high _CoordenadaX
  2275  00097C  6F79               	movwf	(Serial_DecodificacionX@pointerCX+1)& (0+255),b
  2276  00097E  EC51  F014         	call	_Serial_DecodificacionX	;wreg free
  2277  000982                     
  2278                           ;serial.c: 46:                 Serial_DecodificacionY(coordenada_array, &CoordenadaY);
  2279  000982  0EC8               	movlw	low _coordenada_array
  2280  000984  0100               	movlb	0	; () banked
  2281  000986  6F76               	movwf	Serial_DecodificacionY@string_coordenada& (0+255),b
  2282  000988  0E00               	movlw	high _coordenada_array
  2283  00098A  6F77               	movwf	(Serial_DecodificacionY@string_coordenada+1)& (0+255),b
  2284  00098C  0ED1               	movlw	low _CoordenadaY
  2285  00098E  6F78               	movwf	Serial_DecodificacionY@pointerCY& (0+255),b
  2286  000990  0E00               	movlw	high _CoordenadaY
  2287  000992  6F79               	movwf	(Serial_DecodificacionY@pointerCY+1)& (0+255),b
  2288  000994  ECE6  F013         	call	_Serial_DecodificacionY	;wreg free
  2289  000998                     
  2290                           ;serial.c: 47:                 Serial_RangosCoordenadas(CoordenadaX);
  2291  000998  C0D3  F060         	movff	_CoordenadaX,Serial_RangosCoordenadas@C
  2292  00099C  C0D4  F061         	movff	_CoordenadaX+1,Serial_RangosCoordenadas@C+1
  2293  0009A0  EC52  F018         	call	_Serial_RangosCoordenadas	;wreg free
  2294  0009A4                     
  2295                           ;serial.c: 48:                 Serial_RangosCoordenadas(CoordenadaY);
  2296  0009A4  C0D1  F060         	movff	_CoordenadaY,Serial_RangosCoordenadas@C
  2297  0009A8  C0D2  F061         	movff	_CoordenadaY+1,Serial_RangosCoordenadas@C+1
  2298  0009AC  EC52  F018         	call	_Serial_RangosCoordenadas	;wreg free
  2299  0009B0                     
  2300                           ;serial.c: 49:                 if (Coordenadas_fuera == 1) {
  2301  0009B0  0100               	movlb	0	; () banked
  2302  0009B2  05B9               	decf	_Coordenadas_fuera& (0+255),w,b
  2303  0009B4  A4D8               	btfss	status,2,c
  2304  0009B6  EFDF  F004         	goto	u3801
  2305  0009BA  EFE1  F004         	goto	u3800
  2306  0009BE                     u3801:
  2307  0009BE  EFF0  F004         	goto	l5107
  2308  0009C2                     u3800:
  2309  0009C2                     
  2310                           ; BSR set to: 0
  2311                           ;serial.c: 50:                     USART_TxS("E1\n", sizeof ("E1\n") - 1);
  2312  0009C2  0EA6               	movlw	low STR_3
  2313  0009C4  6F60               	movwf	USART_TxS@str& (0+255),b
  2314  0009C6  0E08               	movlw	high STR_3
  2315  0009C8  6F61               	movwf	(USART_TxS@str+1)& (0+255),b
  2316  0009CA  0E00               	movlw	0
  2317  0009CC  6F63               	movwf	(USART_TxS@length+1)& (0+255),b
  2318  0009CE  0E03               	movlw	3
  2319  0009D0  6F62               	movwf	USART_TxS@length& (0+255),b
  2320  0009D2  ECF1  F015         	call	_USART_TxS	;wreg free
  2321  0009D6                     l5105:
  2322                           
  2323                           ;serial.c: 51:                     Coordenadas_fuera = 0;
  2324  0009D6  0E00               	movlw	0
  2325  0009D8  0100               	movlb	0	; () banked
  2326  0009DA  6FB9               	movwf	_Coordenadas_fuera& (0+255),b
  2327                           
  2328                           ;serial.c: 52:                 } else if (Coordenadas_mal == 1) {
  2329  0009DC  EF88  F004         	goto	l395
  2330  0009E0                     l5107:
  2331                           
  2332                           ; BSR set to: 0
  2333  0009E0  05B8               	decf	_Coordenadas_mal& (0+255),w,b
  2334  0009E2  A4D8               	btfss	status,2,c
  2335  0009E4  EFF6  F004         	goto	u3811
  2336  0009E8  EFF8  F004         	goto	u3810
  2337  0009EC                     u3811:
  2338  0009EC  EF07  F005         	goto	l5113
  2339  0009F0                     u3810:
  2340  0009F0                     
  2341                           ; BSR set to: 0
  2342                           ;serial.c: 53:                     USART_TxS("E2\n", sizeof ("E2\n") - 1);
  2343  0009F0  0EAE               	movlw	low STR_4
  2344  0009F2  6F60               	movwf	USART_TxS@str& (0+255),b
  2345  0009F4  0E08               	movlw	high STR_4
  2346  0009F6  6F61               	movwf	(USART_TxS@str+1)& (0+255),b
  2347  0009F8  0E00               	movlw	0
  2348  0009FA  6F63               	movwf	(USART_TxS@length+1)& (0+255),b
  2349  0009FC  0E03               	movlw	3
  2350  0009FE  6F62               	movwf	USART_TxS@length& (0+255),b
  2351  000A00  ECF1  F015         	call	_USART_TxS	;wreg free
  2352  000A04                     l5111:
  2353                           
  2354                           ;serial.c: 54:                     Coordenadas_mal = 0;
  2355  000A04  0E00               	movlw	0
  2356  000A06  0100               	movlb	0	; () banked
  2357  000A08  6FB8               	movwf	_Coordenadas_mal& (0+255),b
  2358                           
  2359                           ;serial.c: 55:                 } else {
  2360  000A0A  EF88  F004         	goto	l395
  2361  000A0E                     l5113:
  2362                           
  2363                           ; BSR set to: 0
  2364                           ;serial.c: 56:                     Motor_Movimiento(Oupcode, CoordenadaX, CoordenadaY);
  2365  000A0E  C0D3  F097         	movff	_CoordenadaX,Motor_Movimiento@Motor_CoordenadaX
  2366  000A12  C0D4  F098         	movff	_CoordenadaX+1,Motor_Movimiento@Motor_CoordenadaX+1
  2367  000A16  C0D1  F099         	movff	_CoordenadaY,Motor_Movimiento@Motor_CoordenadaY
  2368  000A1A  C0D2  F09A         	movff	_CoordenadaY+1,Motor_Movimiento@Motor_CoordenadaY+1
  2369  000A1E  519F               	movf	Serial_Oupcode@Oupcode& (0+255),w,b
  2370  000A20  ECB6  F014         	call	_Motor_Movimiento
  2371  000A24  EF88  F004         	goto	l395
  2372  000A28                     l5115:
  2373                           
  2374                           ; BSR set to: 0
  2375                           ;serial.c: 60:                 USART_RxS(7, coordenada_array);
  2376  000A28  0EC8               	movlw	low _coordenada_array
  2377  000A2A  6F60               	movwf	USART_RxS@pointer& (0+255),b
  2378  000A2C  0E00               	movlw	high _coordenada_array
  2379  000A2E  6F61               	movwf	(USART_RxS@pointer+1)& (0+255),b
  2380  000A30  0E07               	movlw	7
  2381  000A32  ECCE  F016         	call	_USART_RxS
  2382  000A36                     
  2383                           ;serial.c: 61:                 USART_TxS("W\n", sizeof ("W\n") - 1);
  2384  000A36  0EE9               	movlw	low STR_2
  2385  000A38  0100               	movlb	0	; () banked
  2386  000A3A  6F60               	movwf	USART_TxS@str& (0+255),b
  2387  000A3C  0E08               	movlw	high STR_2
  2388  000A3E  6F61               	movwf	(USART_TxS@str+1)& (0+255),b
  2389  000A40  0E00               	movlw	0
  2390  000A42  6F63               	movwf	(USART_TxS@length+1)& (0+255),b
  2391  000A44  0E02               	movlw	2
  2392  000A46  6F62               	movwf	USART_TxS@length& (0+255),b
  2393  000A48  ECF1  F015         	call	_USART_TxS	;wreg free
  2394  000A4C                     
  2395                           ;serial.c: 62:                 Serial_DecodificacionX(coordenada_array, &CoordenadaX);
  2396  000A4C  0EC8               	movlw	low _coordenada_array
  2397  000A4E  0100               	movlb	0	; () banked
  2398  000A50  6F76               	movwf	Serial_DecodificacionX@string_coordenada& (0+255),b
  2399  000A52  0E00               	movlw	high _coordenada_array
  2400  000A54  6F77               	movwf	(Serial_DecodificacionX@string_coordenada+1)& (0+255),b
  2401  000A56  0ED3               	movlw	low _CoordenadaX
  2402  000A58  6F78               	movwf	Serial_DecodificacionX@pointerCX& (0+255),b
  2403  000A5A  0E00               	movlw	high _CoordenadaX
  2404  000A5C  6F79               	movwf	(Serial_DecodificacionX@pointerCX+1)& (0+255),b
  2405  000A5E  EC51  F014         	call	_Serial_DecodificacionX	;wreg free
  2406  000A62                     
  2407                           ;serial.c: 63:                 Serial_DecodificacionY(coordenada_array, &CoordenadaY);
  2408  000A62  0EC8               	movlw	low _coordenada_array
  2409  000A64  0100               	movlb	0	; () banked
  2410  000A66  6F76               	movwf	Serial_DecodificacionY@string_coordenada& (0+255),b
  2411  000A68  0E00               	movlw	high _coordenada_array
  2412  000A6A  6F77               	movwf	(Serial_DecodificacionY@string_coordenada+1)& (0+255),b
  2413  000A6C  0ED1               	movlw	low _CoordenadaY
  2414  000A6E  6F78               	movwf	Serial_DecodificacionY@pointerCY& (0+255),b
  2415  000A70  0E00               	movlw	high _CoordenadaY
  2416  000A72  6F79               	movwf	(Serial_DecodificacionY@pointerCY+1)& (0+255),b
  2417  000A74  ECE6  F013         	call	_Serial_DecodificacionY	;wreg free
  2418  000A78                     
  2419                           ;serial.c: 64:                 Serial_RangosCoordenadas(CoordenadaX);
  2420  000A78  C0D3  F060         	movff	_CoordenadaX,Serial_RangosCoordenadas@C
  2421  000A7C  C0D4  F061         	movff	_CoordenadaX+1,Serial_RangosCoordenadas@C+1
  2422  000A80  EC52  F018         	call	_Serial_RangosCoordenadas	;wreg free
  2423  000A84                     
  2424                           ;serial.c: 65:                 Serial_RangosCoordenadas(CoordenadaY);
  2425  000A84  C0D1  F060         	movff	_CoordenadaY,Serial_RangosCoordenadas@C
  2426  000A88  C0D2  F061         	movff	_CoordenadaY+1,Serial_RangosCoordenadas@C+1
  2427  000A8C  EC52  F018         	call	_Serial_RangosCoordenadas	;wreg free
  2428  000A90                     
  2429                           ;serial.c: 66:                 if (Coordenadas_fuera == 1) {
  2430  000A90  0100               	movlb	0	; () banked
  2431  000A92  05B9               	decf	_Coordenadas_fuera& (0+255),w,b
  2432  000A94  A4D8               	btfss	status,2,c
  2433  000A96  EF4F  F005         	goto	u3821
  2434  000A9A  EF51  F005         	goto	u3820
  2435  000A9E                     u3821:
  2436  000A9E  EF5D  F005         	goto	l5133
  2437  000AA2                     u3820:
  2438  000AA2                     
  2439                           ; BSR set to: 0
  2440                           ;serial.c: 67:                     USART_TxS("E1\n", sizeof ("E1\n") - 1);
  2441  000AA2  0EA6               	movlw	low STR_3
  2442  000AA4  6F60               	movwf	USART_TxS@str& (0+255),b
  2443  000AA6  0E08               	movlw	high STR_3
  2444  000AA8  6F61               	movwf	(USART_TxS@str+1)& (0+255),b
  2445  000AAA  0E00               	movlw	0
  2446  000AAC  6F63               	movwf	(USART_TxS@length+1)& (0+255),b
  2447  000AAE  0E03               	movlw	3
  2448  000AB0  6F62               	movwf	USART_TxS@length& (0+255),b
  2449  000AB2  ECF1  F015         	call	_USART_TxS	;wreg free
  2450  000AB6  EFEB  F004         	goto	l5105
  2451  000ABA                     l5133:
  2452                           
  2453                           ; BSR set to: 0
  2454  000ABA  05B8               	decf	_Coordenadas_mal& (0+255),w,b
  2455  000ABC  A4D8               	btfss	status,2,c
  2456  000ABE  EF63  F005         	goto	u3831
  2457  000AC2  EF65  F005         	goto	u3830
  2458  000AC6                     u3831:
  2459  000AC6  EF71  F005         	goto	l5139
  2460  000ACA                     u3830:
  2461  000ACA                     
  2462                           ; BSR set to: 0
  2463                           ;serial.c: 70:                     USART_TxS("E2\n", sizeof ("E2\n") - 1);
  2464  000ACA  0EAE               	movlw	low STR_4
  2465  000ACC  6F60               	movwf	USART_TxS@str& (0+255),b
  2466  000ACE  0E08               	movlw	high STR_4
  2467  000AD0  6F61               	movwf	(USART_TxS@str+1)& (0+255),b
  2468  000AD2  0E00               	movlw	0
  2469  000AD4  6F63               	movwf	(USART_TxS@length+1)& (0+255),b
  2470  000AD6  0E03               	movlw	3
  2471  000AD8  6F62               	movwf	USART_TxS@length& (0+255),b
  2472  000ADA  ECF1  F015         	call	_USART_TxS	;wreg free
  2473  000ADE  EF02  F005         	goto	l5111
  2474  000AE2                     l5139:
  2475                           
  2476                           ; BSR set to: 0
  2477                           ;serial.c: 73:                     Motor_Movimiento(Oupcode, CoordenadaX, CoordenadaY);
  2478  000AE2  C0D3  F097         	movff	_CoordenadaX,Motor_Movimiento@Motor_CoordenadaX
  2479  000AE6  C0D4  F098         	movff	_CoordenadaX+1,Motor_Movimiento@Motor_CoordenadaX+1
  2480  000AEA  C0D1  F099         	movff	_CoordenadaY,Motor_Movimiento@Motor_CoordenadaY
  2481  000AEE  C0D2  F09A         	movff	_CoordenadaY+1,Motor_Movimiento@Motor_CoordenadaY+1
  2482  000AF2  519F               	movf	Serial_Oupcode@Oupcode& (0+255),w,b
  2483  000AF4  ECB6  F014         	call	_Motor_Movimiento
  2484  000AF8  EF88  F004         	goto	l395
  2485  000AFC                     l5141:
  2486                           
  2487                           ; BSR set to: 0
  2488                           ;serial.c: 77:                 USART_TxS("W\n", sizeof ("W\n") - 1);
  2489  000AFC  0EE9               	movlw	low STR_2
  2490  000AFE  6F60               	movwf	USART_TxS@str& (0+255),b
  2491  000B00  0E08               	movlw	high STR_2
  2492  000B02  6F61               	movwf	(USART_TxS@str+1)& (0+255),b
  2493  000B04  0E00               	movlw	0
  2494  000B06  6F63               	movwf	(USART_TxS@length+1)& (0+255),b
  2495  000B08  0E02               	movlw	2
  2496  000B0A  6F62               	movwf	USART_TxS@length& (0+255),b
  2497  000B0C  ECF1  F015         	call	_USART_TxS	;wreg free
  2498                           
  2499                           ;serial.c: 78:                 Actuator_Touch();
  2500  000B10  EC1D  F018         	call	_Actuator_Touch	;wreg free
  2501                           
  2502                           ;serial.c: 79:                 break;
  2503  000B14  EF88  F004         	goto	l395
  2504  000B18                     l5143:
  2505                           
  2506                           ; BSR set to: 0
  2507                           ;serial.c: 81:                 USART_TxS("W\n", sizeof ("W\n") - 1);
  2508  000B18  0EE9               	movlw	low STR_2
  2509  000B1A  6F60               	movwf	USART_TxS@str& (0+255),b
  2510  000B1C  0E08               	movlw	high STR_2
  2511  000B1E  6F61               	movwf	(USART_TxS@str+1)& (0+255),b
  2512  000B20  0E00               	movlw	0
  2513  000B22  6F63               	movwf	(USART_TxS@length+1)& (0+255),b
  2514  000B24  0E02               	movlw	2
  2515  000B26  6F62               	movwf	USART_TxS@length& (0+255),b
  2516  000B28  ECF1  F015         	call	_USART_TxS	;wreg free
  2517                           
  2518                           ;serial.c: 82:                 Actuator_Hold();
  2519  000B2C  EC70  F019         	call	_Actuator_Hold	;wreg free
  2520                           
  2521                           ;serial.c: 83:                 break;
  2522  000B30  EF88  F004         	goto	l395
  2523  000B34                     l5145:
  2524                           
  2525                           ; BSR set to: 0
  2526                           ;serial.c: 85:                 USART_TxS("W\n", sizeof ("W\n") - 1);
  2527  000B34  0EE9               	movlw	low STR_2
  2528  000B36  6F60               	movwf	USART_TxS@str& (0+255),b
  2529  000B38  0E08               	movlw	high STR_2
  2530  000B3A  6F61               	movwf	(USART_TxS@str+1)& (0+255),b
  2531  000B3C  0E00               	movlw	0
  2532  000B3E  6F63               	movwf	(USART_TxS@length+1)& (0+255),b
  2533  000B40  0E02               	movlw	2
  2534  000B42  6F62               	movwf	USART_TxS@length& (0+255),b
  2535  000B44  ECF1  F015         	call	_USART_TxS	;wreg free
  2536                           
  2537                           ;serial.c: 86:                 Actuator_Retract();
  2538  000B48  EC63  F019         	call	_Actuator_Retract	;wreg free
  2539                           
  2540                           ;serial.c: 87:                 break;
  2541  000B4C  EF88  F004         	goto	l395
  2542  000B50                     l5147:
  2543                           
  2544                           ; BSR set to: 0
  2545                           ;serial.c: 89:                 USART_TxS("W\n", sizeof ("W\n") - 1);
  2546  000B50  0EE9               	movlw	low STR_2
  2547  000B52  6F60               	movwf	USART_TxS@str& (0+255),b
  2548  000B54  0E08               	movlw	high STR_2
  2549  000B56  6F61               	movwf	(USART_TxS@str+1)& (0+255),b
  2550  000B58  0E00               	movlw	0
  2551  000B5A  6F63               	movwf	(USART_TxS@length+1)& (0+255),b
  2552  000B5C  0E02               	movlw	2
  2553  000B5E  6F62               	movwf	USART_TxS@length& (0+255),b
  2554  000B60  ECF1  F015         	call	_USART_TxS	;wreg free
  2555  000B64                     
  2556                           ;serial.c: 90:                 Direccion_Memoria = USART_RxC();
  2557  000B64  ECC1  F019         	call	_USART_RxC	;wreg free
  2558  000B68  0100               	movlb	0	; () banked
  2559  000B6A  6FBA               	movwf	_Direccion_Memoria& (0+255),b
  2560  000B6C                     
  2561                           ; BSR set to: 0
  2562                           ;serial.c: 91:                 Direccion_Memoria = Seria_Decodificacion_Memoria(Direccio
      +                          n_Memoria);
  2563  000B6C  51BA               	movf	_Direccion_Memoria& (0+255),w,b
  2564  000B6E  EC28  F00A         	call	_Seria_Decodificacion_Memoria
  2565  000B72  0100               	movlb	0	; () banked
  2566  000B74  6FBA               	movwf	_Direccion_Memoria& (0+255),b
  2567  000B76                     
  2568                           ; BSR set to: 0
  2569                           ;serial.c: 92:                 Serial_Lectura_MemoriaX(Direccion_Memoria, &CoordenadaX);
  2570  000B76  0ED3               	movlw	low _CoordenadaX
  2571  000B78  6F76               	movwf	Serial_Lectura_MemoriaX@pointerCX& (0+255),b
  2572  000B7A  0E00               	movlw	high _CoordenadaX
  2573  000B7C  6F77               	movwf	(Serial_Lectura_MemoriaX@pointerCX+1)& (0+255),b
  2574  000B7E  51BA               	movf	_Direccion_Memoria& (0+255),w,b
  2575  000B80  ECF1  F012         	call	_Serial_Lectura_MemoriaX
  2576  000B84                     
  2577                           ;serial.c: 93:                 Serial_Lectura_MemoriaY(Direccion_Memoria, &CoordenadaY);
  2578  000B84  0ED1               	movlw	low _CoordenadaY
  2579  000B86  0100               	movlb	0	; () banked
  2580  000B88  6F76               	movwf	Serial_Lectura_MemoriaY@pointerCY& (0+255),b
  2581  000B8A  0E00               	movlw	high _CoordenadaY
  2582  000B8C  6F77               	movwf	(Serial_Lectura_MemoriaY@pointerCY+1)& (0+255),b
  2583  000B8E  51BA               	movf	_Direccion_Memoria& (0+255),w,b
  2584  000B90  ECEB  F011         	call	_Serial_Lectura_MemoriaY
  2585  000B94                     
  2586                           ;serial.c: 94:                 Serial_Lectura_MemoriaZ(Direccion_Memoria, &CoordenadaZ);
  2587  000B94  0ECF               	movlw	low _CoordenadaZ
  2588  000B96  0100               	movlb	0	; () banked
  2589  000B98  6F76               	movwf	Serial_Lectura_MemoriaZ@pointerCZ& (0+255),b
  2590  000B9A  0E00               	movlw	high _CoordenadaZ
  2591  000B9C  6F77               	movwf	(Serial_Lectura_MemoriaZ@pointerCZ+1)& (0+255),b
  2592  000B9E  51BA               	movf	_Direccion_Memoria& (0+255),w,b
  2593  000BA0  EC68  F011         	call	_Serial_Lectura_MemoriaZ
  2594  000BA4                     
  2595                           ;serial.c: 95:                 if (Coordenadas_fuera == 1) {
  2596  000BA4  0100               	movlb	0	; () banked
  2597  000BA6  05B9               	decf	_Coordenadas_fuera& (0+255),w,b
  2598  000BA8  A4D8               	btfss	status,2,c
  2599  000BAA  EFD9  F005         	goto	u3841
  2600  000BAE  EFDB  F005         	goto	u3840
  2601  000BB2                     u3841:
  2602  000BB2  EFE7  F005         	goto	l5165
  2603  000BB6                     u3840:
  2604  000BB6                     
  2605                           ; BSR set to: 0
  2606                           ;serial.c: 96:                     USART_TxS("E1\n", sizeof ("E1\n") - 1);
  2607  000BB6  0EA6               	movlw	low STR_3
  2608  000BB8  6F60               	movwf	USART_TxS@str& (0+255),b
  2609  000BBA  0E08               	movlw	high STR_3
  2610  000BBC  6F61               	movwf	(USART_TxS@str+1)& (0+255),b
  2611  000BBE  0E00               	movlw	0
  2612  000BC0  6F63               	movwf	(USART_TxS@length+1)& (0+255),b
  2613  000BC2  0E03               	movlw	3
  2614  000BC4  6F62               	movwf	USART_TxS@length& (0+255),b
  2615  000BC6  ECF1  F015         	call	_USART_TxS	;wreg free
  2616  000BCA  EFEB  F004         	goto	l5105
  2617  000BCE                     l5165:
  2618                           
  2619                           ; BSR set to: 0
  2620  000BCE  05B8               	decf	_Coordenadas_mal& (0+255),w,b
  2621  000BD0  A4D8               	btfss	status,2,c
  2622  000BD2  EFED  F005         	goto	u3851
  2623  000BD6  EFEF  F005         	goto	u3850
  2624  000BDA                     u3851:
  2625  000BDA  EFFB  F005         	goto	l5171
  2626  000BDE                     u3850:
  2627  000BDE                     
  2628                           ; BSR set to: 0
  2629                           ;serial.c: 100:                     USART_TxS("E2\n", sizeof ("E2\n") - 1);
  2630  000BDE  0EAE               	movlw	low STR_4
  2631  000BE0  6F60               	movwf	USART_TxS@str& (0+255),b
  2632  000BE2  0E08               	movlw	high STR_4
  2633  000BE4  6F61               	movwf	(USART_TxS@str+1)& (0+255),b
  2634  000BE6  0E00               	movlw	0
  2635  000BE8  6F63               	movwf	(USART_TxS@length+1)& (0+255),b
  2636  000BEA  0E03               	movlw	3
  2637  000BEC  6F62               	movwf	USART_TxS@length& (0+255),b
  2638  000BEE  ECF1  F015         	call	_USART_TxS	;wreg free
  2639  000BF2  EF02  F005         	goto	l5111
  2640  000BF6                     l5171:
  2641                           
  2642                           ; BSR set to: 0
  2643                           ;serial.c: 105:                     Motor_Movimiento(Oupcode, CoordenadaX, CoordenadaY);
  2644  000BF6  C0D3  F097         	movff	_CoordenadaX,Motor_Movimiento@Motor_CoordenadaX
  2645  000BFA  C0D4  F098         	movff	_CoordenadaX+1,Motor_Movimiento@Motor_CoordenadaX+1
  2646  000BFE  C0D1  F099         	movff	_CoordenadaY,Motor_Movimiento@Motor_CoordenadaY
  2647  000C02  C0D2  F09A         	movff	_CoordenadaY+1,Motor_Movimiento@Motor_CoordenadaY+1
  2648  000C06  519F               	movf	Serial_Oupcode@Oupcode& (0+255),w,b
  2649  000C08  ECB6  F014         	call	_Motor_Movimiento
  2650  000C0C  EF88  F004         	goto	l395
  2651  000C10                     l5173:
  2652                           
  2653                           ; BSR set to: 0
  2654                           ;serial.c: 111:                 Direccion_Memoria = USART_RxC();
  2655  000C10  ECC1  F019         	call	_USART_RxC	;wreg free
  2656  000C14  0100               	movlb	0	; () banked
  2657  000C16  6FBA               	movwf	_Direccion_Memoria& (0+255),b
  2658  000C18                     
  2659                           ; BSR set to: 0
  2660                           ;serial.c: 112:                 USART_RxS(11, coordenada_setpoint);
  2661  000C18  0EBD               	movlw	low _coordenada_setpoint
  2662  000C1A  6F60               	movwf	USART_RxS@pointer& (0+255),b
  2663  000C1C  0E00               	movlw	high _coordenada_setpoint
  2664  000C1E  6F61               	movwf	(USART_RxS@pointer+1)& (0+255),b
  2665  000C20  0E0B               	movlw	11
  2666  000C22  ECCE  F016         	call	_USART_RxS
  2667  000C26                     
  2668                           ;serial.c: 113:                 USART_TxS("W\n", sizeof ("W\n") - 1);
  2669  000C26  0EE9               	movlw	low STR_2
  2670  000C28  0100               	movlb	0	; () banked
  2671  000C2A  6F60               	movwf	USART_TxS@str& (0+255),b
  2672  000C2C  0E08               	movlw	high STR_2
  2673  000C2E  6F61               	movwf	(USART_TxS@str+1)& (0+255),b
  2674  000C30  0E00               	movlw	0
  2675  000C32  6F63               	movwf	(USART_TxS@length+1)& (0+255),b
  2676  000C34  0E02               	movlw	2
  2677  000C36  6F62               	movwf	USART_TxS@length& (0+255),b
  2678  000C38  ECF1  F015         	call	_USART_TxS	;wreg free
  2679  000C3C                     
  2680                           ;serial.c: 114:                 Direccion_Memoria = Seria_Decodificacion_Memoria(Direcci
      +                          on_Memoria);
  2681  000C3C  0100               	movlb	0	; () banked
  2682  000C3E  51BA               	movf	_Direccion_Memoria& (0+255),w,b
  2683  000C40  EC28  F00A         	call	_Seria_Decodificacion_Memoria
  2684  000C44  0100               	movlb	0	; () banked
  2685  000C46  6FBA               	movwf	_Direccion_Memoria& (0+255),b
  2686  000C48                     
  2687                           ; BSR set to: 0
  2688                           ;serial.c: 115:                 Serial_Escritura_Memoria(Direccion_Memoria, coordenada_s
      +                          etpoint);
  2689  000C48  0EBD               	movlw	low _coordenada_setpoint
  2690  000C4A  6F68               	movwf	Serial_Escritura_Memoria@string_setpoint& (0+255),b
  2691  000C4C  0E00               	movlw	high _coordenada_setpoint
  2692  000C4E  6F69               	movwf	(Serial_Escritura_Memoria@string_setpoint+1)& (0+255),b
  2693  000C50  51BA               	movf	_Direccion_Memoria& (0+255),w,b
  2694  000C52  EC30  F00F         	call	_Serial_Escritura_Memoria
  2695                           
  2696                           ;serial.c: 116:                 break;
  2697  000C56  EF88  F004         	goto	l395
  2698  000C5A                     l5183:
  2699                           
  2700                           ; BSR set to: 0
  2701                           ;serial.c: 118:                  USART_TxS("W\n", sizeof ("W\n") - 1);
  2702  000C5A  0EE9               	movlw	low STR_2
  2703  000C5C  6F60               	movwf	USART_TxS@str& (0+255),b
  2704  000C5E  0E08               	movlw	high STR_2
  2705  000C60  6F61               	movwf	(USART_TxS@str+1)& (0+255),b
  2706  000C62  0E00               	movlw	0
  2707  000C64  6F63               	movwf	(USART_TxS@length+1)& (0+255),b
  2708  000C66  0E02               	movlw	2
  2709  000C68  6F62               	movwf	USART_TxS@length& (0+255),b
  2710  000C6A  ECF1  F015         	call	_USART_TxS	;wreg free
  2711                           
  2712                           ;serial.c: 119:                 while (PORTAbits.RA5 == 0) {
  2713  000C6E  EF3B  F006         	goto	l5187
  2714  000C72                     l5185:
  2715                           
  2716                           ;serial.c: 120:                     Motor_MovimientoZ();
  2717  000C72  EC9C  F016         	call	_Motor_MovimientoZ	;wreg free
  2718  000C76                     l5187:
  2719                           
  2720                           ;serial.c: 119:                 while (PORTAbits.RA5 == 0) {
  2721  000C76  AA80               	btfss	128,5,c	;volatile
  2722  000C78  EF40  F006         	goto	u3861
  2723  000C7C  EF42  F006         	goto	u3860
  2724  000C80                     u3861:
  2725  000C80  EF39  F006         	goto	l5185
  2726  000C84                     u3860:
  2727  000C84                     
  2728                           ;serial.c: 122:                  USART_TxS("R\n", sizeof ("R\n") - 1);
  2729  000C84  0EE6               	movlw	low STR_1
  2730  000C86  0100               	movlb	0	; () banked
  2731  000C88  6F60               	movwf	USART_TxS@str& (0+255),b
  2732  000C8A  0E08               	movlw	high STR_1
  2733  000C8C  6F61               	movwf	(USART_TxS@str+1)& (0+255),b
  2734  000C8E  0E00               	movlw	0
  2735  000C90  6F63               	movwf	(USART_TxS@length+1)& (0+255),b
  2736  000C92  0E02               	movlw	2
  2737  000C94  6F62               	movwf	USART_TxS@length& (0+255),b
  2738  000C96  ECF1  F015         	call	_USART_TxS	;wreg free
  2739                           
  2740                           ;serial.c: 123:                 break;
  2741  000C9A  EF88  F004         	goto	l395
  2742  000C9E                     l5191:
  2743                           
  2744                           ; BSR set to: 0
  2745                           ;serial.c: 125:                 USART_TxS("F", sizeof ("F") - 1);
  2746  000C9E  0EF5               	movlw	low STR_17
  2747  000CA0  6F60               	movwf	USART_TxS@str& (0+255),b
  2748  000CA2  0E08               	movlw	high STR_17
  2749  000CA4  6F61               	movwf	(USART_TxS@str+1)& (0+255),b
  2750  000CA6  0E00               	movlw	0
  2751  000CA8  6F63               	movwf	(USART_TxS@length+1)& (0+255),b
  2752  000CAA  0E01               	movlw	1
  2753  000CAC  6F62               	movwf	USART_TxS@length& (0+255),b
  2754  000CAE  ECF1  F015         	call	_USART_TxS	;wreg free
  2755  000CB2  EF8C  F006         	goto	l423
  2756  000CB6                     l5199:
  2757                           
  2758                           ; BSR set to: 0
  2759  000CB6  519F               	movf	Serial_Oupcode@Oupcode& (0+255),w,b
  2760  000CB8  6F9C               	movwf	??_Serial_Oupcode& (0+255),b
  2761  000CBA  6B9D               	clrf	(??_Serial_Oupcode+1)& (0+255),b
  2762                           
  2763                           ; Switch on 2 bytes has been partitioned into a top level switch of size 1, and 1 sub-sw
      +                          itches
  2764                           ; Switch size 1, requested type "simple"
  2765                           ; Number of cases is 1, Range of values is 0 to 0
  2766                           ; switch strategies available:
  2767                           ; Name         Instructions Cycles
  2768                           ; simple_byte            4     3 (average)
  2769                           ;	Chosen strategy is simple_byte
  2770  000CBC  519D               	movf	(??_Serial_Oupcode+1)& (0+255),w,b
  2771  000CBE  0A00               	xorlw	0	; case 0
  2772  000CC0  B4D8               	btfsc	status,2,c
  2773  000CC2  EF65  F006         	goto	l6493
  2774  000CC6  EF88  F004         	goto	l395
  2775  000CCA                     l6493:
  2776                           
  2777                           ; BSR set to: 0
  2778                           ; Switch size 1, requested type "simple"
  2779                           ; Number of cases is 9, Range of values is 65 to 84
  2780                           ; switch strategies available:
  2781                           ; Name         Instructions Cycles
  2782                           ; simple_byte           28    15 (average)
  2783                           ;	Chosen strategy is simple_byte
  2784  000CCA  519C               	movf	??_Serial_Oupcode& (0+255),w,b
  2785  000CCC  0A41               	xorlw	65	; case 65
  2786  000CCE  B4D8               	btfsc	status,2,c
  2787  000CD0  EF2D  F006         	goto	l5183
  2788  000CD4  0A04               	xorlw	4	; case 69
  2789  000CD6  B4D8               	btfsc	status,2,c
  2790  000CD8  EF4F  F006         	goto	l5191
  2791  000CDC  0A03               	xorlw	3	; case 70
  2792  000CDE  B4D8               	btfsc	status,2,c
  2793  000CE0  EFA4  F004         	goto	l5089
  2794  000CE4  0A0E               	xorlw	14	; case 72
  2795  000CE6  B4D8               	btfsc	status,2,c
  2796  000CE8  EF8C  F005         	goto	l5143
  2797  000CEC  0A05               	xorlw	5	; case 77
  2798  000CEE  B4D8               	btfsc	status,2,c
  2799  000CF0  EF08  F006         	goto	l5173
  2800  000CF4  0A02               	xorlw	2	; case 79
  2801  000CF6  B4D8               	btfsc	status,2,c
  2802  000CF8  EFA8  F005         	goto	l5147
  2803  000CFC  0A1D               	xorlw	29	; case 82
  2804  000CFE  B4D8               	btfsc	status,2,c
  2805  000D00  EF9A  F005         	goto	l5145
  2806  000D04  0A01               	xorlw	1	; case 83
  2807  000D06  B4D8               	btfsc	status,2,c
  2808  000D08  EF14  F005         	goto	l5115
  2809  000D0C  0A07               	xorlw	7	; case 84
  2810  000D0E  B4D8               	btfsc	status,2,c
  2811  000D10  EF7E  F005         	goto	l5141
  2812  000D14  EF88  F004         	goto	l395
  2813  000D18                     l423:
  2814  000D18  0012               	return		;funcret
  2815  000D1A                     __end_of_Serial_Oupcode:
  2816                           	opt callstack 0
  2817                           
  2818 ;; *************** function _USART_RxS *****************
  2819 ;; Defined at:
  2820 ;;		line 48 in file "UART.c"
  2821 ;; Parameters:    Size  Location     Type
  2822 ;;  length          1    wreg     unsigned char 
  2823 ;;  pointer         2    0[BANK0 ] PTR unsigned char 
  2824 ;;		 -> coordenada_setpoint(11), coordenada_array(7), 
  2825 ;; Auto vars:     Size  Location     Type
  2826 ;;  length          1    5[BANK0 ] unsigned char 
  2827 ;;  i               2    6[BANK0 ] int 
  2828 ;; Return value:  Size  Location     Type
  2829 ;;                  1    wreg      void 
  2830 ;; Registers used:
  2831 ;;		wreg, fsr2l, fsr2h, status,2, status,0
  2832 ;; Tracked objects:
  2833 ;;		On entry : 0/0
  2834 ;;		On exit  : 0/0
  2835 ;;		Unchanged: 0/0
  2836 ;; Data sizes:     COMRAM   BANK0   BANK1   BANK2   BANK3   BANK4   BANK5   BANK6   BANK7
  2837 ;;      Params:         0       2       0       0       0       0       0       0       0
  2838 ;;      Locals:         0       3       0       0       0       0       0       0       0
  2839 ;;      Temps:          0       3       0       0       0       0       0       0       0
  2840 ;;      Totals:         0       8       0       0       0       0       0       0       0
  2841 ;;Total ram usage:        8 bytes
  2842 ;; Hardware stack levels used:    1
  2843 ;; Hardware stack levels required when called:    5
  2844 ;; This function calls:
  2845 ;;		Nothing
  2846 ;; This function is called by:
  2847 ;;		_Serial_Oupcode
  2848 ;; This function uses a non-reentrant model
  2849 ;;
  2850                           
  2851                           	psect	text8
  2852  002D9C                     __ptext8:
  2853                           	opt callstack 0
  2854  002D9C                     _USART_RxS:
  2855                           	opt callstack 24
  2856                           
  2857                           ;incstack = 0
  2858                           ;USART_RxS@length stored from wreg
  2859  002D9C  0100               	movlb	0	; () banked
  2860  002D9E  6F65               	movwf	USART_RxS@length& (0+255),b
  2861  002DA0                     
  2862                           ;UART.c: 49:     for (int i = 0; i < (length); i++)
  2863  002DA0  0E00               	movlw	0
  2864  002DA2  0100               	movlb	0	; () banked
  2865  002DA4  6F67               	movwf	(USART_RxS@i+1)& (0+255),b
  2866  002DA6  0E00               	movlw	0
  2867  002DA8  6F66               	movwf	USART_RxS@i& (0+255),b
  2868  002DAA  EFE9  F016         	goto	l4543
  2869  002DAE                     l127:
  2870  002DAE  AA9E               	btfss	3998,5,c	;volatile
  2871  002DB0  EFDC  F016         	goto	u3401
  2872  002DB4  EFDE  F016         	goto	u3400
  2873  002DB8                     u3401:
  2874  002DB8  EFD7  F016         	goto	l127
  2875  002DBC                     u3400:
  2876  002DBC                     
  2877                           ;UART.c: 52:             pointer[i] = RCREG;
  2878  002DBC  0100               	movlb	0	; () banked
  2879  002DBE  5166               	movf	USART_RxS@i& (0+255),w,b
  2880  002DC0  2560               	addwf	USART_RxS@pointer& (0+255),w,b
  2881  002DC2  6ED9               	movwf	fsr2l,c
  2882  002DC4  5167               	movf	(USART_RxS@i+1)& (0+255),w,b
  2883  002DC6  2161               	addwfc	(USART_RxS@pointer+1)& (0+255),w,b
  2884  002DC8  6EDA               	movwf	fsr2h,c
  2885  002DCA  CFAE FFDF          	movff	4014,indf2	;volatile
  2886  002DCE                     
  2887                           ; BSR set to: 0
  2888                           ;UART.c: 53:         }
  2889  002DCE  4B66               	infsnz	USART_RxS@i& (0+255),f,b
  2890  002DD0  2B67               	incf	(USART_RxS@i+1)& (0+255),f,b
  2891  002DD2                     l4543:
  2892                           
  2893                           ; BSR set to: 0
  2894  002DD2  5165               	movf	USART_RxS@length& (0+255),w,b
  2895  002DD4  6F62               	movwf	??_USART_RxS& (0+255),b
  2896  002DD6  6B63               	clrf	(??_USART_RxS+1)& (0+255),b
  2897  002DD8  5162               	movf	??_USART_RxS& (0+255),w,b
  2898  002DDA  5D66               	subwf	USART_RxS@i& (0+255),w,b
  2899  002DDC  5167               	movf	(USART_RxS@i+1)& (0+255),w,b
  2900  002DDE  0A80               	xorlw	128
  2901  002DE0  6F64               	movwf	(??_USART_RxS+2)& (0+255),b
  2902  002DE2  5163               	movf	(??_USART_RxS+1)& (0+255),w,b
  2903  002DE4  0A80               	xorlw	128
  2904  002DE6  5964               	subwfb	(??_USART_RxS+2)& (0+255),w,b
  2905  002DE8  A0D8               	btfss	status,0,c
  2906  002DEA  EFF9  F016         	goto	u3411
  2907  002DEE  EFFB  F016         	goto	u3410
  2908  002DF2                     u3411:
  2909  002DF2  EFD7  F016         	goto	l127
  2910  002DF6                     u3410:
  2911  002DF6                     
  2912                           ; BSR set to: 0
  2913  002DF6  0012               	return		;funcret
  2914  002DF8                     __end_of_USART_RxS:
  2915                           	opt callstack 0
  2916                           
  2917 ;; *************** function _USART_RxC *****************
  2918 ;; Defined at:
  2919 ;;		line 30 in file "UART.c"
  2920 ;; Parameters:    Size  Location     Type
  2921 ;;		None
  2922 ;; Auto vars:     Size  Location     Type
  2923 ;;		None
  2924 ;; Return value:  Size  Location     Type
  2925 ;;                  1    wreg      unsigned char 
  2926 ;; Registers used:
  2927 ;;		wreg, status,2
  2928 ;; Tracked objects:
  2929 ;;		On entry : 0/0
  2930 ;;		On exit  : 0/0
  2931 ;;		Unchanged: 0/0
  2932 ;; Data sizes:     COMRAM   BANK0   BANK1   BANK2   BANK3   BANK4   BANK5   BANK6   BANK7
  2933 ;;      Params:         0       0       0       0       0       0       0       0       0
  2934 ;;      Locals:         0       0       0       0       0       0       0       0       0
  2935 ;;      Temps:          0       0       0       0       0       0       0       0       0
  2936 ;;      Totals:         0       0       0       0       0       0       0       0       0
  2937 ;;Total ram usage:        0 bytes
  2938 ;; Hardware stack levels used:    1
  2939 ;; Hardware stack levels required when called:    5
  2940 ;; This function calls:
  2941 ;;		Nothing
  2942 ;; This function is called by:
  2943 ;;		_Serial_Oupcode
  2944 ;; This function uses a non-reentrant model
  2945 ;;
  2946                           
  2947                           	psect	text9
  2948  003382                     __ptext9:
  2949                           	opt callstack 0
  2950  003382                     _USART_RxC:
  2951                           	opt callstack 24
  2952  003382                     l104:
  2953  003382  AA9E               	btfss	158,5,c	;volatile
  2954  003384  EFC6  F019         	goto	u3391
  2955  003388  EFC8  F019         	goto	u3390
  2956  00338C                     u3391:
  2957  00338C  EFC1  F019         	goto	l104
  2958  003390                     u3390:
  2959  003390                     
  2960                           ;UART.c: 32:     return RCREG;
  2961  003390  50AE               	movf	174,w,c	;volatile
  2962  003392  0012               	return		;funcret
  2963  003394                     __end_of_USART_RxC:
  2964                           	opt callstack 0
  2965                           
  2966 ;; *************** function _Serial_Lectura_MemoriaZ *****************
  2967 ;; Defined at:
  2968 ;;		line 289 in file "serial.c"
  2969 ;; Parameters:    Size  Location     Type
  2970 ;;  direccion       1    wreg     unsigned char 
  2971 ;;  pointerCZ       2   22[BANK0 ] PTR int 
  2972 ;;		 -> CoordenadaZ(2), 
  2973 ;; Auto vars:     Size  Location     Type
  2974 ;;  direccion       1   25[BANK0 ] unsigned char 
  2975 ;;  i               2   32[BANK0 ] int 
  2976 ;;  i               2   30[BANK0 ] int 
  2977 ;;  coordenadaZ     3   27[BANK0 ] unsigned char [3]
  2978 ;;  direccionZ      1   26[BANK0 ] unsigned char 
  2979 ;; Return value:  Size  Location     Type
  2980 ;;                  1    wreg      void 
  2981 ;; Registers used:
  2982 ;;		wreg, fsr0l, fsr0h, fsr2l, fsr2h, status,2, status,0, tblptrl, tblptrh, tblptru, prodl, prodh, cstack
  2983 ;; Tracked objects:
  2984 ;;		On entry : 0/0
  2985 ;;		On exit  : 0/0
  2986 ;;		Unchanged: 0/0
  2987 ;; Data sizes:     COMRAM   BANK0   BANK1   BANK2   BANK3   BANK4   BANK5   BANK6   BANK7
  2988 ;;      Params:         0       2       0       0       0       0       0       0       0
  2989 ;;      Locals:         0       9       0       0       0       0       0       0       0
  2990 ;;      Temps:          0       1       0       0       0       0       0       0       0
  2991 ;;      Totals:         0      12       0       0       0       0       0       0       0
  2992 ;;Total ram usage:       12 bytes
  2993 ;; Hardware stack levels used:    1
  2994 ;; Hardware stack levels required when called:    7
  2995 ;; This function calls:
  2996 ;;		_EEPROM_Rx
  2997 ;;		_Serial_RangosCoordenadas
  2998 ;;		_USART_TxS
  2999 ;;		_atoi
  3000 ;; This function is called by:
  3001 ;;		_Serial_Oupcode
  3002 ;; This function uses a non-reentrant model
  3003 ;;
  3004                           
  3005                           	psect	text10
  3006  0022D0                     __ptext10:
  3007                           	opt callstack 0
  3008  0022D0                     _Serial_Lectura_MemoriaZ:
  3009                           	opt callstack 22
  3010                           
  3011                           ;incstack = 0
  3012                           ;Serial_Lectura_MemoriaZ@direccion stored from wreg
  3013  0022D0  0100               	movlb	0	; () banked
  3014  0022D2  6F79               	movwf	Serial_Lectura_MemoriaZ@direccion& (0+255),b
  3015  0022D4                     
  3016                           ;serial.c: 290:     char coordenadaZ[3];;serial.c: 291:     char direccionZ;;serial.c: 2
      +                          92:     for (int i = 0; i < 3; i++) {
  3017  0022D4  0E00               	movlw	0
  3018  0022D6  0100               	movlb	0	; () banked
  3019  0022D8  6F7F               	movwf	(Serial_Lectura_MemoriaZ@i+1)& (0+255),b
  3020  0022DA  0E00               	movlw	0
  3021  0022DC  6F7E               	movwf	Serial_Lectura_MemoriaZ@i& (0+255),b
  3022  0022DE                     l4801:
  3023                           
  3024                           ; BSR set to: 0
  3025                           ;serial.c: 293:         direccionZ = direccion + i + 6;
  3026  0022DE  5179               	movf	Serial_Lectura_MemoriaZ@direccion& (0+255),w,b
  3027  0022E0  257E               	addwf	Serial_Lectura_MemoriaZ@i& (0+255),w,b
  3028  0022E2  0F06               	addlw	6
  3029  0022E4  6F7A               	movwf	Serial_Lectura_MemoriaZ@direccionZ& (0+255),b
  3030  0022E6                     
  3031                           ; BSR set to: 0
  3032                           ;serial.c: 294:         coordenadaZ[i] = EEPROM_Rx(direccionZ);
  3033  0022E6  0E7B               	movlw	low Serial_Lectura_MemoriaZ@coordenadaZ
  3034  0022E8  257E               	addwf	Serial_Lectura_MemoriaZ@i& (0+255),w,b
  3035  0022EA  6ED9               	movwf	fsr2l,c
  3036  0022EC  0E00               	movlw	high Serial_Lectura_MemoriaZ@coordenadaZ
  3037  0022EE  217F               	addwfc	(Serial_Lectura_MemoriaZ@i+1)& (0+255),w,b
  3038  0022F0  6EDA               	movwf	fsr2h,c
  3039  0022F2  517A               	movf	Serial_Lectura_MemoriaZ@direccionZ& (0+255),w,b
  3040  0022F4  ECA2  F019         	call	_EEPROM_Rx
  3041  0022F8  6EDF               	movwf	indf2,c
  3042  0022FA                     
  3043                           ;serial.c: 295:     }
  3044  0022FA  0100               	movlb	0	; () banked
  3045  0022FC  4B7E               	infsnz	Serial_Lectura_MemoriaZ@i& (0+255),f,b
  3046  0022FE  2B7F               	incf	(Serial_Lectura_MemoriaZ@i+1)& (0+255),f,b
  3047  002300                     
  3048                           ; BSR set to: 0
  3049  002300  BF7F               	btfsc	(Serial_Lectura_MemoriaZ@i+1)& (0+255),7,b
  3050  002302  EF8C  F011         	goto	u3581
  3051  002306  517F               	movf	(Serial_Lectura_MemoriaZ@i+1)& (0+255),w,b
  3052  002308  E109               	bnz	u3580
  3053  00230A  0E03               	movlw	3
  3054  00230C  5D7E               	subwf	Serial_Lectura_MemoriaZ@i& (0+255),w,b
  3055  00230E  A0D8               	btfss	status,0,c
  3056  002310  EF8C  F011         	goto	u3581
  3057  002314  EF8E  F011         	goto	u3580
  3058  002318                     u3581:
  3059  002318  EF6F  F011         	goto	l4801
  3060  00231C                     u3580:
  3061  00231C                     
  3062                           ; BSR set to: 0
  3063                           ;serial.c: 296:     for (int i = 0; i < 3; i++) {
  3064  00231C  0E00               	movlw	0
  3065  00231E  6F81               	movwf	(Serial_Lectura_MemoriaZ@i_1447+1)& (0+255),b
  3066  002320  0E00               	movlw	0
  3067  002322  6F80               	movwf	Serial_Lectura_MemoriaZ@i_1447& (0+255),b
  3068  002324                     l4815:
  3069                           
  3070                           ; BSR set to: 0
  3071                           ;serial.c: 297:         if (!(coordenadaZ[i] >= 48 && coordenadaZ[i] <= 57)) {
  3072  002324  0E7B               	movlw	low Serial_Lectura_MemoriaZ@coordenadaZ
  3073  002326  2580               	addwf	Serial_Lectura_MemoriaZ@i_1447& (0+255),w,b
  3074  002328  6ED9               	movwf	fsr2l,c
  3075  00232A  0E00               	movlw	high Serial_Lectura_MemoriaZ@coordenadaZ
  3076  00232C  2181               	addwfc	(Serial_Lectura_MemoriaZ@i_1447+1)& (0+255),w,b
  3077  00232E  6EDA               	movwf	fsr2h,c
  3078  002330  0E2F               	movlw	47
  3079  002332  64DF               	cpfsgt	indf2,c
  3080  002334  EF9E  F011         	goto	u3591
  3081  002338  EFA0  F011         	goto	u3590
  3082  00233C                     u3591:
  3083  00233C  EFAE  F011         	goto	l4819
  3084  002340                     u3590:
  3085  002340                     
  3086                           ; BSR set to: 0
  3087  002340  0E7B               	movlw	low Serial_Lectura_MemoriaZ@coordenadaZ
  3088  002342  2580               	addwf	Serial_Lectura_MemoriaZ@i_1447& (0+255),w,b
  3089  002344  6ED9               	movwf	fsr2l,c
  3090  002346  0E00               	movlw	high Serial_Lectura_MemoriaZ@coordenadaZ
  3091  002348  2181               	addwfc	(Serial_Lectura_MemoriaZ@i_1447+1)& (0+255),w,b
  3092  00234A  6EDA               	movwf	fsr2h,c
  3093  00234C  0E39               	movlw	57
  3094  00234E  64DF               	cpfsgt	indf2,c
  3095  002350  EFAC  F011         	goto	u3601
  3096  002354  EFAE  F011         	goto	u3600
  3097  002358                     u3601:
  3098  002358  EFB0  F011         	goto	l4821
  3099  00235C                     u3600:
  3100  00235C                     l4819:
  3101                           
  3102                           ; BSR set to: 0
  3103                           ;serial.c: 298:             Coordenadas_mal = 1;
  3104  00235C  0E01               	movlw	1
  3105  00235E  6FB8               	movwf	_Coordenadas_mal& (0+255),b
  3106  002360                     l4821:
  3107                           
  3108                           ; BSR set to: 0
  3109                           ;serial.c: 300:     }
  3110  002360  4B80               	infsnz	Serial_Lectura_MemoriaZ@i_1447& (0+255),f,b
  3111  002362  2B81               	incf	(Serial_Lectura_MemoriaZ@i_1447+1)& (0+255),f,b
  3112  002364                     
  3113                           ; BSR set to: 0
  3114  002364  BF81               	btfsc	(Serial_Lectura_MemoriaZ@i_1447+1)& (0+255),7,b
  3115  002366  EFBE  F011         	goto	u3611
  3116  00236A  5181               	movf	(Serial_Lectura_MemoriaZ@i_1447+1)& (0+255),w,b
  3117  00236C  E109               	bnz	u3610
  3118  00236E  0E03               	movlw	3
  3119  002370  5D80               	subwf	Serial_Lectura_MemoriaZ@i_1447& (0+255),w,b
  3120  002372  A0D8               	btfss	status,0,c
  3121  002374  EFBE  F011         	goto	u3611
  3122  002378  EFC0  F011         	goto	u3610
  3123  00237C                     u3611:
  3124  00237C  EF92  F011         	goto	l4815
  3125  002380                     u3610:
  3126  002380                     
  3127                           ; BSR set to: 0
  3128                           ;serial.c: 301:     *pointerCZ = atoi(coordenadaZ);
  3129  002380  0E7B               	movlw	low Serial_Lectura_MemoriaZ@coordenadaZ
  3130  002382  6F67               	movwf	atoi@s& (0+255),b
  3131  002384  0E00               	movlw	high Serial_Lectura_MemoriaZ@coordenadaZ
  3132  002386  6F68               	movwf	(atoi@s+1)& (0+255),b
  3133  002388  EC13  F00D         	call	_atoi	;wreg free
  3134  00238C  C076  FFD9         	movff	Serial_Lectura_MemoriaZ@pointerCZ,fsr2l
  3135  002390  C077  FFDA         	movff	Serial_Lectura_MemoriaZ@pointerCZ+1,fsr2h
  3136  002394  0100               	movlb	0	; () banked
  3137  002396  C067  FFDE         	movff	?_atoi,postinc2
  3138  00239A  C068  FFDD         	movff	?_atoi+1,postdec2
  3139  00239E                     
  3140                           ; BSR set to: 0
  3141                           ;serial.c: 302:     USART_TxS("CZ", sizeof ("CZ") - 1);
  3142  00239E  0EF2               	movlw	low STR_36
  3143  0023A0  6F60               	movwf	USART_TxS@str& (0+255),b
  3144  0023A2  0E08               	movlw	high STR_36
  3145  0023A4  6F61               	movwf	(USART_TxS@str+1)& (0+255),b
  3146  0023A6  0E00               	movlw	0
  3147  0023A8  6F63               	movwf	(USART_TxS@length+1)& (0+255),b
  3148  0023AA  0E02               	movlw	2
  3149  0023AC  6F62               	movwf	USART_TxS@length& (0+255),b
  3150  0023AE  ECF1  F015         	call	_USART_TxS	;wreg free
  3151  0023B2                     
  3152                           ;serial.c: 303:     USART_TxS(coordenadaZ, sizeof (coordenadaZ));
  3153  0023B2  0E7B               	movlw	low Serial_Lectura_MemoriaZ@coordenadaZ
  3154  0023B4  0100               	movlb	0	; () banked
  3155  0023B6  6F60               	movwf	USART_TxS@str& (0+255),b
  3156  0023B8  0E00               	movlw	high Serial_Lectura_MemoriaZ@coordenadaZ
  3157  0023BA  6F61               	movwf	(USART_TxS@str+1)& (0+255),b
  3158  0023BC  0E00               	movlw	0
  3159  0023BE  6F63               	movwf	(USART_TxS@length+1)& (0+255),b
  3160  0023C0  0E03               	movlw	3
  3161  0023C2  6F62               	movwf	USART_TxS@length& (0+255),b
  3162  0023C4  ECF1  F015         	call	_USART_TxS	;wreg free
  3163  0023C8                     
  3164                           ;serial.c: 304:     Serial_RangosCoordenadas(CoordenadaZ);
  3165  0023C8  C0CF  F060         	movff	_CoordenadaZ,Serial_RangosCoordenadas@C
  3166  0023CC  C0D0  F061         	movff	_CoordenadaZ+1,Serial_RangosCoordenadas@C+1
  3167  0023D0  EC52  F018         	call	_Serial_RangosCoordenadas	;wreg free
  3168  0023D4  0012               	return		;funcret
  3169  0023D6                     __end_of_Serial_Lectura_MemoriaZ:
  3170                           	opt callstack 0
  3171                           
  3172 ;; *************** function _Serial_Lectura_MemoriaY *****************
  3173 ;; Defined at:
  3174 ;;		line 270 in file "serial.c"
  3175 ;; Parameters:    Size  Location     Type
  3176 ;;  direccion       1    wreg     unsigned char 
  3177 ;;  pointerCY       2   22[BANK0 ] PTR int 
  3178 ;;		 -> CoordenadaY(2), 
  3179 ;; Auto vars:     Size  Location     Type
  3180 ;;  direccion       1   25[BANK0 ] unsigned char 
  3181 ;;  i               2   32[BANK0 ] int 
  3182 ;;  i               2   30[BANK0 ] int 
  3183 ;;  coordenadaY     3   27[BANK0 ] unsigned char [3]
  3184 ;;  direccionY      1   26[BANK0 ] unsigned char 
  3185 ;; Return value:  Size  Location     Type
  3186 ;;                  1    wreg      void 
  3187 ;; Registers used:
  3188 ;;		wreg, fsr0l, fsr0h, fsr2l, fsr2h, status,2, status,0, tblptrl, tblptrh, tblptru, prodl, prodh, cstack
  3189 ;; Tracked objects:
  3190 ;;		On entry : 0/0
  3191 ;;		On exit  : 0/0
  3192 ;;		Unchanged: 0/0
  3193 ;; Data sizes:     COMRAM   BANK0   BANK1   BANK2   BANK3   BANK4   BANK5   BANK6   BANK7
  3194 ;;      Params:         0       2       0       0       0       0       0       0       0
  3195 ;;      Locals:         0       9       0       0       0       0       0       0       0
  3196 ;;      Temps:          0       1       0       0       0       0       0       0       0
  3197 ;;      Totals:         0      12       0       0       0       0       0       0       0
  3198 ;;Total ram usage:       12 bytes
  3199 ;; Hardware stack levels used:    1
  3200 ;; Hardware stack levels required when called:    7
  3201 ;; This function calls:
  3202 ;;		_EEPROM_Rx
  3203 ;;		_Serial_RangosCoordenadas
  3204 ;;		_USART_TxS
  3205 ;;		_atoi
  3206 ;; This function is called by:
  3207 ;;		_Serial_Oupcode
  3208 ;; This function uses a non-reentrant model
  3209 ;;
  3210                           
  3211                           	psect	text11
  3212  0023D6                     __ptext11:
  3213                           	opt callstack 0
  3214  0023D6                     _Serial_Lectura_MemoriaY:
  3215                           	opt callstack 22
  3216                           
  3217                           ;incstack = 0
  3218                           ;Serial_Lectura_MemoriaY@direccion stored from wreg
  3219  0023D6  0100               	movlb	0	; () banked
  3220  0023D8  6F79               	movwf	Serial_Lectura_MemoriaY@direccion& (0+255),b
  3221  0023DA                     
  3222                           ;serial.c: 271:     char coordenadaY[3];;serial.c: 272:     char direccionY;;serial.c: 2
      +                          73:     for (int i = 0; i < 3; i++) {
  3223  0023DA  0E00               	movlw	0
  3224  0023DC  0100               	movlb	0	; () banked
  3225  0023DE  6F7F               	movwf	(Serial_Lectura_MemoriaY@i+1)& (0+255),b
  3226  0023E0  0E00               	movlw	0
  3227  0023E2  6F7E               	movwf	Serial_Lectura_MemoriaY@i& (0+255),b
  3228  0023E4                     l4761:
  3229                           
  3230                           ; BSR set to: 0
  3231                           ;serial.c: 274:         direccionY = direccion + i + 3;
  3232  0023E4  5179               	movf	Serial_Lectura_MemoriaY@direccion& (0+255),w,b
  3233  0023E6  257E               	addwf	Serial_Lectura_MemoriaY@i& (0+255),w,b
  3234  0023E8  0F03               	addlw	3
  3235  0023EA  6F7A               	movwf	Serial_Lectura_MemoriaY@direccionY& (0+255),b
  3236  0023EC                     
  3237                           ; BSR set to: 0
  3238                           ;serial.c: 275:         coordenadaY[i] = EEPROM_Rx(direccionY);
  3239  0023EC  0E7B               	movlw	low Serial_Lectura_MemoriaY@coordenadaY
  3240  0023EE  257E               	addwf	Serial_Lectura_MemoriaY@i& (0+255),w,b
  3241  0023F0  6ED9               	movwf	fsr2l,c
  3242  0023F2  0E00               	movlw	high Serial_Lectura_MemoriaY@coordenadaY
  3243  0023F4  217F               	addwfc	(Serial_Lectura_MemoriaY@i+1)& (0+255),w,b
  3244  0023F6  6EDA               	movwf	fsr2h,c
  3245  0023F8  517A               	movf	Serial_Lectura_MemoriaY@direccionY& (0+255),w,b
  3246  0023FA  ECA2  F019         	call	_EEPROM_Rx
  3247  0023FE  6EDF               	movwf	indf2,c
  3248  002400                     
  3249                           ;serial.c: 276:     }
  3250  002400  0100               	movlb	0	; () banked
  3251  002402  4B7E               	infsnz	Serial_Lectura_MemoriaY@i& (0+255),f,b
  3252  002404  2B7F               	incf	(Serial_Lectura_MemoriaY@i+1)& (0+255),f,b
  3253  002406                     
  3254                           ; BSR set to: 0
  3255  002406  BF7F               	btfsc	(Serial_Lectura_MemoriaY@i+1)& (0+255),7,b
  3256  002408  EF0F  F012         	goto	u3541
  3257  00240C  517F               	movf	(Serial_Lectura_MemoriaY@i+1)& (0+255),w,b
  3258  00240E  E109               	bnz	u3540
  3259  002410  0E03               	movlw	3
  3260  002412  5D7E               	subwf	Serial_Lectura_MemoriaY@i& (0+255),w,b
  3261  002414  A0D8               	btfss	status,0,c
  3262  002416  EF0F  F012         	goto	u3541
  3263  00241A  EF11  F012         	goto	u3540
  3264  00241E                     u3541:
  3265  00241E  EFF2  F011         	goto	l4761
  3266  002422                     u3540:
  3267  002422                     
  3268                           ; BSR set to: 0
  3269                           ;serial.c: 277:     for (int i = 0; i < 3; i++) {
  3270  002422  0E00               	movlw	0
  3271  002424  6F81               	movwf	(Serial_Lectura_MemoriaY@i_1439+1)& (0+255),b
  3272  002426  0E00               	movlw	0
  3273  002428  6F80               	movwf	Serial_Lectura_MemoriaY@i_1439& (0+255),b
  3274  00242A                     l4775:
  3275                           
  3276                           ; BSR set to: 0
  3277                           ;serial.c: 278:         if (!(coordenadaY[i] >= 48 && coordenadaY[i] <= 57)) {
  3278  00242A  0E7B               	movlw	low Serial_Lectura_MemoriaY@coordenadaY
  3279  00242C  2580               	addwf	Serial_Lectura_MemoriaY@i_1439& (0+255),w,b
  3280  00242E  6ED9               	movwf	fsr2l,c
  3281  002430  0E00               	movlw	high Serial_Lectura_MemoriaY@coordenadaY
  3282  002432  2181               	addwfc	(Serial_Lectura_MemoriaY@i_1439+1)& (0+255),w,b
  3283  002434  6EDA               	movwf	fsr2h,c
  3284  002436  0E2F               	movlw	47
  3285  002438  64DF               	cpfsgt	indf2,c
  3286  00243A  EF21  F012         	goto	u3551
  3287  00243E  EF23  F012         	goto	u3550
  3288  002442                     u3551:
  3289  002442  EF31  F012         	goto	l4779
  3290  002446                     u3550:
  3291  002446                     
  3292                           ; BSR set to: 0
  3293  002446  0E7B               	movlw	low Serial_Lectura_MemoriaY@coordenadaY
  3294  002448  2580               	addwf	Serial_Lectura_MemoriaY@i_1439& (0+255),w,b
  3295  00244A  6ED9               	movwf	fsr2l,c
  3296  00244C  0E00               	movlw	high Serial_Lectura_MemoriaY@coordenadaY
  3297  00244E  2181               	addwfc	(Serial_Lectura_MemoriaY@i_1439+1)& (0+255),w,b
  3298  002450  6EDA               	movwf	fsr2h,c
  3299  002452  0E39               	movlw	57
  3300  002454  64DF               	cpfsgt	indf2,c
  3301  002456  EF2F  F012         	goto	u3561
  3302  00245A  EF31  F012         	goto	u3560
  3303  00245E                     u3561:
  3304  00245E  EF33  F012         	goto	l4781
  3305  002462                     u3560:
  3306  002462                     l4779:
  3307                           
  3308                           ; BSR set to: 0
  3309                           ;serial.c: 279:             Coordenadas_mal = 1;
  3310  002462  0E01               	movlw	1
  3311  002464  6FB8               	movwf	_Coordenadas_mal& (0+255),b
  3312  002466                     l4781:
  3313                           
  3314                           ; BSR set to: 0
  3315                           ;serial.c: 281:     }
  3316  002466  4B80               	infsnz	Serial_Lectura_MemoriaY@i_1439& (0+255),f,b
  3317  002468  2B81               	incf	(Serial_Lectura_MemoriaY@i_1439+1)& (0+255),f,b
  3318  00246A                     
  3319                           ; BSR set to: 0
  3320  00246A  BF81               	btfsc	(Serial_Lectura_MemoriaY@i_1439+1)& (0+255),7,b
  3321  00246C  EF41  F012         	goto	u3571
  3322  002470  5181               	movf	(Serial_Lectura_MemoriaY@i_1439+1)& (0+255),w,b
  3323  002472  E109               	bnz	u3570
  3324  002474  0E03               	movlw	3
  3325  002476  5D80               	subwf	Serial_Lectura_MemoriaY@i_1439& (0+255),w,b
  3326  002478  A0D8               	btfss	status,0,c
  3327  00247A  EF41  F012         	goto	u3571
  3328  00247E  EF43  F012         	goto	u3570
  3329  002482                     u3571:
  3330  002482  EF15  F012         	goto	l4775
  3331  002486                     u3570:
  3332  002486                     
  3333                           ; BSR set to: 0
  3334                           ;serial.c: 282:     *pointerCY = atoi(coordenadaY);
  3335  002486  0E7B               	movlw	low Serial_Lectura_MemoriaY@coordenadaY
  3336  002488  6F67               	movwf	atoi@s& (0+255),b
  3337  00248A  0E00               	movlw	high Serial_Lectura_MemoriaY@coordenadaY
  3338  00248C  6F68               	movwf	(atoi@s+1)& (0+255),b
  3339  00248E  EC13  F00D         	call	_atoi	;wreg free
  3340  002492  C076  FFD9         	movff	Serial_Lectura_MemoriaY@pointerCY,fsr2l
  3341  002496  C077  FFDA         	movff	Serial_Lectura_MemoriaY@pointerCY+1,fsr2h
  3342  00249A  0100               	movlb	0	; () banked
  3343  00249C  C067  FFDE         	movff	?_atoi,postinc2
  3344  0024A0  C068  FFDD         	movff	?_atoi+1,postdec2
  3345  0024A4                     
  3346                           ; BSR set to: 0
  3347                           ;serial.c: 283:     USART_TxS("CY", sizeof ("CY") - 1);
  3348  0024A4  0EEF               	movlw	low STR_35
  3349  0024A6  6F60               	movwf	USART_TxS@str& (0+255),b
  3350  0024A8  0E08               	movlw	high STR_35
  3351  0024AA  6F61               	movwf	(USART_TxS@str+1)& (0+255),b
  3352  0024AC  0E00               	movlw	0
  3353  0024AE  6F63               	movwf	(USART_TxS@length+1)& (0+255),b
  3354  0024B0  0E02               	movlw	2
  3355  0024B2  6F62               	movwf	USART_TxS@length& (0+255),b
  3356  0024B4  ECF1  F015         	call	_USART_TxS	;wreg free
  3357  0024B8                     
  3358                           ;serial.c: 284:     USART_TxS(coordenadaY, sizeof (coordenadaY));
  3359  0024B8  0E7B               	movlw	low Serial_Lectura_MemoriaY@coordenadaY
  3360  0024BA  0100               	movlb	0	; () banked
  3361  0024BC  6F60               	movwf	USART_TxS@str& (0+255),b
  3362  0024BE  0E00               	movlw	high Serial_Lectura_MemoriaY@coordenadaY
  3363  0024C0  6F61               	movwf	(USART_TxS@str+1)& (0+255),b
  3364  0024C2  0E00               	movlw	0
  3365  0024C4  6F63               	movwf	(USART_TxS@length+1)& (0+255),b
  3366  0024C6  0E03               	movlw	3
  3367  0024C8  6F62               	movwf	USART_TxS@length& (0+255),b
  3368  0024CA  ECF1  F015         	call	_USART_TxS	;wreg free
  3369  0024CE                     
  3370                           ;serial.c: 285:     Serial_RangosCoordenadas(CoordenadaY);
  3371  0024CE  C0D1  F060         	movff	_CoordenadaY,Serial_RangosCoordenadas@C
  3372  0024D2  C0D2  F061         	movff	_CoordenadaY+1,Serial_RangosCoordenadas@C+1
  3373  0024D6  EC52  F018         	call	_Serial_RangosCoordenadas	;wreg free
  3374  0024DA  0012               	return		;funcret
  3375  0024DC                     __end_of_Serial_Lectura_MemoriaY:
  3376                           	opt callstack 0
  3377                           
  3378 ;; *************** function _Serial_Lectura_MemoriaX *****************
  3379 ;; Defined at:
  3380 ;;		line 251 in file "serial.c"
  3381 ;; Parameters:    Size  Location     Type
  3382 ;;  direccion       1    wreg     unsigned char 
  3383 ;;  pointerCX       2   22[BANK0 ] PTR int 
  3384 ;;		 -> CoordenadaX(2), 
  3385 ;; Auto vars:     Size  Location     Type
  3386 ;;  direccion       1   25[BANK0 ] unsigned char 
  3387 ;;  i               2   32[BANK0 ] int 
  3388 ;;  i               2   30[BANK0 ] int 
  3389 ;;  coordenadaX     3   27[BANK0 ] unsigned char [3]
  3390 ;;  direccionX      1   26[BANK0 ] unsigned char 
  3391 ;; Return value:  Size  Location     Type
  3392 ;;                  1    wreg      void 
  3393 ;; Registers used:
  3394 ;;		wreg, fsr0l, fsr0h, fsr2l, fsr2h, status,2, status,0, tblptrl, tblptrh, tblptru, prodl, prodh, cstack
  3395 ;; Tracked objects:
  3396 ;;		On entry : 0/0
  3397 ;;		On exit  : 0/0
  3398 ;;		Unchanged: 0/0
  3399 ;; Data sizes:     COMRAM   BANK0   BANK1   BANK2   BANK3   BANK4   BANK5   BANK6   BANK7
  3400 ;;      Params:         0       2       0       0       0       0       0       0       0
  3401 ;;      Locals:         0       9       0       0       0       0       0       0       0
  3402 ;;      Temps:          0       1       0       0       0       0       0       0       0
  3403 ;;      Totals:         0      12       0       0       0       0       0       0       0
  3404 ;;Total ram usage:       12 bytes
  3405 ;; Hardware stack levels used:    1
  3406 ;; Hardware stack levels required when called:    7
  3407 ;; This function calls:
  3408 ;;		_EEPROM_Rx
  3409 ;;		_Serial_RangosCoordenadas
  3410 ;;		_USART_TxS
  3411 ;;		_atoi
  3412 ;; This function is called by:
  3413 ;;		_Serial_Oupcode
  3414 ;; This function uses a non-reentrant model
  3415 ;;
  3416                           
  3417                           	psect	text12
  3418  0025E2                     __ptext12:
  3419                           	opt callstack 0
  3420  0025E2                     _Serial_Lectura_MemoriaX:
  3421                           	opt callstack 22
  3422                           
  3423                           ;incstack = 0
  3424                           ;Serial_Lectura_MemoriaX@direccion stored from wreg
  3425  0025E2  0100               	movlb	0	; () banked
  3426  0025E4  6F79               	movwf	Serial_Lectura_MemoriaX@direccion& (0+255),b
  3427  0025E6                     
  3428                           ;serial.c: 252:     char coordenadaX[3];;serial.c: 253:     char direccionX;;serial.c: 2
      +                          54:     for (int i = 0; i < 3; i++) {
  3429  0025E6  0E00               	movlw	0
  3430  0025E8  0100               	movlb	0	; () banked
  3431  0025EA  6F7F               	movwf	(Serial_Lectura_MemoriaX@i+1)& (0+255),b
  3432  0025EC  0E00               	movlw	0
  3433  0025EE  6F7E               	movwf	Serial_Lectura_MemoriaX@i& (0+255),b
  3434  0025F0                     l4721:
  3435                           
  3436                           ; BSR set to: 0
  3437                           ;serial.c: 255:         direccionX = direccion + i;
  3438  0025F0  5179               	movf	Serial_Lectura_MemoriaX@direccion& (0+255),w,b
  3439  0025F2  257E               	addwf	Serial_Lectura_MemoriaX@i& (0+255),w,b
  3440  0025F4  6F7A               	movwf	Serial_Lectura_MemoriaX@direccionX& (0+255),b
  3441  0025F6                     
  3442                           ; BSR set to: 0
  3443                           ;serial.c: 256:         coordenadaX[i] = EEPROM_Rx(direccionX);
  3444  0025F6  0E7B               	movlw	low Serial_Lectura_MemoriaX@coordenadaX
  3445  0025F8  257E               	addwf	Serial_Lectura_MemoriaX@i& (0+255),w,b
  3446  0025FA  6ED9               	movwf	fsr2l,c
  3447  0025FC  0E00               	movlw	high Serial_Lectura_MemoriaX@coordenadaX
  3448  0025FE  217F               	addwfc	(Serial_Lectura_MemoriaX@i+1)& (0+255),w,b
  3449  002600  6EDA               	movwf	fsr2h,c
  3450  002602  517A               	movf	Serial_Lectura_MemoriaX@direccionX& (0+255),w,b
  3451  002604  ECA2  F019         	call	_EEPROM_Rx
  3452  002608  6EDF               	movwf	indf2,c
  3453  00260A                     
  3454                           ;serial.c: 257:     }
  3455  00260A  0100               	movlb	0	; () banked
  3456  00260C  4B7E               	infsnz	Serial_Lectura_MemoriaX@i& (0+255),f,b
  3457  00260E  2B7F               	incf	(Serial_Lectura_MemoriaX@i+1)& (0+255),f,b
  3458  002610                     
  3459                           ; BSR set to: 0
  3460  002610  BF7F               	btfsc	(Serial_Lectura_MemoriaX@i+1)& (0+255),7,b
  3461  002612  EF14  F013         	goto	u3501
  3462  002616  517F               	movf	(Serial_Lectura_MemoriaX@i+1)& (0+255),w,b
  3463  002618  E109               	bnz	u3500
  3464  00261A  0E03               	movlw	3
  3465  00261C  5D7E               	subwf	Serial_Lectura_MemoriaX@i& (0+255),w,b
  3466  00261E  A0D8               	btfss	status,0,c
  3467  002620  EF14  F013         	goto	u3501
  3468  002624  EF16  F013         	goto	u3500
  3469  002628                     u3501:
  3470  002628  EFF8  F012         	goto	l4721
  3471  00262C                     u3500:
  3472  00262C                     
  3473                           ; BSR set to: 0
  3474                           ;serial.c: 258:     for (int i = 0; i < 3; i++) {
  3475  00262C  0E00               	movlw	0
  3476  00262E  6F81               	movwf	(Serial_Lectura_MemoriaX@i_1431+1)& (0+255),b
  3477  002630  0E00               	movlw	0
  3478  002632  6F80               	movwf	Serial_Lectura_MemoriaX@i_1431& (0+255),b
  3479  002634                     l4735:
  3480                           
  3481                           ; BSR set to: 0
  3482                           ;serial.c: 259:         if (!(coordenadaX[i] >= 48 && coordenadaX[i] <= 57)) {
  3483  002634  0E7B               	movlw	low Serial_Lectura_MemoriaX@coordenadaX
  3484  002636  2580               	addwf	Serial_Lectura_MemoriaX@i_1431& (0+255),w,b
  3485  002638  6ED9               	movwf	fsr2l,c
  3486  00263A  0E00               	movlw	high Serial_Lectura_MemoriaX@coordenadaX
  3487  00263C  2181               	addwfc	(Serial_Lectura_MemoriaX@i_1431+1)& (0+255),w,b
  3488  00263E  6EDA               	movwf	fsr2h,c
  3489  002640  0E2F               	movlw	47
  3490  002642  64DF               	cpfsgt	indf2,c
  3491  002644  EF26  F013         	goto	u3511
  3492  002648  EF28  F013         	goto	u3510
  3493  00264C                     u3511:
  3494  00264C  EF36  F013         	goto	l4739
  3495  002650                     u3510:
  3496  002650                     
  3497                           ; BSR set to: 0
  3498  002650  0E7B               	movlw	low Serial_Lectura_MemoriaX@coordenadaX
  3499  002652  2580               	addwf	Serial_Lectura_MemoriaX@i_1431& (0+255),w,b
  3500  002654  6ED9               	movwf	fsr2l,c
  3501  002656  0E00               	movlw	high Serial_Lectura_MemoriaX@coordenadaX
  3502  002658  2181               	addwfc	(Serial_Lectura_MemoriaX@i_1431+1)& (0+255),w,b
  3503  00265A  6EDA               	movwf	fsr2h,c
  3504  00265C  0E39               	movlw	57
  3505  00265E  64DF               	cpfsgt	indf2,c
  3506  002660  EF34  F013         	goto	u3521
  3507  002664  EF36  F013         	goto	u3520
  3508  002668                     u3521:
  3509  002668  EF38  F013         	goto	l4741
  3510  00266C                     u3520:
  3511  00266C                     l4739:
  3512                           
  3513                           ; BSR set to: 0
  3514                           ;serial.c: 260:             Coordenadas_mal = 1;
  3515  00266C  0E01               	movlw	1
  3516  00266E  6FB8               	movwf	_Coordenadas_mal& (0+255),b
  3517  002670                     l4741:
  3518                           
  3519                           ; BSR set to: 0
  3520                           ;serial.c: 262:     }
  3521  002670  4B80               	infsnz	Serial_Lectura_MemoriaX@i_1431& (0+255),f,b
  3522  002672  2B81               	incf	(Serial_Lectura_MemoriaX@i_1431+1)& (0+255),f,b
  3523  002674                     
  3524                           ; BSR set to: 0
  3525  002674  BF81               	btfsc	(Serial_Lectura_MemoriaX@i_1431+1)& (0+255),7,b
  3526  002676  EF46  F013         	goto	u3531
  3527  00267A  5181               	movf	(Serial_Lectura_MemoriaX@i_1431+1)& (0+255),w,b
  3528  00267C  E109               	bnz	u3530
  3529  00267E  0E03               	movlw	3
  3530  002680  5D80               	subwf	Serial_Lectura_MemoriaX@i_1431& (0+255),w,b
  3531  002682  A0D8               	btfss	status,0,c
  3532  002684  EF46  F013         	goto	u3531
  3533  002688  EF48  F013         	goto	u3530
  3534  00268C                     u3531:
  3535  00268C  EF1A  F013         	goto	l4735
  3536  002690                     u3530:
  3537  002690                     
  3538                           ; BSR set to: 0
  3539                           ;serial.c: 263:     *pointerCX = atoi(coordenadaX);
  3540  002690  0E7B               	movlw	low Serial_Lectura_MemoriaX@coordenadaX
  3541  002692  6F67               	movwf	atoi@s& (0+255),b
  3542  002694  0E00               	movlw	high Serial_Lectura_MemoriaX@coordenadaX
  3543  002696  6F68               	movwf	(atoi@s+1)& (0+255),b
  3544  002698  EC13  F00D         	call	_atoi	;wreg free
  3545  00269C  C076  FFD9         	movff	Serial_Lectura_MemoriaX@pointerCX,fsr2l
  3546  0026A0  C077  FFDA         	movff	Serial_Lectura_MemoriaX@pointerCX+1,fsr2h
  3547  0026A4  0100               	movlb	0	; () banked
  3548  0026A6  C067  FFDE         	movff	?_atoi,postinc2
  3549  0026AA  C068  FFDD         	movff	?_atoi+1,postdec2
  3550  0026AE                     
  3551                           ; BSR set to: 0
  3552                           ;serial.c: 264:     USART_TxS("CX", sizeof ("CX") - 1);
  3553  0026AE  0EEC               	movlw	low STR_34
  3554  0026B0  6F60               	movwf	USART_TxS@str& (0+255),b
  3555  0026B2  0E08               	movlw	high STR_34
  3556  0026B4  6F61               	movwf	(USART_TxS@str+1)& (0+255),b
  3557  0026B6  0E00               	movlw	0
  3558  0026B8  6F63               	movwf	(USART_TxS@length+1)& (0+255),b
  3559  0026BA  0E02               	movlw	2
  3560  0026BC  6F62               	movwf	USART_TxS@length& (0+255),b
  3561  0026BE  ECF1  F015         	call	_USART_TxS	;wreg free
  3562  0026C2                     
  3563                           ;serial.c: 265:     USART_TxS(coordenadaX, sizeof (coordenadaX));
  3564  0026C2  0E7B               	movlw	low Serial_Lectura_MemoriaX@coordenadaX
  3565  0026C4  0100               	movlb	0	; () banked
  3566  0026C6  6F60               	movwf	USART_TxS@str& (0+255),b
  3567  0026C8  0E00               	movlw	high Serial_Lectura_MemoriaX@coordenadaX
  3568  0026CA  6F61               	movwf	(USART_TxS@str+1)& (0+255),b
  3569  0026CC  0E00               	movlw	0
  3570  0026CE  6F63               	movwf	(USART_TxS@length+1)& (0+255),b
  3571  0026D0  0E03               	movlw	3
  3572  0026D2  6F62               	movwf	USART_TxS@length& (0+255),b
  3573  0026D4  ECF1  F015         	call	_USART_TxS	;wreg free
  3574  0026D8                     
  3575                           ;serial.c: 266:     Serial_RangosCoordenadas(CoordenadaX);
  3576  0026D8  C0D3  F060         	movff	_CoordenadaX,Serial_RangosCoordenadas@C
  3577  0026DC  C0D4  F061         	movff	_CoordenadaX+1,Serial_RangosCoordenadas@C+1
  3578  0026E0  EC52  F018         	call	_Serial_RangosCoordenadas	;wreg free
  3579  0026E4  0012               	return		;funcret
  3580  0026E6                     __end_of_Serial_Lectura_MemoriaX:
  3581                           	opt callstack 0
  3582                           
  3583 ;; *************** function _Serial_RangosCoordenadas *****************
  3584 ;; Defined at:
  3585 ;;		line 174 in file "serial.c"
  3586 ;; Parameters:    Size  Location     Type
  3587 ;;  C               2    0[BANK0 ] int 
  3588 ;; Auto vars:     Size  Location     Type
  3589 ;;		None
  3590 ;; Return value:  Size  Location     Type
  3591 ;;                  1    wreg      void 
  3592 ;; Registers used:
  3593 ;;		wreg, status,2, status,0
  3594 ;; Tracked objects:
  3595 ;;		On entry : 0/0
  3596 ;;		On exit  : 0/0
  3597 ;;		Unchanged: 0/0
  3598 ;; Data sizes:     COMRAM   BANK0   BANK1   BANK2   BANK3   BANK4   BANK5   BANK6   BANK7
  3599 ;;      Params:         0       2       0       0       0       0       0       0       0
  3600 ;;      Locals:         0       0       0       0       0       0       0       0       0
  3601 ;;      Temps:          0       0       0       0       0       0       0       0       0
  3602 ;;      Totals:         0       2       0       0       0       0       0       0       0
  3603 ;;Total ram usage:        2 bytes
  3604 ;; Hardware stack levels used:    1
  3605 ;; Hardware stack levels required when called:    5
  3606 ;; This function calls:
  3607 ;;		Nothing
  3608 ;; This function is called by:
  3609 ;;		_Serial_Oupcode
  3610 ;;		_Serial_Lectura_MemoriaX
  3611 ;;		_Serial_Lectura_MemoriaY
  3612 ;;		_Serial_Lectura_MemoriaZ
  3613 ;; This function uses a non-reentrant model
  3614 ;;
  3615                           
  3616                           	psect	text13
  3617  0030A4                     __ptext13:
  3618                           	opt callstack 0
  3619  0030A4                     _Serial_RangosCoordenadas:
  3620                           	opt callstack 24
  3621  0030A4                     
  3622                           ;serial.c: 175:     if (C > 300 || C < 0) {
  3623  0030A4  0100               	movlb	0	; () banked
  3624  0030A6  BF61               	btfsc	(Serial_RangosCoordenadas@C+1)& (0+255),7,b
  3625  0030A8  EF61  F018         	goto	u3150
  3626  0030AC  0E2D               	movlw	45
  3627  0030AE  5D60               	subwf	Serial_RangosCoordenadas@C& (0+255),w,b
  3628  0030B0  0E01               	movlw	1
  3629  0030B2  5961               	subwfb	(Serial_RangosCoordenadas@C+1)& (0+255),w,b
  3630  0030B4  B0D8               	btfsc	status,0,c
  3631  0030B6  EF5F  F018         	goto	u3151
  3632  0030BA  EF61  F018         	goto	u3150
  3633  0030BE                     u3151:
  3634  0030BE  EF68  F018         	goto	l4383
  3635  0030C2                     u3150:
  3636  0030C2                     
  3637                           ; BSR set to: 0
  3638  0030C2  BF61               	btfsc	(Serial_RangosCoordenadas@C+1)& (0+255),7,b
  3639  0030C4  EF68  F018         	goto	u3160
  3640  0030C8  EF66  F018         	goto	u3161
  3641  0030CC                     u3161:
  3642  0030CC  EF6A  F018         	goto	l461
  3643  0030D0                     u3160:
  3644  0030D0                     l4383:
  3645                           
  3646                           ; BSR set to: 0
  3647                           ;serial.c: 176:         Coordenadas_fuera = 1;
  3648  0030D0  0E01               	movlw	1
  3649  0030D2  6FB9               	movwf	_Coordenadas_fuera& (0+255),b
  3650  0030D4                     l461:
  3651                           
  3652                           ; BSR set to: 0
  3653  0030D4  0012               	return		;funcret
  3654  0030D6                     __end_of_Serial_RangosCoordenadas:
  3655                           	opt callstack 0
  3656                           
  3657 ;; *************** function _EEPROM_Rx *****************
  3658 ;; Defined at:
  3659 ;;		line 16 in file "EEPROM.c"
  3660 ;; Parameters:    Size  Location     Type
  3661 ;;  direccion       1    wreg     unsigned char 
  3662 ;; Auto vars:     Size  Location     Type
  3663 ;;  direccion       1    0[BANK0 ] unsigned char 
  3664 ;; Return value:  Size  Location     Type
  3665 ;;                  1    wreg      unsigned char 
  3666 ;; Registers used:
  3667 ;;		wreg, status,2
  3668 ;; Tracked objects:
  3669 ;;		On entry : 0/0
  3670 ;;		On exit  : 0/0
  3671 ;;		Unchanged: 0/0
  3672 ;; Data sizes:     COMRAM   BANK0   BANK1   BANK2   BANK3   BANK4   BANK5   BANK6   BANK7
  3673 ;;      Params:         0       0       0       0       0       0       0       0       0
  3674 ;;      Locals:         0       1       0       0       0       0       0       0       0
  3675 ;;      Temps:          0       0       0       0       0       0       0       0       0
  3676 ;;      Totals:         0       1       0       0       0       0       0       0       0
  3677 ;;Total ram usage:        1 bytes
  3678 ;; Hardware stack levels used:    1
  3679 ;; Hardware stack levels required when called:    5
  3680 ;; This function calls:
  3681 ;;		Nothing
  3682 ;; This function is called by:
  3683 ;;		_Serial_Lectura_MemoriaX
  3684 ;;		_Serial_Lectura_MemoriaY
  3685 ;;		_Serial_Lectura_MemoriaZ
  3686 ;; This function uses a non-reentrant model
  3687 ;;
  3688                           
  3689                           	psect	text14
  3690  003344                     __ptext14:
  3691                           	opt callstack 0
  3692  003344                     _EEPROM_Rx:
  3693                           	opt callstack 23
  3694                           
  3695                           ; BSR set to: 0
  3696                           ;incstack = 0
  3697                           ;EEPROM_Rx@direccion stored from wreg
  3698  003344  0100               	movlb	0	; () banked
  3699  003346  6F60               	movwf	EEPROM_Rx@direccion& (0+255),b
  3700  003348                     
  3701                           ;EEPROM.c: 17:     EEADR=direccion;
  3702  003348  C060  FFA9         	movff	EEPROM_Rx@direccion,4009	;volatile
  3703  00334C                     
  3704                           ;EEPROM.c: 18:     EECON1bits.EEPGD=0;
  3705  00334C  9EA6               	bcf	166,7,c	;volsfr
  3706  00334E                     
  3707                           ;EEPROM.c: 19:       EECON1bits.CFGS=0;
  3708  00334E  9CA6               	bcf	166,6,c	;volsfr
  3709  003350                     
  3710                           ;EEPROM.c: 20:       EECON1bits.RD=1;
  3711  003350  80A6               	bsf	166,0,c	;volsfr
  3712  003352                     
  3713                           ;EEPROM.c: 21:       data=EEDATA;
  3714  003352  CFA8 F058          	movff	4008,_data	;volatile
  3715  003356                     
  3716                           ;EEPROM.c: 22:       return data;
  3717  003356  5058               	movf	_data^0,w,c
  3718  003358  0012               	return		;funcret
  3719  00335A                     __end_of_EEPROM_Rx:
  3720                           	opt callstack 0
  3721                           
  3722 ;; *************** function _Serial_Escritura_Memoria *****************
  3723 ;; Defined at:
  3724 ;;		line 308 in file "serial.c"
  3725 ;; Parameters:    Size  Location     Type
  3726 ;;  direccion       1    wreg     unsigned char 
  3727 ;;  string_setpo    2    8[BANK0 ] PTR unsigned char 
  3728 ;;		 -> coordenada_setpoint(11), 
  3729 ;; Auto vars:     Size  Location     Type
  3730 ;;  direccion       1   12[BANK0 ] unsigned char 
  3731 ;;  i               2   18[BANK0 ] int 
  3732 ;;  i               2   16[BANK0 ] int 
  3733 ;;  i               2   14[BANK0 ] int 
  3734 ;;  direccionFin    1   13[BANK0 ] unsigned char 
  3735 ;; Return value:  Size  Location     Type
  3736 ;;                  1    wreg      void 
  3737 ;; Registers used:
  3738 ;;		wreg, fsr0l, fsr0h, fsr2l, fsr2h, status,2, status,0, tblptrl, tblptrh, tblptru, cstack
  3739 ;; Tracked objects:
  3740 ;;		On entry : 0/0
  3741 ;;		On exit  : 0/0
  3742 ;;		Unchanged: 0/0
  3743 ;; Data sizes:     COMRAM   BANK0   BANK1   BANK2   BANK3   BANK4   BANK5   BANK6   BANK7
  3744 ;;      Params:         0       2       0       0       0       0       0       0       0
  3745 ;;      Locals:         0       8       0       0       0       0       0       0       0
  3746 ;;      Temps:          0       2       0       0       0       0       0       0       0
  3747 ;;      Totals:         0      12       0       0       0       0       0       0       0
  3748 ;;Total ram usage:       12 bytes
  3749 ;; Hardware stack levels used:    1
  3750 ;; Hardware stack levels required when called:    6
  3751 ;; This function calls:
  3752 ;;		_EEPROM_Tx
  3753 ;;		_USART_TxS
  3754 ;; This function is called by:
  3755 ;;		_Serial_Oupcode
  3756 ;; This function uses a non-reentrant model
  3757 ;;
  3758                           
  3759                           	psect	text15
  3760  001E60                     __ptext15:
  3761                           	opt callstack 0
  3762  001E60                     _Serial_Escritura_Memoria:
  3763                           	opt callstack 23
  3764                           
  3765                           ;incstack = 0
  3766                           ;Serial_Escritura_Memoria@direccion stored from wreg
  3767  001E60  0100               	movlb	0	; () banked
  3768  001E62  6F6C               	movwf	Serial_Escritura_Memoria@direccion& (0+255),b
  3769  001E64                     
  3770                           ;serial.c: 309:     char direccionFinal;;serial.c: 310:     for (int i = 0; i < 3; i++) 
      +                          {
  3771  001E64  0E00               	movlw	0
  3772  001E66  0100               	movlb	0	; () banked
  3773  001E68  6F6F               	movwf	(Serial_Escritura_Memoria@i+1)& (0+255),b
  3774  001E6A  0E00               	movlw	0
  3775  001E6C  6F6E               	movwf	Serial_Escritura_Memoria@i& (0+255),b
  3776  001E6E                     l4841:
  3777                           
  3778                           ; BSR set to: 0
  3779                           ;serial.c: 311:         direccionFinal = direccion + i;
  3780  001E6E  516C               	movf	Serial_Escritura_Memoria@direccion& (0+255),w,b
  3781  001E70  256E               	addwf	Serial_Escritura_Memoria@i& (0+255),w,b
  3782  001E72  6F6D               	movwf	Serial_Escritura_Memoria@direccionFinal& (0+255),b
  3783  001E74                     
  3784                           ; BSR set to: 0
  3785                           ;serial.c: 312:         EEPROM_Tx(direccionFinal, string_setpoint[i]);
  3786  001E74  516E               	movf	Serial_Escritura_Memoria@i& (0+255),w,b
  3787  001E76  2568               	addwf	Serial_Escritura_Memoria@string_setpoint& (0+255),w,b
  3788  001E78  6ED9               	movwf	fsr2l,c
  3789  001E7A  516F               	movf	(Serial_Escritura_Memoria@i+1)& (0+255),w,b
  3790  001E7C  2169               	addwfc	(Serial_Escritura_Memoria@string_setpoint+1)& (0+255),w,b
  3791  001E7E  6EDA               	movwf	fsr2h,c
  3792  001E80  50DF               	movf	indf2,w,c
  3793  001E82  6F60               	movwf	EEPROM_Tx@dato& (0+255),b
  3794  001E84  516D               	movf	Serial_Escritura_Memoria@direccionFinal& (0+255),w,b
  3795  001E86  EC38  F018         	call	_EEPROM_Tx
  3796  001E8A                     
  3797                           ;serial.c: 313:     }
  3798  001E8A  0100               	movlb	0	; () banked
  3799  001E8C  4B6E               	infsnz	Serial_Escritura_Memoria@i& (0+255),f,b
  3800  001E8E  2B6F               	incf	(Serial_Escritura_Memoria@i+1)& (0+255),f,b
  3801  001E90                     
  3802                           ; BSR set to: 0
  3803  001E90  BF6F               	btfsc	(Serial_Escritura_Memoria@i+1)& (0+255),7,b
  3804  001E92  EF54  F00F         	goto	u3621
  3805  001E96  516F               	movf	(Serial_Escritura_Memoria@i+1)& (0+255),w,b
  3806  001E98  E109               	bnz	u3620
  3807  001E9A  0E03               	movlw	3
  3808  001E9C  5D6E               	subwf	Serial_Escritura_Memoria@i& (0+255),w,b
  3809  001E9E  A0D8               	btfss	status,0,c
  3810  001EA0  EF54  F00F         	goto	u3621
  3811  001EA4  EF56  F00F         	goto	u3620
  3812  001EA8                     u3621:
  3813  001EA8  EF37  F00F         	goto	l4841
  3814  001EAC                     u3620:
  3815  001EAC                     
  3816                           ; BSR set to: 0
  3817                           ;serial.c: 314:     USART_TxS("CXS\n", sizeof ("CXS\n") - 1);
  3818  001EAC  0E8F               	movlw	low STR_37
  3819  001EAE  6F60               	movwf	USART_TxS@str& (0+255),b
  3820  001EB0  0E08               	movlw	high STR_37
  3821  001EB2  6F61               	movwf	(USART_TxS@str+1)& (0+255),b
  3822  001EB4  0E00               	movlw	0
  3823  001EB6  6F63               	movwf	(USART_TxS@length+1)& (0+255),b
  3824  001EB8  0E04               	movlw	4
  3825  001EBA  6F62               	movwf	USART_TxS@length& (0+255),b
  3826  001EBC  ECF1  F015         	call	_USART_TxS	;wreg free
  3827  001EC0                     
  3828                           ;serial.c: 315:     for (int i = 0; i < 3; i++) {
  3829  001EC0  0E00               	movlw	0
  3830  001EC2  0100               	movlb	0	; () banked
  3831  001EC4  6F71               	movwf	(Serial_Escritura_Memoria@i_1456+1)& (0+255),b
  3832  001EC6  0E00               	movlw	0
  3833  001EC8  6F70               	movwf	Serial_Escritura_Memoria@i_1456& (0+255),b
  3834  001ECA                     l4857:
  3835                           
  3836                           ; BSR set to: 0
  3837                           ;serial.c: 316:         direccionFinal = direccion + i + 3;
  3838  001ECA  516C               	movf	Serial_Escritura_Memoria@direccion& (0+255),w,b
  3839  001ECC  2570               	addwf	Serial_Escritura_Memoria@i_1456& (0+255),w,b
  3840  001ECE  0F03               	addlw	3
  3841  001ED0  6F6D               	movwf	Serial_Escritura_Memoria@direccionFinal& (0+255),b
  3842  001ED2                     
  3843                           ; BSR set to: 0
  3844                           ;serial.c: 317:         EEPROM_Tx(direccionFinal, string_setpoint[i + 4]);
  3845  001ED2  5170               	movf	Serial_Escritura_Memoria@i_1456& (0+255),w,b
  3846  001ED4  2568               	addwf	Serial_Escritura_Memoria@string_setpoint& (0+255),w,b
  3847  001ED6  6F6A               	movwf	??_Serial_Escritura_Memoria& (0+255),b
  3848  001ED8  5171               	movf	(Serial_Escritura_Memoria@i_1456+1)& (0+255),w,b
  3849  001EDA  2169               	addwfc	(Serial_Escritura_Memoria@string_setpoint+1)& (0+255),w,b
  3850  001EDC  6F6B               	movwf	(??_Serial_Escritura_Memoria+1)& (0+255),b
  3851  001EDE  0E04               	movlw	4
  3852  001EE0  256A               	addwf	??_Serial_Escritura_Memoria& (0+255),w,b
  3853  001EE2  6ED9               	movwf	fsr2l,c
  3854  001EE4  0E00               	movlw	0
  3855  001EE6  216B               	addwfc	(??_Serial_Escritura_Memoria+1)& (0+255),w,b
  3856  001EE8  6EDA               	movwf	fsr2h,c
  3857  001EEA  50DF               	movf	indf2,w,c
  3858  001EEC  6F60               	movwf	EEPROM_Tx@dato& (0+255),b
  3859  001EEE  516D               	movf	Serial_Escritura_Memoria@direccionFinal& (0+255),w,b
  3860  001EF0  EC38  F018         	call	_EEPROM_Tx
  3861  001EF4                     
  3862                           ;serial.c: 318:     }
  3863  001EF4  0100               	movlb	0	; () banked
  3864  001EF6  4B70               	infsnz	Serial_Escritura_Memoria@i_1456& (0+255),f,b
  3865  001EF8  2B71               	incf	(Serial_Escritura_Memoria@i_1456+1)& (0+255),f,b
  3866  001EFA                     
  3867                           ; BSR set to: 0
  3868  001EFA  BF71               	btfsc	(Serial_Escritura_Memoria@i_1456+1)& (0+255),7,b
  3869  001EFC  EF89  F00F         	goto	u3631
  3870  001F00  5171               	movf	(Serial_Escritura_Memoria@i_1456+1)& (0+255),w,b
  3871  001F02  E109               	bnz	u3630
  3872  001F04  0E03               	movlw	3
  3873  001F06  5D70               	subwf	Serial_Escritura_Memoria@i_1456& (0+255),w,b
  3874  001F08  A0D8               	btfss	status,0,c
  3875  001F0A  EF89  F00F         	goto	u3631
  3876  001F0E  EF8B  F00F         	goto	u3630
  3877  001F12                     u3631:
  3878  001F12  EF65  F00F         	goto	l4857
  3879  001F16                     u3630:
  3880  001F16                     
  3881                           ; BSR set to: 0
  3882                           ;serial.c: 319:     USART_TxS("CYS\n", sizeof ("CYS\n") - 1);
  3883  001F16  0E94               	movlw	low STR_38
  3884  001F18  6F60               	movwf	USART_TxS@str& (0+255),b
  3885  001F1A  0E08               	movlw	high STR_38
  3886  001F1C  6F61               	movwf	(USART_TxS@str+1)& (0+255),b
  3887  001F1E  0E00               	movlw	0
  3888  001F20  6F63               	movwf	(USART_TxS@length+1)& (0+255),b
  3889  001F22  0E04               	movlw	4
  3890  001F24  6F62               	movwf	USART_TxS@length& (0+255),b
  3891  001F26  ECF1  F015         	call	_USART_TxS	;wreg free
  3892  001F2A                     
  3893                           ;serial.c: 320:     for (int i = 0; i < 3; i++) {
  3894  001F2A  0E00               	movlw	0
  3895  001F2C  0100               	movlb	0	; () banked
  3896  001F2E  6F73               	movwf	(Serial_Escritura_Memoria@i_1458+1)& (0+255),b
  3897  001F30  0E00               	movlw	0
  3898  001F32  6F72               	movwf	Serial_Escritura_Memoria@i_1458& (0+255),b
  3899  001F34                     l4873:
  3900                           
  3901                           ; BSR set to: 0
  3902                           ;serial.c: 321:         direccionFinal = direccion + i + 6;
  3903  001F34  516C               	movf	Serial_Escritura_Memoria@direccion& (0+255),w,b
  3904  001F36  2572               	addwf	Serial_Escritura_Memoria@i_1458& (0+255),w,b
  3905  001F38  0F06               	addlw	6
  3906  001F3A  6F6D               	movwf	Serial_Escritura_Memoria@direccionFinal& (0+255),b
  3907  001F3C                     
  3908                           ; BSR set to: 0
  3909                           ;serial.c: 322:         EEPROM_Tx(direccionFinal, string_setpoint[i + 8]);
  3910  001F3C  5172               	movf	Serial_Escritura_Memoria@i_1458& (0+255),w,b
  3911  001F3E  2568               	addwf	Serial_Escritura_Memoria@string_setpoint& (0+255),w,b
  3912  001F40  6F6A               	movwf	??_Serial_Escritura_Memoria& (0+255),b
  3913  001F42  5173               	movf	(Serial_Escritura_Memoria@i_1458+1)& (0+255),w,b
  3914  001F44  2169               	addwfc	(Serial_Escritura_Memoria@string_setpoint+1)& (0+255),w,b
  3915  001F46  6F6B               	movwf	(??_Serial_Escritura_Memoria+1)& (0+255),b
  3916  001F48  0E08               	movlw	8
  3917  001F4A  256A               	addwf	??_Serial_Escritura_Memoria& (0+255),w,b
  3918  001F4C  6ED9               	movwf	fsr2l,c
  3919  001F4E  0E00               	movlw	0
  3920  001F50  216B               	addwfc	(??_Serial_Escritura_Memoria+1)& (0+255),w,b
  3921  001F52  6EDA               	movwf	fsr2h,c
  3922  001F54  50DF               	movf	indf2,w,c
  3923  001F56  6F60               	movwf	EEPROM_Tx@dato& (0+255),b
  3924  001F58  516D               	movf	Serial_Escritura_Memoria@direccionFinal& (0+255),w,b
  3925  001F5A  EC38  F018         	call	_EEPROM_Tx
  3926  001F5E                     
  3927                           ;serial.c: 323:     }
  3928  001F5E  0100               	movlb	0	; () banked
  3929  001F60  4B72               	infsnz	Serial_Escritura_Memoria@i_1458& (0+255),f,b
  3930  001F62  2B73               	incf	(Serial_Escritura_Memoria@i_1458+1)& (0+255),f,b
  3931  001F64                     
  3932                           ; BSR set to: 0
  3933  001F64  BF73               	btfsc	(Serial_Escritura_Memoria@i_1458+1)& (0+255),7,b
  3934  001F66  EFBE  F00F         	goto	u3641
  3935  001F6A  5173               	movf	(Serial_Escritura_Memoria@i_1458+1)& (0+255),w,b
  3936  001F6C  E109               	bnz	u3640
  3937  001F6E  0E03               	movlw	3
  3938  001F70  5D72               	subwf	Serial_Escritura_Memoria@i_1458& (0+255),w,b
  3939  001F72  A0D8               	btfss	status,0,c
  3940  001F74  EFBE  F00F         	goto	u3641
  3941  001F78  EFC0  F00F         	goto	u3640
  3942  001F7C                     u3641:
  3943  001F7C  EF9A  F00F         	goto	l4873
  3944  001F80                     u3640:
  3945  001F80                     
  3946                           ; BSR set to: 0
  3947                           ;serial.c: 324:     USART_TxS("CZS\n", sizeof ("CZS\n") - 1);
  3948  001F80  0E99               	movlw	low STR_39
  3949  001F82  6F60               	movwf	USART_TxS@str& (0+255),b
  3950  001F84  0E08               	movlw	high STR_39
  3951  001F86  6F61               	movwf	(USART_TxS@str+1)& (0+255),b
  3952  001F88  0E00               	movlw	0
  3953  001F8A  6F63               	movwf	(USART_TxS@length+1)& (0+255),b
  3954  001F8C  0E04               	movlw	4
  3955  001F8E  6F62               	movwf	USART_TxS@length& (0+255),b
  3956  001F90  ECF1  F015         	call	_USART_TxS	;wreg free
  3957  001F94  0012               	return		;funcret
  3958  001F96                     __end_of_Serial_Escritura_Memoria:
  3959                           	opt callstack 0
  3960                           
  3961 ;; *************** function _EEPROM_Tx *****************
  3962 ;; Defined at:
  3963 ;;		line 24 in file "EEPROM.c"
  3964 ;; Parameters:    Size  Location     Type
  3965 ;;  direccion       1    wreg     unsigned char 
  3966 ;;  dato            1    0[BANK0 ] unsigned char 
  3967 ;; Auto vars:     Size  Location     Type
  3968 ;;  direccion       1    1[BANK0 ] unsigned char 
  3969 ;; Return value:  Size  Location     Type
  3970 ;;                  1    wreg      void 
  3971 ;; Registers used:
  3972 ;;		wreg, status,2
  3973 ;; Tracked objects:
  3974 ;;		On entry : 0/0
  3975 ;;		On exit  : 0/0
  3976 ;;		Unchanged: 0/0
  3977 ;; Data sizes:     COMRAM   BANK0   BANK1   BANK2   BANK3   BANK4   BANK5   BANK6   BANK7
  3978 ;;      Params:         0       1       0       0       0       0       0       0       0
  3979 ;;      Locals:         0       1       0       0       0       0       0       0       0
  3980 ;;      Temps:          0       0       0       0       0       0       0       0       0
  3981 ;;      Totals:         0       2       0       0       0       0       0       0       0
  3982 ;;Total ram usage:        2 bytes
  3983 ;; Hardware stack levels used:    1
  3984 ;; Hardware stack levels required when called:    5
  3985 ;; This function calls:
  3986 ;;		Nothing
  3987 ;; This function is called by:
  3988 ;;		_Serial_Escritura_Memoria
  3989 ;; This function uses a non-reentrant model
  3990 ;;
  3991                           
  3992                           	psect	text16
  3993  003070                     __ptext16:
  3994                           	opt callstack 0
  3995  003070                     _EEPROM_Tx:
  3996                           	opt callstack 23
  3997                           
  3998                           ;incstack = 0
  3999                           ;EEPROM_Tx@direccion stored from wreg
  4000  003070  0100               	movlb	0	; () banked
  4001  003072  6F61               	movwf	EEPROM_Tx@direccion& (0+255),b
  4002  003074                     
  4003                           ;EEPROM.c: 25:     EEADR=direccion;
  4004  003074  C061  FFA9         	movff	EEPROM_Tx@direccion,4009	;volatile
  4005  003078                     
  4006                           ;EEPROM.c: 26:     EEDATA=dato;
  4007  003078  C060  FFA8         	movff	EEPROM_Tx@dato,4008	;volatile
  4008  00307C                     
  4009                           ;EEPROM.c: 27:      EECON1bits.EEPGD=0;
  4010  00307C  9EA6               	bcf	166,7,c	;volsfr
  4011  00307E                     
  4012                           ;EEPROM.c: 28:       EECON1bits.CFGS=0;
  4013  00307E  9CA6               	bcf	166,6,c	;volsfr
  4014  003080                     
  4015                           ;EEPROM.c: 29:       EECON1bits.WREN=1;
  4016  003080  84A6               	bsf	166,2,c	;volsfr
  4017  003082                     
  4018                           ;EEPROM.c: 30:       INTCONbits.GIE=0;
  4019  003082  9EF2               	bcf	242,7,c	;volatile
  4020  003084                     
  4021                           ;EEPROM.c: 32:       EECON2=0x55;
  4022  003084  0E55               	movlw	85
  4023  003086  6EA7               	movwf	167,c	;volsfr
  4024  003088                     
  4025                           ;EEPROM.c: 33:       EECON2=0x0AA;
  4026  003088  0EAA               	movlw	170
  4027  00308A  6EA7               	movwf	167,c	;volsfr
  4028  00308C                     
  4029                           ;EEPROM.c: 34:       EECON1bits.WR=1;
  4030  00308C  82A6               	bsf	166,1,c	;volsfr
  4031  00308E                     
  4032                           ;EEPROM.c: 35:       INTCONbits.GIE=1;
  4033  00308E  8EF2               	bsf	242,7,c	;volatile
  4034  003090                     l293:
  4035  003090  A8A1               	btfss	161,4,c	;volatile
  4036  003092  EF4D  F018         	goto	u3141
  4037  003096  EF4F  F018         	goto	u3140
  4038  00309A                     u3141:
  4039  00309A  EF48  F018         	goto	l293
  4040  00309E                     u3140:
  4041  00309E                     
  4042                           ;EEPROM.c: 37:       PIR2bits.EEIF=0;
  4043  00309E  98A1               	bcf	161,4,c	;volatile
  4044                           
  4045                           ;EEPROM.c: 38:       EECON1bits.WREN=0 ;
  4046  0030A0  94A6               	bcf	166,2,c	;volsfr
  4047  0030A2  0012               	return		;funcret
  4048  0030A4                     __end_of_EEPROM_Tx:
  4049                           	opt callstack 0
  4050                           
  4051 ;; *************** function _Serial_DecodificacionY *****************
  4052 ;; Defined at:
  4053 ;;		line 146 in file "serial.c"
  4054 ;; Parameters:    Size  Location     Type
  4055 ;;  string_coord    2   22[BANK0 ] PTR unsigned char 
  4056 ;;		 -> coordenada_array(7), 
  4057 ;;  pointerCY       2   24[BANK0 ] PTR int 
  4058 ;;		 -> CoordenadaY(2), 
  4059 ;; Auto vars:     Size  Location     Type
  4060 ;;  i               2   33[BANK0 ] int 
  4061 ;;  i               2   31[BANK0 ] int 
  4062 ;;  coordenadaY     3   28[BANK0 ] unsigned char [3]
  4063 ;; Return value:  Size  Location     Type
  4064 ;;                  1    wreg      void 
  4065 ;; Registers used:
  4066 ;;		wreg, fsr1l, fsr1h, fsr2l, fsr2h, status,2, status,0, prodl, prodh, cstack
  4067 ;; Tracked objects:
  4068 ;;		On entry : 0/0
  4069 ;;		On exit  : 0/0
  4070 ;;		Unchanged: 0/0
  4071 ;; Data sizes:     COMRAM   BANK0   BANK1   BANK2   BANK3   BANK4   BANK5   BANK6   BANK7
  4072 ;;      Params:         0       4       0       0       0       0       0       0       0
  4073 ;;      Locals:         0       7       0       0       0       0       0       0       0
  4074 ;;      Temps:          0       2       0       0       0       0       0       0       0
  4075 ;;      Totals:         0      13       0       0       0       0       0       0       0
  4076 ;;Total ram usage:       13 bytes
  4077 ;; Hardware stack levels used:    1
  4078 ;; Hardware stack levels required when called:    7
  4079 ;; This function calls:
  4080 ;;		_atoi
  4081 ;; This function is called by:
  4082 ;;		_Serial_Oupcode
  4083 ;; This function uses a non-reentrant model
  4084 ;;
  4085                           
  4086                           	psect	text17
  4087  0027CC                     __ptext17:
  4088                           	opt callstack 0
  4089  0027CC                     _Serial_DecodificacionY:
  4090                           	opt callstack 22
  4091  0027CC                     
  4092                           ;serial.c: 147:     char coordenadaY[3];;serial.c: 148:     for (int i = 0; i < 3; i++) 
      +                          {
  4093  0027CC  0E00               	movlw	0
  4094  0027CE  0100               	movlb	0	; () banked
  4095  0027D0  6F80               	movwf	(Serial_DecodificacionY@i+1)& (0+255),b
  4096  0027D2  0E00               	movlw	0
  4097  0027D4  6F7F               	movwf	Serial_DecodificacionY@i& (0+255),b
  4098  0027D6                     l4591:
  4099                           
  4100                           ; BSR set to: 0
  4101                           ;serial.c: 149:         coordenadaY[i] = string_coordenada[4 + i];
  4102  0027D6  517F               	movf	Serial_DecodificacionY@i& (0+255),w,b
  4103  0027D8  2576               	addwf	Serial_DecodificacionY@string_coordenada& (0+255),w,b
  4104  0027DA  6F7A               	movwf	??_Serial_DecodificacionY& (0+255),b
  4105  0027DC  5180               	movf	(Serial_DecodificacionY@i+1)& (0+255),w,b
  4106  0027DE  2177               	addwfc	(Serial_DecodificacionY@string_coordenada+1)& (0+255),w,b
  4107  0027E0  6F7B               	movwf	(??_Serial_DecodificacionY+1)& (0+255),b
  4108  0027E2  0E04               	movlw	4
  4109  0027E4  257A               	addwf	??_Serial_DecodificacionY& (0+255),w,b
  4110  0027E6  6ED9               	movwf	fsr2l,c
  4111  0027E8  0E00               	movlw	0
  4112  0027EA  217B               	addwfc	(??_Serial_DecodificacionY+1)& (0+255),w,b
  4113  0027EC  6EDA               	movwf	fsr2h,c
  4114  0027EE  0E7C               	movlw	low Serial_DecodificacionY@coordenadaY
  4115  0027F0  257F               	addwf	Serial_DecodificacionY@i& (0+255),w,b
  4116  0027F2  6EE1               	movwf	fsr1l,c
  4117  0027F4  0E00               	movlw	high Serial_DecodificacionY@coordenadaY
  4118  0027F6  2180               	addwfc	(Serial_DecodificacionY@i+1)& (0+255),w,b
  4119  0027F8  6EE2               	movwf	fsr1h,c
  4120  0027FA  CFDF FFE7          	movff	indf2,indf1
  4121  0027FE                     
  4122                           ; BSR set to: 0
  4123                           ;serial.c: 150:     }
  4124  0027FE  4B7F               	infsnz	Serial_DecodificacionY@i& (0+255),f,b
  4125  002800  2B80               	incf	(Serial_DecodificacionY@i+1)& (0+255),f,b
  4126  002802                     
  4127                           ; BSR set to: 0
  4128  002802  BF80               	btfsc	(Serial_DecodificacionY@i+1)& (0+255),7,b
  4129  002804  EF0D  F014         	goto	u3461
  4130  002808  5180               	movf	(Serial_DecodificacionY@i+1)& (0+255),w,b
  4131  00280A  E109               	bnz	u3460
  4132  00280C  0E03               	movlw	3
  4133  00280E  5D7F               	subwf	Serial_DecodificacionY@i& (0+255),w,b
  4134  002810  A0D8               	btfss	status,0,c
  4135  002812  EF0D  F014         	goto	u3461
  4136  002816  EF0F  F014         	goto	u3460
  4137  00281A                     u3461:
  4138  00281A  EFEB  F013         	goto	l4591
  4139  00281E                     u3460:
  4140  00281E                     
  4141                           ; BSR set to: 0
  4142                           ;serial.c: 151:     for (int i = 0; i < 3; i++) {
  4143  00281E  0E00               	movlw	0
  4144  002820  6F82               	movwf	(Serial_DecodificacionY@i_1397+1)& (0+255),b
  4145  002822  0E00               	movlw	0
  4146  002824  6F81               	movwf	Serial_DecodificacionY@i_1397& (0+255),b
  4147  002826                     l4603:
  4148                           
  4149                           ; BSR set to: 0
  4150                           ;serial.c: 152:         if (!(coordenadaY[i] >= 48 && coordenadaY[i] <= 57)) {
  4151  002826  0E7C               	movlw	low Serial_DecodificacionY@coordenadaY
  4152  002828  2581               	addwf	Serial_DecodificacionY@i_1397& (0+255),w,b
  4153  00282A  6ED9               	movwf	fsr2l,c
  4154  00282C  0E00               	movlw	high Serial_DecodificacionY@coordenadaY
  4155  00282E  2182               	addwfc	(Serial_DecodificacionY@i_1397+1)& (0+255),w,b
  4156  002830  6EDA               	movwf	fsr2h,c
  4157  002832  0E2F               	movlw	47
  4158  002834  64DF               	cpfsgt	indf2,c
  4159  002836  EF1F  F014         	goto	u3471
  4160  00283A  EF21  F014         	goto	u3470
  4161  00283E                     u3471:
  4162  00283E  EF2F  F014         	goto	l4607
  4163  002842                     u3470:
  4164  002842                     
  4165                           ; BSR set to: 0
  4166  002842  0E7C               	movlw	low Serial_DecodificacionY@coordenadaY
  4167  002844  2581               	addwf	Serial_DecodificacionY@i_1397& (0+255),w,b
  4168  002846  6ED9               	movwf	fsr2l,c
  4169  002848  0E00               	movlw	high Serial_DecodificacionY@coordenadaY
  4170  00284A  2182               	addwfc	(Serial_DecodificacionY@i_1397+1)& (0+255),w,b
  4171  00284C  6EDA               	movwf	fsr2h,c
  4172  00284E  0E39               	movlw	57
  4173  002850  64DF               	cpfsgt	indf2,c
  4174  002852  EF2D  F014         	goto	u3481
  4175  002856  EF2F  F014         	goto	u3480
  4176  00285A                     u3481:
  4177  00285A  EF31  F014         	goto	l4609
  4178  00285E                     u3480:
  4179  00285E                     l4607:
  4180                           
  4181                           ; BSR set to: 0
  4182                           ;serial.c: 153:             Coordenadas_mal = 1;
  4183  00285E  0E01               	movlw	1
  4184  002860  6FB8               	movwf	_Coordenadas_mal& (0+255),b
  4185  002862                     l4609:
  4186                           
  4187                           ; BSR set to: 0
  4188                           ;serial.c: 155:     }
  4189  002862  4B81               	infsnz	Serial_DecodificacionY@i_1397& (0+255),f,b
  4190  002864  2B82               	incf	(Serial_DecodificacionY@i_1397+1)& (0+255),f,b
  4191  002866                     
  4192                           ; BSR set to: 0
  4193  002866  BF82               	btfsc	(Serial_DecodificacionY@i_1397+1)& (0+255),7,b
  4194  002868  EF3F  F014         	goto	u3491
  4195  00286C  5182               	movf	(Serial_DecodificacionY@i_1397+1)& (0+255),w,b
  4196  00286E  E109               	bnz	u3490
  4197  002870  0E03               	movlw	3
  4198  002872  5D81               	subwf	Serial_DecodificacionY@i_1397& (0+255),w,b
  4199  002874  A0D8               	btfss	status,0,c
  4200  002876  EF3F  F014         	goto	u3491
  4201  00287A  EF41  F014         	goto	u3490
  4202  00287E                     u3491:
  4203  00287E  EF13  F014         	goto	l4603
  4204  002882                     u3490:
  4205  002882                     
  4206                           ; BSR set to: 0
  4207                           ;serial.c: 156:     *pointerCY = atoi(coordenadaY);
  4208  002882  0E7C               	movlw	low Serial_DecodificacionY@coordenadaY
  4209  002884  6F67               	movwf	atoi@s& (0+255),b
  4210  002886  0E00               	movlw	high Serial_DecodificacionY@coordenadaY
  4211  002888  6F68               	movwf	(atoi@s+1)& (0+255),b
  4212  00288A  EC13  F00D         	call	_atoi	;wreg free
  4213  00288E  C078  FFD9         	movff	Serial_DecodificacionY@pointerCY,fsr2l
  4214  002892  C079  FFDA         	movff	Serial_DecodificacionY@pointerCY+1,fsr2h
  4215  002896  0100               	movlb	0	; () banked
  4216  002898  C067  FFDE         	movff	?_atoi,postinc2
  4217  00289C  C068  FFDD         	movff	?_atoi+1,postdec2
  4218  0028A0                     
  4219                           ; BSR set to: 0
  4220  0028A0  0012               	return		;funcret
  4221  0028A2                     __end_of_Serial_DecodificacionY:
  4222                           	opt callstack 0
  4223                           
  4224 ;; *************** function _Serial_DecodificacionX *****************
  4225 ;; Defined at:
  4226 ;;		line 132 in file "serial.c"
  4227 ;; Parameters:    Size  Location     Type
  4228 ;;  string_coord    2   22[BANK0 ] PTR unsigned char 
  4229 ;;		 -> coordenada_array(7), 
  4230 ;;  pointerCX       2   24[BANK0 ] PTR int 
  4231 ;;		 -> CoordenadaX(2), 
  4232 ;; Auto vars:     Size  Location     Type
  4233 ;;  i               2   32[BANK0 ] int 
  4234 ;;  i               2   30[BANK0 ] int 
  4235 ;;  coordenadaX     3   27[BANK0 ] unsigned char [3]
  4236 ;; Return value:  Size  Location     Type
  4237 ;;                  1    wreg      void 
  4238 ;; Registers used:
  4239 ;;		wreg, fsr1l, fsr1h, fsr2l, fsr2h, status,2, status,0, prodl, prodh, cstack
  4240 ;; Tracked objects:
  4241 ;;		On entry : 0/0
  4242 ;;		On exit  : 0/0
  4243 ;;		Unchanged: 0/0
  4244 ;; Data sizes:     COMRAM   BANK0   BANK1   BANK2   BANK3   BANK4   BANK5   BANK6   BANK7
  4245 ;;      Params:         0       4       0       0       0       0       0       0       0
  4246 ;;      Locals:         0       7       0       0       0       0       0       0       0
  4247 ;;      Temps:          0       1       0       0       0       0       0       0       0
  4248 ;;      Totals:         0      12       0       0       0       0       0       0       0
  4249 ;;Total ram usage:       12 bytes
  4250 ;; Hardware stack levels used:    1
  4251 ;; Hardware stack levels required when called:    7
  4252 ;; This function calls:
  4253 ;;		_atoi
  4254 ;; This function is called by:
  4255 ;;		_Serial_Oupcode
  4256 ;; This function uses a non-reentrant model
  4257 ;;
  4258                           
  4259                           	psect	text18
  4260  0028A2                     __ptext18:
  4261                           	opt callstack 0
  4262  0028A2                     _Serial_DecodificacionX:
  4263                           	opt callstack 22
  4264  0028A2                     
  4265                           ;serial.c: 133:     char coordenadaX[3];;serial.c: 134:     for (int i = 0; i < 3; i++) 
      +                          {
  4266  0028A2  0E00               	movlw	0
  4267  0028A4  0100               	movlb	0	; () banked
  4268  0028A6  6F7F               	movwf	(Serial_DecodificacionX@i+1)& (0+255),b
  4269  0028A8  0E00               	movlw	0
  4270  0028AA  6F7E               	movwf	Serial_DecodificacionX@i& (0+255),b
  4271  0028AC                     l4559:
  4272                           
  4273                           ; BSR set to: 0
  4274                           ;serial.c: 135:         coordenadaX[i] = string_coordenada[i];
  4275  0028AC  517E               	movf	Serial_DecodificacionX@i& (0+255),w,b
  4276  0028AE  2576               	addwf	Serial_DecodificacionX@string_coordenada& (0+255),w,b
  4277  0028B0  6ED9               	movwf	fsr2l,c
  4278  0028B2  517F               	movf	(Serial_DecodificacionX@i+1)& (0+255),w,b
  4279  0028B4  2177               	addwfc	(Serial_DecodificacionX@string_coordenada+1)& (0+255),w,b
  4280  0028B6  6EDA               	movwf	fsr2h,c
  4281  0028B8  0E7B               	movlw	low Serial_DecodificacionX@coordenadaX
  4282  0028BA  257E               	addwf	Serial_DecodificacionX@i& (0+255),w,b
  4283  0028BC  6EE1               	movwf	fsr1l,c
  4284  0028BE  0E00               	movlw	high Serial_DecodificacionX@coordenadaX
  4285  0028C0  217F               	addwfc	(Serial_DecodificacionX@i+1)& (0+255),w,b
  4286  0028C2  6EE2               	movwf	fsr1h,c
  4287  0028C4  CFDF FFE7          	movff	indf2,indf1
  4288  0028C8                     
  4289                           ; BSR set to: 0
  4290                           ;serial.c: 136:     }
  4291  0028C8  4B7E               	infsnz	Serial_DecodificacionX@i& (0+255),f,b
  4292  0028CA  2B7F               	incf	(Serial_DecodificacionX@i+1)& (0+255),f,b
  4293  0028CC                     
  4294                           ; BSR set to: 0
  4295  0028CC  BF7F               	btfsc	(Serial_DecodificacionX@i+1)& (0+255),7,b
  4296  0028CE  EF72  F014         	goto	u3421
  4297  0028D2  517F               	movf	(Serial_DecodificacionX@i+1)& (0+255),w,b
  4298  0028D4  E109               	bnz	u3420
  4299  0028D6  0E03               	movlw	3
  4300  0028D8  5D7E               	subwf	Serial_DecodificacionX@i& (0+255),w,b
  4301  0028DA  A0D8               	btfss	status,0,c
  4302  0028DC  EF72  F014         	goto	u3421
  4303  0028E0  EF74  F014         	goto	u3420
  4304  0028E4                     u3421:
  4305  0028E4  EF56  F014         	goto	l4559
  4306  0028E8                     u3420:
  4307  0028E8                     
  4308                           ; BSR set to: 0
  4309                           ;serial.c: 137:     for (int i = 0; i < 3; i++) {
  4310  0028E8  0E00               	movlw	0
  4311  0028EA  6F81               	movwf	(Serial_DecodificacionX@i_1391+1)& (0+255),b
  4312  0028EC  0E00               	movlw	0
  4313  0028EE  6F80               	movwf	Serial_DecodificacionX@i_1391& (0+255),b
  4314  0028F0                     l4571:
  4315                           
  4316                           ; BSR set to: 0
  4317                           ;serial.c: 138:         if (!(coordenadaX[i] >= 48 && coordenadaX[i] <= 57)) {
  4318  0028F0  0E7B               	movlw	low Serial_DecodificacionX@coordenadaX
  4319  0028F2  2580               	addwf	Serial_DecodificacionX@i_1391& (0+255),w,b
  4320  0028F4  6ED9               	movwf	fsr2l,c
  4321  0028F6  0E00               	movlw	high Serial_DecodificacionX@coordenadaX
  4322  0028F8  2181               	addwfc	(Serial_DecodificacionX@i_1391+1)& (0+255),w,b
  4323  0028FA  6EDA               	movwf	fsr2h,c
  4324  0028FC  0E2F               	movlw	47
  4325  0028FE  64DF               	cpfsgt	indf2,c
  4326  002900  EF84  F014         	goto	u3431
  4327  002904  EF86  F014         	goto	u3430
  4328  002908                     u3431:
  4329  002908  EF94  F014         	goto	l4575
  4330  00290C                     u3430:
  4331  00290C                     
  4332                           ; BSR set to: 0
  4333  00290C  0E7B               	movlw	low Serial_DecodificacionX@coordenadaX
  4334  00290E  2580               	addwf	Serial_DecodificacionX@i_1391& (0+255),w,b
  4335  002910  6ED9               	movwf	fsr2l,c
  4336  002912  0E00               	movlw	high Serial_DecodificacionX@coordenadaX
  4337  002914  2181               	addwfc	(Serial_DecodificacionX@i_1391+1)& (0+255),w,b
  4338  002916  6EDA               	movwf	fsr2h,c
  4339  002918  0E39               	movlw	57
  4340  00291A  64DF               	cpfsgt	indf2,c
  4341  00291C  EF92  F014         	goto	u3441
  4342  002920  EF94  F014         	goto	u3440
  4343  002924                     u3441:
  4344  002924  EF96  F014         	goto	l4577
  4345  002928                     u3440:
  4346  002928                     l4575:
  4347                           
  4348                           ; BSR set to: 0
  4349                           ;serial.c: 139:             Coordenadas_mal = 1;
  4350  002928  0E01               	movlw	1
  4351  00292A  6FB8               	movwf	_Coordenadas_mal& (0+255),b
  4352  00292C                     l4577:
  4353                           
  4354                           ; BSR set to: 0
  4355                           ;serial.c: 141:     }
  4356  00292C  4B80               	infsnz	Serial_DecodificacionX@i_1391& (0+255),f,b
  4357  00292E  2B81               	incf	(Serial_DecodificacionX@i_1391+1)& (0+255),f,b
  4358  002930                     
  4359                           ; BSR set to: 0
  4360  002930  BF81               	btfsc	(Serial_DecodificacionX@i_1391+1)& (0+255),7,b
  4361  002932  EFA4  F014         	goto	u3451
  4362  002936  5181               	movf	(Serial_DecodificacionX@i_1391+1)& (0+255),w,b
  4363  002938  E109               	bnz	u3450
  4364  00293A  0E03               	movlw	3
  4365  00293C  5D80               	subwf	Serial_DecodificacionX@i_1391& (0+255),w,b
  4366  00293E  A0D8               	btfss	status,0,c
  4367  002940  EFA4  F014         	goto	u3451
  4368  002944  EFA6  F014         	goto	u3450
  4369  002948                     u3451:
  4370  002948  EF78  F014         	goto	l4571
  4371  00294C                     u3450:
  4372  00294C                     
  4373                           ; BSR set to: 0
  4374                           ;serial.c: 142:     *pointerCX = atoi(coordenadaX);
  4375  00294C  0E7B               	movlw	low Serial_DecodificacionX@coordenadaX
  4376  00294E  6F67               	movwf	atoi@s& (0+255),b
  4377  002950  0E00               	movlw	high Serial_DecodificacionX@coordenadaX
  4378  002952  6F68               	movwf	(atoi@s+1)& (0+255),b
  4379  002954  EC13  F00D         	call	_atoi	;wreg free
  4380  002958  C078  FFD9         	movff	Serial_DecodificacionX@pointerCX,fsr2l
  4381  00295C  C079  FFDA         	movff	Serial_DecodificacionX@pointerCX+1,fsr2h
  4382  002960  0100               	movlb	0	; () banked
  4383  002962  C067  FFDE         	movff	?_atoi,postinc2
  4384  002966  C068  FFDD         	movff	?_atoi+1,postdec2
  4385  00296A                     
  4386                           ; BSR set to: 0
  4387  00296A  0012               	return		;funcret
  4388  00296C                     __end_of_Serial_DecodificacionX:
  4389                           	opt callstack 0
  4390                           
  4391 ;; *************** function _atoi *****************
  4392 ;; Defined at:
  4393 ;;		line 4 in file "C:\Program Files (x86)\Microchip\xc8\v2.10\pic\sources\c99\common\atoi.c"
  4394 ;; Parameters:    Size  Location     Type
  4395 ;;  s               2    7[BANK0 ] PTR const unsigned char 
  4396 ;;		 -> Serial_Lectura_MemoriaZ@coordenadaZ(3), Serial_Lectura_MemoriaY@coordenadaY(3), Serial_Lectura_MemoriaX@coordena
      +daX(3), Serial_DecodificacionZ@coordenadaZ(3), 
  4397 ;;		 -> Serial_DecodificacionY@coordenadaY(3), Serial_DecodificacionX@coordenadaX(3), 
  4398 ;; Auto vars:     Size  Location     Type
  4399 ;;  n               2   20[BANK0 ] int 
  4400 ;;  neg             2   13[BANK0 ] int 
  4401 ;; Return value:  Size  Location     Type
  4402 ;;                  2    7[BANK0 ] int 
  4403 ;; Registers used:
  4404 ;;		wreg, fsr2l, fsr2h, status,2, status,0, prodl, prodh, cstack
  4405 ;; Tracked objects:
  4406 ;;		On entry : 0/0
  4407 ;;		On exit  : 0/0
  4408 ;;		Unchanged: 0/0
  4409 ;; Data sizes:     COMRAM   BANK0   BANK1   BANK2   BANK3   BANK4   BANK5   BANK6   BANK7
  4410 ;;      Params:         0       2       0       0       0       0       0       0       0
  4411 ;;      Locals:         0       9       0       0       0       0       0       0       0
  4412 ;;      Temps:          0       4       0       0       0       0       0       0       0
  4413 ;;      Totals:         0      15       0       0       0       0       0       0       0
  4414 ;;Total ram usage:       15 bytes
  4415 ;; Hardware stack levels used:    1
  4416 ;; Hardware stack levels required when called:    6
  4417 ;; This function calls:
  4418 ;;		___wmul
  4419 ;;		_isdigit
  4420 ;;		_isspace
  4421 ;; This function is called by:
  4422 ;;		_Serial_DecodificacionX
  4423 ;;		_Serial_DecodificacionY
  4424 ;;		_Serial_Lectura_MemoriaX
  4425 ;;		_Serial_Lectura_MemoriaY
  4426 ;;		_Serial_Lectura_MemoriaZ
  4427 ;;		_Serial_DecodificacionZ
  4428 ;; This function uses a non-reentrant model
  4429 ;;
  4430                           
  4431                           	psect	text19
  4432  001A26                     __ptext19:
  4433                           	opt callstack 0
  4434  001A26                     _atoi:
  4435                           	opt callstack 22
  4436  001A26  0E00               	movlw	0
  4437  001A28  0100               	movlb	0	; () banked
  4438  001A2A  6F75               	movwf	(atoi@n+1)& (0+255),b
  4439  001A2C  0E00               	movlw	0
  4440  001A2E  6F74               	movwf	atoi@n& (0+255),b
  4441  001A30  0E00               	movlw	0
  4442  001A32  6F6E               	movwf	(atoi@neg+1)& (0+255),b
  4443  001A34  0E00               	movlw	0
  4444  001A36  6F6D               	movwf	atoi@neg& (0+255),b
  4445  001A38  EF20  F00D         	goto	l4391
  4446  001A3C                     l4389:
  4447                           
  4448                           ; BSR set to: 0
  4449  001A3C  4B67               	infsnz	atoi@s& (0+255),f,b
  4450  001A3E  2B68               	incf	(atoi@s+1)& (0+255),f,b
  4451  001A40                     l4391:
  4452                           
  4453                           ; BSR set to: 0
  4454  001A40  0E01               	movlw	1
  4455  001A42  6F73               	movwf	_atoi$2707& (0+255),b
  4456  001A44                     
  4457                           ; BSR set to: 0
  4458  001A44  C067  FFD9         	movff	atoi@s,fsr2l
  4459  001A48  C068  FFDA         	movff	atoi@s+1,fsr2h
  4460  001A4C  0E20               	movlw	32
  4461  001A4E  18DE               	xorwf	postinc2,w,c
  4462  001A50  B4D8               	btfsc	status,2,c
  4463  001A52  EF2D  F00D         	goto	u3171
  4464  001A56  EF2F  F00D         	goto	u3170
  4465  001A5A                     u3171:
  4466  001A5A  EF4B  F00D         	goto	l4399
  4467  001A5E                     u3170:
  4468  001A5E                     
  4469                           ; BSR set to: 0
  4470  001A5E  0EF7               	movlw	247
  4471  001A60  6F69               	movwf	??_atoi& (0+255),b
  4472  001A62  0EFF               	movlw	255
  4473  001A64  6F6A               	movwf	(??_atoi+1)& (0+255),b
  4474  001A66  C067  FFD9         	movff	atoi@s,fsr2l
  4475  001A6A  C068  FFDA         	movff	atoi@s+1,fsr2h
  4476  001A6E  50DF               	movf	indf2,w,c
  4477  001A70  6F6B               	movwf	(??_atoi+2)& (0+255),b
  4478  001A72  6B6C               	clrf	(??_atoi+3)& (0+255),b
  4479  001A74  5169               	movf	??_atoi& (0+255),w,b
  4480  001A76  276B               	addwf	(??_atoi+2)& (0+255),f,b
  4481  001A78  516A               	movf	(??_atoi+1)& (0+255),w,b
  4482  001A7A  236C               	addwfc	(??_atoi+3)& (0+255),f,b
  4483  001A7C  516C               	movf	(??_atoi+3)& (0+255),w,b
  4484  001A7E  E109               	bnz	u3180
  4485  001A80  0E05               	movlw	5
  4486  001A82  5D6B               	subwf	(??_atoi+2)& (0+255),w,b
  4487  001A84  A0D8               	btfss	status,0,c
  4488  001A86  EF47  F00D         	goto	u3181
  4489  001A8A  EF49  F00D         	goto	u3180
  4490  001A8E                     u3181:
  4491  001A8E  EF4B  F00D         	goto	l4399
  4492  001A92                     u3180:
  4493  001A92                     
  4494                           ; BSR set to: 0
  4495  001A92  0E00               	movlw	0
  4496  001A94  6F73               	movwf	_atoi$2707& (0+255),b
  4497  001A96                     l4399:
  4498                           
  4499                           ; BSR set to: 0
  4500  001A96  C073  F06F         	movff	_atoi$2707,_atoi$2706
  4501  001A9A  6B70               	clrf	(_atoi$2706+1)& (0+255),b
  4502  001A9C                     
  4503                           ; BSR set to: 0
  4504  001A9C  516F               	movf	_atoi$2706& (0+255),w,b
  4505  001A9E  1170               	iorwf	(_atoi$2706+1)& (0+255),w,b
  4506  001AA0  A4D8               	btfss	status,2,c
  4507  001AA2  EF55  F00D         	goto	u3191
  4508  001AA6  EF57  F00D         	goto	u3190
  4509  001AAA                     u3191:
  4510  001AAA  EF1E  F00D         	goto	l4389
  4511  001AAE                     u3190:
  4512  001AAE  EF61  F00D         	goto	l4409
  4513  001AB2                     l4405:
  4514                           
  4515                           ; BSR set to: 0
  4516  001AB2  0E00               	movlw	0
  4517  001AB4  6F6E               	movwf	(atoi@neg+1)& (0+255),b
  4518  001AB6  0E01               	movlw	1
  4519  001AB8  6F6D               	movwf	atoi@neg& (0+255),b
  4520  001ABA                     l4407:
  4521                           
  4522                           ; BSR set to: 0
  4523  001ABA  4B67               	infsnz	atoi@s& (0+255),f,b
  4524  001ABC  2B68               	incf	(atoi@s+1)& (0+255),f,b
  4525  001ABE  EF97  F00D         	goto	l4415
  4526  001AC2                     l4409:
  4527                           
  4528                           ; BSR set to: 0
  4529  001AC2  C067  FFD9         	movff	atoi@s,fsr2l
  4530  001AC6  C068  FFDA         	movff	atoi@s+1,fsr2h
  4531  001ACA  50DF               	movf	indf2,w,c
  4532  001ACC  6F69               	movwf	??_atoi& (0+255),b
  4533  001ACE  6B6A               	clrf	(??_atoi+1)& (0+255),b
  4534                           
  4535                           ; Switch on 2 bytes has been partitioned into a top level switch of size 1, and 1 sub-sw
      +                          itches
  4536                           ; Switch size 1, requested type "simple"
  4537                           ; Number of cases is 1, Range of values is 0 to 0
  4538                           ; switch strategies available:
  4539                           ; Name         Instructions Cycles
  4540                           ; simple_byte            4     3 (average)
  4541                           ;	Chosen strategy is simple_byte
  4542  001AD0  516A               	movf	(??_atoi+1)& (0+255),w,b
  4543  001AD2  0A00               	xorlw	0	; case 0
  4544  001AD4  B4D8               	btfsc	status,2,c
  4545  001AD6  EF6F  F00D         	goto	l6495
  4546  001ADA  EF97  F00D         	goto	l4415
  4547  001ADE                     l6495:
  4548                           
  4549                           ; BSR set to: 0
  4550                           ; Switch size 1, requested type "simple"
  4551                           ; Number of cases is 2, Range of values is 43 to 45
  4552                           ; switch strategies available:
  4553                           ; Name         Instructions Cycles
  4554                           ; simple_byte            7     4 (average)
  4555                           ;	Chosen strategy is simple_byte
  4556  001ADE  5169               	movf	??_atoi& (0+255),w,b
  4557  001AE0  0A2B               	xorlw	43	; case 43
  4558  001AE2  B4D8               	btfsc	status,2,c
  4559  001AE4  EF5D  F00D         	goto	l4407
  4560  001AE8  0A06               	xorlw	6	; case 45
  4561  001AEA  B4D8               	btfsc	status,2,c
  4562  001AEC  EF59  F00D         	goto	l4405
  4563  001AF0  EF97  F00D         	goto	l4415
  4564  001AF4                     l4411:
  4565                           
  4566                           ; BSR set to: 0
  4567  001AF4  C074  F060         	movff	atoi@n,___wmul@multiplier
  4568  001AF8  C075  F061         	movff	atoi@n+1,___wmul@multiplier+1
  4569  001AFC  0E00               	movlw	0
  4570  001AFE  6F63               	movwf	(___wmul@multiplicand+1)& (0+255),b
  4571  001B00  0E0A               	movlw	10
  4572  001B02  6F62               	movwf	___wmul@multiplicand& (0+255),b
  4573  001B04  ECCF  F018         	call	___wmul	;wreg free
  4574  001B08  C067  FFD9         	movff	atoi@s,fsr2l
  4575  001B0C  C068  FFDA         	movff	atoi@s+1,fsr2h
  4576  001B10  50DF               	movf	indf2,w,c
  4577  001B12  0100               	movlb	0	; () banked
  4578  001B14  6F69               	movwf	??_atoi& (0+255),b
  4579  001B16  5169               	movf	??_atoi& (0+255),w,b
  4580  001B18  5F60               	subwf	?___wmul& (0+255),f,b
  4581  001B1A  0E00               	movlw	0
  4582  001B1C  5B61               	subwfb	(?___wmul+1)& (0+255),f,b
  4583  001B1E  0E30               	movlw	48
  4584  001B20  2560               	addwf	?___wmul& (0+255),w,b
  4585  001B22  6F74               	movwf	atoi@n& (0+255),b
  4586  001B24  0E00               	movlw	0
  4587  001B26  2161               	addwfc	(?___wmul+1)& (0+255),w,b
  4588  001B28  6F75               	movwf	(atoi@n+1)& (0+255),b
  4589  001B2A  EF5D  F00D         	goto	l4407
  4590  001B2E                     l4415:
  4591                           
  4592                           ; BSR set to: 0
  4593  001B2E  0ED0               	movlw	208
  4594  001B30  6F69               	movwf	??_atoi& (0+255),b
  4595  001B32  0EFF               	movlw	255
  4596  001B34  6F6A               	movwf	(??_atoi+1)& (0+255),b
  4597  001B36  C067  FFD9         	movff	atoi@s,fsr2l
  4598  001B3A  C068  FFDA         	movff	atoi@s+1,fsr2h
  4599  001B3E  50DF               	movf	indf2,w,c
  4600  001B40  6F6B               	movwf	(??_atoi+2)& (0+255),b
  4601  001B42  6B6C               	clrf	(??_atoi+3)& (0+255),b
  4602  001B44  5169               	movf	??_atoi& (0+255),w,b
  4603  001B46  276B               	addwf	(??_atoi+2)& (0+255),f,b
  4604  001B48  516A               	movf	(??_atoi+1)& (0+255),w,b
  4605  001B4A  236C               	addwfc	(??_atoi+3)& (0+255),f,b
  4606  001B4C  516C               	movf	(??_atoi+3)& (0+255),w,b
  4607  001B4E  E10A               	bnz	u3200
  4608  001B50  0E0A               	movlw	10
  4609  001B52  5D6B               	subwf	(??_atoi+2)& (0+255),w,b
  4610  001B54  A0D8               	btfss	status,0,c
  4611  001B56  EFAF  F00D         	goto	u3201
  4612  001B5A  EFB2  F00D         	goto	u3200
  4613  001B5E                     u3201:
  4614  001B5E  0E01               	movlw	1
  4615  001B60  EFB3  F00D         	goto	u3210
  4616  001B64                     u3200:
  4617  001B64  0E00               	movlw	0
  4618  001B66                     u3210:
  4619  001B66  6F71               	movwf	_atoi$2708& (0+255),b
  4620  001B68  6B72               	clrf	(_atoi$2708+1)& (0+255),b
  4621  001B6A                     
  4622                           ; BSR set to: 0
  4623  001B6A  5171               	movf	_atoi$2708& (0+255),w,b
  4624  001B6C  1172               	iorwf	(_atoi$2708+1)& (0+255),w,b
  4625  001B6E  A4D8               	btfss	status,2,c
  4626  001B70  EFBC  F00D         	goto	u3221
  4627  001B74  EFBE  F00D         	goto	u3220
  4628  001B78                     u3221:
  4629  001B78  EF7A  F00D         	goto	l4411
  4630  001B7C                     u3220:
  4631  001B7C                     
  4632                           ; BSR set to: 0
  4633  001B7C  516D               	movf	atoi@neg& (0+255),w,b
  4634  001B7E  116E               	iorwf	(atoi@neg+1)& (0+255),w,b
  4635  001B80  A4D8               	btfss	status,2,c
  4636  001B82  EFC5  F00D         	goto	u3231
  4637  001B86  EFC7  F00D         	goto	u3230
  4638  001B8A                     u3231:
  4639  001B8A  EFD5  F00D         	goto	l1627
  4640  001B8E                     u3230:
  4641  001B8E                     
  4642                           ; BSR set to: 0
  4643  001B8E  C074  F069         	movff	atoi@n,??_atoi
  4644  001B92  C075  F06A         	movff	atoi@n+1,??_atoi+1
  4645  001B96  1F69               	comf	??_atoi& (0+255),f,b
  4646  001B98  1F6A               	comf	(??_atoi+1)& (0+255),f,b
  4647  001B9A  4B69               	infsnz	??_atoi& (0+255),f,b
  4648  001B9C  2B6A               	incf	(??_atoi+1)& (0+255),f,b
  4649  001B9E  C069  F067         	movff	??_atoi,?_atoi
  4650  001BA2  C06A  F068         	movff	??_atoi+1,?_atoi+1
  4651  001BA6  EFD9  F00D         	goto	l1630
  4652  001BAA                     l1627:
  4653                           
  4654                           ; BSR set to: 0
  4655  001BAA  C074  F067         	movff	atoi@n,?_atoi
  4656  001BAE  C075  F068         	movff	atoi@n+1,?_atoi+1
  4657  001BB2                     l1630:
  4658                           
  4659                           ; BSR set to: 0
  4660  001BB2  0012               	return		;funcret
  4661  001BB4                     __end_of_atoi:
  4662                           	opt callstack 0
  4663                           
  4664 ;; *************** function _isspace *****************
  4665 ;; Defined at:
  4666 ;;		line 5 in file "C:\Program Files (x86)\Microchip\xc8\v2.10\pic\sources\c99\common\isspace.c"
  4667 ;; Parameters:    Size  Location     Type
  4668 ;;  c               2    0[BANK0 ] int 
  4669 ;; Auto vars:     Size  Location     Type
  4670 ;;		None
  4671 ;; Return value:  Size  Location     Type
  4672 ;;                  2    0[BANK0 ] int 
  4673 ;; Registers used:
  4674 ;;		wreg, status,2, status,0
  4675 ;; Tracked objects:
  4676 ;;		On entry : 0/0
  4677 ;;		On exit  : 0/0
  4678 ;;		Unchanged: 0/0
  4679 ;; Data sizes:     COMRAM   BANK0   BANK1   BANK2   BANK3   BANK4   BANK5   BANK6   BANK7
  4680 ;;      Params:         0       2       0       0       0       0       0       0       0
  4681 ;;      Locals:         0       1       0       0       0       0       0       0       0
  4682 ;;      Temps:          0       4       0       0       0       0       0       0       0
  4683 ;;      Totals:         0       7       0       0       0       0       0       0       0
  4684 ;;Total ram usage:        7 bytes
  4685 ;; Hardware stack levels used:    1
  4686 ;; Hardware stack levels required when called:    5
  4687 ;; This function calls:
  4688 ;;		Nothing
  4689 ;; This function is called by:
  4690 ;;		_atoi
  4691 ;; This function uses a non-reentrant model
  4692 ;;
  4693                           
  4694                           	psect	text20
  4695  002DF8                     __ptext20:
  4696                           	opt callstack 0
  4697  002DF8                     _isspace:
  4698                           	opt callstack 22
  4699  002DF8  0E01               	movlw	1
  4700  002DFA  0100               	movlb	0	; () banked
  4701  002DFC  6F66               	movwf	_isspace$2735& (0+255),b
  4702  002DFE                     
  4703                           ; BSR set to: 0
  4704  002DFE  0E20               	movlw	32
  4705  002E00  1960               	xorwf	isspace@c& (0+255),w,b
  4706  002E02  1161               	iorwf	(isspace@c+1)& (0+255),w,b
  4707  002E04  B4D8               	btfsc	status,2,c
  4708  002E06  EF07  F017         	goto	u2531
  4709  002E0A  EF09  F017         	goto	u2530
  4710  002E0E                     u2531:
  4711  002E0E  EF22  F017         	goto	l4003
  4712  002E12                     u2530:
  4713  002E12                     
  4714                           ; BSR set to: 0
  4715  002E12  0EF7               	movlw	247
  4716  002E14  6F62               	movwf	??_isspace& (0+255),b
  4717  002E16  0EFF               	movlw	255
  4718  002E18  6F63               	movwf	(??_isspace+1)& (0+255),b
  4719  002E1A  C060  F064         	movff	isspace@c,??_isspace+2
  4720  002E1E  C061  F065         	movff	isspace@c+1,??_isspace+3
  4721  002E22  5162               	movf	??_isspace& (0+255),w,b
  4722  002E24  2764               	addwf	(??_isspace+2)& (0+255),f,b
  4723  002E26  5163               	movf	(??_isspace+1)& (0+255),w,b
  4724  002E28  2365               	addwfc	(??_isspace+3)& (0+255),f,b
  4725  002E2A  5165               	movf	(??_isspace+3)& (0+255),w,b
  4726  002E2C  E109               	bnz	u2540
  4727  002E2E  0E05               	movlw	5
  4728  002E30  5D64               	subwf	(??_isspace+2)& (0+255),w,b
  4729  002E32  A0D8               	btfss	status,0,c
  4730  002E34  EF1E  F017         	goto	u2541
  4731  002E38  EF20  F017         	goto	u2540
  4732  002E3C                     u2541:
  4733  002E3C  EF22  F017         	goto	l4003
  4734  002E40                     u2540:
  4735  002E40                     
  4736                           ; BSR set to: 0
  4737  002E40  0E00               	movlw	0
  4738  002E42  6F66               	movwf	_isspace$2735& (0+255),b
  4739  002E44                     l4003:
  4740                           
  4741                           ; BSR set to: 0
  4742  002E44  C066  F060         	movff	_isspace$2735,?_isspace
  4743  002E48  6B61               	clrf	(?_isspace+1)& (0+255),b
  4744  002E4A                     
  4745                           ; BSR set to: 0
  4746  002E4A  0012               	return		;funcret
  4747  002E4C                     __end_of_isspace:
  4748                           	opt callstack 0
  4749                           
  4750 ;; *************** function _isdigit *****************
  4751 ;; Defined at:
  4752 ;;		line 5 in file "C:\Program Files (x86)\Microchip\xc8\v2.10\pic\sources\c99\common\isdigit.c"
  4753 ;; Parameters:    Size  Location     Type
  4754 ;;  c               2    0[BANK0 ] int 
  4755 ;; Auto vars:     Size  Location     Type
  4756 ;;		None
  4757 ;; Return value:  Size  Location     Type
  4758 ;;                  2    0[BANK0 ] int 
  4759 ;; Registers used:
  4760 ;;		wreg, status,2, status,0
  4761 ;; Tracked objects:
  4762 ;;		On entry : 0/0
  4763 ;;		On exit  : 0/0
  4764 ;;		Unchanged: 0/0
  4765 ;; Data sizes:     COMRAM   BANK0   BANK1   BANK2   BANK3   BANK4   BANK5   BANK6   BANK7
  4766 ;;      Params:         0       2       0       0       0       0       0       0       0
  4767 ;;      Locals:         0       0       0       0       0       0       0       0       0
  4768 ;;      Temps:          0       4       0       0       0       0       0       0       0
  4769 ;;      Totals:         0       6       0       0       0       0       0       0       0
  4770 ;;Total ram usage:        6 bytes
  4771 ;; Hardware stack levels used:    1
  4772 ;; Hardware stack levels required when called:    5
  4773 ;; This function calls:
  4774 ;;		Nothing
  4775 ;; This function is called by:
  4776 ;;		_atoi
  4777 ;; This function uses a non-reentrant model
  4778 ;;
  4779                           
  4780                           	psect	text21
  4781  003000                     __ptext21:
  4782                           	opt callstack 0
  4783  003000                     _isdigit:
  4784                           	opt callstack 22
  4785  003000  0ED0               	movlw	208
  4786  003002  0100               	movlb	0	; () banked
  4787  003004  6F62               	movwf	??_isdigit& (0+255),b
  4788  003006  0EFF               	movlw	255
  4789  003008  6F63               	movwf	(??_isdigit+1)& (0+255),b
  4790  00300A  C060  F064         	movff	isdigit@c,??_isdigit+2
  4791  00300E  C061  F065         	movff	isdigit@c+1,??_isdigit+3
  4792  003012  5162               	movf	??_isdigit& (0+255),w,b
  4793  003014  2764               	addwf	(??_isdigit+2)& (0+255),f,b
  4794  003016  5163               	movf	(??_isdigit+1)& (0+255),w,b
  4795  003018  2365               	addwfc	(??_isdigit+3)& (0+255),f,b
  4796  00301A  5165               	movf	(??_isdigit+3)& (0+255),w,b
  4797  00301C  E10A               	bnz	u2550
  4798  00301E  0E0A               	movlw	10
  4799  003020  5D64               	subwf	(??_isdigit+2)& (0+255),w,b
  4800  003022  A0D8               	btfss	status,0,c
  4801  003024  EF16  F018         	goto	u2551
  4802  003028  EF19  F018         	goto	u2550
  4803  00302C                     u2551:
  4804  00302C  0E01               	movlw	1
  4805  00302E  EF1A  F018         	goto	u2560
  4806  003032                     u2550:
  4807  003032  0E00               	movlw	0
  4808  003034                     u2560:
  4809  003034  6F60               	movwf	?_isdigit& (0+255),b
  4810  003036  6B61               	clrf	(?_isdigit+1)& (0+255),b
  4811  003038                     
  4812                           ; BSR set to: 0
  4813  003038  0012               	return		;funcret
  4814  00303A                     __end_of_isdigit:
  4815                           	opt callstack 0
  4816                           
  4817 ;; *************** function ___wmul *****************
  4818 ;; Defined at:
  4819 ;;		line 15 in file "C:\Program Files (x86)\Microchip\xc8\v2.10\pic\sources\c99\common\Umul16.c"
  4820 ;; Parameters:    Size  Location     Type
  4821 ;;  multiplier      2    0[BANK0 ] unsigned int 
  4822 ;;  multiplicand    2    2[BANK0 ] unsigned int 
  4823 ;; Auto vars:     Size  Location     Type
  4824 ;;  product         2    4[BANK0 ] unsigned int 
  4825 ;; Return value:  Size  Location     Type
  4826 ;;                  2    0[BANK0 ] unsigned int 
  4827 ;; Registers used:
  4828 ;;		wreg, status,2, status,0, prodl, prodh
  4829 ;; Tracked objects:
  4830 ;;		On entry : 0/0
  4831 ;;		On exit  : 0/0
  4832 ;;		Unchanged: 0/0
  4833 ;; Data sizes:     COMRAM   BANK0   BANK1   BANK2   BANK3   BANK4   BANK5   BANK6   BANK7
  4834 ;;      Params:         0       4       0       0       0       0       0       0       0
  4835 ;;      Locals:         0       2       0       0       0       0       0       0       0
  4836 ;;      Temps:          0       0       0       0       0       0       0       0       0
  4837 ;;      Totals:         0       6       0       0       0       0       0       0       0
  4838 ;;Total ram usage:        6 bytes
  4839 ;; Hardware stack levels used:    1
  4840 ;; Hardware stack levels required when called:    5
  4841 ;; This function calls:
  4842 ;;		Nothing
  4843 ;; This function is called by:
  4844 ;;		_atoi
  4845 ;; This function uses a non-reentrant model
  4846 ;;
  4847                           
  4848                           	psect	text22
  4849  00319E                     __ptext22:
  4850                           	opt callstack 0
  4851  00319E                     ___wmul:
  4852                           	opt callstack 22
  4853  00319E  0100               	movlb	0	; () banked
  4854  0031A0  5160               	movf	___wmul@multiplier& (0+255),w,b
  4855  0031A2  0362               	mulwf	___wmul@multiplicand& (0+255),b
  4856  0031A4  CFF3 F064          	movff	prodl,___wmul@product
  4857  0031A8  CFF4 F065          	movff	prodh,___wmul@product+1
  4858  0031AC  5160               	movf	___wmul@multiplier& (0+255),w,b
  4859  0031AE  0363               	mulwf	(___wmul@multiplicand+1)& (0+255),b
  4860  0031B0  50F3               	movf	243,w,c
  4861  0031B2  2765               	addwf	(___wmul@product+1)& (0+255),f,b
  4862  0031B4  5161               	movf	(___wmul@multiplier+1)& (0+255),w,b
  4863  0031B6  0362               	mulwf	___wmul@multiplicand& (0+255),b
  4864  0031B8  50F3               	movf	243,w,c
  4865  0031BA  2765               	addwf	(___wmul@product+1)& (0+255),f,b
  4866  0031BC                     
  4867                           ; BSR set to: 0
  4868  0031BC  C064  F060         	movff	___wmul@product,?___wmul
  4869  0031C0  C065  F061         	movff	___wmul@product+1,?___wmul+1
  4870  0031C4                     
  4871                           ; BSR set to: 0
  4872  0031C4  0012               	return		;funcret
  4873  0031C6                     __end_of___wmul:
  4874                           	opt callstack 0
  4875                           
  4876 ;; *************** function _Seria_Decodificacion_Memoria *****************
  4877 ;; Defined at:
  4878 ;;		line 181 in file "serial.c"
  4879 ;; Parameters:    Size  Location     Type
  4880 ;;  direccion       1    wreg     unsigned char 
  4881 ;; Auto vars:     Size  Location     Type
  4882 ;;  direccion       1   10[BANK0 ] unsigned char 
  4883 ;; Return value:  Size  Location     Type
  4884 ;;                  1    wreg      unsigned char 
  4885 ;; Registers used:
  4886 ;;		wreg, fsr0l, fsr0h, status,2, status,0, tblptrl, tblptrh, tblptru, cstack
  4887 ;; Tracked objects:
  4888 ;;		On entry : 0/0
  4889 ;;		On exit  : 0/0
  4890 ;;		Unchanged: 0/0
  4891 ;; Data sizes:     COMRAM   BANK0   BANK1   BANK2   BANK3   BANK4   BANK5   BANK6   BANK7
  4892 ;;      Params:         0       0       0       0       0       0       0       0       0
  4893 ;;      Locals:         0       1       0       0       0       0       0       0       0
  4894 ;;      Temps:          0       2       0       0       0       0       0       0       0
  4895 ;;      Totals:         0       3       0       0       0       0       0       0       0
  4896 ;;Total ram usage:        3 bytes
  4897 ;; Hardware stack levels used:    1
  4898 ;; Hardware stack levels required when called:    6
  4899 ;; This function calls:
  4900 ;;		_USART_TxS
  4901 ;; This function is called by:
  4902 ;;		_Serial_Oupcode
  4903 ;; This function uses a non-reentrant model
  4904 ;;
  4905                           
  4906                           	psect	text23
  4907  001450                     __ptext23:
  4908                           	opt callstack 0
  4909  001450                     _Seria_Decodificacion_Memoria:
  4910                           	opt callstack 23
  4911                           
  4912                           ; BSR set to: 0
  4913                           ;incstack = 0
  4914                           ;Seria_Decodificacion_Memoria@direccion stored from wreg
  4915  001450  0100               	movlb	0	; () banked
  4916  001452  6F6A               	movwf	Seria_Decodificacion_Memoria@direccion& (0+255),b
  4917  001454                     
  4918                           ;serial.c: 182:     switch (direccion) {
  4919  001454  EF0C  F00B         	goto	l4705
  4920  001458                     l4639:
  4921                           
  4922                           ; BSR set to: 0
  4923                           ;serial.c: 184:             direccion = 0x00;
  4924  001458  0E00               	movlw	0
  4925  00145A  6F6A               	movwf	Seria_Decodificacion_Memoria@direccion& (0+255),b
  4926  00145C                     
  4927                           ; BSR set to: 0
  4928                           ;serial.c: 185:             USART_TxS("C0\n", sizeof ("C0\n") - 1);
  4929  00145C  0E9E               	movlw	low STR_18
  4930  00145E  6F60               	movwf	USART_TxS@str& (0+255),b
  4931  001460  0E08               	movlw	high STR_18
  4932  001462  6F61               	movwf	(USART_TxS@str+1)& (0+255),b
  4933  001464  0E00               	movlw	0
  4934  001466  6F63               	movwf	(USART_TxS@length+1)& (0+255),b
  4935  001468  0E03               	movlw	3
  4936  00146A  6F62               	movwf	USART_TxS@length& (0+255),b
  4937  00146C  ECF1  F015         	call	_USART_TxS	;wreg free
  4938                           
  4939                           ;serial.c: 186:             break;
  4940  001470  EF5A  F00B         	goto	l4707
  4941  001474                     l4643:
  4942                           
  4943                           ; BSR set to: 0
  4944                           ;serial.c: 188:             direccion = 0x10;
  4945  001474  0E10               	movlw	16
  4946  001476  6F6A               	movwf	Seria_Decodificacion_Memoria@direccion& (0+255),b
  4947  001478                     
  4948                           ; BSR set to: 0
  4949                           ;serial.c: 189:             USART_TxS("C1\n", sizeof ("C1\n") - 1);
  4950  001478  0EA2               	movlw	low STR_19
  4951  00147A  6F60               	movwf	USART_TxS@str& (0+255),b
  4952  00147C  0E08               	movlw	high STR_19
  4953  00147E  6F61               	movwf	(USART_TxS@str+1)& (0+255),b
  4954  001480  0E00               	movlw	0
  4955  001482  6F63               	movwf	(USART_TxS@length+1)& (0+255),b
  4956  001484  0E03               	movlw	3
  4957  001486  6F62               	movwf	USART_TxS@length& (0+255),b
  4958  001488  ECF1  F015         	call	_USART_TxS	;wreg free
  4959                           
  4960                           ;serial.c: 190:             break;
  4961  00148C  EF5A  F00B         	goto	l4707
  4962  001490                     l4647:
  4963                           
  4964                           ; BSR set to: 0
  4965                           ;serial.c: 192:             direccion = 0x20;
  4966  001490  0E20               	movlw	32
  4967  001492  6F6A               	movwf	Seria_Decodificacion_Memoria@direccion& (0+255),b
  4968  001494                     
  4969                           ; BSR set to: 0
  4970                           ;serial.c: 193:             USART_TxS("C2\n", sizeof ("C2\n") - 1);
  4971  001494  0EAA               	movlw	low STR_20
  4972  001496  6F60               	movwf	USART_TxS@str& (0+255),b
  4973  001498  0E08               	movlw	high STR_20
  4974  00149A  6F61               	movwf	(USART_TxS@str+1)& (0+255),b
  4975  00149C  0E00               	movlw	0
  4976  00149E  6F63               	movwf	(USART_TxS@length+1)& (0+255),b
  4977  0014A0  0E03               	movlw	3
  4978  0014A2  6F62               	movwf	USART_TxS@length& (0+255),b
  4979  0014A4  ECF1  F015         	call	_USART_TxS	;wreg free
  4980                           
  4981                           ;serial.c: 194:             break;
  4982  0014A8  EF5A  F00B         	goto	l4707
  4983  0014AC                     l4651:
  4984                           
  4985                           ; BSR set to: 0
  4986                           ;serial.c: 196:             direccion = 0x30;
  4987  0014AC  0E30               	movlw	48
  4988  0014AE  6F6A               	movwf	Seria_Decodificacion_Memoria@direccion& (0+255),b
  4989  0014B0                     
  4990                           ; BSR set to: 0
  4991                           ;serial.c: 197:             USART_TxS("C3\n", sizeof ("C3\n") - 1);
  4992  0014B0  0EB2               	movlw	low STR_21
  4993  0014B2  6F60               	movwf	USART_TxS@str& (0+255),b
  4994  0014B4  0E08               	movlw	high STR_21
  4995  0014B6  6F61               	movwf	(USART_TxS@str+1)& (0+255),b
  4996  0014B8  0E00               	movlw	0
  4997  0014BA  6F63               	movwf	(USART_TxS@length+1)& (0+255),b
  4998  0014BC  0E03               	movlw	3
  4999  0014BE  6F62               	movwf	USART_TxS@length& (0+255),b
  5000  0014C0  ECF1  F015         	call	_USART_TxS	;wreg free
  5001                           
  5002                           ;serial.c: 198:             break;
  5003  0014C4  EF5A  F00B         	goto	l4707
  5004  0014C8                     l4655:
  5005                           
  5006                           ; BSR set to: 0
  5007                           ;serial.c: 200:             direccion = 0x40;
  5008  0014C8  0E40               	movlw	64
  5009  0014CA  6F6A               	movwf	Seria_Decodificacion_Memoria@direccion& (0+255),b
  5010  0014CC                     
  5011                           ; BSR set to: 0
  5012                           ;serial.c: 201:             USART_TxS("C4\n", sizeof ("C4\n") - 1);
  5013  0014CC  0EB6               	movlw	low STR_22
  5014  0014CE  6F60               	movwf	USART_TxS@str& (0+255),b
  5015  0014D0  0E08               	movlw	high STR_22
  5016  0014D2  6F61               	movwf	(USART_TxS@str+1)& (0+255),b
  5017  0014D4  0E00               	movlw	0
  5018  0014D6  6F63               	movwf	(USART_TxS@length+1)& (0+255),b
  5019  0014D8  0E03               	movlw	3
  5020  0014DA  6F62               	movwf	USART_TxS@length& (0+255),b
  5021  0014DC  ECF1  F015         	call	_USART_TxS	;wreg free
  5022                           
  5023                           ;serial.c: 202:             break;
  5024  0014E0  EF5A  F00B         	goto	l4707
  5025  0014E4                     l4659:
  5026                           
  5027                           ; BSR set to: 0
  5028                           ;serial.c: 204:             direccion = 0x50;
  5029  0014E4  0E50               	movlw	80
  5030  0014E6  6F6A               	movwf	Seria_Decodificacion_Memoria@direccion& (0+255),b
  5031  0014E8                     
  5032                           ; BSR set to: 0
  5033                           ;serial.c: 205:             USART_TxS("C5\n", sizeof ("C5\n") - 1);
  5034  0014E8  0EBA               	movlw	low STR_23
  5035  0014EA  6F60               	movwf	USART_TxS@str& (0+255),b
  5036  0014EC  0E08               	movlw	high STR_23
  5037  0014EE  6F61               	movwf	(USART_TxS@str+1)& (0+255),b
  5038  0014F0  0E00               	movlw	0
  5039  0014F2  6F63               	movwf	(USART_TxS@length+1)& (0+255),b
  5040  0014F4  0E03               	movlw	3
  5041  0014F6  6F62               	movwf	USART_TxS@length& (0+255),b
  5042  0014F8  ECF1  F015         	call	_USART_TxS	;wreg free
  5043                           
  5044                           ;serial.c: 206:             break;
  5045  0014FC  EF5A  F00B         	goto	l4707
  5046  001500                     l4663:
  5047                           
  5048                           ; BSR set to: 0
  5049                           ;serial.c: 208:             direccion = 0x60;
  5050  001500  0E60               	movlw	96
  5051  001502  6F6A               	movwf	Seria_Decodificacion_Memoria@direccion& (0+255),b
  5052  001504                     
  5053                           ; BSR set to: 0
  5054                           ;serial.c: 209:             USART_TxS("C6\n", sizeof ("C6\n") - 1);
  5055  001504  0EBE               	movlw	low STR_24
  5056  001506  6F60               	movwf	USART_TxS@str& (0+255),b
  5057  001508  0E08               	movlw	high STR_24
  5058  00150A  6F61               	movwf	(USART_TxS@str+1)& (0+255),b
  5059  00150C  0E00               	movlw	0
  5060  00150E  6F63               	movwf	(USART_TxS@length+1)& (0+255),b
  5061  001510  0E03               	movlw	3
  5062  001512  6F62               	movwf	USART_TxS@length& (0+255),b
  5063  001514  ECF1  F015         	call	_USART_TxS	;wreg free
  5064                           
  5065                           ;serial.c: 210:             break;
  5066  001518  EF5A  F00B         	goto	l4707
  5067  00151C                     l4667:
  5068                           
  5069                           ; BSR set to: 0
  5070                           ;serial.c: 212:             direccion = 0x70;
  5071  00151C  0E70               	movlw	112
  5072  00151E  6F6A               	movwf	Seria_Decodificacion_Memoria@direccion& (0+255),b
  5073  001520                     
  5074                           ; BSR set to: 0
  5075                           ;serial.c: 213:             USART_TxS("C7\n", sizeof ("C7\n") - 1);
  5076  001520  0EC2               	movlw	low STR_25
  5077  001522  6F60               	movwf	USART_TxS@str& (0+255),b
  5078  001524  0E08               	movlw	high STR_25
  5079  001526  6F61               	movwf	(USART_TxS@str+1)& (0+255),b
  5080  001528  0E00               	movlw	0
  5081  00152A  6F63               	movwf	(USART_TxS@length+1)& (0+255),b
  5082  00152C  0E03               	movlw	3
  5083  00152E  6F62               	movwf	USART_TxS@length& (0+255),b
  5084  001530  ECF1  F015         	call	_USART_TxS	;wreg free
  5085                           
  5086                           ;serial.c: 214:             break;
  5087  001534  EF5A  F00B         	goto	l4707
  5088  001538                     l4671:
  5089                           
  5090                           ; BSR set to: 0
  5091                           ;serial.c: 216:             direccion = 0x80;
  5092  001538  0E80               	movlw	128
  5093  00153A  6F6A               	movwf	Seria_Decodificacion_Memoria@direccion& (0+255),b
  5094  00153C                     
  5095                           ; BSR set to: 0
  5096                           ;serial.c: 217:             USART_TxS("C8\n", sizeof ("C8\n") - 1);
  5097  00153C  0EC6               	movlw	low STR_26
  5098  00153E  6F60               	movwf	USART_TxS@str& (0+255),b
  5099  001540  0E08               	movlw	high STR_26
  5100  001542  6F61               	movwf	(USART_TxS@str+1)& (0+255),b
  5101  001544  0E00               	movlw	0
  5102  001546  6F63               	movwf	(USART_TxS@length+1)& (0+255),b
  5103  001548  0E03               	movlw	3
  5104  00154A  6F62               	movwf	USART_TxS@length& (0+255),b
  5105  00154C  ECF1  F015         	call	_USART_TxS	;wreg free
  5106                           
  5107                           ;serial.c: 218:             break;
  5108  001550  EF5A  F00B         	goto	l4707
  5109  001554                     l4675:
  5110                           
  5111                           ; BSR set to: 0
  5112                           ;serial.c: 220:             direccion = 0x90;
  5113  001554  0E90               	movlw	144
  5114  001556  6F6A               	movwf	Seria_Decodificacion_Memoria@direccion& (0+255),b
  5115  001558                     
  5116                           ; BSR set to: 0
  5117                           ;serial.c: 221:             USART_TxS("C9\n", sizeof ("C9\n") - 1);
  5118  001558  0ECA               	movlw	low STR_27
  5119  00155A  6F60               	movwf	USART_TxS@str& (0+255),b
  5120  00155C  0E08               	movlw	high STR_27
  5121  00155E  6F61               	movwf	(USART_TxS@str+1)& (0+255),b
  5122  001560  0E00               	movlw	0
  5123  001562  6F63               	movwf	(USART_TxS@length+1)& (0+255),b
  5124  001564  0E03               	movlw	3
  5125  001566  6F62               	movwf	USART_TxS@length& (0+255),b
  5126  001568  ECF1  F015         	call	_USART_TxS	;wreg free
  5127                           
  5128                           ;serial.c: 222:             break;
  5129  00156C  EF5A  F00B         	goto	l4707
  5130  001570                     l4679:
  5131                           
  5132                           ; BSR set to: 0
  5133                           ;serial.c: 224:             direccion = 0xA0;
  5134  001570  0EA0               	movlw	160
  5135  001572  6F6A               	movwf	Seria_Decodificacion_Memoria@direccion& (0+255),b
  5136  001574                     
  5137                           ; BSR set to: 0
  5138                           ;serial.c: 225:             USART_TxS("CA\n", sizeof ("CA\n") - 1);
  5139  001574  0ECE               	movlw	low STR_28
  5140  001576  6F60               	movwf	USART_TxS@str& (0+255),b
  5141  001578  0E08               	movlw	high STR_28
  5142  00157A  6F61               	movwf	(USART_TxS@str+1)& (0+255),b
  5143  00157C  0E00               	movlw	0
  5144  00157E  6F63               	movwf	(USART_TxS@length+1)& (0+255),b
  5145  001580  0E03               	movlw	3
  5146  001582  6F62               	movwf	USART_TxS@length& (0+255),b
  5147  001584  ECF1  F015         	call	_USART_TxS	;wreg free
  5148                           
  5149                           ;serial.c: 226:             break;
  5150  001588  EF5A  F00B         	goto	l4707
  5151  00158C                     l4683:
  5152                           
  5153                           ; BSR set to: 0
  5154                           ;serial.c: 228:             direccion = 0xB0;
  5155  00158C  0EB0               	movlw	176
  5156  00158E  6F6A               	movwf	Seria_Decodificacion_Memoria@direccion& (0+255),b
  5157  001590                     
  5158                           ; BSR set to: 0
  5159                           ;serial.c: 229:             USART_TxS("CB\n", sizeof ("CB\n") - 1);
  5160  001590  0ED2               	movlw	low STR_29
  5161  001592  6F60               	movwf	USART_TxS@str& (0+255),b
  5162  001594  0E08               	movlw	high STR_29
  5163  001596  6F61               	movwf	(USART_TxS@str+1)& (0+255),b
  5164  001598  0E00               	movlw	0
  5165  00159A  6F63               	movwf	(USART_TxS@length+1)& (0+255),b
  5166  00159C  0E03               	movlw	3
  5167  00159E  6F62               	movwf	USART_TxS@length& (0+255),b
  5168  0015A0  ECF1  F015         	call	_USART_TxS	;wreg free
  5169                           
  5170                           ;serial.c: 230:             break;
  5171  0015A4  EF5A  F00B         	goto	l4707
  5172  0015A8                     l4687:
  5173                           
  5174                           ; BSR set to: 0
  5175                           ;serial.c: 232:             direccion = 0xC0;
  5176  0015A8  0EC0               	movlw	192
  5177  0015AA  6F6A               	movwf	Seria_Decodificacion_Memoria@direccion& (0+255),b
  5178  0015AC                     
  5179                           ; BSR set to: 0
  5180                           ;serial.c: 233:             USART_TxS("CC\n", sizeof ("CC\n") - 1);
  5181  0015AC  0ED6               	movlw	low STR_30
  5182  0015AE  6F60               	movwf	USART_TxS@str& (0+255),b
  5183  0015B0  0E08               	movlw	high STR_30
  5184  0015B2  6F61               	movwf	(USART_TxS@str+1)& (0+255),b
  5185  0015B4  0E00               	movlw	0
  5186  0015B6  6F63               	movwf	(USART_TxS@length+1)& (0+255),b
  5187  0015B8  0E03               	movlw	3
  5188  0015BA  6F62               	movwf	USART_TxS@length& (0+255),b
  5189  0015BC  ECF1  F015         	call	_USART_TxS	;wreg free
  5190                           
  5191                           ;serial.c: 234:             break;
  5192  0015C0  EF5A  F00B         	goto	l4707
  5193  0015C4                     l4691:
  5194                           
  5195                           ; BSR set to: 0
  5196                           ;serial.c: 236:             direccion = 0xD0;
  5197  0015C4  0ED0               	movlw	208
  5198  0015C6  6F6A               	movwf	Seria_Decodificacion_Memoria@direccion& (0+255),b
  5199  0015C8                     
  5200                           ; BSR set to: 0
  5201                           ;serial.c: 237:             USART_TxS("CD\n", sizeof ("CDn") - 1);
  5202  0015C8  0EDA               	movlw	low STR_31
  5203  0015CA  6F60               	movwf	USART_TxS@str& (0+255),b
  5204  0015CC  0E08               	movlw	high STR_31
  5205  0015CE  6F61               	movwf	(USART_TxS@str+1)& (0+255),b
  5206  0015D0  0E00               	movlw	0
  5207  0015D2  6F63               	movwf	(USART_TxS@length+1)& (0+255),b
  5208  0015D4  0E03               	movlw	3
  5209  0015D6  6F62               	movwf	USART_TxS@length& (0+255),b
  5210  0015D8  ECF1  F015         	call	_USART_TxS	;wreg free
  5211                           
  5212                           ;serial.c: 238:             break;
  5213  0015DC  EF5A  F00B         	goto	l4707
  5214  0015E0                     l4695:
  5215                           
  5216                           ; BSR set to: 0
  5217                           ;serial.c: 240:             direccion = 0xE0;
  5218  0015E0  0EE0               	movlw	224
  5219  0015E2  6F6A               	movwf	Seria_Decodificacion_Memoria@direccion& (0+255),b
  5220  0015E4                     
  5221                           ; BSR set to: 0
  5222                           ;serial.c: 241:             USART_TxS("CE\n", sizeof ("CE\n") - 1);
  5223  0015E4  0EDE               	movlw	low STR_32
  5224  0015E6  6F60               	movwf	USART_TxS@str& (0+255),b
  5225  0015E8  0E08               	movlw	high STR_32
  5226  0015EA  6F61               	movwf	(USART_TxS@str+1)& (0+255),b
  5227  0015EC  0E00               	movlw	0
  5228  0015EE  6F63               	movwf	(USART_TxS@length+1)& (0+255),b
  5229  0015F0  0E03               	movlw	3
  5230  0015F2  6F62               	movwf	USART_TxS@length& (0+255),b
  5231  0015F4  ECF1  F015         	call	_USART_TxS	;wreg free
  5232                           
  5233                           ;serial.c: 242:             break;
  5234  0015F8  EF5A  F00B         	goto	l4707
  5235  0015FC                     l4699:
  5236                           
  5237                           ; BSR set to: 0
  5238                           ;serial.c: 244:             direccion = 0xF0;
  5239  0015FC  0EF0               	movlw	240
  5240  0015FE  6F6A               	movwf	Seria_Decodificacion_Memoria@direccion& (0+255),b
  5241  001600                     
  5242                           ; BSR set to: 0
  5243                           ;serial.c: 245:             USART_TxS("CF\n", sizeof ("CF\n") - 1);
  5244  001600  0EE2               	movlw	low STR_33
  5245  001602  6F60               	movwf	USART_TxS@str& (0+255),b
  5246  001604  0E08               	movlw	high STR_33
  5247  001606  6F61               	movwf	(USART_TxS@str+1)& (0+255),b
  5248  001608  0E00               	movlw	0
  5249  00160A  6F63               	movwf	(USART_TxS@length+1)& (0+255),b
  5250  00160C  0E03               	movlw	3
  5251  00160E  6F62               	movwf	USART_TxS@length& (0+255),b
  5252  001610  ECF1  F015         	call	_USART_TxS	;wreg free
  5253                           
  5254                           ;serial.c: 246:             break;
  5255  001614  EF5A  F00B         	goto	l4707
  5256  001618                     l4705:
  5257  001618  0100               	movlb	0	; () banked
  5258  00161A  516A               	movf	Seria_Decodificacion_Memoria@direccion& (0+255),w,b
  5259  00161C  6F68               	movwf	??_Seria_Decodificacion_Memoria& (0+255),b
  5260  00161E  6B69               	clrf	(??_Seria_Decodificacion_Memoria+1)& (0+255),b
  5261                           
  5262                           ; Switch on 2 bytes has been partitioned into a top level switch of size 1, and 1 sub-sw
      +                          itches
  5263                           ; Switch size 1, requested type "simple"
  5264                           ; Number of cases is 1, Range of values is 0 to 0
  5265                           ; switch strategies available:
  5266                           ; Name         Instructions Cycles
  5267                           ; simple_byte            4     3 (average)
  5268                           ;	Chosen strategy is simple_byte
  5269  001620  5169               	movf	(??_Seria_Decodificacion_Memoria+1)& (0+255),w,b
  5270  001622  0A00               	xorlw	0	; case 0
  5271  001624  B4D8               	btfsc	status,2,c
  5272  001626  EF17  F00B         	goto	l6497
  5273  00162A  EF5A  F00B         	goto	l4707
  5274  00162E                     l6497:
  5275                           
  5276                           ; BSR set to: 0
  5277                           ; Switch size 1, requested type "simple"
  5278                           ; Number of cases is 16, Range of values is 48 to 70
  5279                           ; switch strategies available:
  5280                           ; Name         Instructions Cycles
  5281                           ; simple_byte           49    25 (average)
  5282                           ;	Chosen strategy is simple_byte
  5283  00162E  5168               	movf	??_Seria_Decodificacion_Memoria& (0+255),w,b
  5284  001630  0A30               	xorlw	48	; case 48
  5285  001632  B4D8               	btfsc	status,2,c
  5286  001634  EF2C  F00A         	goto	l4639
  5287  001638  0A01               	xorlw	1	; case 49
  5288  00163A  B4D8               	btfsc	status,2,c
  5289  00163C  EF3A  F00A         	goto	l4643
  5290  001640  0A03               	xorlw	3	; case 50
  5291  001642  B4D8               	btfsc	status,2,c
  5292  001644  EF48  F00A         	goto	l4647
  5293  001648  0A01               	xorlw	1	; case 51
  5294  00164A  B4D8               	btfsc	status,2,c
  5295  00164C  EF56  F00A         	goto	l4651
  5296  001650  0A07               	xorlw	7	; case 52
  5297  001652  B4D8               	btfsc	status,2,c
  5298  001654  EF64  F00A         	goto	l4655
  5299  001658  0A01               	xorlw	1	; case 53
  5300  00165A  B4D8               	btfsc	status,2,c
  5301  00165C  EF72  F00A         	goto	l4659
  5302  001660  0A03               	xorlw	3	; case 54
  5303  001662  B4D8               	btfsc	status,2,c
  5304  001664  EF80  F00A         	goto	l4663
  5305  001668  0A01               	xorlw	1	; case 55
  5306  00166A  B4D8               	btfsc	status,2,c
  5307  00166C  EF8E  F00A         	goto	l4667
  5308  001670  0A0F               	xorlw	15	; case 56
  5309  001672  B4D8               	btfsc	status,2,c
  5310  001674  EF9C  F00A         	goto	l4671
  5311  001678  0A01               	xorlw	1	; case 57
  5312  00167A  B4D8               	btfsc	status,2,c
  5313  00167C  EFAA  F00A         	goto	l4675
  5314  001680  0A78               	xorlw	120	; case 65
  5315  001682  B4D8               	btfsc	status,2,c
  5316  001684  EFB8  F00A         	goto	l4679
  5317  001688  0A03               	xorlw	3	; case 66
  5318  00168A  B4D8               	btfsc	status,2,c
  5319  00168C  EFC6  F00A         	goto	l4683
  5320  001690  0A01               	xorlw	1	; case 67
  5321  001692  B4D8               	btfsc	status,2,c
  5322  001694  EFD4  F00A         	goto	l4687
  5323  001698  0A07               	xorlw	7	; case 68
  5324  00169A  B4D8               	btfsc	status,2,c
  5325  00169C  EFE2  F00A         	goto	l4691
  5326  0016A0  0A01               	xorlw	1	; case 69
  5327  0016A2  B4D8               	btfsc	status,2,c
  5328  0016A4  EFF0  F00A         	goto	l4695
  5329  0016A8  0A03               	xorlw	3	; case 70
  5330  0016AA  B4D8               	btfsc	status,2,c
  5331  0016AC  EFFE  F00A         	goto	l4699
  5332  0016B0  EF5A  F00B         	goto	l4707
  5333  0016B4                     l4707:
  5334                           
  5335                           ;serial.c: 248:     return direccion;
  5336  0016B4  0100               	movlb	0	; () banked
  5337  0016B6  516A               	movf	Seria_Decodificacion_Memoria@direccion& (0+255),w,b
  5338  0016B8                     
  5339                           ; BSR set to: 0
  5340  0016B8  0012               	return		;funcret
  5341  0016BA                     __end_of_Seria_Decodificacion_Memoria:
  5342                           	opt callstack 0
  5343                           
  5344 ;; *************** function _Motor_MovimientoZ *****************
  5345 ;; Defined at:
  5346 ;;		line 68 in file "Motor.c"
  5347 ;; Parameters:    Size  Location     Type
  5348 ;;		None
  5349 ;; Auto vars:     Size  Location     Type
  5350 ;;		None
  5351 ;; Return value:  Size  Location     Type
  5352 ;;                  1    wreg      void 
  5353 ;; Registers used:
  5354 ;;		wreg, cstack
  5355 ;; Tracked objects:
  5356 ;;		On entry : 0/0
  5357 ;;		On exit  : 0/0
  5358 ;;		Unchanged: 0/0
  5359 ;; Data sizes:     COMRAM   BANK0   BANK1   BANK2   BANK3   BANK4   BANK5   BANK6   BANK7
  5360 ;;      Params:         0       0       0       0       0       0       0       0       0
  5361 ;;      Locals:         0       0       0       0       0       0       0       0       0
  5362 ;;      Temps:          0       0       0       0       0       0       0       0       0
  5363 ;;      Totals:         0       0       0       0       0       0       0       0       0
  5364 ;;Total ram usage:        0 bytes
  5365 ;; Hardware stack levels used:    1
  5366 ;; Hardware stack levels required when called:    6
  5367 ;; This function calls:
  5368 ;;		_USART_TxC
  5369 ;; This function is called by:
  5370 ;;		_Serial_Oupcode
  5371 ;; This function uses a non-reentrant model
  5372 ;;
  5373                           
  5374                           	psect	text24
  5375  002D38                     __ptext24:
  5376                           	opt callstack 0
  5377  002D38                     _Motor_MovimientoZ:
  5378                           	opt callstack 23
  5379  002D38                     
  5380                           ;Motor.c: 69:     if (PORTCbits.RC4 ==1){
  5381  002D38  A882               	btfss	130,4,c	;volatile
  5382  002D3A  EFA1  F016         	goto	u3651
  5383  002D3E  EFA3  F016         	goto	u3650
  5384  002D42                     u3651:
  5385  002D42  EFAB  F016         	goto	l601
  5386  002D46                     u3650:
  5387  002D46                     
  5388                           ;Motor.c: 70:         USART_TxC('U');
  5389  002D46  0E55               	movlw	85
  5390  002D48  EC8A  F019         	call	_USART_TxC
  5391  002D4C  888C               	bsf	140,4,c	;volatile
  5392  002D4E  8A8C               	bsf	140,5,c	;volatile
  5393  002D50  9C8C               	bcf	140,6,c	;volatile
  5394  002D52  EFBF  F016         	goto	l616
  5395  002D56                     l601:
  5396  002D56  AA82               	btfss	130,5,c	;volatile
  5397  002D58  EFB0  F016         	goto	u3661
  5398  002D5C  EFB2  F016         	goto	u3660
  5399  002D60                     u3661:
  5400  002D60  EFBF  F016         	goto	l616
  5401  002D64                     u3660:
  5402  002D64                     
  5403                           ;Motor.c: 76:            USART_TxC('D');
  5404  002D64  0E44               	movlw	68
  5405  002D66  EC8A  F019         	call	_USART_TxC
  5406  002D6A  888C               	bsf	140,4,c	;volatile
  5407  002D6C  9A8C               	bcf	140,5,c	;volatile
  5408  002D6E  8C8C               	bsf	140,6,c	;volatile
  5409  002D70  EFBF  F016         	goto	l616
  5410  002D74                     l618:
  5411  002D74  9A8C               	bcf	140,5,c	;volatile
  5412  002D76  9C8C               	bcf	140,6,c	;volatile
  5413  002D78  988C               	bcf	140,4,c	;volatile
  5414  002D7A  EFCD  F016         	goto	l624
  5415  002D7E                     l616:
  5416                           
  5417                           ;Motor.c: 81:     while (PORTCbits.RC5 ==0 && PORTCbits.RC4 ==0){
  5418  002D7E  BA82               	btfsc	130,5,c	;volatile
  5419  002D80  EFC4  F016         	goto	u3671
  5420  002D84  EFC6  F016         	goto	u3670
  5421  002D88                     u3671:
  5422  002D88  EFCD  F016         	goto	l624
  5423  002D8C                     u3670:
  5424  002D8C  A882               	btfss	130,4,c	;volatile
  5425  002D8E  EFCB  F016         	goto	u3681
  5426  002D92  EFCD  F016         	goto	u3680
  5427  002D96                     u3681:
  5428  002D96  EFBA  F016         	goto	l618
  5429  002D9A                     u3680:
  5430  002D9A                     l624:
  5431  002D9A  0012               	return		;funcret
  5432  002D9C                     __end_of_Motor_MovimientoZ:
  5433                           	opt callstack 0
  5434                           
  5435 ;; *************** function _USART_TxC *****************
  5436 ;; Defined at:
  5437 ;;		line 25 in file "UART.c"
  5438 ;; Parameters:    Size  Location     Type
  5439 ;;  data            1    wreg     unsigned char 
  5440 ;; Auto vars:     Size  Location     Type
  5441 ;;  data            1    0[BANK0 ] unsigned char 
  5442 ;; Return value:  Size  Location     Type
  5443 ;;                  1    wreg      void 
  5444 ;; Registers used:
  5445 ;;		wreg
  5446 ;; Tracked objects:
  5447 ;;		On entry : 0/0
  5448 ;;		On exit  : 0/0
  5449 ;;		Unchanged: 0/0
  5450 ;; Data sizes:     COMRAM   BANK0   BANK1   BANK2   BANK3   BANK4   BANK5   BANK6   BANK7
  5451 ;;      Params:         0       0       0       0       0       0       0       0       0
  5452 ;;      Locals:         0       1       0       0       0       0       0       0       0
  5453 ;;      Temps:          0       0       0       0       0       0       0       0       0
  5454 ;;      Totals:         0       1       0       0       0       0       0       0       0
  5455 ;;Total ram usage:        1 bytes
  5456 ;; Hardware stack levels used:    1
  5457 ;; Hardware stack levels required when called:    5
  5458 ;; This function calls:
  5459 ;;		Nothing
  5460 ;; This function is called by:
  5461 ;;		_Motor_MovimientoZ
  5462 ;;		_USART_TxSP
  5463 ;; This function uses a non-reentrant model
  5464 ;;
  5465                           
  5466                           	psect	text25
  5467  003314                     __ptext25:
  5468                           	opt callstack 0
  5469  003314                     _USART_TxC:
  5470                           	opt callstack 23
  5471                           
  5472                           ;incstack = 0
  5473                           ;USART_TxC@data stored from wreg
  5474  003314  0100               	movlb	0	; () banked
  5475  003316  6F60               	movwf	USART_TxC@data& (0+255),b
  5476  003318                     l98:
  5477  003318  A89E               	btfss	158,4,c	;volatile
  5478  00331A  EF91  F019         	goto	u3101
  5479  00331E  EF93  F019         	goto	u3100
  5480  003322                     u3101:
  5481  003322  EF8C  F019         	goto	l98
  5482  003326                     u3100:
  5483  003326                     
  5484                           ;UART.c: 27:     TXREG = data;
  5485  003326  C060  FFAD         	movff	USART_TxC@data,4013	;volatile
  5486  00332A  0012               	return		;funcret
  5487  00332C                     __end_of_USART_TxC:
  5488                           	opt callstack 0
  5489                           
  5490 ;; *************** function _Motor_Movimiento *****************
  5491 ;; Defined at:
  5492 ;;		line 24 in file "Motor.c"
  5493 ;; Parameters:    Size  Location     Type
  5494 ;;  Oupcode         1    wreg     unsigned char 
  5495 ;;  Motor_Coorde    2   55[BANK0 ] int 
  5496 ;;  Motor_Coorde    2   57[BANK0 ] int 
  5497 ;; Auto vars:     Size  Location     Type
  5498 ;;  Oupcode         1   59[BANK0 ] unsigned char 
  5499 ;; Return value:  Size  Location     Type
  5500 ;;                  1    wreg      void 
  5501 ;; Registers used:
  5502 ;;		wreg, fsr0l, fsr0h, status,2, status,0, tblptrl, tblptrh, tblptru, cstack
  5503 ;; Tracked objects:
  5504 ;;		On entry : 0/0
  5505 ;;		On exit  : 0/0
  5506 ;;		Unchanged: 0/0
  5507 ;; Data sizes:     COMRAM   BANK0   BANK1   BANK2   BANK3   BANK4   BANK5   BANK6   BANK7
  5508 ;;      Params:         0       4       0       0       0       0       0       0       0
  5509 ;;      Locals:         0       1       0       0       0       0       0       0       0
  5510 ;;      Temps:          0       0       0       0       0       0       0       0       0
  5511 ;;      Totals:         0       5       0       0       0       0       0       0       0
  5512 ;;Total ram usage:        5 bytes
  5513 ;; Hardware stack levels used:    1
  5514 ;; Hardware stack levels required when called:    7
  5515 ;; This function calls:
  5516 ;;		_Motor_Calcular_PasosX
  5517 ;;		_Motor_Calcular_PasosY
  5518 ;;		_Motor_Conversion
  5519 ;;		_PWM_GeneratePulsos
  5520 ;;		_USART_TxS
  5521 ;; This function is called by:
  5522 ;;		_Serial_Oupcode
  5523 ;; This function uses a non-reentrant model
  5524 ;;
  5525                           
  5526                           	psect	text26
  5527  00296C                     __ptext26:
  5528                           	opt callstack 0
  5529  00296C                     _Motor_Movimiento:
  5530                           	opt callstack 22
  5531                           
  5532                           ;incstack = 0
  5533                           ;Motor_Movimiento@Oupcode stored from wreg
  5534  00296C  0100               	movlb	0	; () banked
  5535  00296E  6F9B               	movwf	Motor_Movimiento@Oupcode& (0+255),b
  5536  002970                     
  5537                           ;Motor.c: 25:     Motor_Calcular_PasosX(Motor_CoordenadaX);
  5538  002970  C097  F060         	movff	Motor_Movimiento@Motor_CoordenadaX,Motor_Calcular_PasosX@coordenada_actualX
  5539  002974  C098  F061         	movff	Motor_Movimiento@Motor_CoordenadaX+1,Motor_Calcular_PasosX@coordenada_actualX+1
  5540  002978  EC3A  F015         	call	_Motor_Calcular_PasosX	;wreg free
  5541                           
  5542                           ;Motor.c: 26:     Motor_Calcular_PasosY(Motor_CoordenadaY);
  5543  00297C  C099  F060         	movff	Motor_Movimiento@Motor_CoordenadaY,Motor_Calcular_PasosY@coordenada_actualY
  5544  002980  C09A  F061         	movff	Motor_Movimiento@Motor_CoordenadaY+1,Motor_Calcular_PasosY@coordenada_actualY+1
  5545  002984  ECF8  F014         	call	_Motor_Calcular_PasosY	;wreg free
  5546                           
  5547                           ;Motor.c: 27:     PasosX = Motor_Conversion(DeltaX);
  5548  002988  C0B0  F091         	movff	_DeltaX,Motor_Conversion@Coordenada
  5549  00298C  C0B1  F092         	movff	_DeltaX+1,Motor_Conversion@Coordenada+1
  5550  002990  ECB7  F015         	call	_Motor_Conversion	;wreg free
  5551  002994  C091  F0B4         	movff	?_Motor_Conversion,_PasosX
  5552  002998  C092  F0B5         	movff	?_Motor_Conversion+1,_PasosX+1
  5553                           
  5554                           ;Motor.c: 28:     PasosY = Motor_Conversion(DeltaY);
  5555  00299C  C0AE  F091         	movff	_DeltaY,Motor_Conversion@Coordenada
  5556  0029A0  C0AF  F092         	movff	_DeltaY+1,Motor_Conversion@Coordenada+1
  5557  0029A4  ECB7  F015         	call	_Motor_Conversion	;wreg free
  5558  0029A8  C091  F0B2         	movff	?_Motor_Conversion,_PasosY
  5559  0029AC  C092  F0B3         	movff	?_Motor_Conversion+1,_PasosY+1
  5560  0029B0                     
  5561                           ;Motor.c: 29:     coordenada_anteriorX=Motor_CoordenadaX;
  5562  0029B0  C097  F0AC         	movff	Motor_Movimiento@Motor_CoordenadaX,_coordenada_anteriorX
  5563  0029B4  C098  F0AD         	movff	Motor_Movimiento@Motor_CoordenadaX+1,_coordenada_anteriorX+1
  5564  0029B8                     
  5565                           ;Motor.c: 30:     coordenada_anteriorY=Motor_CoordenadaY;
  5566  0029B8  C099  F0AA         	movff	Motor_Movimiento@Motor_CoordenadaY,_coordenada_anteriorY
  5567  0029BC  C09A  F0AB         	movff	Motor_Movimiento@Motor_CoordenadaY+1,_coordenada_anteriorY+1
  5568                           
  5569                           ;Motor.c: 31:     PWM_GeneratePulsos(Oupcode, PasosX, PasosY);
  5570  0029C0  C0B4  F062         	movff	_PasosX,PWM_GeneratePulsos@pulsosX
  5571  0029C4  C0B5  F063         	movff	_PasosX+1,PWM_GeneratePulsos@pulsosX+1
  5572  0029C8  C0B2  F064         	movff	_PasosY,PWM_GeneratePulsos@pulsosY
  5573  0029CC  C0B3  F065         	movff	_PasosY+1,PWM_GeneratePulsos@pulsosY+1
  5574  0029D0  0100               	movlb	0	; () banked
  5575  0029D2  519B               	movf	Motor_Movimiento@Oupcode& (0+255),w,b
  5576  0029D4  ECDA  F00D         	call	_PWM_GeneratePulsos
  5577  0029D8                     
  5578                           ;Motor.c: 32:     USART_TxS("C\n",sizeof("C\n")-1);
  5579  0029D8  0ED7               	movlw	low (STR_30+1)
  5580  0029DA  0100               	movlb	0	; () banked
  5581  0029DC  6F60               	movwf	USART_TxS@str& (0+255),b
  5582  0029DE  0E08               	movlw	high (STR_30+1)
  5583  0029E0  6F61               	movwf	(USART_TxS@str+1)& (0+255),b
  5584  0029E2  0E00               	movlw	0
  5585  0029E4  6F63               	movwf	(USART_TxS@length+1)& (0+255),b
  5586  0029E6  0E02               	movlw	2
  5587  0029E8  6F62               	movwf	USART_TxS@length& (0+255),b
  5588  0029EA  ECF1  F015         	call	_USART_TxS	;wreg free
  5589  0029EE  0012               	return		;funcret
  5590  0029F0                     __end_of_Motor_Movimiento:
  5591                           	opt callstack 0
  5592                           
  5593 ;; *************** function _PWM_GeneratePulsos *****************
  5594 ;; Defined at:
  5595 ;;		line 6 in file "PWM.c"
  5596 ;; Parameters:    Size  Location     Type
  5597 ;;  Oupcode         1    wreg     unsigned char 
  5598 ;;  pulsosX         2    2[BANK0 ] int 
  5599 ;;  pulsosY         2    4[BANK0 ] int 
  5600 ;; Auto vars:     Size  Location     Type
  5601 ;;  Oupcode         1    7[BANK0 ] unsigned char 
  5602 ;;  countY          2   10[BANK0 ] int 
  5603 ;;  countX          2    8[BANK0 ] int 
  5604 ;; Return value:  Size  Location     Type
  5605 ;;                  1    wreg      void 
  5606 ;; Registers used:
  5607 ;;		wreg, status,2, status,0, cstack
  5608 ;; Tracked objects:
  5609 ;;		On entry : 0/0
  5610 ;;		On exit  : 0/0
  5611 ;;		Unchanged: 0/0
  5612 ;; Data sizes:     COMRAM   BANK0   BANK1   BANK2   BANK3   BANK4   BANK5   BANK6   BANK7
  5613 ;;      Params:         0       4       0       0       0       0       0       0       0
  5614 ;;      Locals:         0       5       0       0       0       0       0       0       0
  5615 ;;      Temps:          0       1       0       0       0       0       0       0       0
  5616 ;;      Totals:         0      10       0       0       0       0       0       0       0
  5617 ;;Total ram usage:       10 bytes
  5618 ;; Hardware stack levels used:    1
  5619 ;; Hardware stack levels required when called:    6
  5620 ;; This function calls:
  5621 ;;		_PWM_InitF
  5622 ;;		_PWM_InitS
  5623 ;;		_PWM_OneshotX
  5624 ;;		_PWM_OneshotY
  5625 ;; This function is called by:
  5626 ;;		_Motor_Movimiento
  5627 ;; This function uses a non-reentrant model
  5628 ;;
  5629                           
  5630                           	psect	text27
  5631  001BB4                     __ptext27:
  5632                           	opt callstack 0
  5633  001BB4                     _PWM_GeneratePulsos:
  5634                           	opt callstack 22
  5635                           
  5636                           ;incstack = 0
  5637                           ;PWM_GeneratePulsos@Oupcode stored from wreg
  5638  001BB4  0100               	movlb	0	; () banked
  5639  001BB6  6F67               	movwf	PWM_GeneratePulsos@Oupcode& (0+255),b
  5640  001BB8                     
  5641                           ;PWM.c: 7:     if (Oupcode == 'S') {
  5642  001BB8  0E53               	movlw	83
  5643  001BBA  0100               	movlb	0	; () banked
  5644  001BBC  1967               	xorwf	PWM_GeneratePulsos@Oupcode& (0+255),w,b
  5645  001BBE  A4D8               	btfss	status,2,c
  5646  001BC0  EFE4  F00D         	goto	u3011
  5647  001BC4  EFE6  F00D         	goto	u3010
  5648  001BC8                     u3011:
  5649  001BC8  EFEA  F00D         	goto	l4289
  5650  001BCC                     u3010:
  5651  001BCC                     
  5652                           ; BSR set to: 0
  5653                           ;PWM.c: 8:         PWM_InitS();
  5654  001BCC  EC29  F019         	call	_PWM_InitS	;wreg free
  5655                           
  5656                           ;PWM.c: 9:     } else {
  5657  001BD0  EFEC  F00D         	goto	l4291
  5658  001BD4                     l4289:
  5659                           
  5660                           ; BSR set to: 0
  5661                           ;PWM.c: 10:         PWM_InitF();
  5662  001BD4  EC09  F019         	call	_PWM_InitF	;wreg free
  5663  001BD8                     l4291:
  5664                           
  5665                           ;PWM.c: 12:     PORTDbits.RD0 = 0;
  5666  001BD8  9083               	bcf	131,0,c	;volatile
  5667  001BDA                     
  5668                           ;PWM.c: 13:     PORTDbits.RD2 = 0;
  5669  001BDA  9483               	bcf	131,2,c	;volatile
  5670  001BDC                     
  5671                           ;PWM.c: 14:     int countX = 0;
  5672  001BDC  0E00               	movlw	0
  5673  001BDE  0100               	movlb	0	; () banked
  5674  001BE0  6F69               	movwf	(PWM_GeneratePulsos@countX+1)& (0+255),b
  5675  001BE2  0E00               	movlw	0
  5676  001BE4  6F68               	movwf	PWM_GeneratePulsos@countX& (0+255),b
  5677  001BE6                     
  5678                           ; BSR set to: 0
  5679                           ;PWM.c: 15:     int countY = 0;
  5680  001BE6  0E00               	movlw	0
  5681  001BE8  6F6B               	movwf	(PWM_GeneratePulsos@countY+1)& (0+255),b
  5682  001BEA  0E00               	movlw	0
  5683  001BEC  6F6A               	movwf	PWM_GeneratePulsos@countY& (0+255),b
  5684  001BEE                     
  5685                           ; BSR set to: 0
  5686                           ;PWM.c: 16:     if (pulsosX==0){
  5687  001BEE  5162               	movf	PWM_GeneratePulsos@pulsosX& (0+255),w,b
  5688  001BF0  1163               	iorwf	(PWM_GeneratePulsos@pulsosX+1)& (0+255),w,b
  5689  001BF2  A4D8               	btfss	status,2,c
  5690  001BF4  EFFE  F00D         	goto	u3021
  5691  001BF8  EF00  F00E         	goto	u3020
  5692  001BFC                     u3021:
  5693  001BFC  EF01  F00E         	goto	l4303
  5694  001C00                     u3020:
  5695  001C00                     
  5696                           ; BSR set to: 0
  5697                           ;PWM.c: 17:         PORTDbits.RD0 = 1;
  5698  001C00  8083               	bsf	131,0,c	;volatile
  5699  001C02                     l4303:
  5700                           
  5701                           ; BSR set to: 0
  5702                           ;PWM.c: 19:     if (pulsosY==0){
  5703  001C02  5164               	movf	PWM_GeneratePulsos@pulsosY& (0+255),w,b
  5704  001C04  1165               	iorwf	(PWM_GeneratePulsos@pulsosY+1)& (0+255),w,b
  5705  001C06  A4D8               	btfss	status,2,c
  5706  001C08  EF08  F00E         	goto	u3031
  5707  001C0C  EF0A  F00E         	goto	u3030
  5708  001C10                     u3031:
  5709  001C10  EF0B  F00E         	goto	l42
  5710  001C14                     u3030:
  5711  001C14                     
  5712                           ; BSR set to: 0
  5713                           ;PWM.c: 20:         PORTDbits.RD2 = 1;
  5714  001C14  8483               	bsf	131,2,c	;volatile
  5715  001C16                     l42:
  5716                           
  5717                           ; BSR set to: 0
  5718                           ;PWM.c: 22:     T2CONbits.TMR2ON = 1;
  5719  001C16  84CA               	bsf	202,2,c	;volatile
  5720                           
  5721                           ;PWM.c: 23:     while ((countX < pulsosX) || (countY < pulsosY)) {
  5722  001C18  EF5D  F00E         	goto	l4323
  5723  001C1C                     l4307:
  5724                           
  5725                           ; BSR set to: 0
  5726                           ;PWM.c: 24:         if (countX < pulsosX) {
  5727  001C1C  5162               	movf	PWM_GeneratePulsos@pulsosX& (0+255),w,b
  5728  001C1E  5D68               	subwf	PWM_GeneratePulsos@countX& (0+255),w,b
  5729  001C20  5169               	movf	(PWM_GeneratePulsos@countX+1)& (0+255),w,b
  5730  001C22  0A80               	xorlw	128
  5731  001C24  6F66               	movwf	??_PWM_GeneratePulsos& (0+255),b
  5732  001C26  5163               	movf	(PWM_GeneratePulsos@pulsosX+1)& (0+255),w,b
  5733  001C28  0A80               	xorlw	128
  5734  001C2A  5966               	subwfb	??_PWM_GeneratePulsos& (0+255),w,b
  5735  001C2C  B0D8               	btfsc	status,0,c
  5736  001C2E  EF1B  F00E         	goto	u3041
  5737  001C32  EF1D  F00E         	goto	u3040
  5738  001C36                     u3041:
  5739  001C36  EF34  F00E         	goto	l45
  5740  001C3A                     u3040:
  5741  001C3A                     
  5742                           ; BSR set to: 0
  5743                           ;PWM.c: 25:             if (PORTCbits.RC1 == 1) {
  5744  001C3A  A282               	btfss	130,1,c	;volatile
  5745  001C3C  EF22  F00E         	goto	u3051
  5746  001C40  EF24  F00E         	goto	u3050
  5747  001C44                     u3051:
  5748  001C44  EF30  F00E         	goto	l4313
  5749  001C48                     u3050:
  5750  001C48                     
  5751                           ; BSR set to: 0
  5752                           ;PWM.c: 26:                 countX = PWM_OneshotX(countX);
  5753  001C48  C068  F060         	movff	PWM_GeneratePulsos@countX,PWM_OneshotX@countX
  5754  001C4C  C069  F061         	movff	PWM_GeneratePulsos@countX+1,PWM_OneshotX@countX+1
  5755  001C50  EC84  F018         	call	_PWM_OneshotX	;wreg free
  5756  001C54  C060  F068         	movff	?_PWM_OneshotX,PWM_GeneratePulsos@countX
  5757  001C58  C061  F069         	movff	?_PWM_OneshotX+1,PWM_GeneratePulsos@countX+1
  5758                           
  5759                           ;PWM.c: 27:             } else {
  5760  001C5C  EF35  F00E         	goto	l4315
  5761  001C60                     l4313:
  5762                           
  5763                           ; BSR set to: 0
  5764                           ;PWM.c: 28:                 oneshotX = 0;
  5765  001C60  0E00               	movlw	0
  5766  001C62  6FBC               	movwf	_oneshotX& (0+255),b
  5767  001C64  EF35  F00E         	goto	l4315
  5768  001C68                     l45:
  5769                           
  5770                           ; BSR set to: 0
  5771                           ;PWM.c: 31:             PORTDbits.RD0 = 1;
  5772  001C68  8083               	bsf	131,0,c	;volatile
  5773  001C6A                     l4315:
  5774                           
  5775                           ;PWM.c: 33:         if (countY < pulsosY) {
  5776  001C6A  0100               	movlb	0	; () banked
  5777  001C6C  5164               	movf	PWM_GeneratePulsos@pulsosY& (0+255),w,b
  5778  001C6E  5D6A               	subwf	PWM_GeneratePulsos@countY& (0+255),w,b
  5779  001C70  516B               	movf	(PWM_GeneratePulsos@countY+1)& (0+255),w,b
  5780  001C72  0A80               	xorlw	128
  5781  001C74  6F66               	movwf	??_PWM_GeneratePulsos& (0+255),b
  5782  001C76  5165               	movf	(PWM_GeneratePulsos@pulsosY+1)& (0+255),w,b
  5783  001C78  0A80               	xorlw	128
  5784  001C7A  5966               	subwfb	??_PWM_GeneratePulsos& (0+255),w,b
  5785  001C7C  B0D8               	btfsc	status,0,c
  5786  001C7E  EF43  F00E         	goto	u3061
  5787  001C82  EF45  F00E         	goto	u3060
  5788  001C86                     u3061:
  5789  001C86  EF5C  F00E         	goto	l49
  5790  001C8A                     u3060:
  5791  001C8A                     
  5792                           ; BSR set to: 0
  5793                           ;PWM.c: 34:             if (PORTCbits.RC2 == 1) {
  5794  001C8A  A482               	btfss	130,2,c	;volatile
  5795  001C8C  EF4A  F00E         	goto	u3071
  5796  001C90  EF4C  F00E         	goto	u3070
  5797  001C94                     u3071:
  5798  001C94  EF58  F00E         	goto	l4321
  5799  001C98                     u3070:
  5800  001C98                     
  5801                           ; BSR set to: 0
  5802                           ;PWM.c: 35:                 countY = PWM_OneshotY(countY);
  5803  001C98  C06A  F060         	movff	PWM_GeneratePulsos@countY,PWM_OneshotY@countY
  5804  001C9C  C06B  F061         	movff	PWM_GeneratePulsos@countY+1,PWM_OneshotY@countY+1
  5805  001CA0  EC6B  F018         	call	_PWM_OneshotY	;wreg free
  5806  001CA4  C060  F06A         	movff	?_PWM_OneshotY,PWM_GeneratePulsos@countY
  5807  001CA8  C061  F06B         	movff	?_PWM_OneshotY+1,PWM_GeneratePulsos@countY+1
  5808                           
  5809                           ;PWM.c: 36:             } else {
  5810  001CAC  EF5D  F00E         	goto	l4323
  5811  001CB0                     l4321:
  5812                           
  5813                           ; BSR set to: 0
  5814                           ;PWM.c: 37:                 oneshotY = 0;
  5815  001CB0  0E00               	movlw	0
  5816  001CB2  6FBB               	movwf	_oneshotY& (0+255),b
  5817  001CB4  EF5D  F00E         	goto	l4323
  5818  001CB8                     l49:
  5819                           
  5820                           ; BSR set to: 0
  5821                           ;PWM.c: 40:             PORTDbits.RD2 = 1;
  5822  001CB8  8483               	bsf	131,2,c	;volatile
  5823  001CBA                     l4323:
  5824                           
  5825                           ;PWM.c: 23:     while ((countX < pulsosX) || (countY < pulsosY)) {
  5826  001CBA  0100               	movlb	0	; () banked
  5827  001CBC  5162               	movf	PWM_GeneratePulsos@pulsosX& (0+255),w,b
  5828  001CBE  5D68               	subwf	PWM_GeneratePulsos@countX& (0+255),w,b
  5829  001CC0  5169               	movf	(PWM_GeneratePulsos@countX+1)& (0+255),w,b
  5830  001CC2  0A80               	xorlw	128
  5831  001CC4  6F66               	movwf	??_PWM_GeneratePulsos& (0+255),b
  5832  001CC6  5163               	movf	(PWM_GeneratePulsos@pulsosX+1)& (0+255),w,b
  5833  001CC8  0A80               	xorlw	128
  5834  001CCA  5966               	subwfb	??_PWM_GeneratePulsos& (0+255),w,b
  5835  001CCC  A0D8               	btfss	status,0,c
  5836  001CCE  EF6B  F00E         	goto	u3081
  5837  001CD2  EF6D  F00E         	goto	u3080
  5838  001CD6                     u3081:
  5839  001CD6  EF0E  F00E         	goto	l4307
  5840  001CDA                     u3080:
  5841  001CDA                     
  5842                           ; BSR set to: 0
  5843  001CDA  5164               	movf	PWM_GeneratePulsos@pulsosY& (0+255),w,b
  5844  001CDC  5D6A               	subwf	PWM_GeneratePulsos@countY& (0+255),w,b
  5845  001CDE  516B               	movf	(PWM_GeneratePulsos@countY+1)& (0+255),w,b
  5846  001CE0  0A80               	xorlw	128
  5847  001CE2  6F66               	movwf	??_PWM_GeneratePulsos& (0+255),b
  5848  001CE4  5165               	movf	(PWM_GeneratePulsos@pulsosY+1)& (0+255),w,b
  5849  001CE6  0A80               	xorlw	128
  5850  001CE8  5966               	subwfb	??_PWM_GeneratePulsos& (0+255),w,b
  5851  001CEA  A0D8               	btfss	status,0,c
  5852  001CEC  EF7A  F00E         	goto	u3091
  5853  001CF0  EF7C  F00E         	goto	u3090
  5854  001CF4                     u3091:
  5855  001CF4  EF0E  F00E         	goto	l4307
  5856  001CF8                     u3090:
  5857  001CF8                     
  5858                           ; BSR set to: 0
  5859                           ;PWM.c: 44:     oneshotX = 0;
  5860  001CF8  0E00               	movlw	0
  5861  001CFA  6FBC               	movwf	_oneshotX& (0+255),b
  5862                           
  5863                           ;PWM.c: 45:     countY = 0;
  5864  001CFC  0E00               	movlw	0
  5865  001CFE  6F6B               	movwf	(PWM_GeneratePulsos@countY+1)& (0+255),b
  5866  001D00  0E00               	movlw	0
  5867  001D02  6F6A               	movwf	PWM_GeneratePulsos@countY& (0+255),b
  5868                           
  5869                           ;PWM.c: 46:     oneshotY = 0;
  5870  001D04  0E00               	movlw	0
  5871  001D06  6FBB               	movwf	_oneshotY& (0+255),b
  5872  001D08                     
  5873                           ; BSR set to: 0
  5874                           ;PWM.c: 47:     T2CONbits.TMR2ON = 0;
  5875  001D08  94CA               	bcf	202,2,c	;volatile
  5876  001D0A                     
  5877                           ; BSR set to: 0
  5878  001D0A  0012               	return		;funcret
  5879  001D0C                     __end_of_PWM_GeneratePulsos:
  5880                           	opt callstack 0
  5881                           
  5882 ;; *************** function _PWM_OneshotY *****************
  5883 ;; Defined at:
  5884 ;;		line 108 in file "PWM.c"
  5885 ;; Parameters:    Size  Location     Type
  5886 ;;  countY          2    0[BANK0 ] int 
  5887 ;; Auto vars:     Size  Location     Type
  5888 ;;		None
  5889 ;; Return value:  Size  Location     Type
  5890 ;;                  2    0[BANK0 ] int 
  5891 ;; Registers used:
  5892 ;;		wreg, status,2, status,0
  5893 ;; Tracked objects:
  5894 ;;		On entry : 0/0
  5895 ;;		On exit  : 0/0
  5896 ;;		Unchanged: 0/0
  5897 ;; Data sizes:     COMRAM   BANK0   BANK1   BANK2   BANK3   BANK4   BANK5   BANK6   BANK7
  5898 ;;      Params:         0       2       0       0       0       0       0       0       0
  5899 ;;      Locals:         0       0       0       0       0       0       0       0       0
  5900 ;;      Temps:          0       0       0       0       0       0       0       0       0
  5901 ;;      Totals:         0       2       0       0       0       0       0       0       0
  5902 ;;Total ram usage:        2 bytes
  5903 ;; Hardware stack levels used:    1
  5904 ;; Hardware stack levels required when called:    5
  5905 ;; This function calls:
  5906 ;;		Nothing
  5907 ;; This function is called by:
  5908 ;;		_PWM_GeneratePulsos
  5909 ;; This function uses a non-reentrant model
  5910 ;;
  5911                           
  5912                           	psect	text28
  5913  0030D6                     __ptext28:
  5914                           	opt callstack 0
  5915  0030D6                     _PWM_OneshotY:
  5916                           	opt callstack 22
  5917  0030D6                     
  5918                           ;PWM.c: 109:     if (PORTCbits.RC2 == 1 & oneshotY == 0) {
  5919  0030D6  A482               	btfss	130,2,c	;volatile
  5920  0030D8  EF70  F018         	goto	u2111
  5921  0030DC  EF72  F018         	goto	u2110
  5922  0030E0                     u2111:
  5923  0030E0  EF7F  F018         	goto	l3757
  5924  0030E4                     u2110:
  5925  0030E4  0100               	movlb	0	; () banked
  5926  0030E6  51BB               	movf	_oneshotY& (0+255),w,b
  5927  0030E8  A4D8               	btfss	status,2,c
  5928  0030EA  EF79  F018         	goto	u2121
  5929  0030EE  EF7B  F018         	goto	u2120
  5930  0030F2                     u2121:
  5931  0030F2  EF7F  F018         	goto	l3757
  5932  0030F6                     u2120:
  5933  0030F6                     
  5934                           ; BSR set to: 0
  5935                           ;PWM.c: 110:         countY++;
  5936  0030F6  4B60               	infsnz	PWM_OneshotY@countY& (0+255),f,b
  5937  0030F8  2B61               	incf	(PWM_OneshotY@countY+1)& (0+255),f,b
  5938  0030FA                     
  5939                           ; BSR set to: 0
  5940                           ;PWM.c: 111:         oneshotY = 1;
  5941  0030FA  0E01               	movlw	1
  5942  0030FC  6FBB               	movwf	_oneshotY& (0+255),b
  5943  0030FE                     l3757:
  5944                           
  5945                           ;PWM.c: 113:     return countY;
  5946  0030FE  C060  F060         	movff	PWM_OneshotY@countY,?_PWM_OneshotY
  5947  003102  C061  F061         	movff	PWM_OneshotY@countY+1,?_PWM_OneshotY+1
  5948  003106  0012               	return		;funcret
  5949  003108                     __end_of_PWM_OneshotY:
  5950                           	opt callstack 0
  5951                           
  5952 ;; *************** function _PWM_OneshotX *****************
  5953 ;; Defined at:
  5954 ;;		line 100 in file "PWM.c"
  5955 ;; Parameters:    Size  Location     Type
  5956 ;;  countX          2    0[BANK0 ] int 
  5957 ;; Auto vars:     Size  Location     Type
  5958 ;;		None
  5959 ;; Return value:  Size  Location     Type
  5960 ;;                  2    0[BANK0 ] int 
  5961 ;; Registers used:
  5962 ;;		wreg, status,2, status,0
  5963 ;; Tracked objects:
  5964 ;;		On entry : 0/0
  5965 ;;		On exit  : 0/0
  5966 ;;		Unchanged: 0/0
  5967 ;; Data sizes:     COMRAM   BANK0   BANK1   BANK2   BANK3   BANK4   BANK5   BANK6   BANK7
  5968 ;;      Params:         0       2       0       0       0       0       0       0       0
  5969 ;;      Locals:         0       0       0       0       0       0       0       0       0
  5970 ;;      Temps:          0       0       0       0       0       0       0       0       0
  5971 ;;      Totals:         0       2       0       0       0       0       0       0       0
  5972 ;;Total ram usage:        2 bytes
  5973 ;; Hardware stack levels used:    1
  5974 ;; Hardware stack levels required when called:    5
  5975 ;; This function calls:
  5976 ;;		Nothing
  5977 ;; This function is called by:
  5978 ;;		_PWM_GeneratePulsos
  5979 ;; This function uses a non-reentrant model
  5980 ;;
  5981                           
  5982                           	psect	text29
  5983  003108                     __ptext29:
  5984                           	opt callstack 0
  5985  003108                     _PWM_OneshotX:
  5986                           	opt callstack 22
  5987  003108                     
  5988                           ;PWM.c: 101:     if (PORTCbits.RC1 == 1 & oneshotX == 0) {
  5989  003108  A282               	btfss	130,1,c	;volatile
  5990  00310A  EF89  F018         	goto	u2091
  5991  00310E  EF8B  F018         	goto	u2090
  5992  003112                     u2091:
  5993  003112  EF98  F018         	goto	l3745
  5994  003116                     u2090:
  5995  003116  0100               	movlb	0	; () banked
  5996  003118  51BC               	movf	_oneshotX& (0+255),w,b
  5997  00311A  A4D8               	btfss	status,2,c
  5998  00311C  EF92  F018         	goto	u2101
  5999  003120  EF94  F018         	goto	u2100
  6000  003124                     u2101:
  6001  003124  EF98  F018         	goto	l3745
  6002  003128                     u2100:
  6003  003128                     
  6004                           ; BSR set to: 0
  6005                           ;PWM.c: 102:         countX++;
  6006  003128  4B60               	infsnz	PWM_OneshotX@countX& (0+255),f,b
  6007  00312A  2B61               	incf	(PWM_OneshotX@countX+1)& (0+255),f,b
  6008  00312C                     
  6009                           ; BSR set to: 0
  6010                           ;PWM.c: 103:         oneshotX = 1;
  6011  00312C  0E01               	movlw	1
  6012  00312E  6FBC               	movwf	_oneshotX& (0+255),b
  6013  003130                     l3745:
  6014                           
  6015                           ;PWM.c: 105:     return countX;
  6016  003130  C060  F060         	movff	PWM_OneshotX@countX,?_PWM_OneshotX
  6017  003134  C061  F061         	movff	PWM_OneshotX@countX+1,?_PWM_OneshotX+1
  6018  003138  0012               	return		;funcret
  6019  00313A                     __end_of_PWM_OneshotX:
  6020                           	opt callstack 0
  6021                           
  6022 ;; *************** function _PWM_InitS *****************
  6023 ;; Defined at:
  6024 ;;		line 86 in file "PWM.c"
  6025 ;; Parameters:    Size  Location     Type
  6026 ;;		None
  6027 ;; Auto vars:     Size  Location     Type
  6028 ;;		None
  6029 ;; Return value:  Size  Location     Type
  6030 ;;                  1    wreg      void 
  6031 ;; Registers used:
  6032 ;;		wreg, status,2
  6033 ;; Tracked objects:
  6034 ;;		On entry : 0/0
  6035 ;;		On exit  : 0/0
  6036 ;;		Unchanged: 0/0
  6037 ;; Data sizes:     COMRAM   BANK0   BANK1   BANK2   BANK3   BANK4   BANK5   BANK6   BANK7
  6038 ;;      Params:         0       0       0       0       0       0       0       0       0
  6039 ;;      Locals:         0       0       0       0       0       0       0       0       0
  6040 ;;      Temps:          0       0       0       0       0       0       0       0       0
  6041 ;;      Totals:         0       0       0       0       0       0       0       0       0
  6042 ;;Total ram usage:        0 bytes
  6043 ;; Hardware stack levels used:    1
  6044 ;; Hardware stack levels required when called:    5
  6045 ;; This function calls:
  6046 ;;		Nothing
  6047 ;; This function is called by:
  6048 ;;		_PWM_GeneratePulsos
  6049 ;;		_Motor_Home
  6050 ;;		_PWM_Pulsos_Home
  6051 ;; This function uses a non-reentrant model
  6052 ;;
  6053                           
  6054                           	psect	text30
  6055  003252                     __ptext30:
  6056                           	opt callstack 0
  6057  003252                     _PWM_InitS:
  6058                           	opt callstack 23
  6059  003252                     
  6060                           ;PWM.c: 88:     PR2 = 0XFF;
  6061  003252  68CB               	setf	203,c	;volatile
  6062  003254                     
  6063                           ;PWM.c: 89:     CCPR1L = 0X3E;
  6064  003254  0E3E               	movlw	62
  6065  003256  6EBE               	movwf	190,c	;volatile
  6066                           
  6067                           ;PWM.c: 90:     CCPR2L = 0X3E;
  6068  003258  0E3E               	movlw	62
  6069  00325A  6EBB               	movwf	187,c	;volatile
  6070  00325C                     
  6071                           ;PWM.c: 91:     TRISCbits.RC1 = 0;
  6072  00325C  9294               	bcf	148,1,c	;volatile
  6073  00325E                     
  6074                           ;PWM.c: 92:     TRISCbits.RC2 = 0;
  6075  00325E  9494               	bcf	148,2,c	;volatile
  6076                           
  6077                           ;PWM.c: 93:     T2CON = 0X03;
  6078  003260  0E03               	movlw	3
  6079  003262  6ECA               	movwf	202,c	;volatile
  6080                           
  6081                           ;PWM.c: 94:     CCP1CON = 0X0C;
  6082  003264  0E0C               	movlw	12
  6083  003266  6EBD               	movwf	189,c	;volatile
  6084                           
  6085                           ;PWM.c: 95:     CCP2CON = 0X0C;
  6086  003268  0E0C               	movlw	12
  6087  00326A  6EBA               	movwf	186,c	;volatile
  6088  00326C                     
  6089                           ;PWM.c: 96:     T2CONbits.TMR2ON = 0;
  6090  00326C  94CA               	bcf	202,2,c	;volatile
  6091  00326E  0012               	return		;funcret
  6092  003270                     __end_of_PWM_InitS:
  6093                           	opt callstack 0
  6094                           
  6095 ;; *************** function _PWM_InitF *****************
  6096 ;; Defined at:
  6097 ;;		line 72 in file "PWM.c"
  6098 ;; Parameters:    Size  Location     Type
  6099 ;;		None
  6100 ;; Auto vars:     Size  Location     Type
  6101 ;;		None
  6102 ;; Return value:  Size  Location     Type
  6103 ;;                  1    wreg      void 
  6104 ;; Registers used:
  6105 ;;		wreg, status,2
  6106 ;; Tracked objects:
  6107 ;;		On entry : 0/0
  6108 ;;		On exit  : 0/0
  6109 ;;		Unchanged: 0/0
  6110 ;; Data sizes:     COMRAM   BANK0   BANK1   BANK2   BANK3   BANK4   BANK5   BANK6   BANK7
  6111 ;;      Params:         0       0       0       0       0       0       0       0       0
  6112 ;;      Locals:         0       0       0       0       0       0       0       0       0
  6113 ;;      Temps:          0       0       0       0       0       0       0       0       0
  6114 ;;      Totals:         0       0       0       0       0       0       0       0       0
  6115 ;;Total ram usage:        0 bytes
  6116 ;; Hardware stack levels used:    1
  6117 ;; Hardware stack levels required when called:    5
  6118 ;; This function calls:
  6119 ;;		Nothing
  6120 ;; This function is called by:
  6121 ;;		_PWM_GeneratePulsos
  6122 ;; This function uses a non-reentrant model
  6123 ;;
  6124                           
  6125                           	psect	text31
  6126  003212                     __ptext31:
  6127                           	opt callstack 0
  6128  003212                     _PWM_InitF:
  6129                           	opt callstack 22
  6130  003212                     
  6131                           ;PWM.c: 74:     PR2 = 0X7C;
  6132  003212  0E7C               	movlw	124
  6133  003214  6ECB               	movwf	203,c	;volatile
  6134                           
  6135                           ;PWM.c: 75:     CCPR1L = 0X3E;
  6136  003216  0E3E               	movlw	62
  6137  003218  6EBE               	movwf	190,c	;volatile
  6138                           
  6139                           ;PWM.c: 76:     CCPR2L = 0X3E;
  6140  00321A  0E3E               	movlw	62
  6141  00321C  6EBB               	movwf	187,c	;volatile
  6142  00321E                     
  6143                           ;PWM.c: 77:     TRISCbits.RC1 = 0;
  6144  00321E  9294               	bcf	148,1,c	;volatile
  6145  003220                     
  6146                           ;PWM.c: 78:     TRISCbits.RC2 = 0;
  6147  003220  9494               	bcf	148,2,c	;volatile
  6148                           
  6149                           ;PWM.c: 79:     T2CON = 0X03;
  6150  003222  0E03               	movlw	3
  6151  003224  6ECA               	movwf	202,c	;volatile
  6152                           
  6153                           ;PWM.c: 80:     CCP1CON = 0X0C;
  6154  003226  0E0C               	movlw	12
  6155  003228  6EBD               	movwf	189,c	;volatile
  6156                           
  6157                           ;PWM.c: 81:     CCP2CON = 0X0C;
  6158  00322A  0E0C               	movlw	12
  6159  00322C  6EBA               	movwf	186,c	;volatile
  6160  00322E                     
  6161                           ;PWM.c: 82:     T2CONbits.TMR2ON = 0;
  6162  00322E  94CA               	bcf	202,2,c	;volatile
  6163  003230  0012               	return		;funcret
  6164  003232                     __end_of_PWM_InitF:
  6165                           	opt callstack 0
  6166                           
  6167 ;; *************** function _Motor_Conversion *****************
  6168 ;; Defined at:
  6169 ;;		line 18 in file "Motor.c"
  6170 ;; Parameters:    Size  Location     Type
  6171 ;;  Coordenada      2   49[BANK0 ] int 
  6172 ;; Auto vars:     Size  Location     Type
  6173 ;;  conversion      4   51[BANK0 ] float 
  6174 ;; Return value:  Size  Location     Type
  6175 ;;                  2   49[BANK0 ] int 
  6176 ;; Registers used:
  6177 ;;		wreg, status,2, status,0, cstack
  6178 ;; Tracked objects:
  6179 ;;		On entry : 0/0
  6180 ;;		On exit  : 0/0
  6181 ;;		Unchanged: 0/0
  6182 ;; Data sizes:     COMRAM   BANK0   BANK1   BANK2   BANK3   BANK4   BANK5   BANK6   BANK7
  6183 ;;      Params:         0       2       0       0       0       0       0       0       0
  6184 ;;      Locals:         0       4       0       0       0       0       0       0       0
  6185 ;;      Temps:          0       0       0       0       0       0       0       0       0
  6186 ;;      Totals:         0       6       0       0       0       0       0       0       0
  6187 ;;Total ram usage:        6 bytes
  6188 ;; Hardware stack levels used:    1
  6189 ;; Hardware stack levels required when called:    6
  6190 ;; This function calls:
  6191 ;;		___fldiv
  6192 ;;		___fltol
  6193 ;;		___xxtofl
  6194 ;; This function is called by:
  6195 ;;		_Motor_Movimiento
  6196 ;; This function uses a non-reentrant model
  6197 ;;
  6198                           
  6199                           	psect	text32
  6200  002B6E                     __ptext32:
  6201                           	opt callstack 0
  6202  002B6E                     _Motor_Conversion:
  6203                           	opt callstack 22
  6204  002B6E                     
  6205                           ;Motor.c: 19:     float conversion = 0.2;
  6206  002B6E  0ECD               	movlw	205
  6207  002B70  0100               	movlb	0	; () banked
  6208  002B72  6F93               	movwf	Motor_Conversion@conversion& (0+255),b
  6209  002B74  0ECC               	movlw	204
  6210  002B76  6F94               	movwf	(Motor_Conversion@conversion+1)& (0+255),b
  6211  002B78  0E4C               	movlw	76
  6212  002B7A  6F95               	movwf	(Motor_Conversion@conversion+2)& (0+255),b
  6213  002B7C  0E3E               	movlw	62
  6214  002B7E  6F96               	movwf	(Motor_Conversion@conversion+3)& (0+255),b
  6215  002B80                     
  6216                           ; BSR set to: 0
  6217                           ;Motor.c: 20:     pasos_convertidos = Coordenada / conversion;
  6218  002B80  C093  F072         	movff	Motor_Conversion@conversion,___fldiv@a
  6219  002B84  C094  F073         	movff	Motor_Conversion@conversion+1,___fldiv@a+1
  6220  002B88  C095  F074         	movff	Motor_Conversion@conversion+2,___fldiv@a+2
  6221  002B8C  C096  F075         	movff	Motor_Conversion@conversion+3,___fldiv@a+3
  6222  002B90  C091  F060         	movff	Motor_Conversion@Coordenada,___xxtofl@val
  6223  002B94  C092  F061         	movff	Motor_Conversion@Coordenada+1,___xxtofl@val+1
  6224  002B98  0E00               	movlw	0
  6225  002B9A  BF61               	btfsc	(___xxtofl@val+1)& (0+255),7,b
  6226  002B9C  0EFF               	movlw	-1
  6227  002B9E  6F62               	movwf	(___xxtofl@val+2)& (0+255),b
  6228  002BA0  6F63               	movwf	(___xxtofl@val+3)& (0+255),b
  6229  002BA2  0E01               	movlw	1
  6230  002BA4  EC5D  F00B         	call	___xxtofl
  6231  002BA8  C060  F06E         	movff	?___xxtofl,___fldiv@b
  6232  002BAC  C061  F06F         	movff	?___xxtofl+1,___fldiv@b+1
  6233  002BB0  C062  F070         	movff	?___xxtofl+2,___fldiv@b+2
  6234  002BB4  C063  F071         	movff	?___xxtofl+3,___fldiv@b+3
  6235  002BB8  EC8D  F006         	call	___fldiv	;wreg free
  6236  002BBC  C06E  F087         	movff	?___fldiv,___fltol@f1
  6237  002BC0  C06F  F088         	movff	?___fldiv+1,___fltol@f1+1
  6238  002BC4  C070  F089         	movff	?___fldiv+2,___fltol@f1+2
  6239  002BC8  C071  F08A         	movff	?___fldiv+3,___fltol@f1+3
  6240  002BCC  ECE4  F010         	call	___fltol	;wreg free
  6241  002BD0  C087  F0B6         	movff	?___fltol,_pasos_convertidos
  6242  002BD4  C088  F0B7         	movff	?___fltol+1,_pasos_convertidos+1
  6243  002BD8                     
  6244                           ;Motor.c: 21:     return pasos_convertidos;
  6245  002BD8  C0B6  F091         	movff	_pasos_convertidos,?_Motor_Conversion
  6246  002BDC  C0B7  F092         	movff	_pasos_convertidos+1,?_Motor_Conversion+1
  6247  002BE0  0012               	return		;funcret
  6248  002BE2                     __end_of_Motor_Conversion:
  6249                           	opt callstack 0
  6250                           
  6251 ;; *************** function ___xxtofl *****************
  6252 ;; Defined at:
  6253 ;;		line 10 in file "C:\Program Files (x86)\Microchip\xc8\v2.10\pic\sources\c99\common\xxtofl.c"
  6254 ;; Parameters:    Size  Location     Type
  6255 ;;  sign            1    wreg     unsigned char 
  6256 ;;  val             4    0[BANK0 ] long 
  6257 ;; Auto vars:     Size  Location     Type
  6258 ;;  sign            1    8[BANK0 ] unsigned char 
  6259 ;;  arg             4   10[BANK0 ] unsigned long 
  6260 ;;  exp             1    9[BANK0 ] unsigned char 
  6261 ;; Return value:  Size  Location     Type
  6262 ;;                  4    0[BANK0 ] unsigned char 
  6263 ;; Registers used:
  6264 ;;		wreg, status,2, status,0
  6265 ;; Tracked objects:
  6266 ;;		On entry : 0/0
  6267 ;;		On exit  : 0/0
  6268 ;;		Unchanged: 0/0
  6269 ;; Data sizes:     COMRAM   BANK0   BANK1   BANK2   BANK3   BANK4   BANK5   BANK6   BANK7
  6270 ;;      Params:         0       4       0       0       0       0       0       0       0
  6271 ;;      Locals:         0       6       0       0       0       0       0       0       0
  6272 ;;      Temps:          0       4       0       0       0       0       0       0       0
  6273 ;;      Totals:         0      14       0       0       0       0       0       0       0
  6274 ;;Total ram usage:       14 bytes
  6275 ;; Hardware stack levels used:    1
  6276 ;; Hardware stack levels required when called:    5
  6277 ;; This function calls:
  6278 ;;		Nothing
  6279 ;; This function is called by:
  6280 ;;		_Motor_Conversion
  6281 ;;		_ADC_ConvertirDistancia
  6282 ;;		_ControlZ
  6283 ;;		_powf
  6284 ;; This function uses a non-reentrant model
  6285 ;;
  6286                           
  6287                           	psect	text33
  6288  0016BA                     __ptext33:
  6289                           	opt callstack 0
  6290  0016BA                     ___xxtofl:
  6291                           	opt callstack 22
  6292                           
  6293                           ;incstack = 0
  6294                           ;___xxtofl@sign stored from wreg
  6295  0016BA  0100               	movlb	0	; () banked
  6296  0016BC  6F68               	movwf	___xxtofl@sign& (0+255),b
  6297  0016BE  0100               	movlb	0	; () banked
  6298  0016C0  5168               	movf	___xxtofl@sign& (0+255),w,b
  6299  0016C2  B4D8               	btfsc	status,2,c
  6300  0016C4  EF66  F00B         	goto	u2431
  6301  0016C8  EF68  F00B         	goto	u2430
  6302  0016CC                     u2431:
  6303  0016CC  EF8A  F00B         	goto	l1583
  6304  0016D0                     u2430:
  6305  0016D0                     
  6306                           ; BSR set to: 0
  6307  0016D0  BF63               	btfsc	(___xxtofl@val+3)& (0+255),7,b
  6308  0016D2  EF6F  F00B         	goto	u2440
  6309  0016D6  EF6D  F00B         	goto	u2441
  6310  0016DA                     u2441:
  6311  0016DA  EF8A  F00B         	goto	l1583
  6312  0016DE                     u2440:
  6313  0016DE                     
  6314                           ; BSR set to: 0
  6315  0016DE  C060  F064         	movff	___xxtofl@val,??___xxtofl
  6316  0016E2  C061  F065         	movff	___xxtofl@val+1,??___xxtofl+1
  6317  0016E6  C062  F066         	movff	___xxtofl@val+2,??___xxtofl+2
  6318  0016EA  C063  F067         	movff	___xxtofl@val+3,??___xxtofl+3
  6319  0016EE  1F64               	comf	??___xxtofl& (0+255),f,b
  6320  0016F0  1F65               	comf	(??___xxtofl+1)& (0+255),f,b
  6321  0016F2  1F66               	comf	(??___xxtofl+2)& (0+255),f,b
  6322  0016F4  1F67               	comf	(??___xxtofl+3)& (0+255),f,b
  6323  0016F6  2B64               	incf	??___xxtofl& (0+255),f,b
  6324  0016F8  0E00               	movlw	0
  6325  0016FA  2365               	addwfc	(??___xxtofl+1)& (0+255),f,b
  6326  0016FC  2366               	addwfc	(??___xxtofl+2)& (0+255),f,b
  6327  0016FE  2367               	addwfc	(??___xxtofl+3)& (0+255),f,b
  6328  001700  C064  F06A         	movff	??___xxtofl,___xxtofl@arg
  6329  001704  C065  F06B         	movff	??___xxtofl+1,___xxtofl@arg+1
  6330  001708  C066  F06C         	movff	??___xxtofl+2,___xxtofl@arg+2
  6331  00170C  C067  F06D         	movff	??___xxtofl+3,___xxtofl@arg+3
  6332  001710  EF92  F00B         	goto	l3955
  6333  001714                     l1583:
  6334                           
  6335                           ; BSR set to: 0
  6336  001714  C060  F06A         	movff	___xxtofl@val,___xxtofl@arg
  6337  001718  C061  F06B         	movff	___xxtofl@val+1,___xxtofl@arg+1
  6338  00171C  C062  F06C         	movff	___xxtofl@val+2,___xxtofl@arg+2
  6339  001720  C063  F06D         	movff	___xxtofl@val+3,___xxtofl@arg+3
  6340  001724                     l3955:
  6341                           
  6342                           ; BSR set to: 0
  6343  001724  5160               	movf	___xxtofl@val& (0+255),w,b
  6344  001726  1161               	iorwf	(___xxtofl@val+1)& (0+255),w,b
  6345  001728  1162               	iorwf	(___xxtofl@val+2)& (0+255),w,b
  6346  00172A  1163               	iorwf	(___xxtofl@val+3)& (0+255),w,b
  6347  00172C  A4D8               	btfss	status,2,c
  6348  00172E  EF9B  F00B         	goto	u2451
  6349  001732  EF9D  F00B         	goto	u2450
  6350  001736                     u2451:
  6351  001736  EFA7  F00B         	goto	l3961
  6352  00173A                     u2450:
  6353  00173A                     
  6354                           ; BSR set to: 0
  6355  00173A  0E00               	movlw	0
  6356  00173C  6F60               	movwf	?___xxtofl& (0+255),b
  6357  00173E  0E00               	movlw	0
  6358  001740  6F61               	movwf	(?___xxtofl+1)& (0+255),b
  6359  001742  0E00               	movlw	0
  6360  001744  6F62               	movwf	(?___xxtofl+2)& (0+255),b
  6361  001746  0E00               	movlw	0
  6362  001748  6F63               	movwf	(?___xxtofl+3)& (0+255),b
  6363  00174A  EF38  F00C         	goto	l1586
  6364  00174E                     l3961:
  6365                           
  6366                           ; BSR set to: 0
  6367  00174E  0E96               	movlw	150
  6368  001750  6F69               	movwf	___xxtofl@exp& (0+255),b
  6369  001752  EFB1  F00B         	goto	l3965
  6370  001756                     l3963:
  6371                           
  6372                           ; BSR set to: 0
  6373  001756  2B69               	incf	___xxtofl@exp& (0+255),f,b
  6374  001758  90D8               	bcf	status,0,c
  6375  00175A  336D               	rrcf	(___xxtofl@arg+3)& (0+255),f,b
  6376  00175C  336C               	rrcf	(___xxtofl@arg+2)& (0+255),f,b
  6377  00175E  336B               	rrcf	(___xxtofl@arg+1)& (0+255),f,b
  6378  001760  336A               	rrcf	___xxtofl@arg& (0+255),f,b
  6379  001762                     l3965:
  6380                           
  6381                           ; BSR set to: 0
  6382  001762  0E00               	movlw	0
  6383  001764  156A               	andwf	___xxtofl@arg& (0+255),w,b
  6384  001766  6F64               	movwf	??___xxtofl& (0+255),b
  6385  001768  0E00               	movlw	0
  6386  00176A  156B               	andwf	(___xxtofl@arg+1)& (0+255),w,b
  6387  00176C  6F65               	movwf	(??___xxtofl+1)& (0+255),b
  6388  00176E  0E00               	movlw	0
  6389  001770  156C               	andwf	(___xxtofl@arg+2)& (0+255),w,b
  6390  001772  6F66               	movwf	(??___xxtofl+2)& (0+255),b
  6391  001774  0EFE               	movlw	254
  6392  001776  156D               	andwf	(___xxtofl@arg+3)& (0+255),w,b
  6393  001778  6F67               	movwf	(??___xxtofl+3)& (0+255),b
  6394  00177A  5164               	movf	??___xxtofl& (0+255),w,b
  6395  00177C  1165               	iorwf	(??___xxtofl+1)& (0+255),w,b
  6396  00177E  1166               	iorwf	(??___xxtofl+2)& (0+255),w,b
  6397  001780  1167               	iorwf	(??___xxtofl+3)& (0+255),w,b
  6398  001782  A4D8               	btfss	status,2,c
  6399  001784  EFC6  F00B         	goto	u2461
  6400  001788  EFC8  F00B         	goto	u2460
  6401  00178C                     u2461:
  6402  00178C  EFAB  F00B         	goto	l3963
  6403  001790                     u2460:
  6404  001790  EFD6  F00B         	goto	l1590
  6405  001794                     l3967:
  6406                           
  6407                           ; BSR set to: 0
  6408  001794  2B69               	incf	___xxtofl@exp& (0+255),f,b
  6409  001796                     
  6410                           ; BSR set to: 0
  6411  001796  0E01               	movlw	1
  6412  001798  276A               	addwf	___xxtofl@arg& (0+255),f,b
  6413  00179A  0E00               	movlw	0
  6414  00179C  236B               	addwfc	(___xxtofl@arg+1)& (0+255),f,b
  6415  00179E  236C               	addwfc	(___xxtofl@arg+2)& (0+255),f,b
  6416  0017A0  236D               	addwfc	(___xxtofl@arg+3)& (0+255),f,b
  6417  0017A2                     
  6418                           ; BSR set to: 0
  6419  0017A2  90D8               	bcf	status,0,c
  6420  0017A4  336D               	rrcf	(___xxtofl@arg+3)& (0+255),f,b
  6421  0017A6  336C               	rrcf	(___xxtofl@arg+2)& (0+255),f,b
  6422  0017A8  336B               	rrcf	(___xxtofl@arg+1)& (0+255),f,b
  6423  0017AA  336A               	rrcf	___xxtofl@arg& (0+255),f,b
  6424  0017AC                     l1590:
  6425                           
  6426                           ; BSR set to: 0
  6427  0017AC  0E00               	movlw	0
  6428  0017AE  156A               	andwf	___xxtofl@arg& (0+255),w,b
  6429  0017B0  6F64               	movwf	??___xxtofl& (0+255),b
  6430  0017B2  0E00               	movlw	0
  6431  0017B4  156B               	andwf	(___xxtofl@arg+1)& (0+255),w,b
  6432  0017B6  6F65               	movwf	(??___xxtofl+1)& (0+255),b
  6433  0017B8  0E00               	movlw	0
  6434  0017BA  156C               	andwf	(___xxtofl@arg+2)& (0+255),w,b
  6435  0017BC  6F66               	movwf	(??___xxtofl+2)& (0+255),b
  6436  0017BE  0EFF               	movlw	255
  6437  0017C0  156D               	andwf	(___xxtofl@arg+3)& (0+255),w,b
  6438  0017C2  6F67               	movwf	(??___xxtofl+3)& (0+255),b
  6439  0017C4  5164               	movf	??___xxtofl& (0+255),w,b
  6440  0017C6  1165               	iorwf	(??___xxtofl+1)& (0+255),w,b
  6441  0017C8  1166               	iorwf	(??___xxtofl+2)& (0+255),w,b
  6442  0017CA  1167               	iorwf	(??___xxtofl+3)& (0+255),w,b
  6443  0017CC  A4D8               	btfss	status,2,c
  6444  0017CE  EFEB  F00B         	goto	u2471
  6445  0017D2  EFED  F00B         	goto	u2470
  6446  0017D6                     u2471:
  6447  0017D6  EFCA  F00B         	goto	l3967
  6448  0017DA                     u2470:
  6449  0017DA  EFF5  F00B         	goto	l3975
  6450  0017DE                     l3973:
  6451                           
  6452                           ; BSR set to: 0
  6453  0017DE  0769               	decf	___xxtofl@exp& (0+255),f,b
  6454  0017E0  90D8               	bcf	status,0,c
  6455  0017E2  376A               	rlcf	___xxtofl@arg& (0+255),f,b
  6456  0017E4  376B               	rlcf	(___xxtofl@arg+1)& (0+255),f,b
  6457  0017E6  376C               	rlcf	(___xxtofl@arg+2)& (0+255),f,b
  6458  0017E8  376D               	rlcf	(___xxtofl@arg+3)& (0+255),f,b
  6459  0017EA                     l3975:
  6460                           
  6461                           ; BSR set to: 0
  6462  0017EA  BF6C               	btfsc	(___xxtofl@arg+2)& (0+255),7,b
  6463  0017EC  EFFA  F00B         	goto	u2481
  6464  0017F0  EFFC  F00B         	goto	u2480
  6465  0017F4                     u2481:
  6466  0017F4  EF04  F00C         	goto	l1597
  6467  0017F8                     u2480:
  6468  0017F8                     
  6469                           ; BSR set to: 0
  6470  0017F8  0E02               	movlw	2
  6471  0017FA  6169               	cpfslt	___xxtofl@exp& (0+255),b
  6472  0017FC  EF02  F00C         	goto	u2491
  6473  001800  EF04  F00C         	goto	u2490
  6474  001804                     u2491:
  6475  001804  EFEF  F00B         	goto	l3973
  6476  001808                     u2490:
  6477  001808                     l1597:
  6478                           
  6479                           ; BSR set to: 0
  6480  001808  B169               	btfsc	___xxtofl@exp& (0+255),0,b
  6481  00180A  EF09  F00C         	goto	u2501
  6482  00180E  EF0B  F00C         	goto	u2500
  6483  001812                     u2501:
  6484  001812  EF0C  F00C         	goto	l3981
  6485  001816                     u2500:
  6486  001816                     
  6487                           ; BSR set to: 0
  6488  001816  9F6C               	bcf	(___xxtofl@arg+2)& (0+255),7,b
  6489  001818                     l3981:
  6490                           
  6491                           ; BSR set to: 0
  6492  001818  90D8               	bcf	status,0,c
  6493  00181A  3369               	rrcf	___xxtofl@exp& (0+255),f,b
  6494  00181C                     
  6495                           ; BSR set to: 0
  6496  00181C  C069  F064         	movff	___xxtofl@exp,??___xxtofl
  6497  001820  6B65               	clrf	(??___xxtofl+1)& (0+255),b
  6498  001822  6B66               	clrf	(??___xxtofl+2)& (0+255),b
  6499  001824  6B67               	clrf	(??___xxtofl+3)& (0+255),b
  6500  001826  C064  F067         	movff	??___xxtofl,??___xxtofl+3
  6501  00182A  6B66               	clrf	(??___xxtofl+2)& (0+255),b
  6502  00182C  6B65               	clrf	(??___xxtofl+1)& (0+255),b
  6503  00182E  6B64               	clrf	??___xxtofl& (0+255),b
  6504  001830  5164               	movf	??___xxtofl& (0+255),w,b
  6505  001832  136A               	iorwf	___xxtofl@arg& (0+255),f,b
  6506  001834  5165               	movf	(??___xxtofl+1)& (0+255),w,b
  6507  001836  136B               	iorwf	(___xxtofl@arg+1)& (0+255),f,b
  6508  001838  5166               	movf	(??___xxtofl+2)& (0+255),w,b
  6509  00183A  136C               	iorwf	(___xxtofl@arg+2)& (0+255),f,b
  6510  00183C  5167               	movf	(??___xxtofl+3)& (0+255),w,b
  6511  00183E  136D               	iorwf	(___xxtofl@arg+3)& (0+255),f,b
  6512  001840                     
  6513                           ; BSR set to: 0
  6514  001840  5168               	movf	___xxtofl@sign& (0+255),w,b
  6515  001842  B4D8               	btfsc	status,2,c
  6516  001844  EF26  F00C         	goto	u2511
  6517  001848  EF28  F00C         	goto	u2510
  6518  00184C                     u2511:
  6519  00184C  EF30  F00C         	goto	l3991
  6520  001850                     u2510:
  6521  001850                     
  6522                           ; BSR set to: 0
  6523  001850  BF63               	btfsc	(___xxtofl@val+3)& (0+255),7,b
  6524  001852  EF2F  F00C         	goto	u2520
  6525  001856  EF2D  F00C         	goto	u2521
  6526  00185A                     u2521:
  6527  00185A  EF30  F00C         	goto	l3991
  6528  00185E                     u2520:
  6529  00185E                     
  6530                           ; BSR set to: 0
  6531  00185E  8F6D               	bsf	(___xxtofl@arg+3)& (0+255),7,b
  6532  001860                     l3991:
  6533                           
  6534                           ; BSR set to: 0
  6535  001860  C06A  F060         	movff	___xxtofl@arg,?___xxtofl
  6536  001864  C06B  F061         	movff	___xxtofl@arg+1,?___xxtofl+1
  6537  001868  C06C  F062         	movff	___xxtofl@arg+2,?___xxtofl+2
  6538  00186C  C06D  F063         	movff	___xxtofl@arg+3,?___xxtofl+3
  6539  001870                     l1586:
  6540                           
  6541                           ; BSR set to: 0
  6542  001870  0012               	return		;funcret
  6543  001872                     __end_of___xxtofl:
  6544                           	opt callstack 0
  6545                           
  6546 ;; *************** function ___fltol *****************
  6547 ;; Defined at:
  6548 ;;		line 43 in file "C:\Program Files (x86)\Microchip\xc8\v2.10\pic\sources\c99\common\fltol.c"
  6549 ;; Parameters:    Size  Location     Type
  6550 ;;  f1              4   39[BANK0 ] unsigned char 
  6551 ;; Auto vars:     Size  Location     Type
  6552 ;;  exp1            1   48[BANK0 ] unsigned char 
  6553 ;;  sign1           1   47[BANK0 ] unsigned char 
  6554 ;; Return value:  Size  Location     Type
  6555 ;;                  4   39[BANK0 ] long 
  6556 ;; Registers used:
  6557 ;;		wreg, status,2, status,0
  6558 ;; Tracked objects:
  6559 ;;		On entry : 0/0
  6560 ;;		On exit  : 0/0
  6561 ;;		Unchanged: 0/0
  6562 ;; Data sizes:     COMRAM   BANK0   BANK1   BANK2   BANK3   BANK4   BANK5   BANK6   BANK7
  6563 ;;      Params:         0       4       0       0       0       0       0       0       0
  6564 ;;      Locals:         0       2       0       0       0       0       0       0       0
  6565 ;;      Temps:          0       4       0       0       0       0       0       0       0
  6566 ;;      Totals:         0      10       0       0       0       0       0       0       0
  6567 ;;Total ram usage:       10 bytes
  6568 ;; Hardware stack levels used:    1
  6569 ;; Hardware stack levels required when called:    5
  6570 ;; This function calls:
  6571 ;;		Nothing
  6572 ;; This function is called by:
  6573 ;;		_Motor_Conversion
  6574 ;; This function uses a non-reentrant model
  6575 ;;
  6576                           
  6577                           	psect	text34
  6578  0021C8                     __ptext34:
  6579                           	opt callstack 0
  6580  0021C8                     ___fltol:
  6581                           	opt callstack 22
  6582  0021C8  0100               	movlb	0	; () banked
  6583  0021CA  3589               	rlcf	(___fltol@f1+2)& (0+255),w,b
  6584  0021CC  358A               	rlcf	(___fltol@f1+3)& (0+255),w,b
  6585  0021CE  6F90               	movwf	___fltol@exp1& (0+255),b
  6586  0021D0  5190               	movf	___fltol@exp1& (0+255),w,b
  6587  0021D2  A4D8               	btfss	status,2,c
  6588  0021D4  EFEE  F010         	goto	u2361
  6589  0021D8  EFF0  F010         	goto	u2360
  6590  0021DC                     u2361:
  6591  0021DC  EFFA  F010         	goto	l3911
  6592  0021E0                     u2360:
  6593  0021E0                     l3907:
  6594                           
  6595                           ; BSR set to: 0
  6596  0021E0  0E00               	movlw	0
  6597  0021E2  6F87               	movwf	?___fltol& (0+255),b
  6598  0021E4  0E00               	movlw	0
  6599  0021E6  6F88               	movwf	(?___fltol+1)& (0+255),b
  6600  0021E8  0E00               	movlw	0
  6601  0021EA  6F89               	movwf	(?___fltol+2)& (0+255),b
  6602  0021EC  0E00               	movlw	0
  6603  0021EE  6F8A               	movwf	(?___fltol+3)& (0+255),b
  6604  0021F0  EF67  F011         	goto	l1225
  6605  0021F4                     l3911:
  6606                           
  6607                           ; BSR set to: 0
  6608  0021F4  C087  F08B         	movff	___fltol@f1,??___fltol
  6609  0021F8  C088  F08C         	movff	___fltol@f1+1,??___fltol+1
  6610  0021FC  C089  F08D         	movff	___fltol@f1+2,??___fltol+2
  6611  002200  C08A  F08E         	movff	___fltol@f1+3,??___fltol+3
  6612  002204  0E20               	movlw	32
  6613  002206  EF0A  F011         	goto	u2370
  6614  00220A                     u2375:
  6615  00220A  90D8               	bcf	status,0,c
  6616  00220C  338E               	rrcf	(??___fltol+3)& (0+255),f,b
  6617  00220E  338D               	rrcf	(??___fltol+2)& (0+255),f,b
  6618  002210  338C               	rrcf	(??___fltol+1)& (0+255),f,b
  6619  002212  338B               	rrcf	??___fltol& (0+255),f,b
  6620  002214                     u2370:
  6621  002214  2EE8               	decfsz	wreg,f,c
  6622  002216  EF05  F011         	goto	u2375
  6623  00221A  518B               	movf	??___fltol& (0+255),w,b
  6624  00221C  6F8F               	movwf	___fltol@sign1& (0+255),b
  6625  00221E                     
  6626                           ; BSR set to: 0
  6627  00221E  8F89               	bsf	(___fltol@f1+2)& (0+255),7,b
  6628  002220                     
  6629                           ; BSR set to: 0
  6630  002220  0EFF               	movlw	255
  6631  002222  1787               	andwf	___fltol@f1& (0+255),f,b
  6632  002224  0EFF               	movlw	255
  6633  002226  1788               	andwf	(___fltol@f1+1)& (0+255),f,b
  6634  002228  0EFF               	movlw	255
  6635  00222A  1789               	andwf	(___fltol@f1+2)& (0+255),f,b
  6636  00222C  0E00               	movlw	0
  6637  00222E  178A               	andwf	(___fltol@f1+3)& (0+255),f,b
  6638  002230                     
  6639                           ; BSR set to: 0
  6640  002230  0E96               	movlw	150
  6641  002232  5F90               	subwf	___fltol@exp1& (0+255),f,b
  6642  002234                     
  6643                           ; BSR set to: 0
  6644  002234  BF90               	btfsc	___fltol@exp1& (0+255),7,b
  6645  002236  EF21  F011         	goto	u2380
  6646  00223A  EF1F  F011         	goto	u2381
  6647  00223E                     u2381:
  6648  00223E  EF37  F011         	goto	l3931
  6649  002242                     u2380:
  6650  002242                     
  6651                           ; BSR set to: 0
  6652  002242  5190               	movf	___fltol@exp1& (0+255),w,b
  6653  002244  0A80               	xorlw	128
  6654  002246  0F97               	addlw	151
  6655  002248  B0D8               	btfsc	status,0,c
  6656  00224A  EF29  F011         	goto	u2391
  6657  00224E  EF2B  F011         	goto	u2390
  6658  002252                     u2391:
  6659  002252  EF2D  F011         	goto	l3927
  6660  002256                     u2390:
  6661  002256  EFF0  F010         	goto	l3907
  6662  00225A                     l3927:
  6663                           
  6664                           ; BSR set to: 0
  6665  00225A  90D8               	bcf	status,0,c
  6666  00225C  338A               	rrcf	(___fltol@f1+3)& (0+255),f,b
  6667  00225E  3389               	rrcf	(___fltol@f1+2)& (0+255),f,b
  6668  002260  3388               	rrcf	(___fltol@f1+1)& (0+255),f,b
  6669  002262  3387               	rrcf	___fltol@f1& (0+255),f,b
  6670  002264                     
  6671                           ; BSR set to: 0
  6672  002264  3F90               	incfsz	___fltol@exp1& (0+255),f,b
  6673  002266  EF2D  F011         	goto	l3927
  6674  00226A  EF4F  F011         	goto	l3941
  6675  00226E                     l3931:
  6676                           
  6677                           ; BSR set to: 0
  6678  00226E  0E1F               	movlw	31
  6679  002270  6590               	cpfsgt	___fltol@exp1& (0+255),b
  6680  002272  EF3D  F011         	goto	u2401
  6681  002276  EF3F  F011         	goto	u2400
  6682  00227A                     u2401:
  6683  00227A  EF47  F011         	goto	l3939
  6684  00227E                     u2400:
  6685  00227E  EFF0  F010         	goto	l3907
  6686  002282                     l3937:
  6687                           
  6688                           ; BSR set to: 0
  6689  002282  90D8               	bcf	status,0,c
  6690  002284  3787               	rlcf	___fltol@f1& (0+255),f,b
  6691  002286  3788               	rlcf	(___fltol@f1+1)& (0+255),f,b
  6692  002288  3789               	rlcf	(___fltol@f1+2)& (0+255),f,b
  6693  00228A  378A               	rlcf	(___fltol@f1+3)& (0+255),f,b
  6694  00228C  0790               	decf	___fltol@exp1& (0+255),f,b
  6695  00228E                     l3939:
  6696                           
  6697                           ; BSR set to: 0
  6698  00228E  5190               	movf	___fltol@exp1& (0+255),w,b
  6699  002290  A4D8               	btfss	status,2,c
  6700  002292  EF4D  F011         	goto	u2411
  6701  002296  EF4F  F011         	goto	u2410
  6702  00229A                     u2411:
  6703  00229A  EF41  F011         	goto	l3937
  6704  00229E                     u2410:
  6705  00229E                     l3941:
  6706                           
  6707                           ; BSR set to: 0
  6708  00229E  518F               	movf	___fltol@sign1& (0+255),w,b
  6709  0022A0  B4D8               	btfsc	status,2,c
  6710  0022A2  EF55  F011         	goto	u2421
  6711  0022A6  EF57  F011         	goto	u2420
  6712  0022AA                     u2421:
  6713  0022AA  EF5F  F011         	goto	l3945
  6714  0022AE                     u2420:
  6715  0022AE                     
  6716                           ; BSR set to: 0
  6717  0022AE  1F8A               	comf	(___fltol@f1+3)& (0+255),f,b
  6718  0022B0  1F89               	comf	(___fltol@f1+2)& (0+255),f,b
  6719  0022B2  1F88               	comf	(___fltol@f1+1)& (0+255),f,b
  6720  0022B4  6D87               	negf	___fltol@f1& (0+255),b
  6721  0022B6  0E00               	movlw	0
  6722  0022B8  2388               	addwfc	(___fltol@f1+1)& (0+255),f,b
  6723  0022BA  2389               	addwfc	(___fltol@f1+2)& (0+255),f,b
  6724  0022BC  238A               	addwfc	(___fltol@f1+3)& (0+255),f,b
  6725  0022BE                     l3945:
  6726                           
  6727                           ; BSR set to: 0
  6728  0022BE  C087  F087         	movff	___fltol@f1,?___fltol
  6729  0022C2  C088  F088         	movff	___fltol@f1+1,?___fltol+1
  6730  0022C6  C089  F089         	movff	___fltol@f1+2,?___fltol+2
  6731  0022CA  C08A  F08A         	movff	___fltol@f1+3,?___fltol+3
  6732  0022CE                     l1225:
  6733                           
  6734                           ; BSR set to: 0
  6735  0022CE  0012               	return		;funcret
  6736  0022D0                     __end_of___fltol:
  6737                           	opt callstack 0
  6738                           
  6739 ;; *************** function ___fldiv *****************
  6740 ;; Defined at:
  6741 ;;		line 11 in file "C:\Program Files (x86)\Microchip\xc8\v2.10\pic\sources\c99\common\sprcdiv.c"
  6742 ;; Parameters:    Size  Location     Type
  6743 ;;  b               4   14[BANK0 ] long 
  6744 ;;  a               4   18[BANK0 ] long 
  6745 ;; Auto vars:     Size  Location     Type
  6746 ;;  grs             4   33[BANK0 ] unsigned long 
  6747 ;;  rem             4   26[BANK0 ] unsigned long 
  6748 ;;  new_exp         2   31[BANK0 ] short 
  6749 ;;  aexp            1   38[BANK0 ] unsigned char 
  6750 ;;  bexp            1   37[BANK0 ] unsigned char 
  6751 ;;  sign            1   30[BANK0 ] unsigned char 
  6752 ;; Return value:  Size  Location     Type
  6753 ;;                  4   14[BANK0 ] unsigned char 
  6754 ;; Registers used:
  6755 ;;		wreg, status,2, status,0
  6756 ;; Tracked objects:
  6757 ;;		On entry : 0/0
  6758 ;;		On exit  : 0/0
  6759 ;;		Unchanged: 0/0
  6760 ;; Data sizes:     COMRAM   BANK0   BANK1   BANK2   BANK3   BANK4   BANK5   BANK6   BANK7
  6761 ;;      Params:         0       8       0       0       0       0       0       0       0
  6762 ;;      Locals:         0      13       0       0       0       0       0       0       0
  6763 ;;      Temps:          0       4       0       0       0       0       0       0       0
  6764 ;;      Totals:         0      25       0       0       0       0       0       0       0
  6765 ;;Total ram usage:       25 bytes
  6766 ;; Hardware stack levels used:    1
  6767 ;; Hardware stack levels required when called:    5
  6768 ;; This function calls:
  6769 ;;		Nothing
  6770 ;; This function is called by:
  6771 ;;		_Motor_Conversion
  6772 ;;		_powf
  6773 ;; This function uses a non-reentrant model
  6774 ;;
  6775                           
  6776                           	psect	text35
  6777  000D1A                     __ptext35:
  6778                           	opt callstack 0
  6779  000D1A                     ___fldiv:
  6780                           	opt callstack 22
  6781  000D1A  0100               	movlb	0	; () banked
  6782  000D1C  5171               	movf	(___fldiv@b+3)& (0+255),w,b
  6783  000D1E  0B80               	andlw	128
  6784  000D20  6F7E               	movwf	___fldiv@sign& (0+255),b
  6785  000D22  5171               	movf	(___fldiv@b+3)& (0+255),w,b
  6786  000D24  2571               	addwf	(___fldiv@b+3)& (0+255),w,b
  6787  000D26  6F85               	movwf	___fldiv@bexp& (0+255),b
  6788  000D28                     
  6789                           ; BSR set to: 0
  6790  000D28  AF70               	btfss	(___fldiv@b+2)& (0+255),7,b
  6791  000D2A  EF99  F006         	goto	u2131
  6792  000D2E  EF9B  F006         	goto	u2130
  6793  000D32                     u2131:
  6794  000D32  EF9C  F006         	goto	l3773
  6795  000D36                     u2130:
  6796  000D36                     
  6797                           ; BSR set to: 0
  6798  000D36  8185               	bsf	___fldiv@bexp& (0+255),0,b
  6799  000D38                     l3773:
  6800                           
  6801                           ; BSR set to: 0
  6802  000D38  5185               	movf	___fldiv@bexp& (0+255),w,b
  6803  000D3A  B4D8               	btfsc	status,2,c
  6804  000D3C  EFA2  F006         	goto	u2141
  6805  000D40  EFA4  F006         	goto	u2140
  6806  000D44                     u2141:
  6807  000D44  EFB9  F006         	goto	l3783
  6808  000D48                     u2140:
  6809  000D48                     
  6810                           ; BSR set to: 0
  6811  000D48  2985               	incf	___fldiv@bexp& (0+255),w,b
  6812  000D4A  A4D8               	btfss	status,2,c
  6813  000D4C  EFAA  F006         	goto	u2151
  6814  000D50  EFAC  F006         	goto	u2150
  6815  000D54                     u2151:
  6816  000D54  EFB4  F006         	goto	l3779
  6817  000D58                     u2150:
  6818  000D58                     
  6819                           ; BSR set to: 0
  6820  000D58  0E00               	movlw	0
  6821  000D5A  6F6E               	movwf	___fldiv@b& (0+255),b
  6822  000D5C  0E00               	movlw	0
  6823  000D5E  6F6F               	movwf	(___fldiv@b+1)& (0+255),b
  6824  000D60  0E00               	movlw	0
  6825  000D62  6F70               	movwf	(___fldiv@b+2)& (0+255),b
  6826  000D64  0E00               	movlw	0
  6827  000D66  6F71               	movwf	(___fldiv@b+3)& (0+255),b
  6828  000D68                     l3779:
  6829                           
  6830                           ; BSR set to: 0
  6831  000D68  8F70               	bsf	(___fldiv@b+2)& (0+255),7,b
  6832  000D6A                     
  6833                           ; BSR set to: 0
  6834  000D6A  0E00               	movlw	0
  6835  000D6C  6F71               	movwf	(___fldiv@b+3)& (0+255),b
  6836  000D6E  EFC1  F006         	goto	l3785
  6837  000D72                     l3783:
  6838                           
  6839                           ; BSR set to: 0
  6840  000D72  0E00               	movlw	0
  6841  000D74  6F6E               	movwf	___fldiv@b& (0+255),b
  6842  000D76  0E00               	movlw	0
  6843  000D78  6F6F               	movwf	(___fldiv@b+1)& (0+255),b
  6844  000D7A  0E00               	movlw	0
  6845  000D7C  6F70               	movwf	(___fldiv@b+2)& (0+255),b
  6846  000D7E  0E00               	movlw	0
  6847  000D80  6F71               	movwf	(___fldiv@b+3)& (0+255),b
  6848  000D82                     l3785:
  6849                           
  6850                           ; BSR set to: 0
  6851  000D82  5175               	movf	(___fldiv@a+3)& (0+255),w,b
  6852  000D84  0B80               	andlw	128
  6853  000D86  1B7E               	xorwf	___fldiv@sign& (0+255),f,b
  6854  000D88                     
  6855                           ; BSR set to: 0
  6856  000D88  5175               	movf	(___fldiv@a+3)& (0+255),w,b
  6857  000D8A  2575               	addwf	(___fldiv@a+3)& (0+255),w,b
  6858  000D8C  6F86               	movwf	___fldiv@aexp& (0+255),b
  6859  000D8E                     
  6860                           ; BSR set to: 0
  6861  000D8E  AF74               	btfss	(___fldiv@a+2)& (0+255),7,b
  6862  000D90  EFCC  F006         	goto	u2161
  6863  000D94  EFCE  F006         	goto	u2160
  6864  000D98                     u2161:
  6865  000D98  EFCF  F006         	goto	l3793
  6866  000D9C                     u2160:
  6867  000D9C                     
  6868                           ; BSR set to: 0
  6869  000D9C  8186               	bsf	___fldiv@aexp& (0+255),0,b
  6870  000D9E                     l3793:
  6871                           
  6872                           ; BSR set to: 0
  6873  000D9E  5186               	movf	___fldiv@aexp& (0+255),w,b
  6874  000DA0  B4D8               	btfsc	status,2,c
  6875  000DA2  EFD5  F006         	goto	u2171
  6876  000DA6  EFD7  F006         	goto	u2170
  6877  000DAA                     u2171:
  6878  000DAA  EFEC  F006         	goto	l3803
  6879  000DAE                     u2170:
  6880  000DAE                     
  6881                           ; BSR set to: 0
  6882  000DAE  2986               	incf	___fldiv@aexp& (0+255),w,b
  6883  000DB0  A4D8               	btfss	status,2,c
  6884  000DB2  EFDD  F006         	goto	u2181
  6885  000DB6  EFDF  F006         	goto	u2180
  6886  000DBA                     u2181:
  6887  000DBA  EFE7  F006         	goto	l3799
  6888  000DBE                     u2180:
  6889  000DBE                     
  6890                           ; BSR set to: 0
  6891  000DBE  0E00               	movlw	0
  6892  000DC0  6F72               	movwf	___fldiv@a& (0+255),b
  6893  000DC2  0E00               	movlw	0
  6894  000DC4  6F73               	movwf	(___fldiv@a+1)& (0+255),b
  6895  000DC6  0E00               	movlw	0
  6896  000DC8  6F74               	movwf	(___fldiv@a+2)& (0+255),b
  6897  000DCA  0E00               	movlw	0
  6898  000DCC  6F75               	movwf	(___fldiv@a+3)& (0+255),b
  6899  000DCE                     l3799:
  6900                           
  6901                           ; BSR set to: 0
  6902  000DCE  8F74               	bsf	(___fldiv@a+2)& (0+255),7,b
  6903  000DD0                     
  6904                           ; BSR set to: 0
  6905  000DD0  0E00               	movlw	0
  6906  000DD2  6F75               	movwf	(___fldiv@a+3)& (0+255),b
  6907  000DD4  EFF4  F006         	goto	l3805
  6908  000DD8                     l3803:
  6909                           
  6910                           ; BSR set to: 0
  6911  000DD8  0E00               	movlw	0
  6912  000DDA  6F72               	movwf	___fldiv@a& (0+255),b
  6913  000DDC  0E00               	movlw	0
  6914  000DDE  6F73               	movwf	(___fldiv@a+1)& (0+255),b
  6915  000DE0  0E00               	movlw	0
  6916  000DE2  6F74               	movwf	(___fldiv@a+2)& (0+255),b
  6917  000DE4  0E00               	movlw	0
  6918  000DE6  6F75               	movwf	(___fldiv@a+3)& (0+255),b
  6919  000DE8                     l3805:
  6920                           
  6921                           ; BSR set to: 0
  6922  000DE8  5172               	movf	___fldiv@a& (0+255),w,b
  6923  000DEA  1173               	iorwf	(___fldiv@a+1)& (0+255),w,b
  6924  000DEC  1174               	iorwf	(___fldiv@a+2)& (0+255),w,b
  6925  000DEE  1175               	iorwf	(___fldiv@a+3)& (0+255),w,b
  6926  000DF0  A4D8               	btfss	status,2,c
  6927  000DF2  EFFD  F006         	goto	u2191
  6928  000DF6  EFFF  F006         	goto	u2190
  6929  000DFA                     u2191:
  6930  000DFA  EF17  F007         	goto	l3817
  6931  000DFE                     u2190:
  6932  000DFE                     
  6933                           ; BSR set to: 0
  6934  000DFE  0E00               	movlw	0
  6935  000E00  6F6E               	movwf	___fldiv@b& (0+255),b
  6936  000E02  0E00               	movlw	0
  6937  000E04  6F6F               	movwf	(___fldiv@b+1)& (0+255),b
  6938  000E06  0E00               	movlw	0
  6939  000E08  6F70               	movwf	(___fldiv@b+2)& (0+255),b
  6940  000E0A  0E00               	movlw	0
  6941  000E0C  6F71               	movwf	(___fldiv@b+3)& (0+255),b
  6942  000E0E                     
  6943                           ; BSR set to: 0
  6944  000E0E  0E80               	movlw	128
  6945  000E10  1370               	iorwf	(___fldiv@b+2)& (0+255),f,b
  6946  000E12  0E7F               	movlw	127
  6947  000E14  1371               	iorwf	(___fldiv@b+3)& (0+255),f,b
  6948  000E16                     l3811:
  6949                           
  6950                           ; BSR set to: 0
  6951  000E16  517E               	movf	___fldiv@sign& (0+255),w,b
  6952  000E18  1371               	iorwf	(___fldiv@b+3)& (0+255),f,b
  6953  000E1A                     
  6954                           ; BSR set to: 0
  6955  000E1A  C06E  F06E         	movff	___fldiv@b,?___fldiv
  6956  000E1E  C06F  F06F         	movff	___fldiv@b+1,?___fldiv+1
  6957  000E22  C070  F070         	movff	___fldiv@b+2,?___fldiv+2
  6958  000E26  C071  F071         	movff	___fldiv@b+3,?___fldiv+3
  6959  000E2A  EF5A  F008         	goto	l1510
  6960  000E2E                     l3817:
  6961                           
  6962                           ; BSR set to: 0
  6963  000E2E  5185               	movf	___fldiv@bexp& (0+255),w,b
  6964  000E30  A4D8               	btfss	status,2,c
  6965  000E32  EF1D  F007         	goto	u2201
  6966  000E36  EF1F  F007         	goto	u2200
  6967  000E3A                     u2201:
  6968  000E3A  EF29  F007         	goto	l3825
  6969  000E3E                     u2200:
  6970  000E3E                     
  6971                           ; BSR set to: 0
  6972  000E3E  0E00               	movlw	0
  6973  000E40  6F6E               	movwf	?___fldiv& (0+255),b
  6974  000E42  0E00               	movlw	0
  6975  000E44  6F6F               	movwf	(?___fldiv+1)& (0+255),b
  6976  000E46  0E00               	movlw	0
  6977  000E48  6F70               	movwf	(?___fldiv+2)& (0+255),b
  6978  000E4A  0E00               	movlw	0
  6979  000E4C  6F71               	movwf	(?___fldiv+3)& (0+255),b
  6980  000E4E  EF5A  F008         	goto	l1510
  6981  000E52                     l3825:
  6982                           
  6983                           ; BSR set to: 0
  6984  000E52  5186               	movf	___fldiv@aexp& (0+255),w,b
  6985  000E54  C085  F076         	movff	___fldiv@bexp,??___fldiv
  6986  000E58  6B77               	clrf	(??___fldiv+1)& (0+255),b
  6987  000E5A  5F76               	subwf	??___fldiv& (0+255),f,b
  6988  000E5C  0E00               	movlw	0
  6989  000E5E  5B77               	subwfb	(??___fldiv+1)& (0+255),f,b
  6990  000E60  0E7F               	movlw	127
  6991  000E62  2576               	addwf	??___fldiv& (0+255),w,b
  6992  000E64  6F7F               	movwf	___fldiv@new_exp& (0+255),b
  6993  000E66  0E00               	movlw	0
  6994  000E68  2177               	addwfc	(??___fldiv+1)& (0+255),w,b
  6995  000E6A  6F80               	movwf	(___fldiv@new_exp+1)& (0+255),b
  6996  000E6C                     
  6997                           ; BSR set to: 0
  6998  000E6C  C06E  F07A         	movff	___fldiv@b,___fldiv@rem
  6999  000E70  C06F  F07B         	movff	___fldiv@b+1,___fldiv@rem+1
  7000  000E74  C070  F07C         	movff	___fldiv@b+2,___fldiv@rem+2
  7001  000E78  C071  F07D         	movff	___fldiv@b+3,___fldiv@rem+3
  7002  000E7C                     
  7003                           ; BSR set to: 0
  7004  000E7C  0E00               	movlw	0
  7005  000E7E  6F6E               	movwf	___fldiv@b& (0+255),b
  7006  000E80  0E00               	movlw	0
  7007  000E82  6F6F               	movwf	(___fldiv@b+1)& (0+255),b
  7008  000E84  0E00               	movlw	0
  7009  000E86  6F70               	movwf	(___fldiv@b+2)& (0+255),b
  7010  000E88  0E00               	movlw	0
  7011  000E8A  6F71               	movwf	(___fldiv@b+3)& (0+255),b
  7012  000E8C                     
  7013                           ; BSR set to: 0
  7014  000E8C  0E00               	movlw	0
  7015  000E8E  6F81               	movwf	___fldiv@grs& (0+255),b
  7016  000E90  0E00               	movlw	0
  7017  000E92  6F82               	movwf	(___fldiv@grs+1)& (0+255),b
  7018  000E94  0E00               	movlw	0
  7019  000E96  6F83               	movwf	(___fldiv@grs+2)& (0+255),b
  7020  000E98  0E00               	movlw	0
  7021  000E9A  6F84               	movwf	(___fldiv@grs+3)& (0+255),b
  7022  000E9C                     
  7023                           ; BSR set to: 0
  7024  000E9C  0E00               	movlw	0
  7025  000E9E  6F86               	movwf	___fldiv@aexp& (0+255),b
  7026  000EA0  EF8A  F007         	goto	l1512
  7027  000EA4                     l3835:
  7028                           
  7029                           ; BSR set to: 0
  7030  000EA4  5186               	movf	___fldiv@aexp& (0+255),w,b
  7031  000EA6  B4D8               	btfsc	status,2,c
  7032  000EA8  EF58  F007         	goto	u2211
  7033  000EAC  EF5A  F007         	goto	u2210
  7034  000EB0                     u2211:
  7035  000EB0  EF71  F007         	goto	l3843
  7036  000EB4                     u2210:
  7037  000EB4                     
  7038                           ; BSR set to: 0
  7039  000EB4  90D8               	bcf	status,0,c
  7040  000EB6  377A               	rlcf	___fldiv@rem& (0+255),f,b
  7041  000EB8  377B               	rlcf	(___fldiv@rem+1)& (0+255),f,b
  7042  000EBA  377C               	rlcf	(___fldiv@rem+2)& (0+255),f,b
  7043  000EBC  377D               	rlcf	(___fldiv@rem+3)& (0+255),f,b
  7044  000EBE  90D8               	bcf	status,0,c
  7045  000EC0  376E               	rlcf	___fldiv@b& (0+255),f,b
  7046  000EC2  376F               	rlcf	(___fldiv@b+1)& (0+255),f,b
  7047  000EC4  3770               	rlcf	(___fldiv@b+2)& (0+255),f,b
  7048  000EC6  3771               	rlcf	(___fldiv@b+3)& (0+255),f,b
  7049  000EC8                     
  7050                           ; BSR set to: 0
  7051  000EC8  AF84               	btfss	(___fldiv@grs+3)& (0+255),7,b
  7052  000ECA  EF69  F007         	goto	u2221
  7053  000ECE  EF6B  F007         	goto	u2220
  7054  000ED2                     u2221:
  7055  000ED2  EF6C  F007         	goto	l1515
  7056  000ED6                     u2220:
  7057  000ED6                     
  7058                           ; BSR set to: 0
  7059  000ED6  816E               	bsf	___fldiv@b& (0+255),0,b
  7060  000ED8                     l1515:
  7061                           
  7062                           ; BSR set to: 0
  7063  000ED8  90D8               	bcf	status,0,c
  7064  000EDA  3781               	rlcf	___fldiv@grs& (0+255),f,b
  7065  000EDC  3782               	rlcf	(___fldiv@grs+1)& (0+255),f,b
  7066  000EDE  3783               	rlcf	(___fldiv@grs+2)& (0+255),f,b
  7067  000EE0  3784               	rlcf	(___fldiv@grs+3)& (0+255),f,b
  7068  000EE2                     l3843:
  7069                           
  7070                           ; BSR set to: 0
  7071  000EE2  5172               	movf	___fldiv@a& (0+255),w,b
  7072  000EE4  5D7A               	subwf	___fldiv@rem& (0+255),w,b
  7073  000EE6  5173               	movf	(___fldiv@a+1)& (0+255),w,b
  7074  000EE8  597B               	subwfb	(___fldiv@rem+1)& (0+255),w,b
  7075  000EEA  5174               	movf	(___fldiv@a+2)& (0+255),w,b
  7076  000EEC  597C               	subwfb	(___fldiv@rem+2)& (0+255),w,b
  7077  000EEE  5175               	movf	(___fldiv@a+3)& (0+255),w,b
  7078  000EF0  597D               	subwfb	(___fldiv@rem+3)& (0+255),w,b
  7079  000EF2  A0D8               	btfss	status,0,c
  7080  000EF4  EF7E  F007         	goto	u2231
  7081  000EF8  EF80  F007         	goto	u2230
  7082  000EFC                     u2231:
  7083  000EFC  EF89  F007         	goto	l3849
  7084  000F00                     u2230:
  7085  000F00                     
  7086                           ; BSR set to: 0
  7087  000F00  8D84               	bsf	(___fldiv@grs+3)& (0+255),6,b
  7088  000F02                     
  7089                           ; BSR set to: 0
  7090  000F02  5172               	movf	___fldiv@a& (0+255),w,b
  7091  000F04  5F7A               	subwf	___fldiv@rem& (0+255),f,b
  7092  000F06  5173               	movf	(___fldiv@a+1)& (0+255),w,b
  7093  000F08  5B7B               	subwfb	(___fldiv@rem+1)& (0+255),f,b
  7094  000F0A  5174               	movf	(___fldiv@a+2)& (0+255),w,b
  7095  000F0C  5B7C               	subwfb	(___fldiv@rem+2)& (0+255),f,b
  7096  000F0E  5175               	movf	(___fldiv@a+3)& (0+255),w,b
  7097  000F10  5B7D               	subwfb	(___fldiv@rem+3)& (0+255),f,b
  7098  000F12                     l3849:
  7099                           
  7100                           ; BSR set to: 0
  7101  000F12  2B86               	incf	___fldiv@aexp& (0+255),f,b
  7102  000F14                     l1512:
  7103                           
  7104                           ; BSR set to: 0
  7105  000F14  0E19               	movlw	25
  7106  000F16  6586               	cpfsgt	___fldiv@aexp& (0+255),b
  7107  000F18  EF90  F007         	goto	u2241
  7108  000F1C  EF92  F007         	goto	u2240
  7109  000F20                     u2241:
  7110  000F20  EF52  F007         	goto	l3835
  7111  000F24                     u2240:
  7112  000F24                     
  7113                           ; BSR set to: 0
  7114  000F24  517A               	movf	___fldiv@rem& (0+255),w,b
  7115  000F26  117B               	iorwf	(___fldiv@rem+1)& (0+255),w,b
  7116  000F28  117C               	iorwf	(___fldiv@rem+2)& (0+255),w,b
  7117  000F2A  117D               	iorwf	(___fldiv@rem+3)& (0+255),w,b
  7118  000F2C  B4D8               	btfsc	status,2,c
  7119  000F2E  EF9B  F007         	goto	u2251
  7120  000F32  EF9D  F007         	goto	u2250
  7121  000F36                     u2251:
  7122  000F36  EFB5  F007         	goto	l3861
  7123  000F3A                     u2250:
  7124  000F3A                     
  7125                           ; BSR set to: 0
  7126  000F3A  8181               	bsf	___fldiv@grs& (0+255),0,b
  7127  000F3C  EFB5  F007         	goto	l3861
  7128  000F40                     l3855:
  7129                           
  7130                           ; BSR set to: 0
  7131  000F40  90D8               	bcf	status,0,c
  7132  000F42  376E               	rlcf	___fldiv@b& (0+255),f,b
  7133  000F44  376F               	rlcf	(___fldiv@b+1)& (0+255),f,b
  7134  000F46  3770               	rlcf	(___fldiv@b+2)& (0+255),f,b
  7135  000F48  3771               	rlcf	(___fldiv@b+3)& (0+255),f,b
  7136  000F4A                     
  7137                           ; BSR set to: 0
  7138  000F4A  AF84               	btfss	(___fldiv@grs+3)& (0+255),7,b
  7139  000F4C  EFAA  F007         	goto	u2261
  7140  000F50  EFAC  F007         	goto	u2260
  7141  000F54                     u2261:
  7142  000F54  EFAD  F007         	goto	l1521
  7143  000F58                     u2260:
  7144  000F58                     
  7145                           ; BSR set to: 0
  7146  000F58  816E               	bsf	___fldiv@b& (0+255),0,b
  7147  000F5A                     l1521:
  7148                           
  7149                           ; BSR set to: 0
  7150  000F5A  90D8               	bcf	status,0,c
  7151  000F5C  3781               	rlcf	___fldiv@grs& (0+255),f,b
  7152  000F5E  3782               	rlcf	(___fldiv@grs+1)& (0+255),f,b
  7153  000F60  3783               	rlcf	(___fldiv@grs+2)& (0+255),f,b
  7154  000F62  3784               	rlcf	(___fldiv@grs+3)& (0+255),f,b
  7155  000F64  077F               	decf	___fldiv@new_exp& (0+255),f,b
  7156  000F66  A0D8               	btfss	status,0,c
  7157  000F68  0780               	decf	(___fldiv@new_exp+1)& (0+255),f,b
  7158  000F6A                     l3861:
  7159                           
  7160                           ; BSR set to: 0
  7161  000F6A  AF70               	btfss	(___fldiv@b+2)& (0+255),7,b
  7162  000F6C  EFBA  F007         	goto	u2271
  7163  000F70  EFBC  F007         	goto	u2270
  7164  000F74                     u2271:
  7165  000F74  EFA0  F007         	goto	l3855
  7166  000F78                     u2270:
  7167  000F78                     
  7168                           ; BSR set to: 0
  7169  000F78  0E00               	movlw	0
  7170  000F7A  6F86               	movwf	___fldiv@aexp& (0+255),b
  7171  000F7C                     
  7172                           ; BSR set to: 0
  7173  000F7C  AF84               	btfss	(___fldiv@grs+3)& (0+255),7,b
  7174  000F7E  EFC3  F007         	goto	u2281
  7175  000F82  EFC5  F007         	goto	u2280
  7176  000F86                     u2281:
  7177  000F86  EFE9  F007         	goto	l1523
  7178  000F8A                     u2280:
  7179  000F8A                     
  7180                           ; BSR set to: 0
  7181  000F8A  0EFF               	movlw	255
  7182  000F8C  1581               	andwf	___fldiv@grs& (0+255),w,b
  7183  000F8E  6F76               	movwf	??___fldiv& (0+255),b
  7184  000F90  0EFF               	movlw	255
  7185  000F92  1582               	andwf	(___fldiv@grs+1)& (0+255),w,b
  7186  000F94  6F77               	movwf	(??___fldiv+1)& (0+255),b
  7187  000F96  0EFF               	movlw	255
  7188  000F98  1583               	andwf	(___fldiv@grs+2)& (0+255),w,b
  7189  000F9A  6F78               	movwf	(??___fldiv+2)& (0+255),b
  7190  000F9C  0E7F               	movlw	127
  7191  000F9E  1584               	andwf	(___fldiv@grs+3)& (0+255),w,b
  7192  000FA0  6F79               	movwf	(??___fldiv+3)& (0+255),b
  7193  000FA2  5176               	movf	??___fldiv& (0+255),w,b
  7194  000FA4  1177               	iorwf	(??___fldiv+1)& (0+255),w,b
  7195  000FA6  1178               	iorwf	(??___fldiv+2)& (0+255),w,b
  7196  000FA8  1179               	iorwf	(??___fldiv+3)& (0+255),w,b
  7197  000FAA  B4D8               	btfsc	status,2,c
  7198  000FAC  EFDA  F007         	goto	u2291
  7199  000FB0  EFDC  F007         	goto	u2290
  7200  000FB4                     u2291:
  7201  000FB4  EFE0  F007         	goto	l1524
  7202  000FB8                     u2290:
  7203  000FB8                     l3869:
  7204                           
  7205                           ; BSR set to: 0
  7206  000FB8  0E01               	movlw	1
  7207  000FBA  6F86               	movwf	___fldiv@aexp& (0+255),b
  7208  000FBC  EFE9  F007         	goto	l1523
  7209  000FC0                     l1524:
  7210                           
  7211                           ; BSR set to: 0
  7212  000FC0  A16E               	btfss	___fldiv@b& (0+255),0,b
  7213  000FC2  EFE5  F007         	goto	u2301
  7214  000FC6  EFE7  F007         	goto	u2300
  7215  000FCA                     u2301:
  7216  000FCA  EFE9  F007         	goto	l1523
  7217  000FCE                     u2300:
  7218  000FCE  EFDC  F007         	goto	l3869
  7219  000FD2                     l1523:
  7220                           
  7221                           ; BSR set to: 0
  7222  000FD2  5186               	movf	___fldiv@aexp& (0+255),w,b
  7223  000FD4  B4D8               	btfsc	status,2,c
  7224  000FD6  EFEF  F007         	goto	u2311
  7225  000FDA  EFF1  F007         	goto	u2310
  7226  000FDE                     u2311:
  7227  000FDE  EF15  F008         	goto	l3881
  7228  000FE2                     u2310:
  7229  000FE2                     
  7230                           ; BSR set to: 0
  7231  000FE2  0E01               	movlw	1
  7232  000FE4  276E               	addwf	___fldiv@b& (0+255),f,b
  7233  000FE6  0E00               	movlw	0
  7234  000FE8  236F               	addwfc	(___fldiv@b+1)& (0+255),f,b
  7235  000FEA  2370               	addwfc	(___fldiv@b+2)& (0+255),f,b
  7236  000FEC  2371               	addwfc	(___fldiv@b+3)& (0+255),f,b
  7237  000FEE                     
  7238                           ; BSR set to: 0
  7239  000FEE  A171               	btfss	(___fldiv@b+3)& (0+255),0,b
  7240  000FF0  EFFC  F007         	goto	u2321
  7241  000FF4  EFFE  F007         	goto	u2320
  7242  000FF8                     u2321:
  7243  000FF8  EF15  F008         	goto	l3881
  7244  000FFC                     u2320:
  7245  000FFC                     
  7246                           ; BSR set to: 0
  7247  000FFC  C06E  F076         	movff	___fldiv@b,??___fldiv
  7248  001000  C06F  F077         	movff	___fldiv@b+1,??___fldiv+1
  7249  001004  C070  F078         	movff	___fldiv@b+2,??___fldiv+2
  7250  001008  C071  F079         	movff	___fldiv@b+3,??___fldiv+3
  7251  00100C  3579               	rlcf	(??___fldiv+3)& (0+255),w,b
  7252  00100E  3379               	rrcf	(??___fldiv+3)& (0+255),f,b
  7253  001010  3378               	rrcf	(??___fldiv+2)& (0+255),f,b
  7254  001012  3377               	rrcf	(??___fldiv+1)& (0+255),f,b
  7255  001014  3376               	rrcf	??___fldiv& (0+255),f,b
  7256  001016  C076  F06E         	movff	??___fldiv,___fldiv@b
  7257  00101A  C077  F06F         	movff	??___fldiv+1,___fldiv@b+1
  7258  00101E  C078  F070         	movff	??___fldiv+2,___fldiv@b+2
  7259  001022  C079  F071         	movff	??___fldiv+3,___fldiv@b+3
  7260  001026                     
  7261                           ; BSR set to: 0
  7262  001026  4B7F               	infsnz	___fldiv@new_exp& (0+255),f,b
  7263  001028  2B80               	incf	(___fldiv@new_exp+1)& (0+255),f,b
  7264  00102A                     l3881:
  7265                           
  7266                           ; BSR set to: 0
  7267  00102A  BF80               	btfsc	(___fldiv@new_exp+1)& (0+255),7,b
  7268  00102C  EF20  F008         	goto	u2331
  7269  001030  5180               	movf	(___fldiv@new_exp+1)& (0+255),w,b
  7270  001032  E108               	bnz	u2330
  7271  001034  297F               	incf	___fldiv@new_exp& (0+255),w,b
  7272  001036  A0D8               	btfss	status,0,c
  7273  001038  EF20  F008         	goto	u2331
  7274  00103C  EF22  F008         	goto	u2330
  7275  001040                     u2331:
  7276  001040  EF2D  F008         	goto	l3885
  7277  001044                     u2330:
  7278  001044                     
  7279                           ; BSR set to: 0
  7280  001044  0E00               	movlw	0
  7281  001046  6F80               	movwf	(___fldiv@new_exp+1)& (0+255),b
  7282  001048  697F               	setf	___fldiv@new_exp& (0+255),b
  7283  00104A  0E00               	movlw	0
  7284  00104C  6F6E               	movwf	___fldiv@b& (0+255),b
  7285  00104E  0E00               	movlw	0
  7286  001050  6F6F               	movwf	(___fldiv@b+1)& (0+255),b
  7287  001052  0E00               	movlw	0
  7288  001054  6F70               	movwf	(___fldiv@b+2)& (0+255),b
  7289  001056  0E00               	movlw	0
  7290  001058  6F71               	movwf	(___fldiv@b+3)& (0+255),b
  7291  00105A                     l3885:
  7292                           
  7293                           ; BSR set to: 0
  7294  00105A  BF80               	btfsc	(___fldiv@new_exp+1)& (0+255),7,b
  7295  00105C  EF3A  F008         	goto	u2340
  7296  001060  5180               	movf	(___fldiv@new_exp+1)& (0+255),w,b
  7297  001062  E106               	bnz	u2341
  7298  001064  057F               	decf	___fldiv@new_exp& (0+255),w,b
  7299  001066  B0D8               	btfsc	status,0,c
  7300  001068  EF38  F008         	goto	u2341
  7301  00106C  EF3A  F008         	goto	u2340
  7302  001070                     u2341:
  7303  001070  EF48  F008         	goto	l3889
  7304  001074                     u2340:
  7305  001074                     
  7306                           ; BSR set to: 0
  7307  001074  0E00               	movlw	0
  7308  001076  6F80               	movwf	(___fldiv@new_exp+1)& (0+255),b
  7309  001078  0E00               	movlw	0
  7310  00107A  6F7F               	movwf	___fldiv@new_exp& (0+255),b
  7311  00107C  0E00               	movlw	0
  7312  00107E  6F6E               	movwf	___fldiv@b& (0+255),b
  7313  001080  0E00               	movlw	0
  7314  001082  6F6F               	movwf	(___fldiv@b+1)& (0+255),b
  7315  001084  0E00               	movlw	0
  7316  001086  6F70               	movwf	(___fldiv@b+2)& (0+255),b
  7317  001088  0E00               	movlw	0
  7318  00108A  6F71               	movwf	(___fldiv@b+3)& (0+255),b
  7319  00108C  0E00               	movlw	0
  7320  00108E  6F7E               	movwf	___fldiv@sign& (0+255),b
  7321  001090                     l3889:
  7322                           
  7323                           ; BSR set to: 0
  7324  001090  C07F  F085         	movff	___fldiv@new_exp,___fldiv@bexp
  7325  001094                     
  7326                           ; BSR set to: 0
  7327  001094  A185               	btfss	___fldiv@bexp& (0+255),0,b
  7328  001096  EF4F  F008         	goto	u2351
  7329  00109A  EF51  F008         	goto	u2350
  7330  00109E                     u2351:
  7331  00109E  EF54  F008         	goto	l3895
  7332  0010A2                     u2350:
  7333  0010A2                     
  7334                           ; BSR set to: 0
  7335  0010A2  8F70               	bsf	(___fldiv@b+2)& (0+255),7,b
  7336  0010A4  EF55  F008         	goto	l3897
  7337  0010A8                     l3895:
  7338                           
  7339                           ; BSR set to: 0
  7340  0010A8  9F70               	bcf	(___fldiv@b+2)& (0+255),7,b
  7341  0010AA                     l3897:
  7342                           
  7343                           ; BSR set to: 0
  7344  0010AA  90D8               	bcf	status,0,c
  7345  0010AC  3185               	rrcf	___fldiv@bexp& (0+255),w,b
  7346  0010AE  6F71               	movwf	(___fldiv@b+3)& (0+255),b
  7347  0010B0  EF0B  F007         	goto	l3811
  7348  0010B4                     l1510:
  7349                           
  7350                           ; BSR set to: 0
  7351  0010B4  0012               	return		;funcret
  7352  0010B6                     __end_of___fldiv:
  7353                           	opt callstack 0
  7354                           
  7355 ;; *************** function _Motor_Calcular_PasosY *****************
  7356 ;; Defined at:
  7357 ;;		line 50 in file "Motor.c"
  7358 ;; Parameters:    Size  Location     Type
  7359 ;;  coordenada_a    2    0[BANK0 ] int 
  7360 ;; Auto vars:     Size  Location     Type
  7361 ;;		None
  7362 ;; Return value:  Size  Location     Type
  7363 ;;                  1    wreg      void 
  7364 ;; Registers used:
  7365 ;;		wreg, status,2, status,0
  7366 ;; Tracked objects:
  7367 ;;		On entry : 0/0
  7368 ;;		On exit  : 0/0
  7369 ;;		Unchanged: 0/0
  7370 ;; Data sizes:     COMRAM   BANK0   BANK1   BANK2   BANK3   BANK4   BANK5   BANK6   BANK7
  7371 ;;      Params:         0       2       0       0       0       0       0       0       0
  7372 ;;      Locals:         0       0       0       0       0       0       0       0       0
  7373 ;;      Temps:          0       1       0       0       0       0       0       0       0
  7374 ;;      Totals:         0       3       0       0       0       0       0       0       0
  7375 ;;Total ram usage:        3 bytes
  7376 ;; Hardware stack levels used:    1
  7377 ;; Hardware stack levels required when called:    5
  7378 ;; This function calls:
  7379 ;;		Nothing
  7380 ;; This function is called by:
  7381 ;;		_Motor_Movimiento
  7382 ;; This function uses a non-reentrant model
  7383 ;;
  7384                           
  7385                           	psect	text36
  7386  0029F0                     __ptext36:
  7387                           	opt callstack 0
  7388  0029F0                     _Motor_Calcular_PasosY:
  7389                           	opt callstack 23
  7390  0029F0                     
  7391                           ;Motor.c: 51:     if (coordenada_actualY < coordenada_anteriorY) {
  7392  0029F0  0100               	movlb	0	; () banked
  7393  0029F2  51AA               	movf	_coordenada_anteriorY& (0+255),w,b
  7394  0029F4  5D60               	subwf	Motor_Calcular_PasosY@coordenada_actualY& (0+255),w,b
  7395  0029F6  5161               	movf	(Motor_Calcular_PasosY@coordenada_actualY+1)& (0+255),w,b
  7396  0029F8  0A80               	xorlw	128
  7397  0029FA  6F62               	movwf	??_Motor_Calcular_PasosY& (0+255),b
  7398  0029FC  51AB               	movf	(_coordenada_anteriorY+1)& (0+255),w,b
  7399  0029FE  0A80               	xorlw	128
  7400  002A00  5962               	subwfb	??_Motor_Calcular_PasosY& (0+255),w,b
  7401  002A02  B0D8               	btfsc	status,0,c
  7402  002A04  EF06  F015         	goto	u3271
  7403  002A08  EF08  F015         	goto	u3270
  7404  002A0C                     u3271:
  7405  002A0C  EF11  F015         	goto	l4459
  7406  002A10                     u3270:
  7407  002A10                     
  7408                           ; BSR set to: 0
  7409                           ;Motor.c: 53:         PORTDbits.RD3 = 1;
  7410  002A10  8683               	bsf	131,3,c	;volatile
  7411  002A12                     
  7412                           ; BSR set to: 0
  7413                           ;Motor.c: 54:         DeltaY = coordenada_anteriorY - coordenada_actualY;
  7414  002A12  5160               	movf	Motor_Calcular_PasosY@coordenada_actualY& (0+255),w,b
  7415  002A14  5DAA               	subwf	_coordenada_anteriorY& (0+255),w,b
  7416  002A16  6FAE               	movwf	_DeltaY& (0+255),b
  7417  002A18  5161               	movf	(Motor_Calcular_PasosY@coordenada_actualY+1)& (0+255),w,b
  7418  002A1A  59AB               	subwfb	(_coordenada_anteriorY+1)& (0+255),w,b
  7419  002A1C  6FAF               	movwf	(_DeltaY+1)& (0+255),b
  7420                           
  7421                           ;Motor.c: 55:     } else if (coordenada_actualY > coordenada_anteriorY) {
  7422  002A1E  EF39  F015         	goto	l593
  7423  002A22                     l4459:
  7424                           
  7425                           ; BSR set to: 0
  7426  002A22  5160               	movf	Motor_Calcular_PasosY@coordenada_actualY& (0+255),w,b
  7427  002A24  5DAA               	subwf	_coordenada_anteriorY& (0+255),w,b
  7428  002A26  51AB               	movf	(_coordenada_anteriorY+1)& (0+255),w,b
  7429  002A28  0A80               	xorlw	128
  7430  002A2A  6F62               	movwf	??_Motor_Calcular_PasosY& (0+255),b
  7431  002A2C  5161               	movf	(Motor_Calcular_PasosY@coordenada_actualY+1)& (0+255),w,b
  7432  002A2E  0A80               	xorlw	128
  7433  002A30  5962               	subwfb	??_Motor_Calcular_PasosY& (0+255),w,b
  7434  002A32  B0D8               	btfsc	status,0,c
  7435  002A34  EF1E  F015         	goto	u3281
  7436  002A38  EF20  F015         	goto	u3280
  7437  002A3C                     u3281:
  7438  002A3C  EF29  F015         	goto	l4465
  7439  002A40                     u3280:
  7440  002A40                     
  7441                           ; BSR set to: 0
  7442                           ;Motor.c: 57:         PORTDbits.RD3 = 0;
  7443  002A40  9683               	bcf	131,3,c	;volatile
  7444  002A42                     
  7445                           ; BSR set to: 0
  7446                           ;Motor.c: 58:         DeltaY = coordenada_actualY - coordenada_anteriorY;
  7447  002A42  51AA               	movf	_coordenada_anteriorY& (0+255),w,b
  7448  002A44  5D60               	subwf	Motor_Calcular_PasosY@coordenada_actualY& (0+255),w,b
  7449  002A46  6FAE               	movwf	_DeltaY& (0+255),b
  7450  002A48  51AB               	movf	(_coordenada_anteriorY+1)& (0+255),w,b
  7451  002A4A  5961               	subwfb	(Motor_Calcular_PasosY@coordenada_actualY+1)& (0+255),w,b
  7452  002A4C  6FAF               	movwf	(_DeltaY+1)& (0+255),b
  7453                           
  7454                           ;Motor.c: 59:     } else if (coordenada_actualY == coordenada_anteriorY) {
  7455  002A4E  EF39  F015         	goto	l593
  7456  002A52                     l4465:
  7457                           
  7458                           ; BSR set to: 0
  7459  002A52  51AA               	movf	_coordenada_anteriorY& (0+255),w,b
  7460  002A54  1960               	xorwf	Motor_Calcular_PasosY@coordenada_actualY& (0+255),w,b
  7461  002A56  E107               	bnz	u3291
  7462  002A58  51AB               	movf	(_coordenada_anteriorY+1)& (0+255),w,b
  7463  002A5A  1961               	xorwf	(Motor_Calcular_PasosY@coordenada_actualY+1)& (0+255),w,b
  7464  002A5C  A4D8               	btfss	status,2,c
  7465  002A5E  EF33  F015         	goto	u3291
  7466  002A62  EF35  F015         	goto	u3290
  7467  002A66                     u3291:
  7468  002A66  EF39  F015         	goto	l593
  7469  002A6A                     u3290:
  7470  002A6A                     
  7471                           ; BSR set to: 0
  7472                           ;Motor.c: 60:         DeltaY=0;
  7473  002A6A  0E00               	movlw	0
  7474  002A6C  6FAF               	movwf	(_DeltaY+1)& (0+255),b
  7475  002A6E  0E00               	movlw	0
  7476  002A70  6FAE               	movwf	_DeltaY& (0+255),b
  7477  002A72                     l593:
  7478                           
  7479                           ; BSR set to: 0
  7480  002A72  0012               	return		;funcret
  7481  002A74                     __end_of_Motor_Calcular_PasosY:
  7482                           	opt callstack 0
  7483                           
  7484 ;; *************** function _Motor_Calcular_PasosX *****************
  7485 ;; Defined at:
  7486 ;;		line 36 in file "Motor.c"
  7487 ;; Parameters:    Size  Location     Type
  7488 ;;  coordenada_a    2    0[BANK0 ] int 
  7489 ;; Auto vars:     Size  Location     Type
  7490 ;;		None
  7491 ;; Return value:  Size  Location     Type
  7492 ;;                  1    wreg      void 
  7493 ;; Registers used:
  7494 ;;		wreg, status,2, status,0
  7495 ;; Tracked objects:
  7496 ;;		On entry : 0/0
  7497 ;;		On exit  : 0/0
  7498 ;;		Unchanged: 0/0
  7499 ;; Data sizes:     COMRAM   BANK0   BANK1   BANK2   BANK3   BANK4   BANK5   BANK6   BANK7
  7500 ;;      Params:         0       2       0       0       0       0       0       0       0
  7501 ;;      Locals:         0       0       0       0       0       0       0       0       0
  7502 ;;      Temps:          0       1       0       0       0       0       0       0       0
  7503 ;;      Totals:         0       3       0       0       0       0       0       0       0
  7504 ;;Total ram usage:        3 bytes
  7505 ;; Hardware stack levels used:    1
  7506 ;; Hardware stack levels required when called:    5
  7507 ;; This function calls:
  7508 ;;		Nothing
  7509 ;; This function is called by:
  7510 ;;		_Motor_Movimiento
  7511 ;; This function uses a non-reentrant model
  7512 ;;
  7513                           
  7514                           	psect	text37
  7515  002A74                     __ptext37:
  7516                           	opt callstack 0
  7517  002A74                     _Motor_Calcular_PasosX:
  7518                           	opt callstack 23
  7519  002A74                     
  7520                           ;Motor.c: 37:     if (coordenada_actualX < coordenada_anteriorX) {
  7521  002A74  0100               	movlb	0	; () banked
  7522  002A76  51AC               	movf	_coordenada_anteriorX& (0+255),w,b
  7523  002A78  5D60               	subwf	Motor_Calcular_PasosX@coordenada_actualX& (0+255),w,b
  7524  002A7A  5161               	movf	(Motor_Calcular_PasosX@coordenada_actualX+1)& (0+255),w,b
  7525  002A7C  0A80               	xorlw	128
  7526  002A7E  6F62               	movwf	??_Motor_Calcular_PasosX& (0+255),b
  7527  002A80  51AD               	movf	(_coordenada_anteriorX+1)& (0+255),w,b
  7528  002A82  0A80               	xorlw	128
  7529  002A84  5962               	subwfb	??_Motor_Calcular_PasosX& (0+255),w,b
  7530  002A86  B0D8               	btfsc	status,0,c
  7531  002A88  EF48  F015         	goto	u3241
  7532  002A8C  EF4A  F015         	goto	u3240
  7533  002A90                     u3241:
  7534  002A90  EF53  F015         	goto	l4443
  7535  002A94                     u3240:
  7536  002A94                     
  7537                           ; BSR set to: 0
  7538                           ;Motor.c: 39:         PORTDbits.RD1 = 1;
  7539  002A94  8283               	bsf	131,1,c	;volatile
  7540  002A96                     
  7541                           ; BSR set to: 0
  7542                           ;Motor.c: 40:         DeltaX = coordenada_anteriorX - coordenada_actualX;
  7543  002A96  5160               	movf	Motor_Calcular_PasosX@coordenada_actualX& (0+255),w,b
  7544  002A98  5DAC               	subwf	_coordenada_anteriorX& (0+255),w,b
  7545  002A9A  6FB0               	movwf	_DeltaX& (0+255),b
  7546  002A9C  5161               	movf	(Motor_Calcular_PasosX@coordenada_actualX+1)& (0+255),w,b
  7547  002A9E  59AD               	subwfb	(_coordenada_anteriorX+1)& (0+255),w,b
  7548  002AA0  6FB1               	movwf	(_DeltaX+1)& (0+255),b
  7549                           
  7550                           ;Motor.c: 41:     } else if (coordenada_actualX > coordenada_anteriorX) {
  7551  002AA2  EF7B  F015         	goto	l585
  7552  002AA6                     l4443:
  7553                           
  7554                           ; BSR set to: 0
  7555  002AA6  5160               	movf	Motor_Calcular_PasosX@coordenada_actualX& (0+255),w,b
  7556  002AA8  5DAC               	subwf	_coordenada_anteriorX& (0+255),w,b
  7557  002AAA  51AD               	movf	(_coordenada_anteriorX+1)& (0+255),w,b
  7558  002AAC  0A80               	xorlw	128
  7559  002AAE  6F62               	movwf	??_Motor_Calcular_PasosX& (0+255),b
  7560  002AB0  5161               	movf	(Motor_Calcular_PasosX@coordenada_actualX+1)& (0+255),w,b
  7561  002AB2  0A80               	xorlw	128
  7562  002AB4  5962               	subwfb	??_Motor_Calcular_PasosX& (0+255),w,b
  7563  002AB6  B0D8               	btfsc	status,0,c
  7564  002AB8  EF60  F015         	goto	u3251
  7565  002ABC  EF62  F015         	goto	u3250
  7566  002AC0                     u3251:
  7567  002AC0  EF6B  F015         	goto	l4449
  7568  002AC4                     u3250:
  7569  002AC4                     
  7570                           ; BSR set to: 0
  7571                           ;Motor.c: 43:         PORTDbits.RD1 = 0;
  7572  002AC4  9283               	bcf	131,1,c	;volatile
  7573  002AC6                     
  7574                           ; BSR set to: 0
  7575                           ;Motor.c: 44:         DeltaX = coordenada_actualX - coordenada_anteriorX;
  7576  002AC6  51AC               	movf	_coordenada_anteriorX& (0+255),w,b
  7577  002AC8  5D60               	subwf	Motor_Calcular_PasosX@coordenada_actualX& (0+255),w,b
  7578  002ACA  6FB0               	movwf	_DeltaX& (0+255),b
  7579  002ACC  51AD               	movf	(_coordenada_anteriorX+1)& (0+255),w,b
  7580  002ACE  5961               	subwfb	(Motor_Calcular_PasosX@coordenada_actualX+1)& (0+255),w,b
  7581  002AD0  6FB1               	movwf	(_DeltaX+1)& (0+255),b
  7582                           
  7583                           ;Motor.c: 45:     } else if (coordenada_actualX == coordenada_anteriorX) {
  7584  002AD2  EF7B  F015         	goto	l585
  7585  002AD6                     l4449:
  7586                           
  7587                           ; BSR set to: 0
  7588  002AD6  51AC               	movf	_coordenada_anteriorX& (0+255),w,b
  7589  002AD8  1960               	xorwf	Motor_Calcular_PasosX@coordenada_actualX& (0+255),w,b
  7590  002ADA  E107               	bnz	u3261
  7591  002ADC  51AD               	movf	(_coordenada_anteriorX+1)& (0+255),w,b
  7592  002ADE  1961               	xorwf	(Motor_Calcular_PasosX@coordenada_actualX+1)& (0+255),w,b
  7593  002AE0  A4D8               	btfss	status,2,c
  7594  002AE2  EF75  F015         	goto	u3261
  7595  002AE6  EF77  F015         	goto	u3260
  7596  002AEA                     u3261:
  7597  002AEA  EF7B  F015         	goto	l585
  7598  002AEE                     u3260:
  7599  002AEE                     
  7600                           ; BSR set to: 0
  7601                           ;Motor.c: 46:         DeltaX = 0;
  7602  002AEE  0E00               	movlw	0
  7603  002AF0  6FB1               	movwf	(_DeltaX+1)& (0+255),b
  7604  002AF2  0E00               	movlw	0
  7605  002AF4  6FB0               	movwf	_DeltaX& (0+255),b
  7606  002AF6                     l585:
  7607                           
  7608                           ; BSR set to: 0
  7609  002AF6  0012               	return		;funcret
  7610  002AF8                     __end_of_Motor_Calcular_PasosX:
  7611                           	opt callstack 0
  7612                           
  7613 ;; *************** function _Actuator_Touch *****************
  7614 ;; Defined at:
  7615 ;;		line 20 in file "Actuator.c"
  7616 ;; Parameters:    Size  Location     Type
  7617 ;;		None
  7618 ;; Auto vars:     Size  Location     Type
  7619 ;;		None
  7620 ;; Return value:  Size  Location     Type
  7621 ;;                  1    wreg      void 
  7622 ;; Registers used:
  7623 ;;		wreg, fsr0l, fsr0h, status,2, status,0, tblptrl, tblptrh, tblptru, cstack
  7624 ;; Tracked objects:
  7625 ;;		On entry : 0/0
  7626 ;;		On exit  : 0/0
  7627 ;;		Unchanged: 0/0
  7628 ;; Data sizes:     COMRAM   BANK0   BANK1   BANK2   BANK3   BANK4   BANK5   BANK6   BANK7
  7629 ;;      Params:         0       0       0       0       0       0       0       0       0
  7630 ;;      Locals:         0       0       0       0       0       0       0       0       0
  7631 ;;      Temps:          0       2       0       0       0       0       0       0       0
  7632 ;;      Totals:         0       2       0       0       0       0       0       0       0
  7633 ;;Total ram usage:        2 bytes
  7634 ;; Hardware stack levels used:    1
  7635 ;; Hardware stack levels required when called:    6
  7636 ;; This function calls:
  7637 ;;		_USART_TxS
  7638 ;; This function is called by:
  7639 ;;		_Serial_Oupcode
  7640 ;; This function uses a non-reentrant model
  7641 ;;
  7642                           
  7643                           	psect	text38
  7644  00303A                     __ptext38:
  7645                           	opt callstack 0
  7646  00303A                     _Actuator_Touch:
  7647                           	opt callstack 23
  7648  00303A  908B               	bcf	139,0,c	;volatile
  7649  00303C                     
  7650                           ;Actuator.c: 22:     _delay((unsigned long)((100)*(8000000/4000.0)));
  7651  00303C  0E02               	movlw	2
  7652  00303E  0100               	movlb	0	; () banked
  7653  003040  6F69               	movwf	(??_Actuator_Touch+1)& (0+255),b
  7654  003042  0E04               	movlw	4
  7655  003044  6F68               	movwf	??_Actuator_Touch& (0+255),b
  7656  003046  0EBA               	movlw	186
  7657  003048                     u5687:
  7658  003048  2EE8               	decfsz	wreg,f,c
  7659  00304A  D7FE               	bra	u5687
  7660  00304C  2F68               	decfsz	??_Actuator_Touch& (0+255),f,b
  7661  00304E  D7FC               	bra	u5687
  7662  003050  2F69               	decfsz	(??_Actuator_Touch+1)& (0+255),f,b
  7663  003052  D7FA               	bra	u5687
  7664  003054  F000               	nop	
  7665  003056  808B               	bsf	139,0,c	;volatile
  7666  003058                     
  7667                           ;Actuator.c: 24:     USART_TxS("C\n",sizeof("C\n")-1);
  7668  003058  0ED7               	movlw	low (STR_30+1)
  7669  00305A  0100               	movlb	0	; () banked
  7670  00305C  6F60               	movwf	USART_TxS@str& (0+255),b
  7671  00305E  0E08               	movlw	high (STR_30+1)
  7672  003060  6F61               	movwf	(USART_TxS@str+1)& (0+255),b
  7673  003062  0E00               	movlw	0
  7674  003064  6F63               	movwf	(USART_TxS@length+1)& (0+255),b
  7675  003066  0E02               	movlw	2
  7676  003068  6F62               	movwf	USART_TxS@length& (0+255),b
  7677  00306A  ECF1  F015         	call	_USART_TxS	;wreg free
  7678  00306E  0012               	return		;funcret
  7679  003070                     __end_of_Actuator_Touch:
  7680                           	opt callstack 0
  7681                           
  7682 ;; *************** function _Actuator_Retract *****************
  7683 ;; Defined at:
  7684 ;;		line 26 in file "Actuator.c"
  7685 ;; Parameters:    Size  Location     Type
  7686 ;;		None
  7687 ;; Auto vars:     Size  Location     Type
  7688 ;;		None
  7689 ;; Return value:  Size  Location     Type
  7690 ;;                  1    wreg      void 
  7691 ;; Registers used:
  7692 ;;		wreg, fsr0l, fsr0h, status,2, status,0, tblptrl, tblptrh, tblptru, cstack
  7693 ;; Tracked objects:
  7694 ;;		On entry : 0/0
  7695 ;;		On exit  : 0/0
  7696 ;;		Unchanged: 0/0
  7697 ;; Data sizes:     COMRAM   BANK0   BANK1   BANK2   BANK3   BANK4   BANK5   BANK6   BANK7
  7698 ;;      Params:         0       0       0       0       0       0       0       0       0
  7699 ;;      Locals:         0       0       0       0       0       0       0       0       0
  7700 ;;      Temps:          0       0       0       0       0       0       0       0       0
  7701 ;;      Totals:         0       0       0       0       0       0       0       0       0
  7702 ;;Total ram usage:        0 bytes
  7703 ;; Hardware stack levels used:    1
  7704 ;; Hardware stack levels required when called:    6
  7705 ;; This function calls:
  7706 ;;		_USART_TxS
  7707 ;; This function is called by:
  7708 ;;		_Serial_Oupcode
  7709 ;; This function uses a non-reentrant model
  7710 ;;
  7711                           
  7712                           	psect	text39
  7713  0032C6                     __ptext39:
  7714                           	opt callstack 0
  7715  0032C6                     _Actuator_Retract:
  7716                           	opt callstack 23
  7717  0032C6  808B               	bsf	139,0,c	;volatile
  7718  0032C8                     
  7719                           ;Actuator.c: 28:     USART_TxS("C\n",sizeof("C\n")-1);
  7720  0032C8  0ED7               	movlw	low (STR_30+1)
  7721  0032CA  0100               	movlb	0	; () banked
  7722  0032CC  6F60               	movwf	USART_TxS@str& (0+255),b
  7723  0032CE  0E08               	movlw	high (STR_30+1)
  7724  0032D0  6F61               	movwf	(USART_TxS@str+1)& (0+255),b
  7725  0032D2  0E00               	movlw	0
  7726  0032D4  6F63               	movwf	(USART_TxS@length+1)& (0+255),b
  7727  0032D6  0E02               	movlw	2
  7728  0032D8  6F62               	movwf	USART_TxS@length& (0+255),b
  7729  0032DA  ECF1  F015         	call	_USART_TxS	;wreg free
  7730  0032DE  0012               	return		;funcret
  7731  0032E0                     __end_of_Actuator_Retract:
  7732                           	opt callstack 0
  7733                           
  7734 ;; *************** function _Actuator_Hold *****************
  7735 ;; Defined at:
  7736 ;;		line 30 in file "Actuator.c"
  7737 ;; Parameters:    Size  Location     Type
  7738 ;;		None
  7739 ;; Auto vars:     Size  Location     Type
  7740 ;;		None
  7741 ;; Return value:  Size  Location     Type
  7742 ;;                  1    wreg      void 
  7743 ;; Registers used:
  7744 ;;		wreg, fsr0l, fsr0h, status,2, status,0, tblptrl, tblptrh, tblptru, cstack
  7745 ;; Tracked objects:
  7746 ;;		On entry : 0/0
  7747 ;;		On exit  : 0/0
  7748 ;;		Unchanged: 0/0
  7749 ;; Data sizes:     COMRAM   BANK0   BANK1   BANK2   BANK3   BANK4   BANK5   BANK6   BANK7
  7750 ;;      Params:         0       0       0       0       0       0       0       0       0
  7751 ;;      Locals:         0       0       0       0       0       0       0       0       0
  7752 ;;      Temps:          0       0       0       0       0       0       0       0       0
  7753 ;;      Totals:         0       0       0       0       0       0       0       0       0
  7754 ;;Total ram usage:        0 bytes
  7755 ;; Hardware stack levels used:    1
  7756 ;; Hardware stack levels required when called:    6
  7757 ;; This function calls:
  7758 ;;		_USART_TxS
  7759 ;; This function is called by:
  7760 ;;		_Serial_Oupcode
  7761 ;; This function uses a non-reentrant model
  7762 ;;
  7763                           
  7764                           	psect	text40
  7765  0032E0                     __ptext40:
  7766                           	opt callstack 0
  7767  0032E0                     _Actuator_Hold:
  7768                           	opt callstack 23
  7769  0032E0  908B               	bcf	139,0,c	;volatile
  7770  0032E2                     
  7771                           ;Actuator.c: 32:      USART_TxS("C\n",sizeof("C\n")-1);
  7772  0032E2  0ED7               	movlw	low (STR_30+1)
  7773  0032E4  0100               	movlb	0	; () banked
  7774  0032E6  6F60               	movwf	USART_TxS@str& (0+255),b
  7775  0032E8  0E08               	movlw	high (STR_30+1)
  7776  0032EA  6F61               	movwf	(USART_TxS@str+1)& (0+255),b
  7777  0032EC  0E00               	movlw	0
  7778  0032EE  6F63               	movwf	(USART_TxS@length+1)& (0+255),b
  7779  0032F0  0E02               	movlw	2
  7780  0032F2  6F62               	movwf	USART_TxS@length& (0+255),b
  7781  0032F4  ECF1  F015         	call	_USART_TxS	;wreg free
  7782  0032F8  0012               	return		;funcret
  7783  0032FA                     __end_of_Actuator_Hold:
  7784                           	opt callstack 0
  7785                           
  7786 ;; *************** function _USART_TxS *****************
  7787 ;; Defined at:
  7788 ;;		line 34 in file "UART.c"
  7789 ;; Parameters:    Size  Location     Type
  7790 ;;  str             2    0[BANK0 ] PTR unsigned char 
  7791 ;;		 -> STR_46(3), STR_45(3), STR_44(18), STR_43(3), 
  7792 ;;		 -> STR_42(3), STR_41(3), STR_40(3), STR_39(5), 
  7793 ;;		 -> STR_38(5), STR_37(5), STR_36(3), Serial_Lectura_MemoriaZ@coordenadaZ(3), 
  7794 ;;		 -> STR_35(3), Serial_Lectura_MemoriaY@coordenadaY(3), STR_34(3), Serial_Lectura_MemoriaX@coordenadaX(3), 
  7795 ;;		 -> STR_33(4), STR_32(4), STR_31(4), STR_30(4), 
  7796 ;;		 -> STR_29(4), STR_28(4), STR_27(4), STR_26(4), 
  7797 ;;		 -> STR_25(4), STR_24(4), STR_23(4), STR_22(4), 
  7798 ;;		 -> STR_21(4), STR_20(4), STR_19(4), STR_18(4), 
  7799 ;;		 -> STR_17(2), STR_16(3), STR_15(3), STR_14(3), 
  7800 ;;		 -> STR_13(4), STR_12(4), STR_11(3), STR_10(3), 
  7801 ;;		 -> STR_9(3), STR_8(3), STR_7(4), STR_6(4), 
  7802 ;;		 -> STR_5(3), STR_4(4), STR_3(4), STR_2(3), 
  7803 ;;		 -> STR_1(3), 
  7804 ;;  length          2    2[BANK0 ] int 
  7805 ;; Auto vars:     Size  Location     Type
  7806 ;;  i               2    6[BANK0 ] int 
  7807 ;; Return value:  Size  Location     Type
  7808 ;;                  1    wreg      unsigned char 
  7809 ;; Registers used:
  7810 ;;		wreg, fsr0l, fsr0h, status,2, status,0, tblptrl, tblptrh, tblptru
  7811 ;; Tracked objects:
  7812 ;;		On entry : 0/0
  7813 ;;		On exit  : 0/0
  7814 ;;		Unchanged: 0/0
  7815 ;; Data sizes:     COMRAM   BANK0   BANK1   BANK2   BANK3   BANK4   BANK5   BANK6   BANK7
  7816 ;;      Params:         0       4       0       0       0       0       0       0       0
  7817 ;;      Locals:         0       2       0       0       0       0       0       0       0
  7818 ;;      Temps:          0       2       0       0       0       0       0       0       0
  7819 ;;      Totals:         0       8       0       0       0       0       0       0       0
  7820 ;;Total ram usage:        8 bytes
  7821 ;; Hardware stack levels used:    1
  7822 ;; Hardware stack levels required when called:    5
  7823 ;; This function calls:
  7824 ;;		Nothing
  7825 ;; This function is called by:
  7826 ;;		_Serial_Oupcode
  7827 ;;		_Seria_Decodificacion_Memoria
  7828 ;;		_Serial_Lectura_MemoriaX
  7829 ;;		_Serial_Lectura_MemoriaY
  7830 ;;		_Serial_Lectura_MemoriaZ
  7831 ;;		_Serial_Escritura_Memoria
  7832 ;;		_Motor_Movimiento
  7833 ;;		_Actuator_Touch
  7834 ;;		_Actuator_Retract
  7835 ;;		_Actuator_Hold
  7836 ;;		_main
  7837 ;; This function uses a non-reentrant model
  7838 ;;
  7839                           
  7840                           	psect	text41
  7841  002BE2                     __ptext41:
  7842                           	opt callstack 0
  7843  002BE2                     _USART_TxS:
  7844                           	opt callstack 25
  7845  002BE2                     
  7846                           ;UART.c: 35:     for (int i=0;i<length;i++){
  7847  002BE2  0E00               	movlw	0
  7848  002BE4  0100               	movlb	0	; () banked
  7849  002BE6  6F67               	movwf	(USART_TxS@i+1)& (0+255),b
  7850  002BE8  0E00               	movlw	0
  7851  002BEA  6F66               	movwf	USART_TxS@i& (0+255),b
  7852  002BEC  EF1A  F016         	goto	l4343
  7853  002BF0                     l112:
  7854  002BF0  A89E               	btfss	158,4,c	;volatile
  7855  002BF2  EFFD  F015         	goto	u3111
  7856  002BF6  EFFF  F015         	goto	u3110
  7857  002BFA                     u3111:
  7858  002BFA  EFF8  F015         	goto	l112
  7859  002BFE                     u3110:
  7860  002BFE                     
  7861                           ;UART.c: 37:     TXREG = str[i];
  7862  002BFE  0100               	movlb	0	; () banked
  7863  002C00  5166               	movf	USART_TxS@i& (0+255),w,b
  7864  002C02  2560               	addwf	USART_TxS@str& (0+255),w,b
  7865  002C04  6F64               	movwf	??_USART_TxS& (0+255),b
  7866  002C06  5167               	movf	(USART_TxS@i+1)& (0+255),w,b
  7867  002C08  2161               	addwfc	(USART_TxS@str+1)& (0+255),w,b
  7868  002C0A  6F65               	movwf	(??_USART_TxS+1)& (0+255),b
  7869  002C0C  C064  FFF6         	movff	??_USART_TxS,tblptrl
  7870  002C10  C065  FFF7         	movff	??_USART_TxS+1,tblptrh
  7871  002C14  6AF8               	clrf	tblptru,c
  7872  002C16  0E07               	movlw	(high __ramtop+-1)
  7873  002C18  64F7               	cpfsgt	tblptrh,c
  7874  002C1A  D003               	bra	u3127
  7875  002C1C  0008               	tblrd		*
  7876  002C1E  50F5               	movf	tablat,w,c
  7877  002C20  D005               	bra	u3120
  7878  002C22                     u3127:
  7879  002C22  CFF6 FFE9          	movff	tblptrl,fsr0l
  7880  002C26  CFF7 FFEA          	movff	tblptrh,fsr0h
  7881  002C2A  50EF               	movf	indf0,w,c
  7882  002C2C                     u3120:
  7883  002C2C  6EAD               	movwf	173,c	;volatile
  7884  002C2E                     
  7885                           ;UART.c: 38:     }
  7886  002C2E  0100               	movlb	0	; () banked
  7887  002C30  4B66               	infsnz	USART_TxS@i& (0+255),f,b
  7888  002C32  2B67               	incf	(USART_TxS@i+1)& (0+255),f,b
  7889  002C34                     l4343:
  7890                           
  7891                           ; BSR set to: 0
  7892  002C34  5162               	movf	USART_TxS@length& (0+255),w,b
  7893  002C36  5D66               	subwf	USART_TxS@i& (0+255),w,b
  7894  002C38  5167               	movf	(USART_TxS@i+1)& (0+255),w,b
  7895  002C3A  0A80               	xorlw	128
  7896  002C3C  6F64               	movwf	??_USART_TxS& (0+255),b
  7897  002C3E  5163               	movf	(USART_TxS@length+1)& (0+255),w,b
  7898  002C40  0A80               	xorlw	128
  7899  002C42  5964               	subwfb	??_USART_TxS& (0+255),w,b
  7900  002C44  A0D8               	btfss	status,0,c
  7901  002C46  EF27  F016         	goto	u3131
  7902  002C4A  EF29  F016         	goto	u3130
  7903  002C4E                     u3131:
  7904  002C4E  EFF8  F015         	goto	l112
  7905  002C52                     u3130:
  7906  002C52                     
  7907                           ; BSR set to: 0
  7908  002C52  0012               	return		;funcret
  7909  002C54                     __end_of_USART_TxS:
  7910                           	opt callstack 0
  7911                           
  7912 ;; *************** function _Int_Ext *****************
  7913 ;; Defined at:
  7914 ;;		line 49 in file "main.c"
  7915 ;; Parameters:    Size  Location     Type
  7916 ;;		None
  7917 ;; Auto vars:     Size  Location     Type
  7918 ;;		None
  7919 ;; Return value:  Size  Location     Type
  7920 ;;                  1    wreg      void 
  7921 ;; Registers used:
  7922 ;;		wreg, status,2
  7923 ;; Tracked objects:
  7924 ;;		On entry : 0/0
  7925 ;;		On exit  : 0/0
  7926 ;;		Unchanged: 0/0
  7927 ;; Data sizes:     COMRAM   BANK0   BANK1   BANK2   BANK3   BANK4   BANK5   BANK6   BANK7
  7928 ;;      Params:         0       0       0       0       0       0       0       0       0
  7929 ;;      Locals:         0       0       0       0       0       0       0       0       0
  7930 ;;      Temps:          0       0       0       0       0       0       0       0       0
  7931 ;;      Totals:         0       0       0       0       0       0       0       0       0
  7932 ;;Total ram usage:        0 bytes
  7933 ;; Hardware stack levels used:    1
  7934 ;; Hardware stack levels required when called:    5
  7935 ;; This function calls:
  7936 ;;		Nothing
  7937 ;; This function is called by:
  7938 ;;		_main
  7939 ;; This function uses a non-reentrant model
  7940 ;;
  7941                           
  7942                           	psect	text42
  7943  0031EC                     __ptext42:
  7944                           	opt callstack 0
  7945  0031EC                     _Int_Ext:
  7946                           	opt callstack 25
  7947  0031EC                     
  7948                           ;main.c: 50:     TRISD = 0x00;
  7949  0031EC  0E00               	movlw	0
  7950  0031EE  6E95               	movwf	149,c	;volatile
  7951  0031F0                     
  7952                           ;main.c: 51:     INTCON2bits.RBPU = 1;
  7953  0031F0  8EF1               	bsf	241,7,c	;volatile
  7954  0031F2                     
  7955                           ;main.c: 52:     TRISBbits.RB0 = 1;
  7956  0031F2  8093               	bsf	147,0,c	;volatile
  7957  0031F4                     
  7958                           ;main.c: 53:     TRISBbits.RB1 = 1;
  7959  0031F4  8293               	bsf	147,1,c	;volatile
  7960  0031F6                     
  7961                           ;main.c: 54:     TRISBbits.RB2 = 1;
  7962  0031F6  8493               	bsf	147,2,c	;volatile
  7963  0031F8                     
  7964                           ;main.c: 55:     RCONbits.IPEN = 0;
  7965  0031F8  9ED0               	bcf	208,7,c	;volatile
  7966  0031FA                     
  7967                           ;main.c: 56:     INTCONbits.GIE = 1;
  7968  0031FA  8EF2               	bsf	242,7,c	;volatile
  7969  0031FC                     
  7970                           ;main.c: 57:     INTCONbits.PEIE = 0;
  7971  0031FC  9CF2               	bcf	242,6,c	;volatile
  7972  0031FE                     
  7973                           ;main.c: 58:     INTCONbits.INT0IE = 1;
  7974  0031FE  88F2               	bsf	242,4,c	;volatile
  7975  003200                     
  7976                           ;main.c: 59:     INTCON3bits.INT1IE = 1;
  7977  003200  86F0               	bsf	240,3,c	;volatile
  7978  003202                     
  7979                           ;main.c: 60:     INTCON3bits.INT2IE = 1;
  7980  003202  88F0               	bsf	240,4,c	;volatile
  7981  003204                     
  7982                           ;main.c: 61:     INTCON2bits.INTEDG0 = 1;
  7983  003204  8CF1               	bsf	241,6,c	;volatile
  7984  003206                     
  7985                           ;main.c: 62:     INTCON2bits.INTEDG1 = 1;
  7986  003206  8AF1               	bsf	241,5,c	;volatile
  7987  003208                     
  7988                           ;main.c: 63:     INTCON2bits.INTEDG2 = 1;
  7989  003208  88F1               	bsf	241,4,c	;volatile
  7990  00320A                     
  7991                           ;main.c: 64:     INTCONbits.INT0F = 0;
  7992  00320A  92F2               	bcf	242,1,c	;volatile
  7993  00320C                     
  7994                           ;main.c: 65:     INTCON3bits.INT1IF = 0;
  7995  00320C  90F0               	bcf	240,0,c	;volatile
  7996  00320E                     
  7997                           ;main.c: 66:     INTCON3bits.INT2IF = 0;
  7998  00320E  92F0               	bcf	240,1,c	;volatile
  7999  003210  0012               	return		;funcret
  8000  003212                     __end_of_Int_Ext:
  8001                           	opt callstack 0
  8002                           
  8003 ;; *************** function _GPIO_init_PORTE *****************
  8004 ;; Defined at:
  8005 ;;		line 64 in file "GPIOsparcA1.c"
  8006 ;; Parameters:    Size  Location     Type
  8007 ;;		None
  8008 ;; Auto vars:     Size  Location     Type
  8009 ;;		None
  8010 ;; Return value:  Size  Location     Type
  8011 ;;                  1    wreg      void 
  8012 ;; Registers used:
  8013 ;;		wreg, status,2
  8014 ;; Tracked objects:
  8015 ;;		On entry : 0/0
  8016 ;;		On exit  : 0/0
  8017 ;;		Unchanged: 0/0
  8018 ;; Data sizes:     COMRAM   BANK0   BANK1   BANK2   BANK3   BANK4   BANK5   BANK6   BANK7
  8019 ;;      Params:         0       0       0       0       0       0       0       0       0
  8020 ;;      Locals:         0       0       0       0       0       0       0       0       0
  8021 ;;      Temps:          0       0       0       0       0       0       0       0       0
  8022 ;;      Totals:         0       0       0       0       0       0       0       0       0
  8023 ;;Total ram usage:        0 bytes
  8024 ;; Hardware stack levels used:    1
  8025 ;; Hardware stack levels required when called:    5
  8026 ;; This function calls:
  8027 ;;		Nothing
  8028 ;; This function is called by:
  8029 ;;		_main
  8030 ;; This function uses a non-reentrant model
  8031 ;;
  8032                           
  8033                           	psect	text43
  8034  00335A                     __ptext43:
  8035                           	opt callstack 0
  8036  00335A                     _GPIO_init_PORTE:
  8037                           	opt callstack 25
  8038  00335A                     
  8039                           ;GPIOsparcA1.c: 65:     PORTE = 0x00;
  8040  00335A  0E00               	movlw	0
  8041  00335C  6E84               	movwf	132,c	;volatile
  8042                           
  8043                           ;GPIOsparcA1.c: 66:     LATE = 0x00;
  8044  00335E  0E00               	movlw	0
  8045  003360  6E8D               	movwf	141,c	;volatile
  8046                           
  8047                           ;GPIOsparcA1.c: 67:     ADCON1 = 0x0E;
  8048  003362  0E0E               	movlw	14
  8049  003364  6EC1               	movwf	193,c	;volatile
  8050                           
  8051                           ;GPIOsparcA1.c: 68:     CMCON = 0x07;
  8052  003366  0E07               	movlw	7
  8053  003368  6EB4               	movwf	180,c	;volatile
  8054  00336A  9096               	bcf	150,0,c	;volatile
  8055  00336C  0012               	return		;funcret
  8056  00336E                     __end_of_GPIO_init_PORTE:
  8057                           	opt callstack 0
  8058                           
  8059 ;; *************** function _GPIO_init_PORTD *****************
  8060 ;; Defined at:
  8061 ;;		line 50 in file "GPIOsparcA1.c"
  8062 ;; Parameters:    Size  Location     Type
  8063 ;;		None
  8064 ;; Auto vars:     Size  Location     Type
  8065 ;;		None
  8066 ;; Return value:  Size  Location     Type
  8067 ;;                  1    wreg      void 
  8068 ;; Registers used:
  8069 ;;		wreg, status,2
  8070 ;; Tracked objects:
  8071 ;;		On entry : 0/0
  8072 ;;		On exit  : 0/0
  8073 ;;		Unchanged: 0/0
  8074 ;; Data sizes:     COMRAM   BANK0   BANK1   BANK2   BANK3   BANK4   BANK5   BANK6   BANK7
  8075 ;;      Params:         0       0       0       0       0       0       0       0       0
  8076 ;;      Locals:         0       0       0       0       0       0       0       0       0
  8077 ;;      Temps:          0       0       0       0       0       0       0       0       0
  8078 ;;      Totals:         0       0       0       0       0       0       0       0       0
  8079 ;;Total ram usage:        0 bytes
  8080 ;; Hardware stack levels used:    1
  8081 ;; Hardware stack levels required when called:    5
  8082 ;; This function calls:
  8083 ;;		Nothing
  8084 ;; This function is called by:
  8085 ;;		_main
  8086 ;; This function uses a non-reentrant model
  8087 ;;
  8088                           
  8089                           	psect	text44
  8090  00328E                     __ptext44:
  8091                           	opt callstack 0
  8092  00328E                     _GPIO_init_PORTD:
  8093                           	opt callstack 25
  8094  00328E                     
  8095                           ;GPIOsparcA1.c: 51:     PORTD = 0x00;
  8096  00328E  0E00               	movlw	0
  8097  003290  6E83               	movwf	131,c	;volatile
  8098                           
  8099                           ;GPIOsparcA1.c: 52:     LATD = 0x00;
  8100  003292  0E00               	movlw	0
  8101  003294  6E8C               	movwf	140,c	;volatile
  8102                           
  8103                           ;GPIOsparcA1.c: 53:     CMCON = 0x07;
  8104  003296  0E07               	movlw	7
  8105  003298  6EB4               	movwf	180,c	;volatile
  8106  00329A  9095               	bcf	149,0,c	;volatile
  8107  00329C  9295               	bcf	149,1,c	;volatile
  8108  00329E  9495               	bcf	149,2,c	;volatile
  8109  0032A0  9695               	bcf	149,3,c	;volatile
  8110  0032A2  9895               	bcf	149,4,c	;volatile
  8111  0032A4  9A95               	bcf	149,5,c	;volatile
  8112  0032A6  9C95               	bcf	149,6,c	;volatile
  8113  0032A8  0012               	return		;funcret
  8114  0032AA                     __end_of_GPIO_init_PORTD:
  8115                           	opt callstack 0
  8116                           
  8117 ;; *************** function _GPIO_init_PORTC *****************
  8118 ;; Defined at:
  8119 ;;		line 37 in file "GPIOsparcA1.c"
  8120 ;; Parameters:    Size  Location     Type
  8121 ;;		None
  8122 ;; Auto vars:     Size  Location     Type
  8123 ;;		None
  8124 ;; Return value:  Size  Location     Type
  8125 ;;                  1    wreg      void 
  8126 ;; Registers used:
  8127 ;;		wreg, status,2
  8128 ;; Tracked objects:
  8129 ;;		On entry : 0/0
  8130 ;;		On exit  : 0/0
  8131 ;;		Unchanged: 0/0
  8132 ;; Data sizes:     COMRAM   BANK0   BANK1   BANK2   BANK3   BANK4   BANK5   BANK6   BANK7
  8133 ;;      Params:         0       0       0       0       0       0       0       0       0
  8134 ;;      Locals:         0       0       0       0       0       0       0       0       0
  8135 ;;      Temps:          0       0       0       0       0       0       0       0       0
  8136 ;;      Totals:         0       0       0       0       0       0       0       0       0
  8137 ;;Total ram usage:        0 bytes
  8138 ;; Hardware stack levels used:    1
  8139 ;; Hardware stack levels required when called:    5
  8140 ;; This function calls:
  8141 ;;		Nothing
  8142 ;; This function is called by:
  8143 ;;		_main
  8144 ;; This function uses a non-reentrant model
  8145 ;;
  8146                           
  8147                           	psect	text45
  8148  00336E                     __ptext45:
  8149                           	opt callstack 0
  8150  00336E                     _GPIO_init_PORTC:
  8151                           	opt callstack 25
  8152  00336E                     
  8153                           ;GPIOsparcA1.c: 38:     PORTC = 0x00;
  8154  00336E  0E00               	movlw	0
  8155  003370  6E82               	movwf	130,c	;volatile
  8156                           
  8157                           ;GPIOsparcA1.c: 39:     LATC = 0x00;
  8158  003372  0E00               	movlw	0
  8159  003374  6E8B               	movwf	139,c	;volatile
  8160  003376  8094               	bsf	148,0,c	;volatile
  8161  003378  9294               	bcf	148,1,c	;volatile
  8162  00337A  9494               	bcf	148,2,c	;volatile
  8163  00337C  9C94               	bcf	148,6,c	;volatile
  8164  00337E  8E94               	bsf	148,7,c	;volatile
  8165  003380  0012               	return		;funcret
  8166  003382                     __end_of_GPIO_init_PORTC:
  8167                           	opt callstack 0
  8168                           
  8169 ;; *************** function _GPIO_init_PORTB *****************
  8170 ;; Defined at:
  8171 ;;		line 23 in file "GPIOsparcA1.c"
  8172 ;; Parameters:    Size  Location     Type
  8173 ;;		None
  8174 ;; Auto vars:     Size  Location     Type
  8175 ;;		None
  8176 ;; Return value:  Size  Location     Type
  8177 ;;                  1    wreg      void 
  8178 ;; Registers used:
  8179 ;;		wreg, status,2
  8180 ;; Tracked objects:
  8181 ;;		On entry : 0/0
  8182 ;;		On exit  : 0/0
  8183 ;;		Unchanged: 0/0
  8184 ;; Data sizes:     COMRAM   BANK0   BANK1   BANK2   BANK3   BANK4   BANK5   BANK6   BANK7
  8185 ;;      Params:         0       0       0       0       0       0       0       0       0
  8186 ;;      Locals:         0       0       0       0       0       0       0       0       0
  8187 ;;      Temps:          0       0       0       0       0       0       0       0       0
  8188 ;;      Totals:         0       0       0       0       0       0       0       0       0
  8189 ;;Total ram usage:        0 bytes
  8190 ;; Hardware stack levels used:    1
  8191 ;; Hardware stack levels required when called:    5
  8192 ;; This function calls:
  8193 ;;		Nothing
  8194 ;; This function is called by:
  8195 ;;		_main
  8196 ;; This function uses a non-reentrant model
  8197 ;;
  8198                           
  8199                           	psect	text46
  8200  0032FA                     __ptext46:
  8201                           	opt callstack 0
  8202  0032FA                     _GPIO_init_PORTB:
  8203                           	opt callstack 25
  8204  0032FA                     
  8205                           ;GPIOsparcA1.c: 24:     PORTB = 0x00;
  8206  0032FA  0E00               	movlw	0
  8207  0032FC  6E81               	movwf	129,c	;volatile
  8208                           
  8209                           ;GPIOsparcA1.c: 25:     LATB = 0x00;
  8210  0032FE  0E00               	movlw	0
  8211  003300  6E8A               	movwf	138,c	;volatile
  8212                           
  8213                           ;GPIOsparcA1.c: 26:     ADCON1 = 0x0E;
  8214  003302  0E0E               	movlw	14
  8215  003304  6EC1               	movwf	193,c	;volatile
  8216  003306  8093               	bsf	147,0,c	;volatile
  8217  003308  8293               	bsf	147,1,c	;volatile
  8218  00330A  8493               	bsf	147,2,c	;volatile
  8219  00330C  9A93               	bcf	147,5,c	;volatile
  8220  00330E  9C93               	bcf	147,6,c	;volatile
  8221  003310  9E93               	bcf	147,7,c	;volatile
  8222  003312  0012               	return		;funcret
  8223  003314                     __end_of_GPIO_init_PORTB:
  8224                           	opt callstack 0
  8225                           
  8226 ;; *************** function _GPIO_init_PORTA *****************
  8227 ;; Defined at:
  8228 ;;		line 5 in file "GPIOsparcA1.c"
  8229 ;; Parameters:    Size  Location     Type
  8230 ;;		None
  8231 ;; Auto vars:     Size  Location     Type
  8232 ;;		None
  8233 ;; Return value:  Size  Location     Type
  8234 ;;                  1    wreg      void 
  8235 ;; Registers used:
  8236 ;;		wreg, status,2
  8237 ;; Tracked objects:
  8238 ;;		On entry : 0/0
  8239 ;;		On exit  : 0/0
  8240 ;;		Unchanged: 0/0
  8241 ;; Data sizes:     COMRAM   BANK0   BANK1   BANK2   BANK3   BANK4   BANK5   BANK6   BANK7
  8242 ;;      Params:         0       0       0       0       0       0       0       0       0
  8243 ;;      Locals:         0       0       0       0       0       0       0       0       0
  8244 ;;      Temps:          0       0       0       0       0       0       0       0       0
  8245 ;;      Totals:         0       0       0       0       0       0       0       0       0
  8246 ;;Total ram usage:        0 bytes
  8247 ;; Hardware stack levels used:    1
  8248 ;; Hardware stack levels required when called:    5
  8249 ;; This function calls:
  8250 ;;		Nothing
  8251 ;; This function is called by:
  8252 ;;		_main
  8253 ;; This function uses a non-reentrant model
  8254 ;;
  8255                           
  8256                           	psect	text47
  8257  0032AA                     __ptext47:
  8258                           	opt callstack 0
  8259  0032AA                     _GPIO_init_PORTA:
  8260                           	opt callstack 25
  8261  0032AA                     
  8262                           ;GPIOsparcA1.c: 6:     UCONbits.USBEN = 0;
  8263  0032AA  966D               	bcf	109,3,c	;volatile
  8264                           
  8265                           ;GPIOsparcA1.c: 7:     UCONbits.SUSPND = 0;
  8266  0032AC  926D               	bcf	109,1,c	;volatile
  8267                           
  8268                           ;GPIOsparcA1.c: 8:     UCFGbits.UTRDIS = 1;
  8269  0032AE  866F               	bsf	111,3,c	;volatile
  8270  0032B0                     
  8271                           ;GPIOsparcA1.c: 9:     PORTA = 0x00;
  8272  0032B0  0E00               	movlw	0
  8273  0032B2  6E80               	movwf	128,c	;volatile
  8274                           
  8275                           ;GPIOsparcA1.c: 10:     LATA = 0x00;
  8276  0032B4  0E00               	movlw	0
  8277  0032B6  6E89               	movwf	137,c	;volatile
  8278                           
  8279                           ;GPIOsparcA1.c: 11:     ADCON1 = 0x0E;
  8280  0032B8  0E0E               	movlw	14
  8281  0032BA  6EC1               	movwf	193,c	;volatile
  8282                           
  8283                           ;GPIOsparcA1.c: 12:     CMCON = 0x07;
  8284  0032BC  0E07               	movlw	7
  8285  0032BE  6EB4               	movwf	180,c	;volatile
  8286  0032C0  8892               	bsf	146,4,c	;volatile
  8287  0032C2  8A92               	bsf	146,5,c	;volatile
  8288  0032C4  0012               	return		;funcret
  8289  0032C6                     __end_of_GPIO_init_PORTA:
  8290                           	opt callstack 0
  8291                           
  8292 ;; *************** function _INT_isr *****************
  8293 ;; Defined at:
  8294 ;;		line 69 in file "main.c"
  8295 ;; Parameters:    Size  Location     Type
  8296 ;;		None
  8297 ;; Auto vars:     Size  Location     Type
  8298 ;;		None
  8299 ;; Return value:  Size  Location     Type
  8300 ;;                  1    wreg      void 
  8301 ;; Registers used:
  8302 ;;		wreg, status,2, status,0, cstack
  8303 ;; Tracked objects:
  8304 ;;		On entry : 0/0
  8305 ;;		On exit  : 0/0
  8306 ;;		Unchanged: 0/0
  8307 ;; Data sizes:     COMRAM   BANK0   BANK1   BANK2   BANK3   BANK4   BANK5   BANK6   BANK7
  8308 ;;      Params:         0       0       0       0       0       0       0       0       0
  8309 ;;      Locals:         0       0       0       0       0       0       0       0       0
  8310 ;;      Temps:          1       0       0       0       0       0       0       0       0
  8311 ;;      Totals:         1       0       0       0       0       0       0       0       0
  8312 ;;Total ram usage:        1 bytes
  8313 ;; Hardware stack levels used:    1
  8314 ;; Hardware stack levels required when called:    4
  8315 ;; This function calls:
  8316 ;;		_INT0_ACTION
  8317 ;;		_INT1_ACTION
  8318 ;;		_INT2_ACTION
  8319 ;; This function is called by:
  8320 ;;		Interrupt level 2
  8321 ;; This function uses a non-reentrant model
  8322 ;;
  8323                           
  8324                           	psect	intcode
  8325  000008                     __pintcode:
  8326                           	opt callstack 0
  8327  000008                     _INT_isr:
  8328                           	opt callstack 22
  8329                           
  8330                           ;incstack = 0
  8331  000008  825D               	bsf	int$flags,1,c	;set compiler interrupt flag (level 2)
  8332  00000A  ED2A  F016         	call	int_func,f	;refresh shadow registers
  8333                           
  8334                           	psect	intcode_body
  8335  002C54                     __pintcode_body:
  8336                           	opt callstack 22
  8337  002C54                     int_func:
  8338                           	opt callstack 22
  8339  002C54  0006               	pop		; remove dummy address from shadow register refresh
  8340  002C56                     
  8341                           ;main.c: 71:     if (INTCON3bits.INT1IF == 1) {
  8342  002C56  A0F0               	btfss	240,0,c	;volatile
  8343  002C58  EF30  F016         	goto	i2u532_41
  8344  002C5C  EF32  F016         	goto	i2u532_40
  8345  002C60                     i2u532_41:
  8346  002C60  EF3D  F016         	goto	i2l6293
  8347  002C64                     i2u532_40:
  8348  002C64                     
  8349                           ;main.c: 72:         INT1_ACTION();
  8350  002C64  EC94  F017         	call	_INT1_ACTION	;wreg free
  8351  002C68                     
  8352                           ;main.c: 73:         _delay((unsigned long)((10)*(8000000/4000.0)));
  8353  002C68  0E1A               	movlw	26
  8354  002C6A  6E3F               	movwf	??_INT_isr^0,c
  8355  002C6C  0EF8               	movlw	248
  8356  002C6E                     i2u569_47:
  8357  002C6E  2EE8               	decfsz	wreg,f,c
  8358  002C70  D7FE               	bra	i2u569_47
  8359  002C72  2E3F               	decfsz	??_INT_isr^0,f,c
  8360  002C74  D7FC               	bra	i2u569_47
  8361  002C76  D000               	nop2	
  8362  002C78                     
  8363                           ;main.c: 74:         INTCON3bits.INT1IF = 0;
  8364  002C78  90F0               	bcf	240,0,c	;volatile
  8365  002C7A                     i2l6293:
  8366                           
  8367                           ;main.c: 76:     if (INTCON3bits.INT2IF == 1) {
  8368  002C7A  A2F0               	btfss	240,1,c	;volatile
  8369  002C7C  EF42  F016         	goto	i2u533_41
  8370  002C80  EF44  F016         	goto	i2u533_40
  8371  002C84                     i2u533_41:
  8372  002C84  EF4F  F016         	goto	i2l6301
  8373  002C88                     i2u533_40:
  8374  002C88                     
  8375                           ;main.c: 77:         INT2_ACTION();
  8376  002C88  EC70  F017         	call	_INT2_ACTION	;wreg free
  8377  002C8C                     
  8378                           ;main.c: 78:         _delay((unsigned long)((10)*(8000000/4000.0)));
  8379  002C8C  0E1A               	movlw	26
  8380  002C8E  6E3F               	movwf	??_INT_isr^0,c
  8381  002C90  0EF8               	movlw	248
  8382  002C92                     i2u570_47:
  8383  002C92  2EE8               	decfsz	wreg,f,c
  8384  002C94  D7FE               	bra	i2u570_47
  8385  002C96  2E3F               	decfsz	??_INT_isr^0,f,c
  8386  002C98  D7FC               	bra	i2u570_47
  8387  002C9A  D000               	nop2	
  8388  002C9C                     
  8389                           ;main.c: 79:         INTCON3bits.INT2IF = 0;
  8390  002C9C  92F0               	bcf	240,1,c	;volatile
  8391  002C9E                     i2l6301:
  8392                           
  8393                           ;main.c: 81:     if (INTCONbits.INT0IF == 1) {
  8394  002C9E  A2F2               	btfss	242,1,c	;volatile
  8395  002CA0  EF54  F016         	goto	i2u534_41
  8396  002CA4  EF56  F016         	goto	i2u534_40
  8397  002CA8                     i2u534_41:
  8398  002CA8  EF61  F016         	goto	i2l853
  8399  002CAC                     i2u534_40:
  8400  002CAC                     
  8401                           ;main.c: 82:         INT0_ACTION();
  8402  002CAC  EC96  F019         	call	_INT0_ACTION	;wreg free
  8403  002CB0                     
  8404                           ;main.c: 83:         _delay((unsigned long)((10)*(8000000/4000.0)));
  8405  002CB0  0E1A               	movlw	26
  8406  002CB2  6E3F               	movwf	??_INT_isr^0,c
  8407  002CB4  0EF8               	movlw	248
  8408  002CB6                     i2u571_47:
  8409  002CB6  2EE8               	decfsz	wreg,f,c
  8410  002CB8  D7FE               	bra	i2u571_47
  8411  002CBA  2E3F               	decfsz	??_INT_isr^0,f,c
  8412  002CBC  D7FC               	bra	i2u571_47
  8413  002CBE  D000               	nop2	
  8414  002CC0                     
  8415                           ;main.c: 84:         INTCONbits.INT0F = 0;
  8416  002CC0  92F2               	bcf	242,1,c	;volatile
  8417  002CC2                     i2l853:
  8418  002CC2  925D               	bcf	int$flags,1,c	;clear compiler interrupt flag (level 2)
  8419  002CC4  0011               	retfie		f
  8420  002CC6                     __end_of_INT_isr:
  8421                           	opt callstack 0
  8422                           
  8423 ;; *************** function _INT2_ACTION *****************
  8424 ;; Defined at:
  8425 ;;		line 105 in file "main.c"
  8426 ;; Parameters:    Size  Location     Type
  8427 ;;		None
  8428 ;; Auto vars:     Size  Location     Type
  8429 ;;		None
  8430 ;; Return value:  Size  Location     Type
  8431 ;;                  1    wreg      void 
  8432 ;; Registers used:
  8433 ;;		wreg, status,2, status,0, cstack
  8434 ;; Tracked objects:
  8435 ;;		On entry : 0/0
  8436 ;;		On exit  : 0/0
  8437 ;;		Unchanged: 0/0
  8438 ;; Data sizes:     COMRAM   BANK0   BANK1   BANK2   BANK3   BANK4   BANK5   BANK6   BANK7
  8439 ;;      Params:         0       0       0       0       0       0       0       0       0
  8440 ;;      Locals:         0       0       0       0       0       0       0       0       0
  8441 ;;      Temps:          2       0       0       0       0       0       0       0       0
  8442 ;;      Totals:         2       0       0       0       0       0       0       0       0
  8443 ;;Total ram usage:        2 bytes
  8444 ;; Hardware stack levels used:    1
  8445 ;; Hardware stack levels required when called:    3
  8446 ;; This function calls:
  8447 ;;		_Motor_Movimiento_Home
  8448 ;; This function is called by:
  8449 ;;		_INT_isr
  8450 ;; This function uses a non-reentrant model
  8451 ;;
  8452                           
  8453                           	psect	text49
  8454  002EE0                     __ptext49:
  8455                           	opt callstack 0
  8456  002EE0                     _INT2_ACTION:
  8457                           	opt callstack 22
  8458  002EE0                     
  8459                           ;main.c: 106:     PORTDbits.RD0 = 1;
  8460  002EE0  8083               	bsf	131,0,c	;volatile
  8461                           
  8462                           ;main.c: 107:     PORTDbits.RD2 = 1;
  8463  002EE2  8483               	bsf	131,2,c	;volatile
  8464  002EE4                     
  8465                           ;main.c: 108:     _delay((unsigned long)((100)*(8000000/4000.0)));
  8466  002EE4  0E02               	movlw	2
  8467  002EE6  6E3E               	movwf	(??_INT2_ACTION+1)^0,c
  8468  002EE8  0E04               	movlw	4
  8469  002EEA  6E3D               	movwf	??_INT2_ACTION^0,c
  8470  002EEC  0EBA               	movlw	186
  8471  002EEE                     i2u572_47:
  8472  002EEE  2EE8               	decfsz	wreg,f,c
  8473  002EF0  D7FE               	bra	i2u572_47
  8474  002EF2  2E3D               	decfsz	??_INT2_ACTION^0,f,c
  8475  002EF4  D7FC               	bra	i2u572_47
  8476  002EF6  2E3E               	decfsz	(??_INT2_ACTION+1)^0,f,c
  8477  002EF8  D7FA               	bra	i2u572_47
  8478  002EFA  D000               	nop2	
  8479  002EFC                     
  8480                           ;main.c: 109:     if (BanderaY == 0) {
  8481  002EFC  505B               	movf	_BanderaY^0,w,c
  8482  002EFE  A4D8               	btfss	status,2,c
  8483  002F00  EF84  F017         	goto	i2u396_41
  8484  002F04  EF86  F017         	goto	i2u396_40
  8485  002F08                     i2u396_41:
  8486  002F08  EF91  F017         	goto	i2l5307
  8487  002F0C                     i2u396_40:
  8488  002F0C                     
  8489                           ;main.c: 110:         Motor_Movimiento_Home('S', 0, 30);
  8490  002F0C  0E00               	movlw	0
  8491  002F0E  6E39               	movwf	(Motor_Movimiento_Home@Motor_CoordenadaX+1)^0,c
  8492  002F10  0E00               	movlw	0
  8493  002F12  6E38               	movwf	Motor_Movimiento_Home@Motor_CoordenadaX^0,c
  8494  002F14  0E00               	movlw	0
  8495  002F16  6E3B               	movwf	(Motor_Movimiento_Home@Motor_CoordenadaY+1)^0,c
  8496  002F18  0E1E               	movlw	30
  8497  002F1A  6E3A               	movwf	Motor_Movimiento_Home@Motor_CoordenadaY^0,c
  8498  002F1C  0E53               	movlw	83
  8499  002F1E  ECB8  F017         	call	_Motor_Movimiento_Home
  8500  002F22                     i2l5307:
  8501                           
  8502                           ;main.c: 112:     BanderaY = 1;
  8503  002F22  0E01               	movlw	1
  8504  002F24  6E5B               	movwf	_BanderaY^0,c
  8505  002F26  0012               	return		;funcret
  8506  002F28                     __end_of_INT2_ACTION:
  8507                           	opt callstack 0
  8508                           
  8509 ;; *************** function _INT1_ACTION *****************
  8510 ;; Defined at:
  8511 ;;		line 94 in file "main.c"
  8512 ;; Parameters:    Size  Location     Type
  8513 ;;		None
  8514 ;; Auto vars:     Size  Location     Type
  8515 ;;		None
  8516 ;; Return value:  Size  Location     Type
  8517 ;;                  1    wreg      void 
  8518 ;; Registers used:
  8519 ;;		wreg, status,2, status,0, cstack
  8520 ;; Tracked objects:
  8521 ;;		On entry : 0/0
  8522 ;;		On exit  : 0/0
  8523 ;;		Unchanged: 0/0
  8524 ;; Data sizes:     COMRAM   BANK0   BANK1   BANK2   BANK3   BANK4   BANK5   BANK6   BANK7
  8525 ;;      Params:         0       0       0       0       0       0       0       0       0
  8526 ;;      Locals:         0       0       0       0       0       0       0       0       0
  8527 ;;      Temps:          2       0       0       0       0       0       0       0       0
  8528 ;;      Totals:         2       0       0       0       0       0       0       0       0
  8529 ;;Total ram usage:        2 bytes
  8530 ;; Hardware stack levels used:    1
  8531 ;; Hardware stack levels required when called:    3
  8532 ;; This function calls:
  8533 ;;		_Motor_Movimiento_Home
  8534 ;; This function is called by:
  8535 ;;		_INT_isr
  8536 ;; This function uses a non-reentrant model
  8537 ;;
  8538                           
  8539                           	psect	text50
  8540  002F28                     __ptext50:
  8541                           	opt callstack 0
  8542  002F28                     _INT1_ACTION:
  8543                           	opt callstack 22
  8544  002F28                     
  8545                           ;main.c: 95:     PORTDbits.RD0 = 1;
  8546  002F28  8083               	bsf	131,0,c	;volatile
  8547                           
  8548                           ;main.c: 96:     PORTDbits.RD2 = 1;
  8549  002F2A  8483               	bsf	131,2,c	;volatile
  8550  002F2C                     
  8551                           ;main.c: 97:     _delay((unsigned long)((100)*(8000000/4000.0)));
  8552  002F2C  0E02               	movlw	2
  8553  002F2E  6E3E               	movwf	(??_INT1_ACTION+1)^0,c
  8554  002F30  0E04               	movlw	4
  8555  002F32  6E3D               	movwf	??_INT1_ACTION^0,c
  8556  002F34  0EBA               	movlw	186
  8557  002F36                     i2u573_47:
  8558  002F36  2EE8               	decfsz	wreg,f,c
  8559  002F38  D7FE               	bra	i2u573_47
  8560  002F3A  2E3D               	decfsz	??_INT1_ACTION^0,f,c
  8561  002F3C  D7FC               	bra	i2u573_47
  8562  002F3E  2E3E               	decfsz	(??_INT1_ACTION+1)^0,f,c
  8563  002F40  D7FA               	bra	i2u573_47
  8564  002F42  D000               	nop2	
  8565  002F44                     
  8566                           ;main.c: 98:     if (BanderaX == 0) {
  8567  002F44  505C               	movf	_BanderaX^0,w,c
  8568  002F46  A4D8               	btfss	status,2,c
  8569  002F48  EFA8  F017         	goto	i2u395_41
  8570  002F4C  EFAA  F017         	goto	i2u395_40
  8571  002F50                     i2u395_41:
  8572  002F50  EFB5  F017         	goto	i2l5295
  8573  002F54                     i2u395_40:
  8574  002F54                     
  8575                           ;main.c: 99:         Motor_Movimiento_Home('S', 30, 0);
  8576  002F54  0E00               	movlw	0
  8577  002F56  6E39               	movwf	(Motor_Movimiento_Home@Motor_CoordenadaX+1)^0,c
  8578  002F58  0E1E               	movlw	30
  8579  002F5A  6E38               	movwf	Motor_Movimiento_Home@Motor_CoordenadaX^0,c
  8580  002F5C  0E00               	movlw	0
  8581  002F5E  6E3B               	movwf	(Motor_Movimiento_Home@Motor_CoordenadaY+1)^0,c
  8582  002F60  0E00               	movlw	0
  8583  002F62  6E3A               	movwf	Motor_Movimiento_Home@Motor_CoordenadaY^0,c
  8584  002F64  0E53               	movlw	83
  8585  002F66  ECB8  F017         	call	_Motor_Movimiento_Home
  8586  002F6A                     i2l5295:
  8587                           
  8588                           ;main.c: 101:     BanderaX = 1;
  8589  002F6A  0E01               	movlw	1
  8590  002F6C  6E5C               	movwf	_BanderaX^0,c
  8591  002F6E  0012               	return		;funcret
  8592  002F70                     __end_of_INT1_ACTION:
  8593                           	opt callstack 0
  8594                           
  8595 ;; *************** function _Motor_Movimiento_Home *****************
  8596 ;; Defined at:
  8597 ;;		line 94 in file "Motor.c"
  8598 ;; Parameters:    Size  Location     Type
  8599 ;;  Oupcode         1    wreg     unsigned char 
  8600 ;;  Motor_Coorde    2   55[COMRAM] int 
  8601 ;;  Motor_Coorde    2   57[COMRAM] int 
  8602 ;; Auto vars:     Size  Location     Type
  8603 ;;  Oupcode         1   59[COMRAM] unsigned char 
  8604 ;; Return value:  Size  Location     Type
  8605 ;;                  1    wreg      void 
  8606 ;; Registers used:
  8607 ;;		wreg, status,2, status,0, cstack
  8608 ;; Tracked objects:
  8609 ;;		On entry : 0/0
  8610 ;;		On exit  : 0/0
  8611 ;;		Unchanged: 0/0
  8612 ;; Data sizes:     COMRAM   BANK0   BANK1   BANK2   BANK3   BANK4   BANK5   BANK6   BANK7
  8613 ;;      Params:         4       0       0       0       0       0       0       0       0
  8614 ;;      Locals:         1       0       0       0       0       0       0       0       0
  8615 ;;      Temps:          0       0       0       0       0       0       0       0       0
  8616 ;;      Totals:         5       0       0       0       0       0       0       0       0
  8617 ;;Total ram usage:        5 bytes
  8618 ;; Hardware stack levels used:    1
  8619 ;; Hardware stack levels required when called:    2
  8620 ;; This function calls:
  8621 ;;		i2_Motor_Conversion
  8622 ;;		i2_PWM_GeneratePulsos
  8623 ;; This function is called by:
  8624 ;;		_INT1_ACTION
  8625 ;;		_INT2_ACTION
  8626 ;; This function uses a non-reentrant model
  8627 ;;
  8628                           
  8629                           	psect	text51
  8630  002F70                     __ptext51:
  8631                           	opt callstack 0
  8632  002F70                     _Motor_Movimiento_Home:
  8633                           	opt callstack 22
  8634                           
  8635                           ;incstack = 0
  8636                           ;Motor_Movimiento_Home@Oupcode stored from wreg
  8637  002F70  6E3C               	movwf	Motor_Movimiento_Home@Oupcode^0,c
  8638  002F72                     
  8639                           ;Motor.c: 95:     T2CONbits.TMR2ON =0 ;
  8640  002F72  94CA               	bcf	202,2,c	;volatile
  8641                           
  8642                           ;Motor.c: 96:     PORTDbits.RD1 = 0;
  8643  002F74  9283               	bcf	131,1,c	;volatile
  8644                           
  8645                           ;Motor.c: 97:     PORTDbits.RD3 = 0;
  8646  002F76  9683               	bcf	131,3,c	;volatile
  8647  002F78                     
  8648                           ;Motor.c: 98:     PasosX = Motor_Conversion(Motor_CoordenadaX);
  8649  002F78  C038  F032         	movff	Motor_Movimiento_Home@Motor_CoordenadaX,i2Motor_Conversion@Coordenada
  8650  002F7C  C039  F033         	movff	Motor_Movimiento_Home@Motor_CoordenadaX+1,i2Motor_Conversion@Coordenada+1
  8651  002F80  EC63  F016         	call	i2_Motor_Conversion	;wreg free
  8652  002F84  C032  F0B4         	movff	?i2_Motor_Conversion,_PasosX
  8653  002F88  C033  F0B5         	movff	?i2_Motor_Conversion+1,_PasosX+1
  8654                           
  8655                           ;Motor.c: 99:     PasosY = Motor_Conversion(Motor_CoordenadaY);
  8656  002F8C  C03A  F032         	movff	Motor_Movimiento_Home@Motor_CoordenadaY,i2Motor_Conversion@Coordenada
  8657  002F90  C03B  F033         	movff	Motor_Movimiento_Home@Motor_CoordenadaY+1,i2Motor_Conversion@Coordenada+1
  8658  002F94  EC63  F016         	call	i2_Motor_Conversion	;wreg free
  8659  002F98  C032  F0B2         	movff	?i2_Motor_Conversion,_PasosY
  8660  002F9C  C033  F0B3         	movff	?i2_Motor_Conversion+1,_PasosY+1
  8661                           
  8662                           ;Motor.c: 100:     PWM_GeneratePulsos(Oupcode, PasosX, PasosY);
  8663  002FA0  C0B4  F003         	movff	_PasosX,i2PWM_GeneratePulsos@pulsosX
  8664  002FA4  C0B5  F004         	movff	_PasosX+1,i2PWM_GeneratePulsos@pulsosX+1
  8665  002FA8  C0B2  F005         	movff	_PasosY,i2PWM_GeneratePulsos@pulsosY
  8666  002FAC  C0B3  F006         	movff	_PasosY+1,i2PWM_GeneratePulsos@pulsosY+1
  8667  002FB0  503C               	movf	Motor_Movimiento_Home@Oupcode^0,w,c
  8668  002FB2  EC86  F00E         	call	i2_PWM_GeneratePulsos
  8669  002FB6  0012               	return		;funcret
  8670  002FB8                     __end_of_Motor_Movimiento_Home:
  8671                           	opt callstack 0
  8672                           
  8673 ;; *************** function i2_PWM_GeneratePulsos *****************
  8674 ;; Defined at:
  8675 ;;		line 6 in file "PWM.c"
  8676 ;; Parameters:    Size  Location     Type
  8677 ;;  Oupcode         1    wreg     unsigned char 
  8678 ;;  pulsosX         2    2[COMRAM] int 
  8679 ;;  pulsosY         2    4[COMRAM] int 
  8680 ;; Auto vars:     Size  Location     Type
  8681 ;;  Oupcode         1    7[COMRAM] unsigned char 
  8682 ;;  PWM_Generate    2   10[COMRAM] int 
  8683 ;;  PWM_Generate    2    8[COMRAM] int 
  8684 ;; Return value:  Size  Location     Type
  8685 ;;                  1    wreg      void 
  8686 ;; Registers used:
  8687 ;;		wreg, status,2, status,0, cstack
  8688 ;; Tracked objects:
  8689 ;;		On entry : 0/0
  8690 ;;		On exit  : 0/0
  8691 ;;		Unchanged: 0/0
  8692 ;; Data sizes:     COMRAM   BANK0   BANK1   BANK2   BANK3   BANK4   BANK5   BANK6   BANK7
  8693 ;;      Params:         4       0       0       0       0       0       0       0       0
  8694 ;;      Locals:         5       0       0       0       0       0       0       0       0
  8695 ;;      Temps:          1       0       0       0       0       0       0       0       0
  8696 ;;      Totals:        10       0       0       0       0       0       0       0       0
  8697 ;;Total ram usage:       10 bytes
  8698 ;; Hardware stack levels used:    1
  8699 ;; Hardware stack levels required when called:    1
  8700 ;; This function calls:
  8701 ;;		i2_PWM_InitF
  8702 ;;		i2_PWM_InitS
  8703 ;;		i2_PWM_OneshotX
  8704 ;;		i2_PWM_OneshotY
  8705 ;; This function is called by:
  8706 ;;		_Motor_Movimiento_Home
  8707 ;; This function uses a non-reentrant model
  8708 ;;
  8709                           
  8710                           	psect	text52
  8711  001D0C                     __ptext52:
  8712                           	opt callstack 0
  8713  001D0C                     i2_PWM_GeneratePulsos:
  8714                           	opt callstack 22
  8715                           
  8716                           ;incstack = 0
  8717                           ;i2PWM_GeneratePulsos@Oupcode stored from wreg
  8718  001D0C  6E08               	movwf	i2PWM_GeneratePulsos@Oupcode^0,c
  8719  001D0E                     
  8720                           ;PWM.c: 7:     if (Oupcode == 'S') {
  8721  001D0E  0E53               	movlw	83
  8722  001D10  1808               	xorwf	i2PWM_GeneratePulsos@Oupcode^0,w,c
  8723  001D12  A4D8               	btfss	status,2,c
  8724  001D14  EF8E  F00E         	goto	i2u330_41
  8725  001D18  EF90  F00E         	goto	i2u330_40
  8726  001D1C                     i2u330_41:
  8727  001D1C  EF94  F00E         	goto	i2l4473
  8728  001D20                     i2u330_40:
  8729  001D20                     
  8730                           ;PWM.c: 8:         PWM_InitS();
  8731  001D20  EC38  F019         	call	i2_PWM_InitS	;wreg free
  8732                           
  8733                           ;PWM.c: 9:     } else {
  8734  001D24  EF96  F00E         	goto	i2l4475
  8735  001D28                     i2l4473:
  8736                           
  8737                           ;PWM.c: 10:         PWM_InitF();
  8738  001D28  EC19  F019         	call	i2_PWM_InitF	;wreg free
  8739  001D2C                     i2l4475:
  8740                           
  8741                           ;PWM.c: 12:     PORTDbits.RD0 = 0;
  8742  001D2C  9083               	bcf	131,0,c	;volatile
  8743  001D2E                     
  8744                           ;PWM.c: 13:     PORTDbits.RD2 = 0;
  8745  001D2E  9483               	bcf	131,2,c	;volatile
  8746  001D30                     
  8747                           ;PWM.c: 14:     int countX = 0;
  8748  001D30  0E00               	movlw	0
  8749  001D32  6E0A               	movwf	(i2PWM_GeneratePulsos@countX+1)^0,c
  8750  001D34  0E00               	movlw	0
  8751  001D36  6E09               	movwf	i2PWM_GeneratePulsos@countX^0,c
  8752  001D38                     
  8753                           ;PWM.c: 15:     int countY = 0;
  8754  001D38  0E00               	movlw	0
  8755  001D3A  6E0C               	movwf	(i2PWM_GeneratePulsos@countY+1)^0,c
  8756  001D3C  0E00               	movlw	0
  8757  001D3E  6E0B               	movwf	i2PWM_GeneratePulsos@countY^0,c
  8758  001D40                     
  8759                           ;PWM.c: 16:     if (pulsosX==0){
  8760  001D40  5003               	movf	i2PWM_GeneratePulsos@pulsosX^0,w,c
  8761  001D42  1004               	iorwf	(i2PWM_GeneratePulsos@pulsosX+1)^0,w,c
  8762  001D44  A4D8               	btfss	status,2,c
  8763  001D46  EFA7  F00E         	goto	i2u331_41
  8764  001D4A  EFA9  F00E         	goto	i2u331_40
  8765  001D4E                     i2u331_41:
  8766  001D4E  EFAA  F00E         	goto	i2l4487
  8767  001D52                     i2u331_40:
  8768  001D52                     
  8769                           ;PWM.c: 17:         PORTDbits.RD0 = 1;
  8770  001D52  8083               	bsf	131,0,c	;volatile
  8771  001D54                     i2l4487:
  8772                           
  8773                           ;PWM.c: 19:     if (pulsosY==0){
  8774  001D54  5005               	movf	i2PWM_GeneratePulsos@pulsosY^0,w,c
  8775  001D56  1006               	iorwf	(i2PWM_GeneratePulsos@pulsosY+1)^0,w,c
  8776  001D58  A4D8               	btfss	status,2,c
  8777  001D5A  EFB1  F00E         	goto	i2u332_41
  8778  001D5E  EFB3  F00E         	goto	i2u332_40
  8779  001D62                     i2u332_41:
  8780  001D62  EFB4  F00E         	goto	i2l42
  8781  001D66                     i2u332_40:
  8782  001D66                     
  8783                           ;PWM.c: 20:         PORTDbits.RD2 = 1;
  8784  001D66  8483               	bsf	131,2,c	;volatile
  8785  001D68                     i2l42:
  8786                           
  8787                           ;PWM.c: 22:     T2CONbits.TMR2ON = 1;
  8788  001D68  84CA               	bsf	202,2,c	;volatile
  8789                           
  8790                           ;PWM.c: 23:     while ((countX < pulsosX) || (countY < pulsosY)) {
  8791  001D6A  EF07  F00F         	goto	i2l4507
  8792  001D6E                     i2l4491:
  8793                           
  8794                           ;PWM.c: 24:         if (countX < pulsosX) {
  8795  001D6E  5003               	movf	i2PWM_GeneratePulsos@pulsosX^0,w,c
  8796  001D70  5C09               	subwf	i2PWM_GeneratePulsos@countX^0,w,c
  8797  001D72  500A               	movf	(i2PWM_GeneratePulsos@countX+1)^0,w,c
  8798  001D74  0A80               	xorlw	128
  8799  001D76  6E07               	movwf	??i2_PWM_GeneratePulsos^0,c
  8800  001D78  5004               	movf	(i2PWM_GeneratePulsos@pulsosX+1)^0,w,c
  8801  001D7A  0A80               	xorlw	128
  8802  001D7C  5807               	subwfb	??i2_PWM_GeneratePulsos^0,w,c
  8803  001D7E  B0D8               	btfsc	status,0,c
  8804  001D80  EFC4  F00E         	goto	i2u333_41
  8805  001D84  EFC6  F00E         	goto	i2u333_40
  8806  001D88                     i2u333_41:
  8807  001D88  EFDE  F00E         	goto	i2l45
  8808  001D8C                     i2u333_40:
  8809  001D8C                     
  8810                           ;PWM.c: 25:             if (PORTCbits.RC1 == 1) {
  8811  001D8C  A282               	btfss	130,1,c	;volatile
  8812  001D8E  EFCB  F00E         	goto	i2u334_41
  8813  001D92  EFCD  F00E         	goto	i2u334_40
  8814  001D96                     i2u334_41:
  8815  001D96  EFD9  F00E         	goto	i2l4497
  8816  001D9A                     i2u334_40:
  8817  001D9A                     
  8818                           ;PWM.c: 26:                 countX = PWM_OneshotX(countX);
  8819  001D9A  C009  F001         	movff	i2PWM_GeneratePulsos@countX,i2PWM_OneshotX@countX
  8820  001D9E  C00A  F002         	movff	i2PWM_GeneratePulsos@countX+1,i2PWM_OneshotX@countX+1
  8821  001DA2  ECB6  F018         	call	i2_PWM_OneshotX	;wreg free
  8822  001DA6  C001  F009         	movff	?i2_PWM_OneshotX,i2PWM_GeneratePulsos@countX
  8823  001DAA  C002  F00A         	movff	?i2_PWM_OneshotX+1,i2PWM_GeneratePulsos@countX+1
  8824                           
  8825                           ;PWM.c: 27:             } else {
  8826  001DAE  EFDF  F00E         	goto	i2l4499
  8827  001DB2                     i2l4497:
  8828                           
  8829                           ;PWM.c: 28:                 oneshotX = 0;
  8830  001DB2  0E00               	movlw	0
  8831  001DB4  0100               	movlb	0	; () banked
  8832  001DB6  6FBC               	movwf	_oneshotX& (0+255),b
  8833  001DB8  EFDF  F00E         	goto	i2l4499
  8834  001DBC                     i2l45:
  8835                           
  8836                           ;PWM.c: 31:             PORTDbits.RD0 = 1;
  8837  001DBC  8083               	bsf	131,0,c	;volatile
  8838  001DBE                     i2l4499:
  8839                           
  8840                           ;PWM.c: 33:         if (countY < pulsosY) {
  8841  001DBE  5005               	movf	i2PWM_GeneratePulsos@pulsosY^0,w,c
  8842  001DC0  5C0B               	subwf	i2PWM_GeneratePulsos@countY^0,w,c
  8843  001DC2  500C               	movf	(i2PWM_GeneratePulsos@countY+1)^0,w,c
  8844  001DC4  0A80               	xorlw	128
  8845  001DC6  6E07               	movwf	??i2_PWM_GeneratePulsos^0,c
  8846  001DC8  5006               	movf	(i2PWM_GeneratePulsos@pulsosY+1)^0,w,c
  8847  001DCA  0A80               	xorlw	128
  8848  001DCC  5807               	subwfb	??i2_PWM_GeneratePulsos^0,w,c
  8849  001DCE  B0D8               	btfsc	status,0,c
  8850  001DD0  EFEC  F00E         	goto	i2u335_41
  8851  001DD4  EFEE  F00E         	goto	i2u335_40
  8852  001DD8                     i2u335_41:
  8853  001DD8  EF06  F00F         	goto	i2l49
  8854  001DDC                     i2u335_40:
  8855  001DDC                     
  8856                           ;PWM.c: 34:             if (PORTCbits.RC2 == 1) {
  8857  001DDC  A482               	btfss	130,2,c	;volatile
  8858  001DDE  EFF3  F00E         	goto	i2u336_41
  8859  001DE2  EFF5  F00E         	goto	i2u336_40
  8860  001DE6                     i2u336_41:
  8861  001DE6  EF01  F00F         	goto	i2l4505
  8862  001DEA                     i2u336_40:
  8863  001DEA                     
  8864                           ;PWM.c: 35:                 countY = PWM_OneshotY(countY);
  8865  001DEA  C00B  F001         	movff	i2PWM_GeneratePulsos@countY,i2PWM_OneshotY@countY
  8866  001DEE  C00C  F002         	movff	i2PWM_GeneratePulsos@countY+1,i2PWM_OneshotY@countY+1
  8867  001DF2  EC9D  F018         	call	i2_PWM_OneshotY	;wreg free
  8868  001DF6  C001  F00B         	movff	?i2_PWM_OneshotY,i2PWM_GeneratePulsos@countY
  8869  001DFA  C002  F00C         	movff	?i2_PWM_OneshotY+1,i2PWM_GeneratePulsos@countY+1
  8870                           
  8871                           ;PWM.c: 36:             } else {
  8872  001DFE  EF07  F00F         	goto	i2l4507
  8873  001E02                     i2l4505:
  8874                           
  8875                           ;PWM.c: 37:                 oneshotY = 0;
  8876  001E02  0E00               	movlw	0
  8877  001E04  0100               	movlb	0	; () banked
  8878  001E06  6FBB               	movwf	_oneshotY& (0+255),b
  8879  001E08  EF07  F00F         	goto	i2l4507
  8880  001E0C                     i2l49:
  8881                           
  8882                           ;PWM.c: 40:             PORTDbits.RD2 = 1;
  8883  001E0C  8483               	bsf	131,2,c	;volatile
  8884  001E0E                     i2l4507:
  8885                           
  8886                           ;PWM.c: 23:     while ((countX < pulsosX) || (countY < pulsosY)) {
  8887  001E0E  5003               	movf	i2PWM_GeneratePulsos@pulsosX^0,w,c
  8888  001E10  5C09               	subwf	i2PWM_GeneratePulsos@countX^0,w,c
  8889  001E12  500A               	movf	(i2PWM_GeneratePulsos@countX+1)^0,w,c
  8890  001E14  0A80               	xorlw	128
  8891  001E16  6E07               	movwf	??i2_PWM_GeneratePulsos^0,c
  8892  001E18  5004               	movf	(i2PWM_GeneratePulsos@pulsosX+1)^0,w,c
  8893  001E1A  0A80               	xorlw	128
  8894  001E1C  5807               	subwfb	??i2_PWM_GeneratePulsos^0,w,c
  8895  001E1E  A0D8               	btfss	status,0,c
  8896  001E20  EF14  F00F         	goto	i2u337_41
  8897  001E24  EF16  F00F         	goto	i2u337_40
  8898  001E28                     i2u337_41:
  8899  001E28  EFB7  F00E         	goto	i2l4491
  8900  001E2C                     i2u337_40:
  8901  001E2C  5005               	movf	i2PWM_GeneratePulsos@pulsosY^0,w,c
  8902  001E2E  5C0B               	subwf	i2PWM_GeneratePulsos@countY^0,w,c
  8903  001E30  500C               	movf	(i2PWM_GeneratePulsos@countY+1)^0,w,c
  8904  001E32  0A80               	xorlw	128
  8905  001E34  6E07               	movwf	??i2_PWM_GeneratePulsos^0,c
  8906  001E36  5006               	movf	(i2PWM_GeneratePulsos@pulsosY+1)^0,w,c
  8907  001E38  0A80               	xorlw	128
  8908  001E3A  5807               	subwfb	??i2_PWM_GeneratePulsos^0,w,c
  8909  001E3C  A0D8               	btfss	status,0,c
  8910  001E3E  EF23  F00F         	goto	i2u338_41
  8911  001E42  EF25  F00F         	goto	i2u338_40
  8912  001E46                     i2u338_41:
  8913  001E46  EFB7  F00E         	goto	i2l4491
  8914  001E4A                     i2u338_40:
  8915  001E4A                     
  8916                           ;PWM.c: 44:     oneshotX = 0;
  8917  001E4A  0E00               	movlw	0
  8918  001E4C  0100               	movlb	0	; () banked
  8919  001E4E  6FBC               	movwf	_oneshotX& (0+255),b
  8920                           
  8921                           ;PWM.c: 45:     countY = 0;
  8922  001E50  0E00               	movlw	0
  8923  001E52  6E0C               	movwf	(i2PWM_GeneratePulsos@countY+1)^0,c
  8924  001E54  0E00               	movlw	0
  8925  001E56  6E0B               	movwf	i2PWM_GeneratePulsos@countY^0,c
  8926                           
  8927                           ;PWM.c: 46:     oneshotY = 0;
  8928  001E58  0E00               	movlw	0
  8929  001E5A  6FBB               	movwf	_oneshotY& (0+255),b
  8930  001E5C                     
  8931                           ; BSR set to: 0
  8932                           ;PWM.c: 47:     T2CONbits.TMR2ON = 0;
  8933  001E5C  94CA               	bcf	202,2,c	;volatile
  8934  001E5E                     
  8935                           ; BSR set to: 0
  8936  001E5E  0012               	return		;funcret
  8937  001E60                     __end_ofi2_PWM_GeneratePulsos:
  8938                           	opt callstack 0
  8939                           
  8940 ;; *************** function i2_PWM_OneshotY *****************
  8941 ;; Defined at:
  8942 ;;		line 108 in file "PWM.c"
  8943 ;; Parameters:    Size  Location     Type
  8944 ;;  countY          2    0[COMRAM] int 
  8945 ;; Auto vars:     Size  Location     Type
  8946 ;;		None
  8947 ;; Return value:  Size  Location     Type
  8948 ;;                  2    0[COMRAM] int 
  8949 ;; Registers used:
  8950 ;;		wreg, status,2, status,0
  8951 ;; Tracked objects:
  8952 ;;		On entry : 0/0
  8953 ;;		On exit  : 0/0
  8954 ;;		Unchanged: 0/0
  8955 ;; Data sizes:     COMRAM   BANK0   BANK1   BANK2   BANK3   BANK4   BANK5   BANK6   BANK7
  8956 ;;      Params:         2       0       0       0       0       0       0       0       0
  8957 ;;      Locals:         0       0       0       0       0       0       0       0       0
  8958 ;;      Temps:          0       0       0       0       0       0       0       0       0
  8959 ;;      Totals:         2       0       0       0       0       0       0       0       0
  8960 ;;Total ram usage:        2 bytes
  8961 ;; Hardware stack levels used:    1
  8962 ;; This function calls:
  8963 ;;		Nothing
  8964 ;; This function is called by:
  8965 ;;		i2_PWM_GeneratePulsos
  8966 ;; This function uses a non-reentrant model
  8967 ;;
  8968                           
  8969                           	psect	text53
  8970  00313A                     __ptext53:
  8971                           	opt callstack 0
  8972  00313A                     i2_PWM_OneshotY:
  8973                           	opt callstack 22
  8974  00313A                     
  8975                           ;PWM.c: 109:     if (PORTCbits.RC2 == 1 & oneshotY == 0) {
  8976  00313A  A482               	btfss	130,2,c	;volatile
  8977  00313C  EFA2  F018         	goto	i2u259_41
  8978  003140  EFA4  F018         	goto	i2u259_40
  8979  003144                     i2u259_41:
  8980  003144  EFB1  F018         	goto	i2l4053
  8981  003148                     i2u259_40:
  8982  003148  0100               	movlb	0	; () banked
  8983  00314A  51BB               	movf	_oneshotY& (0+255),w,b
  8984  00314C  A4D8               	btfss	status,2,c
  8985  00314E  EFAB  F018         	goto	i2u260_41
  8986  003152  EFAD  F018         	goto	i2u260_40
  8987  003156                     i2u260_41:
  8988  003156  EFB1  F018         	goto	i2l4053
  8989  00315A                     i2u260_40:
  8990  00315A                     
  8991                           ; BSR set to: 0
  8992                           ;PWM.c: 110:         countY++;
  8993  00315A  4A01               	infsnz	i2PWM_OneshotY@countY^0,f,c
  8994  00315C  2A02               	incf	(i2PWM_OneshotY@countY+1)^0,f,c
  8995  00315E                     
  8996                           ; BSR set to: 0
  8997                           ;PWM.c: 111:         oneshotY = 1;
  8998  00315E  0E01               	movlw	1
  8999  003160  6FBB               	movwf	_oneshotY& (0+255),b
  9000  003162                     i2l4053:
  9001                           
  9002                           ;PWM.c: 113:     return countY;
  9003  003162  C001  F001         	movff	i2PWM_OneshotY@countY,?i2_PWM_OneshotY
  9004  003166  C002  F002         	movff	i2PWM_OneshotY@countY+1,?i2_PWM_OneshotY+1
  9005  00316A  0012               	return		;funcret
  9006  00316C                     __end_ofi2_PWM_OneshotY:
  9007                           	opt callstack 0
  9008                           
  9009 ;; *************** function i2_PWM_OneshotX *****************
  9010 ;; Defined at:
  9011 ;;		line 100 in file "PWM.c"
  9012 ;; Parameters:    Size  Location     Type
  9013 ;;  countX          2    0[COMRAM] int 
  9014 ;; Auto vars:     Size  Location     Type
  9015 ;;		None
  9016 ;; Return value:  Size  Location     Type
  9017 ;;                  2    0[COMRAM] int 
  9018 ;; Registers used:
  9019 ;;		wreg, status,2, status,0
  9020 ;; Tracked objects:
  9021 ;;		On entry : 0/0
  9022 ;;		On exit  : 0/0
  9023 ;;		Unchanged: 0/0
  9024 ;; Data sizes:     COMRAM   BANK0   BANK1   BANK2   BANK3   BANK4   BANK5   BANK6   BANK7
  9025 ;;      Params:         2       0       0       0       0       0       0       0       0
  9026 ;;      Locals:         0       0       0       0       0       0       0       0       0
  9027 ;;      Temps:          0       0       0       0       0       0       0       0       0
  9028 ;;      Totals:         2       0       0       0       0       0       0       0       0
  9029 ;;Total ram usage:        2 bytes
  9030 ;; Hardware stack levels used:    1
  9031 ;; This function calls:
  9032 ;;		Nothing
  9033 ;; This function is called by:
  9034 ;;		i2_PWM_GeneratePulsos
  9035 ;; This function uses a non-reentrant model
  9036 ;;
  9037                           
  9038                           	psect	text54
  9039  00316C                     __ptext54:
  9040                           	opt callstack 0
  9041  00316C                     i2_PWM_OneshotX:
  9042                           	opt callstack 22
  9043  00316C                     
  9044                           ;PWM.c: 101:     if (PORTCbits.RC1 == 1 & oneshotX == 0) {
  9045  00316C  A282               	btfss	130,1,c	;volatile
  9046  00316E  EFBB  F018         	goto	i2u257_41
  9047  003172  EFBD  F018         	goto	i2u257_40
  9048  003176                     i2u257_41:
  9049  003176  EFCA  F018         	goto	i2l4041
  9050  00317A                     i2u257_40:
  9051  00317A  0100               	movlb	0	; () banked
  9052  00317C  51BC               	movf	_oneshotX& (0+255),w,b
  9053  00317E  A4D8               	btfss	status,2,c
  9054  003180  EFC4  F018         	goto	i2u258_41
  9055  003184  EFC6  F018         	goto	i2u258_40
  9056  003188                     i2u258_41:
  9057  003188  EFCA  F018         	goto	i2l4041
  9058  00318C                     i2u258_40:
  9059  00318C                     
  9060                           ; BSR set to: 0
  9061                           ;PWM.c: 102:         countX++;
  9062  00318C  4A01               	infsnz	i2PWM_OneshotX@countX^0,f,c
  9063  00318E  2A02               	incf	(i2PWM_OneshotX@countX+1)^0,f,c
  9064  003190                     
  9065                           ; BSR set to: 0
  9066                           ;PWM.c: 103:         oneshotX = 1;
  9067  003190  0E01               	movlw	1
  9068  003192  6FBC               	movwf	_oneshotX& (0+255),b
  9069  003194                     i2l4041:
  9070                           
  9071                           ;PWM.c: 105:     return countX;
  9072  003194  C001  F001         	movff	i2PWM_OneshotX@countX,?i2_PWM_OneshotX
  9073  003198  C002  F002         	movff	i2PWM_OneshotX@countX+1,?i2_PWM_OneshotX+1
  9074  00319C  0012               	return		;funcret
  9075  00319E                     __end_ofi2_PWM_OneshotX:
  9076                           	opt callstack 0
  9077                           
  9078 ;; *************** function i2_PWM_InitF *****************
  9079 ;; Defined at:
  9080 ;;		line 72 in file "PWM.c"
  9081 ;; Parameters:    Size  Location     Type
  9082 ;;		None
  9083 ;; Auto vars:     Size  Location     Type
  9084 ;;		None
  9085 ;; Return value:  Size  Location     Type
  9086 ;;                  1    wreg      void 
  9087 ;; Registers used:
  9088 ;;		wreg, status,2
  9089 ;; Tracked objects:
  9090 ;;		On entry : 0/0
  9091 ;;		On exit  : 0/0
  9092 ;;		Unchanged: 0/0
  9093 ;; Data sizes:     COMRAM   BANK0   BANK1   BANK2   BANK3   BANK4   BANK5   BANK6   BANK7
  9094 ;;      Params:         0       0       0       0       0       0       0       0       0
  9095 ;;      Locals:         0       0       0       0       0       0       0       0       0
  9096 ;;      Temps:          0       0       0       0       0       0       0       0       0
  9097 ;;      Totals:         0       0       0       0       0       0       0       0       0
  9098 ;;Total ram usage:        0 bytes
  9099 ;; Hardware stack levels used:    1
  9100 ;; This function calls:
  9101 ;;		Nothing
  9102 ;; This function is called by:
  9103 ;;		i2_PWM_GeneratePulsos
  9104 ;; This function uses a non-reentrant model
  9105 ;;
  9106                           
  9107                           	psect	text55
  9108  003232                     __ptext55:
  9109                           	opt callstack 0
  9110  003232                     i2_PWM_InitF:
  9111                           	opt callstack 22
  9112  003232                     
  9113                           ;PWM.c: 74:     PR2 = 0X7C;
  9114  003232  0E7C               	movlw	124
  9115  003234  6ECB               	movwf	203,c	;volatile
  9116                           
  9117                           ;PWM.c: 75:     CCPR1L = 0X3E;
  9118  003236  0E3E               	movlw	62
  9119  003238  6EBE               	movwf	190,c	;volatile
  9120                           
  9121                           ;PWM.c: 76:     CCPR2L = 0X3E;
  9122  00323A  0E3E               	movlw	62
  9123  00323C  6EBB               	movwf	187,c	;volatile
  9124  00323E                     
  9125                           ;PWM.c: 77:     TRISCbits.RC1 = 0;
  9126  00323E  9294               	bcf	148,1,c	;volatile
  9127  003240                     
  9128                           ;PWM.c: 78:     TRISCbits.RC2 = 0;
  9129  003240  9494               	bcf	148,2,c	;volatile
  9130                           
  9131                           ;PWM.c: 79:     T2CON = 0X03;
  9132  003242  0E03               	movlw	3
  9133  003244  6ECA               	movwf	202,c	;volatile
  9134                           
  9135                           ;PWM.c: 80:     CCP1CON = 0X0C;
  9136  003246  0E0C               	movlw	12
  9137  003248  6EBD               	movwf	189,c	;volatile
  9138                           
  9139                           ;PWM.c: 81:     CCP2CON = 0X0C;
  9140  00324A  0E0C               	movlw	12
  9141  00324C  6EBA               	movwf	186,c	;volatile
  9142  00324E                     
  9143                           ;PWM.c: 82:     T2CONbits.TMR2ON = 0;
  9144  00324E  94CA               	bcf	202,2,c	;volatile
  9145  003250  0012               	return		;funcret
  9146  003252                     __end_ofi2_PWM_InitF:
  9147                           	opt callstack 0
  9148                           
  9149 ;; *************** function i2_Motor_Conversion *****************
  9150 ;; Defined at:
  9151 ;;		line 18 in file "Motor.c"
  9152 ;; Parameters:    Size  Location     Type
  9153 ;;  Coordenada      2   49[COMRAM] int 
  9154 ;; Auto vars:     Size  Location     Type
  9155 ;;  Motor_Conver    4   51[COMRAM] float 
  9156 ;; Return value:  Size  Location     Type
  9157 ;;                  2   49[COMRAM] int 
  9158 ;; Registers used:
  9159 ;;		wreg, status,2, status,0, cstack
  9160 ;; Tracked objects:
  9161 ;;		On entry : 0/0
  9162 ;;		On exit  : 0/0
  9163 ;;		Unchanged: 0/0
  9164 ;; Data sizes:     COMRAM   BANK0   BANK1   BANK2   BANK3   BANK4   BANK5   BANK6   BANK7
  9165 ;;      Params:         2       0       0       0       0       0       0       0       0
  9166 ;;      Locals:         4       0       0       0       0       0       0       0       0
  9167 ;;      Temps:          0       0       0       0       0       0       0       0       0
  9168 ;;      Totals:         6       0       0       0       0       0       0       0       0
  9169 ;;Total ram usage:        6 bytes
  9170 ;; Hardware stack levels used:    1
  9171 ;; Hardware stack levels required when called:    1
  9172 ;; This function calls:
  9173 ;;		i2___fldiv
  9174 ;;		i2___fltol
  9175 ;;		i2___xxtofl
  9176 ;; This function is called by:
  9177 ;;		_Motor_Movimiento_Home
  9178 ;; This function uses a non-reentrant model
  9179 ;;
  9180                           
  9181                           	psect	text56
  9182  002CC6                     __ptext56:
  9183                           	opt callstack 0
  9184  002CC6                     i2_Motor_Conversion:
  9185                           	opt callstack 22
  9186  002CC6                     
  9187                           ;Motor.c: 19:     float conversion = 0.2;
  9188  002CC6  0ECD               	movlw	205
  9189  002CC8  6E34               	movwf	i2Motor_Conversion@conversion^0,c
  9190  002CCA  0ECC               	movlw	204
  9191  002CCC  6E35               	movwf	(i2Motor_Conversion@conversion+1)^0,c
  9192  002CCE  0E4C               	movlw	76
  9193  002CD0  6E36               	movwf	(i2Motor_Conversion@conversion+2)^0,c
  9194  002CD2  0E3E               	movlw	62
  9195  002CD4  6E37               	movwf	(i2Motor_Conversion@conversion+3)^0,c
  9196  002CD6                     
  9197                           ;Motor.c: 20:     pasos_convertidos = Coordenada / conversion;
  9198  002CD6  C034  F013         	movff	i2Motor_Conversion@conversion,i2___fldiv@a
  9199  002CDA  C035  F014         	movff	i2Motor_Conversion@conversion+1,i2___fldiv@a+1
  9200  002CDE  C036  F015         	movff	i2Motor_Conversion@conversion+2,i2___fldiv@a+2
  9201  002CE2  C037  F016         	movff	i2Motor_Conversion@conversion+3,i2___fldiv@a+3
  9202  002CE6  C032  F001         	movff	i2Motor_Conversion@Coordenada,i2___xxtofl@val
  9203  002CEA  C033  F002         	movff	i2Motor_Conversion@Coordenada+1,i2___xxtofl@val+1
  9204  002CEE  0E00               	movlw	0
  9205  002CF0  BE02               	btfsc	(i2___xxtofl@val+1)^0,7,c
  9206  002CF2  0EFF               	movlw	-1
  9207  002CF4  6E03               	movwf	(i2___xxtofl@val+2)^0,c
  9208  002CF6  6E04               	movwf	(i2___xxtofl@val+3)^0,c
  9209  002CF8  0E01               	movlw	1
  9210  002CFA  EC39  F00C         	call	i2___xxtofl
  9211  002CFE  C001  F00F         	movff	?i2___xxtofl,i2___fldiv@b
  9212  002D02  C002  F010         	movff	?i2___xxtofl+1,i2___fldiv@b+1
  9213  002D06  C003  F011         	movff	?i2___xxtofl+2,i2___fldiv@b+2
  9214  002D0A  C004  F012         	movff	?i2___xxtofl+3,i2___fldiv@b+3
  9215  002D0E  EC5B  F008         	call	i2___fldiv	;wreg free
  9216  002D12  C00F  F028         	movff	?i2___fldiv,i2___fltol@f1
  9217  002D16  C010  F029         	movff	?i2___fldiv+1,i2___fltol@f1+1
  9218  002D1A  C011  F02A         	movff	?i2___fldiv+2,i2___fltol@f1+2
  9219  002D1E  C012  F02B         	movff	?i2___fldiv+3,i2___fltol@f1+3
  9220  002D22  EC6E  F012         	call	i2___fltol	;wreg free
  9221  002D26  C028  F0B6         	movff	?i2___fltol,_pasos_convertidos
  9222  002D2A  C029  F0B7         	movff	?i2___fltol+1,_pasos_convertidos+1
  9223  002D2E                     
  9224                           ;Motor.c: 21:     return pasos_convertidos;
  9225  002D2E  C0B6  F032         	movff	_pasos_convertidos,?i2_Motor_Conversion
  9226  002D32  C0B7  F033         	movff	_pasos_convertidos+1,?i2_Motor_Conversion+1
  9227  002D36  0012               	return		;funcret
  9228  002D38                     __end_ofi2_Motor_Conversion:
  9229                           	opt callstack 0
  9230                           
  9231 ;; *************** function i2___xxtofl *****************
  9232 ;; Defined at:
  9233 ;;		line 10 in file "C:\Program Files (x86)\Microchip\xc8\v2.10\pic\sources\c99\common\xxtofl.c"
  9234 ;; Parameters:    Size  Location     Type
  9235 ;;  sign            1    wreg     unsigned char 
  9236 ;;  val             4    0[COMRAM] long 
  9237 ;; Auto vars:     Size  Location     Type
  9238 ;;  sign            1    8[COMRAM] unsigned char 
  9239 ;;  __xxtofl        4   10[COMRAM] unsigned long 
  9240 ;;  __xxtofl        1    9[COMRAM] unsigned char 
  9241 ;; Return value:  Size  Location     Type
  9242 ;;                  4    0[COMRAM] unsigned char 
  9243 ;; Registers used:
  9244 ;;		wreg, status,2, status,0
  9245 ;; Tracked objects:
  9246 ;;		On entry : 0/0
  9247 ;;		On exit  : 0/0
  9248 ;;		Unchanged: 0/0
  9249 ;; Data sizes:     COMRAM   BANK0   BANK1   BANK2   BANK3   BANK4   BANK5   BANK6   BANK7
  9250 ;;      Params:         4       0       0       0       0       0       0       0       0
  9251 ;;      Locals:         6       0       0       0       0       0       0       0       0
  9252 ;;      Temps:          4       0       0       0       0       0       0       0       0
  9253 ;;      Totals:        14       0       0       0       0       0       0       0       0
  9254 ;;Total ram usage:       14 bytes
  9255 ;; Hardware stack levels used:    1
  9256 ;; This function calls:
  9257 ;;		Nothing
  9258 ;; This function is called by:
  9259 ;;		i2_Motor_Conversion
  9260 ;; This function uses a non-reentrant model
  9261 ;;
  9262                           
  9263                           	psect	text57
  9264  001872                     __ptext57:
  9265                           	opt callstack 0
  9266  001872                     i2___xxtofl:
  9267                           	opt callstack 22
  9268                           
  9269                           ;incstack = 0
  9270                           ;i2___xxtofl@sign stored from wreg
  9271  001872  6E09               	movwf	i2___xxtofl@sign^0,c
  9272  001874  5009               	movf	i2___xxtofl@sign^0,w,c
  9273  001876  B4D8               	btfsc	status,2,c
  9274  001878  EF40  F00C         	goto	i2u291_41
  9275  00187C  EF42  F00C         	goto	i2u291_40
  9276  001880                     i2u291_41:
  9277  001880  EF64  F00C         	goto	i2l1583
  9278  001884                     i2u291_40:
  9279  001884  BE04               	btfsc	(i2___xxtofl@val+3)^0,7,c
  9280  001886  EF49  F00C         	goto	i2u292_40
  9281  00188A  EF47  F00C         	goto	i2u292_41
  9282  00188E                     i2u292_41:
  9283  00188E  EF64  F00C         	goto	i2l1583
  9284  001892                     i2u292_40:
  9285  001892  C001  F005         	movff	i2___xxtofl@val,??i2___xxtofl
  9286  001896  C002  F006         	movff	i2___xxtofl@val+1,??i2___xxtofl+1
  9287  00189A  C003  F007         	movff	i2___xxtofl@val+2,??i2___xxtofl+2
  9288  00189E  C004  F008         	movff	i2___xxtofl@val+3,??i2___xxtofl+3
  9289  0018A2  1E05               	comf	??i2___xxtofl^0,f,c
  9290  0018A4  1E06               	comf	(??i2___xxtofl+1)^0,f,c
  9291  0018A6  1E07               	comf	(??i2___xxtofl+2)^0,f,c
  9292  0018A8  1E08               	comf	(??i2___xxtofl+3)^0,f,c
  9293  0018AA  2A05               	incf	??i2___xxtofl^0,f,c
  9294  0018AC  0E00               	movlw	0
  9295  0018AE  2206               	addwfc	(??i2___xxtofl+1)^0,f,c
  9296  0018B0  2207               	addwfc	(??i2___xxtofl+2)^0,f,c
  9297  0018B2  2208               	addwfc	(??i2___xxtofl+3)^0,f,c
  9298  0018B4  C005  F00B         	movff	??i2___xxtofl,i2___xxtofl@arg
  9299  0018B8  C006  F00C         	movff	??i2___xxtofl+1,i2___xxtofl@arg+1
  9300  0018BC  C007  F00D         	movff	??i2___xxtofl+2,i2___xxtofl@arg+2
  9301  0018C0  C008  F00E         	movff	??i2___xxtofl+3,i2___xxtofl@arg+3
  9302  0018C4  EF6C  F00C         	goto	i2l4245
  9303  0018C8                     i2l1583:
  9304  0018C8  C001  F00B         	movff	i2___xxtofl@val,i2___xxtofl@arg
  9305  0018CC  C002  F00C         	movff	i2___xxtofl@val+1,i2___xxtofl@arg+1
  9306  0018D0  C003  F00D         	movff	i2___xxtofl@val+2,i2___xxtofl@arg+2
  9307  0018D4  C004  F00E         	movff	i2___xxtofl@val+3,i2___xxtofl@arg+3
  9308  0018D8                     i2l4245:
  9309  0018D8  5001               	movf	i2___xxtofl@val^0,w,c
  9310  0018DA  1002               	iorwf	(i2___xxtofl@val+1)^0,w,c
  9311  0018DC  1003               	iorwf	(i2___xxtofl@val+2)^0,w,c
  9312  0018DE  1004               	iorwf	(i2___xxtofl@val+3)^0,w,c
  9313  0018E0  A4D8               	btfss	status,2,c
  9314  0018E2  EF75  F00C         	goto	i2u293_41
  9315  0018E6  EF77  F00C         	goto	i2u293_40
  9316  0018EA                     i2u293_41:
  9317  0018EA  EF81  F00C         	goto	i2l4251
  9318  0018EE                     i2u293_40:
  9319  0018EE  0E00               	movlw	0
  9320  0018F0  6E01               	movwf	?i2___xxtofl^0,c
  9321  0018F2  0E00               	movlw	0
  9322  0018F4  6E02               	movwf	(?i2___xxtofl+1)^0,c
  9323  0018F6  0E00               	movlw	0
  9324  0018F8  6E03               	movwf	(?i2___xxtofl+2)^0,c
  9325  0018FA  0E00               	movlw	0
  9326  0018FC  6E04               	movwf	(?i2___xxtofl+3)^0,c
  9327  0018FE  EF12  F00D         	goto	i2l1586
  9328  001902                     i2l4251:
  9329  001902  0E96               	movlw	150
  9330  001904  6E0A               	movwf	i2___xxtofl@exp^0,c
  9331  001906  EF8B  F00C         	goto	i2l4255
  9332  00190A                     i2l4253:
  9333  00190A  2A0A               	incf	i2___xxtofl@exp^0,f,c
  9334  00190C  90D8               	bcf	status,0,c
  9335  00190E  320E               	rrcf	(i2___xxtofl@arg+3)^0,f,c
  9336  001910  320D               	rrcf	(i2___xxtofl@arg+2)^0,f,c
  9337  001912  320C               	rrcf	(i2___xxtofl@arg+1)^0,f,c
  9338  001914  320B               	rrcf	i2___xxtofl@arg^0,f,c
  9339  001916                     i2l4255:
  9340  001916  0E00               	movlw	0
  9341  001918  140B               	andwf	i2___xxtofl@arg^0,w,c
  9342  00191A  6E05               	movwf	??i2___xxtofl^0,c
  9343  00191C  0E00               	movlw	0
  9344  00191E  140C               	andwf	(i2___xxtofl@arg+1)^0,w,c
  9345  001920  6E06               	movwf	(??i2___xxtofl+1)^0,c
  9346  001922  0E00               	movlw	0
  9347  001924  140D               	andwf	(i2___xxtofl@arg+2)^0,w,c
  9348  001926  6E07               	movwf	(??i2___xxtofl+2)^0,c
  9349  001928  0EFE               	movlw	254
  9350  00192A  140E               	andwf	(i2___xxtofl@arg+3)^0,w,c
  9351  00192C  6E08               	movwf	(??i2___xxtofl+3)^0,c
  9352  00192E  5005               	movf	??i2___xxtofl^0,w,c
  9353  001930  1006               	iorwf	(??i2___xxtofl+1)^0,w,c
  9354  001932  1007               	iorwf	(??i2___xxtofl+2)^0,w,c
  9355  001934  1008               	iorwf	(??i2___xxtofl+3)^0,w,c
  9356  001936  A4D8               	btfss	status,2,c
  9357  001938  EFA0  F00C         	goto	i2u294_41
  9358  00193C  EFA2  F00C         	goto	i2u294_40
  9359  001940                     i2u294_41:
  9360  001940  EF85  F00C         	goto	i2l4253
  9361  001944                     i2u294_40:
  9362  001944  EFB0  F00C         	goto	i2l1590
  9363  001948                     i2l4257:
  9364  001948  2A0A               	incf	i2___xxtofl@exp^0,f,c
  9365  00194A  0E01               	movlw	1
  9366  00194C  260B               	addwf	i2___xxtofl@arg^0,f,c
  9367  00194E  0E00               	movlw	0
  9368  001950  220C               	addwfc	(i2___xxtofl@arg+1)^0,f,c
  9369  001952  220D               	addwfc	(i2___xxtofl@arg+2)^0,f,c
  9370  001954  220E               	addwfc	(i2___xxtofl@arg+3)^0,f,c
  9371  001956  90D8               	bcf	status,0,c
  9372  001958  320E               	rrcf	(i2___xxtofl@arg+3)^0,f,c
  9373  00195A  320D               	rrcf	(i2___xxtofl@arg+2)^0,f,c
  9374  00195C  320C               	rrcf	(i2___xxtofl@arg+1)^0,f,c
  9375  00195E  320B               	rrcf	i2___xxtofl@arg^0,f,c
  9376  001960                     i2l1590:
  9377  001960  0E00               	movlw	0
  9378  001962  140B               	andwf	i2___xxtofl@arg^0,w,c
  9379  001964  6E05               	movwf	??i2___xxtofl^0,c
  9380  001966  0E00               	movlw	0
  9381  001968  140C               	andwf	(i2___xxtofl@arg+1)^0,w,c
  9382  00196A  6E06               	movwf	(??i2___xxtofl+1)^0,c
  9383  00196C  0E00               	movlw	0
  9384  00196E  140D               	andwf	(i2___xxtofl@arg+2)^0,w,c
  9385  001970  6E07               	movwf	(??i2___xxtofl+2)^0,c
  9386  001972  0EFF               	movlw	255
  9387  001974  140E               	andwf	(i2___xxtofl@arg+3)^0,w,c
  9388  001976  6E08               	movwf	(??i2___xxtofl+3)^0,c
  9389  001978  5005               	movf	??i2___xxtofl^0,w,c
  9390  00197A  1006               	iorwf	(??i2___xxtofl+1)^0,w,c
  9391  00197C  1007               	iorwf	(??i2___xxtofl+2)^0,w,c
  9392  00197E  1008               	iorwf	(??i2___xxtofl+3)^0,w,c
  9393  001980  A4D8               	btfss	status,2,c
  9394  001982  EFC5  F00C         	goto	i2u295_41
  9395  001986  EFC7  F00C         	goto	i2u295_40
  9396  00198A                     i2u295_41:
  9397  00198A  EFA4  F00C         	goto	i2l4257
  9398  00198E                     i2u295_40:
  9399  00198E  EFCF  F00C         	goto	i2l4265
  9400  001992                     i2l4263:
  9401  001992  060A               	decf	i2___xxtofl@exp^0,f,c
  9402  001994  90D8               	bcf	status,0,c
  9403  001996  360B               	rlcf	i2___xxtofl@arg^0,f,c
  9404  001998  360C               	rlcf	(i2___xxtofl@arg+1)^0,f,c
  9405  00199A  360D               	rlcf	(i2___xxtofl@arg+2)^0,f,c
  9406  00199C  360E               	rlcf	(i2___xxtofl@arg+3)^0,f,c
  9407  00199E                     i2l4265:
  9408  00199E  BE0D               	btfsc	(i2___xxtofl@arg+2)^0,7,c
  9409  0019A0  EFD4  F00C         	goto	i2u296_41
  9410  0019A4  EFD6  F00C         	goto	i2u296_40
  9411  0019A8                     i2u296_41:
  9412  0019A8  EFDE  F00C         	goto	i2l1597
  9413  0019AC                     i2u296_40:
  9414  0019AC  0E02               	movlw	2
  9415  0019AE  600A               	cpfslt	i2___xxtofl@exp^0,c
  9416  0019B0  EFDC  F00C         	goto	i2u297_41
  9417  0019B4  EFDE  F00C         	goto	i2u297_40
  9418  0019B8                     i2u297_41:
  9419  0019B8  EFC9  F00C         	goto	i2l4263
  9420  0019BC                     i2u297_40:
  9421  0019BC                     i2l1597:
  9422  0019BC  B00A               	btfsc	i2___xxtofl@exp^0,0,c
  9423  0019BE  EFE3  F00C         	goto	i2u298_41
  9424  0019C2  EFE5  F00C         	goto	i2u298_40
  9425  0019C6                     i2u298_41:
  9426  0019C6  EFE6  F00C         	goto	i2l4271
  9427  0019CA                     i2u298_40:
  9428  0019CA  9E0D               	bcf	(i2___xxtofl@arg+2)^0,7,c
  9429  0019CC                     i2l4271:
  9430  0019CC  90D8               	bcf	status,0,c
  9431  0019CE  320A               	rrcf	i2___xxtofl@exp^0,f,c
  9432  0019D0  C00A  F005         	movff	i2___xxtofl@exp,??i2___xxtofl
  9433  0019D4  6A06               	clrf	(??i2___xxtofl+1)^0,c
  9434  0019D6  6A07               	clrf	(??i2___xxtofl+2)^0,c
  9435  0019D8  6A08               	clrf	(??i2___xxtofl+3)^0,c
  9436  0019DA  C005  F008         	movff	??i2___xxtofl,??i2___xxtofl+3
  9437  0019DE  6A07               	clrf	(??i2___xxtofl+2)^0,c
  9438  0019E0  6A06               	clrf	(??i2___xxtofl+1)^0,c
  9439  0019E2  6A05               	clrf	??i2___xxtofl^0,c
  9440  0019E4  5005               	movf	??i2___xxtofl^0,w,c
  9441  0019E6  120B               	iorwf	i2___xxtofl@arg^0,f,c
  9442  0019E8  5006               	movf	(??i2___xxtofl+1)^0,w,c
  9443  0019EA  120C               	iorwf	(i2___xxtofl@arg+1)^0,f,c
  9444  0019EC  5007               	movf	(??i2___xxtofl+2)^0,w,c
  9445  0019EE  120D               	iorwf	(i2___xxtofl@arg+2)^0,f,c
  9446  0019F0  5008               	movf	(??i2___xxtofl+3)^0,w,c
  9447  0019F2  120E               	iorwf	(i2___xxtofl@arg+3)^0,f,c
  9448  0019F4  5009               	movf	i2___xxtofl@sign^0,w,c
  9449  0019F6  B4D8               	btfsc	status,2,c
  9450  0019F8  EF00  F00D         	goto	i2u299_41
  9451  0019FC  EF02  F00D         	goto	i2u299_40
  9452  001A00                     i2u299_41:
  9453  001A00  EF0A  F00D         	goto	i2l4281
  9454  001A04                     i2u299_40:
  9455  001A04  BE04               	btfsc	(i2___xxtofl@val+3)^0,7,c
  9456  001A06  EF09  F00D         	goto	i2u300_40
  9457  001A0A  EF07  F00D         	goto	i2u300_41
  9458  001A0E                     i2u300_41:
  9459  001A0E  EF0A  F00D         	goto	i2l4281
  9460  001A12                     i2u300_40:
  9461  001A12  8E0E               	bsf	(i2___xxtofl@arg+3)^0,7,c
  9462  001A14                     i2l4281:
  9463  001A14  C00B  F001         	movff	i2___xxtofl@arg,?i2___xxtofl
  9464  001A18  C00C  F002         	movff	i2___xxtofl@arg+1,?i2___xxtofl+1
  9465  001A1C  C00D  F003         	movff	i2___xxtofl@arg+2,?i2___xxtofl+2
  9466  001A20  C00E  F004         	movff	i2___xxtofl@arg+3,?i2___xxtofl+3
  9467  001A24                     i2l1586:
  9468  001A24  0012               	return		;funcret
  9469  001A26                     __end_ofi2___xxtofl:
  9470                           	opt callstack 0
  9471                           
  9472 ;; *************** function i2___fltol *****************
  9473 ;; Defined at:
  9474 ;;		line 43 in file "C:\Program Files (x86)\Microchip\xc8\v2.10\pic\sources\c99\common\fltol.c"
  9475 ;; Parameters:    Size  Location     Type
  9476 ;;  f1              4   39[COMRAM] unsigned char 
  9477 ;; Auto vars:     Size  Location     Type
  9478 ;;  __fltol         1   48[COMRAM] unsigned char 
  9479 ;;  __fltol         1   47[COMRAM] unsigned char 
  9480 ;; Return value:  Size  Location     Type
  9481 ;;                  4   39[COMRAM] long 
  9482 ;; Registers used:
  9483 ;;		wreg, status,2, status,0
  9484 ;; Tracked objects:
  9485 ;;		On entry : 0/0
  9486 ;;		On exit  : 0/0
  9487 ;;		Unchanged: 0/0
  9488 ;; Data sizes:     COMRAM   BANK0   BANK1   BANK2   BANK3   BANK4   BANK5   BANK6   BANK7
  9489 ;;      Params:         4       0       0       0       0       0       0       0       0
  9490 ;;      Locals:         2       0       0       0       0       0       0       0       0
  9491 ;;      Temps:          4       0       0       0       0       0       0       0       0
  9492 ;;      Totals:        10       0       0       0       0       0       0       0       0
  9493 ;;Total ram usage:       10 bytes
  9494 ;; Hardware stack levels used:    1
  9495 ;; This function calls:
  9496 ;;		Nothing
  9497 ;; This function is called by:
  9498 ;;		i2_Motor_Conversion
  9499 ;; This function uses a non-reentrant model
  9500 ;;
  9501                           
  9502                           	psect	text58
  9503  0024DC                     __ptext58:
  9504                           	opt callstack 0
  9505  0024DC                     i2___fltol:
  9506                           	opt callstack 22
  9507  0024DC  342A               	rlcf	(i2___fltol@f1+2)^0,w,c
  9508  0024DE  342B               	rlcf	(i2___fltol@f1+3)^0,w,c
  9509  0024E0  6E31               	movwf	i2___fltol@exp1^0,c
  9510  0024E2  5031               	movf	i2___fltol@exp1^0,w,c
  9511  0024E4  A4D8               	btfss	status,2,c
  9512  0024E6  EF77  F012         	goto	i2u261_41
  9513  0024EA  EF79  F012         	goto	i2u261_40
  9514  0024EE                     i2u261_41:
  9515  0024EE  EF83  F012         	goto	i2l4063
  9516  0024F2                     i2u261_40:
  9517  0024F2                     i2l4059:
  9518  0024F2  0E00               	movlw	0
  9519  0024F4  6E28               	movwf	?i2___fltol^0,c
  9520  0024F6  0E00               	movlw	0
  9521  0024F8  6E29               	movwf	(?i2___fltol+1)^0,c
  9522  0024FA  0E00               	movlw	0
  9523  0024FC  6E2A               	movwf	(?i2___fltol+2)^0,c
  9524  0024FE  0E00               	movlw	0
  9525  002500  6E2B               	movwf	(?i2___fltol+3)^0,c
  9526  002502  EFF0  F012         	goto	i2l1225
  9527  002506                     i2l4063:
  9528  002506  C028  F02C         	movff	i2___fltol@f1,??i2___fltol
  9529  00250A  C029  F02D         	movff	i2___fltol@f1+1,??i2___fltol+1
  9530  00250E  C02A  F02E         	movff	i2___fltol@f1+2,??i2___fltol+2
  9531  002512  C02B  F02F         	movff	i2___fltol@f1+3,??i2___fltol+3
  9532  002516  0E20               	movlw	32
  9533  002518  EF93  F012         	goto	i2u262_40
  9534  00251C                     i2u262_45:
  9535  00251C  90D8               	bcf	status,0,c
  9536  00251E  322F               	rrcf	(??i2___fltol+3)^0,f,c
  9537  002520  322E               	rrcf	(??i2___fltol+2)^0,f,c
  9538  002522  322D               	rrcf	(??i2___fltol+1)^0,f,c
  9539  002524  322C               	rrcf	??i2___fltol^0,f,c
  9540  002526                     i2u262_40:
  9541  002526  2EE8               	decfsz	wreg,f,c
  9542  002528  EF8E  F012         	goto	i2u262_45
  9543  00252C  502C               	movf	??i2___fltol^0,w,c
  9544  00252E  6E30               	movwf	i2___fltol@sign1^0,c
  9545  002530  8E2A               	bsf	(i2___fltol@f1+2)^0,7,c
  9546  002532  0EFF               	movlw	255
  9547  002534  1628               	andwf	i2___fltol@f1^0,f,c
  9548  002536  0EFF               	movlw	255
  9549  002538  1629               	andwf	(i2___fltol@f1+1)^0,f,c
  9550  00253A  0EFF               	movlw	255
  9551  00253C  162A               	andwf	(i2___fltol@f1+2)^0,f,c
  9552  00253E  0E00               	movlw	0
  9553  002540  162B               	andwf	(i2___fltol@f1+3)^0,f,c
  9554  002542  0E96               	movlw	150
  9555  002544  5E31               	subwf	i2___fltol@exp1^0,f,c
  9556  002546  BE31               	btfsc	i2___fltol@exp1^0,7,c
  9557  002548  EFAA  F012         	goto	i2u263_40
  9558  00254C  EFA8  F012         	goto	i2u263_41
  9559  002550                     i2u263_41:
  9560  002550  EFC0  F012         	goto	i2l4083
  9561  002554                     i2u263_40:
  9562  002554  5031               	movf	i2___fltol@exp1^0,w,c
  9563  002556  0A80               	xorlw	128
  9564  002558  0F97               	addlw	151
  9565  00255A  B0D8               	btfsc	status,0,c
  9566  00255C  EFB2  F012         	goto	i2u264_41
  9567  002560  EFB4  F012         	goto	i2u264_40
  9568  002564                     i2u264_41:
  9569  002564  EFB6  F012         	goto	i2l4079
  9570  002568                     i2u264_40:
  9571  002568  EF79  F012         	goto	i2l4059
  9572  00256C                     i2l4079:
  9573  00256C  90D8               	bcf	status,0,c
  9574  00256E  322B               	rrcf	(i2___fltol@f1+3)^0,f,c
  9575  002570  322A               	rrcf	(i2___fltol@f1+2)^0,f,c
  9576  002572  3229               	rrcf	(i2___fltol@f1+1)^0,f,c
  9577  002574  3228               	rrcf	i2___fltol@f1^0,f,c
  9578  002576  3E31               	incfsz	i2___fltol@exp1^0,f,c
  9579  002578  EFB6  F012         	goto	i2l4079
  9580  00257C  EFD8  F012         	goto	i2l4093
  9581  002580                     i2l4083:
  9582  002580  0E1F               	movlw	31
  9583  002582  6431               	cpfsgt	i2___fltol@exp1^0,c
  9584  002584  EFC6  F012         	goto	i2u265_41
  9585  002588  EFC8  F012         	goto	i2u265_40
  9586  00258C                     i2u265_41:
  9587  00258C  EFD0  F012         	goto	i2l4091
  9588  002590                     i2u265_40:
  9589  002590  EF79  F012         	goto	i2l4059
  9590  002594                     i2l4089:
  9591  002594  90D8               	bcf	status,0,c
  9592  002596  3628               	rlcf	i2___fltol@f1^0,f,c
  9593  002598  3629               	rlcf	(i2___fltol@f1+1)^0,f,c
  9594  00259A  362A               	rlcf	(i2___fltol@f1+2)^0,f,c
  9595  00259C  362B               	rlcf	(i2___fltol@f1+3)^0,f,c
  9596  00259E  0631               	decf	i2___fltol@exp1^0,f,c
  9597  0025A0                     i2l4091:
  9598  0025A0  5031               	movf	i2___fltol@exp1^0,w,c
  9599  0025A2  A4D8               	btfss	status,2,c
  9600  0025A4  EFD6  F012         	goto	i2u266_41
  9601  0025A8  EFD8  F012         	goto	i2u266_40
  9602  0025AC                     i2u266_41:
  9603  0025AC  EFCA  F012         	goto	i2l4089
  9604  0025B0                     i2u266_40:
  9605  0025B0                     i2l4093:
  9606  0025B0  5030               	movf	i2___fltol@sign1^0,w,c
  9607  0025B2  B4D8               	btfsc	status,2,c
  9608  0025B4  EFDE  F012         	goto	i2u267_41
  9609  0025B8  EFE0  F012         	goto	i2u267_40
  9610  0025BC                     i2u267_41:
  9611  0025BC  EFE8  F012         	goto	i2l4097
  9612  0025C0                     i2u267_40:
  9613  0025C0  1E2B               	comf	(i2___fltol@f1+3)^0,f,c
  9614  0025C2  1E2A               	comf	(i2___fltol@f1+2)^0,f,c
  9615  0025C4  1E29               	comf	(i2___fltol@f1+1)^0,f,c
  9616  0025C6  6C28               	negf	i2___fltol@f1^0,c
  9617  0025C8  0E00               	movlw	0
  9618  0025CA  2229               	addwfc	(i2___fltol@f1+1)^0,f,c
  9619  0025CC  222A               	addwfc	(i2___fltol@f1+2)^0,f,c
  9620  0025CE  222B               	addwfc	(i2___fltol@f1+3)^0,f,c
  9621  0025D0                     i2l4097:
  9622  0025D0  C028  F028         	movff	i2___fltol@f1,?i2___fltol
  9623  0025D4  C029  F029         	movff	i2___fltol@f1+1,?i2___fltol+1
  9624  0025D8  C02A  F02A         	movff	i2___fltol@f1+2,?i2___fltol+2
  9625  0025DC  C02B  F02B         	movff	i2___fltol@f1+3,?i2___fltol+3
  9626  0025E0                     i2l1225:
  9627  0025E0  0012               	return		;funcret
  9628  0025E2                     __end_ofi2___fltol:
  9629                           	opt callstack 0
  9630                           
  9631 ;; *************** function i2___fldiv *****************
  9632 ;; Defined at:
  9633 ;;		line 11 in file "C:\Program Files (x86)\Microchip\xc8\v2.10\pic\sources\c99\common\sprcdiv.c"
  9634 ;; Parameters:    Size  Location     Type
  9635 ;;  b               4   14[COMRAM] long 
  9636 ;;  a               4   18[COMRAM] long 
  9637 ;; Auto vars:     Size  Location     Type
  9638 ;;  __fldiv         4   33[COMRAM] unsigned long 
  9639 ;;  __fldiv         4   26[COMRAM] unsigned long 
  9640 ;;  __fldiv         2   31[COMRAM] short 
  9641 ;;  __fldiv         1   38[COMRAM] unsigned char 
  9642 ;;  __fldiv         1   37[COMRAM] unsigned char 
  9643 ;;  __fldiv         1   30[COMRAM] unsigned char 
  9644 ;; Return value:  Size  Location     Type
  9645 ;;                  4   14[COMRAM] unsigned char 
  9646 ;; Registers used:
  9647 ;;		wreg, status,2, status,0
  9648 ;; Tracked objects:
  9649 ;;		On entry : 0/0
  9650 ;;		On exit  : 0/0
  9651 ;;		Unchanged: 0/0
  9652 ;; Data sizes:     COMRAM   BANK0   BANK1   BANK2   BANK3   BANK4   BANK5   BANK6   BANK7
  9653 ;;      Params:         8       0       0       0       0       0       0       0       0
  9654 ;;      Locals:        13       0       0       0       0       0       0       0       0
  9655 ;;      Temps:          4       0       0       0       0       0       0       0       0
  9656 ;;      Totals:        25       0       0       0       0       0       0       0       0
  9657 ;;Total ram usage:       25 bytes
  9658 ;; Hardware stack levels used:    1
  9659 ;; This function calls:
  9660 ;;		Nothing
  9661 ;; This function is called by:
  9662 ;;		i2_Motor_Conversion
  9663 ;; This function uses a non-reentrant model
  9664 ;;
  9665                           
  9666                           	psect	text59
  9667  0010B6                     __ptext59:
  9668                           	opt callstack 0
  9669  0010B6                     i2___fldiv:
  9670                           	opt callstack 22
  9671  0010B6  5012               	movf	(i2___fldiv@b+3)^0,w,c
  9672  0010B8  0B80               	andlw	128
  9673  0010BA  6E1F               	movwf	i2___fldiv@sign^0,c
  9674  0010BC  5012               	movf	(i2___fldiv@b+3)^0,w,c
  9675  0010BE  2412               	addwf	(i2___fldiv@b+3)^0,w,c
  9676  0010C0  6E26               	movwf	i2___fldiv@bexp^0,c
  9677  0010C2  AE11               	btfss	(i2___fldiv@b+2)^0,7,c
  9678  0010C4  EF66  F008         	goto	i2u268_41
  9679  0010C8  EF68  F008         	goto	i2u268_40
  9680  0010CC                     i2u268_41:
  9681  0010CC  EF69  F008         	goto	i2l4107
  9682  0010D0                     i2u268_40:
  9683  0010D0  8026               	bsf	i2___fldiv@bexp^0,0,c
  9684  0010D2                     i2l4107:
  9685  0010D2  5026               	movf	i2___fldiv@bexp^0,w,c
  9686  0010D4  B4D8               	btfsc	status,2,c
  9687  0010D6  EF6F  F008         	goto	i2u269_41
  9688  0010DA  EF71  F008         	goto	i2u269_40
  9689  0010DE                     i2u269_41:
  9690  0010DE  EF86  F008         	goto	i2l4117
  9691  0010E2                     i2u269_40:
  9692  0010E2  2826               	incf	i2___fldiv@bexp^0,w,c
  9693  0010E4  A4D8               	btfss	status,2,c
  9694  0010E6  EF77  F008         	goto	i2u270_41
  9695  0010EA  EF79  F008         	goto	i2u270_40
  9696  0010EE                     i2u270_41:
  9697  0010EE  EF81  F008         	goto	i2l4113
  9698  0010F2                     i2u270_40:
  9699  0010F2  0E00               	movlw	0
  9700  0010F4  6E0F               	movwf	i2___fldiv@b^0,c
  9701  0010F6  0E00               	movlw	0
  9702  0010F8  6E10               	movwf	(i2___fldiv@b+1)^0,c
  9703  0010FA  0E00               	movlw	0
  9704  0010FC  6E11               	movwf	(i2___fldiv@b+2)^0,c
  9705  0010FE  0E00               	movlw	0
  9706  001100  6E12               	movwf	(i2___fldiv@b+3)^0,c
  9707  001102                     i2l4113:
  9708  001102  8E11               	bsf	(i2___fldiv@b+2)^0,7,c
  9709  001104  0E00               	movlw	0
  9710  001106  6E12               	movwf	(i2___fldiv@b+3)^0,c
  9711  001108  EF8E  F008         	goto	i2l4119
  9712  00110C                     i2l4117:
  9713  00110C  0E00               	movlw	0
  9714  00110E  6E0F               	movwf	i2___fldiv@b^0,c
  9715  001110  0E00               	movlw	0
  9716  001112  6E10               	movwf	(i2___fldiv@b+1)^0,c
  9717  001114  0E00               	movlw	0
  9718  001116  6E11               	movwf	(i2___fldiv@b+2)^0,c
  9719  001118  0E00               	movlw	0
  9720  00111A  6E12               	movwf	(i2___fldiv@b+3)^0,c
  9721  00111C                     i2l4119:
  9722  00111C  5016               	movf	(i2___fldiv@a+3)^0,w,c
  9723  00111E  0B80               	andlw	128
  9724  001120  1A1F               	xorwf	i2___fldiv@sign^0,f,c
  9725  001122  5016               	movf	(i2___fldiv@a+3)^0,w,c
  9726  001124  2416               	addwf	(i2___fldiv@a+3)^0,w,c
  9727  001126  6E27               	movwf	i2___fldiv@aexp^0,c
  9728  001128  AE15               	btfss	(i2___fldiv@a+2)^0,7,c
  9729  00112A  EF99  F008         	goto	i2u271_41
  9730  00112E  EF9B  F008         	goto	i2u271_40
  9731  001132                     i2u271_41:
  9732  001132  EF9C  F008         	goto	i2l4127
  9733  001136                     i2u271_40:
  9734  001136  8027               	bsf	i2___fldiv@aexp^0,0,c
  9735  001138                     i2l4127:
  9736  001138  5027               	movf	i2___fldiv@aexp^0,w,c
  9737  00113A  B4D8               	btfsc	status,2,c
  9738  00113C  EFA2  F008         	goto	i2u272_41
  9739  001140  EFA4  F008         	goto	i2u272_40
  9740  001144                     i2u272_41:
  9741  001144  EFB9  F008         	goto	i2l4137
  9742  001148                     i2u272_40:
  9743  001148  2827               	incf	i2___fldiv@aexp^0,w,c
  9744  00114A  A4D8               	btfss	status,2,c
  9745  00114C  EFAA  F008         	goto	i2u273_41
  9746  001150  EFAC  F008         	goto	i2u273_40
  9747  001154                     i2u273_41:
  9748  001154  EFB4  F008         	goto	i2l4133
  9749  001158                     i2u273_40:
  9750  001158  0E00               	movlw	0
  9751  00115A  6E13               	movwf	i2___fldiv@a^0,c
  9752  00115C  0E00               	movlw	0
  9753  00115E  6E14               	movwf	(i2___fldiv@a+1)^0,c
  9754  001160  0E00               	movlw	0
  9755  001162  6E15               	movwf	(i2___fldiv@a+2)^0,c
  9756  001164  0E00               	movlw	0
  9757  001166  6E16               	movwf	(i2___fldiv@a+3)^0,c
  9758  001168                     i2l4133:
  9759  001168  8E15               	bsf	(i2___fldiv@a+2)^0,7,c
  9760  00116A  0E00               	movlw	0
  9761  00116C  6E16               	movwf	(i2___fldiv@a+3)^0,c
  9762  00116E  EFC1  F008         	goto	i2l4139
  9763  001172                     i2l4137:
  9764  001172  0E00               	movlw	0
  9765  001174  6E13               	movwf	i2___fldiv@a^0,c
  9766  001176  0E00               	movlw	0
  9767  001178  6E14               	movwf	(i2___fldiv@a+1)^0,c
  9768  00117A  0E00               	movlw	0
  9769  00117C  6E15               	movwf	(i2___fldiv@a+2)^0,c
  9770  00117E  0E00               	movlw	0
  9771  001180  6E16               	movwf	(i2___fldiv@a+3)^0,c
  9772  001182                     i2l4139:
  9773  001182  5013               	movf	i2___fldiv@a^0,w,c
  9774  001184  1014               	iorwf	(i2___fldiv@a+1)^0,w,c
  9775  001186  1015               	iorwf	(i2___fldiv@a+2)^0,w,c
  9776  001188  1016               	iorwf	(i2___fldiv@a+3)^0,w,c
  9777  00118A  A4D8               	btfss	status,2,c
  9778  00118C  EFCA  F008         	goto	i2u274_41
  9779  001190  EFCC  F008         	goto	i2u274_40
  9780  001194                     i2u274_41:
  9781  001194  EFE4  F008         	goto	i2l4151
  9782  001198                     i2u274_40:
  9783  001198  0E00               	movlw	0
  9784  00119A  6E0F               	movwf	i2___fldiv@b^0,c
  9785  00119C  0E00               	movlw	0
  9786  00119E  6E10               	movwf	(i2___fldiv@b+1)^0,c
  9787  0011A0  0E00               	movlw	0
  9788  0011A2  6E11               	movwf	(i2___fldiv@b+2)^0,c
  9789  0011A4  0E00               	movlw	0
  9790  0011A6  6E12               	movwf	(i2___fldiv@b+3)^0,c
  9791  0011A8  0E80               	movlw	128
  9792  0011AA  1211               	iorwf	(i2___fldiv@b+2)^0,f,c
  9793  0011AC  0E7F               	movlw	127
  9794  0011AE  1212               	iorwf	(i2___fldiv@b+3)^0,f,c
  9795  0011B0                     i2l4145:
  9796  0011B0  501F               	movf	i2___fldiv@sign^0,w,c
  9797  0011B2  1212               	iorwf	(i2___fldiv@b+3)^0,f,c
  9798  0011B4  C00F  F00F         	movff	i2___fldiv@b,?i2___fldiv
  9799  0011B8  C010  F010         	movff	i2___fldiv@b+1,?i2___fldiv+1
  9800  0011BC  C011  F011         	movff	i2___fldiv@b+2,?i2___fldiv+2
  9801  0011C0  C012  F012         	movff	i2___fldiv@b+3,?i2___fldiv+3
  9802  0011C4  EF27  F00A         	goto	i2l1510
  9803  0011C8                     i2l4151:
  9804  0011C8  5026               	movf	i2___fldiv@bexp^0,w,c
  9805  0011CA  A4D8               	btfss	status,2,c
  9806  0011CC  EFEA  F008         	goto	i2u275_41
  9807  0011D0  EFEC  F008         	goto	i2u275_40
  9808  0011D4                     i2u275_41:
  9809  0011D4  EFF6  F008         	goto	i2l4159
  9810  0011D8                     i2u275_40:
  9811  0011D8  0E00               	movlw	0
  9812  0011DA  6E0F               	movwf	?i2___fldiv^0,c
  9813  0011DC  0E00               	movlw	0
  9814  0011DE  6E10               	movwf	(?i2___fldiv+1)^0,c
  9815  0011E0  0E00               	movlw	0
  9816  0011E2  6E11               	movwf	(?i2___fldiv+2)^0,c
  9817  0011E4  0E00               	movlw	0
  9818  0011E6  6E12               	movwf	(?i2___fldiv+3)^0,c
  9819  0011E8  EF27  F00A         	goto	i2l1510
  9820  0011EC                     i2l4159:
  9821  0011EC  5027               	movf	i2___fldiv@aexp^0,w,c
  9822  0011EE  C026  F017         	movff	i2___fldiv@bexp,??i2___fldiv
  9823  0011F2  6A18               	clrf	(??i2___fldiv+1)^0,c
  9824  0011F4  5E17               	subwf	??i2___fldiv^0,f,c
  9825  0011F6  0E00               	movlw	0
  9826  0011F8  5A18               	subwfb	(??i2___fldiv+1)^0,f,c
  9827  0011FA  0E7F               	movlw	127
  9828  0011FC  2417               	addwf	??i2___fldiv^0,w,c
  9829  0011FE  6E20               	movwf	i2___fldiv@new_exp^0,c
  9830  001200  0E00               	movlw	0
  9831  001202  2018               	addwfc	(??i2___fldiv+1)^0,w,c
  9832  001204  6E21               	movwf	(i2___fldiv@new_exp+1)^0,c
  9833  001206  C00F  F01B         	movff	i2___fldiv@b,i2___fldiv@rem
  9834  00120A  C010  F01C         	movff	i2___fldiv@b+1,i2___fldiv@rem+1
  9835  00120E  C011  F01D         	movff	i2___fldiv@b+2,i2___fldiv@rem+2
  9836  001212  C012  F01E         	movff	i2___fldiv@b+3,i2___fldiv@rem+3
  9837  001216  0E00               	movlw	0
  9838  001218  6E0F               	movwf	i2___fldiv@b^0,c
  9839  00121A  0E00               	movlw	0
  9840  00121C  6E10               	movwf	(i2___fldiv@b+1)^0,c
  9841  00121E  0E00               	movlw	0
  9842  001220  6E11               	movwf	(i2___fldiv@b+2)^0,c
  9843  001222  0E00               	movlw	0
  9844  001224  6E12               	movwf	(i2___fldiv@b+3)^0,c
  9845  001226  0E00               	movlw	0
  9846  001228  6E22               	movwf	i2___fldiv@grs^0,c
  9847  00122A  0E00               	movlw	0
  9848  00122C  6E23               	movwf	(i2___fldiv@grs+1)^0,c
  9849  00122E  0E00               	movlw	0
  9850  001230  6E24               	movwf	(i2___fldiv@grs+2)^0,c
  9851  001232  0E00               	movlw	0
  9852  001234  6E25               	movwf	(i2___fldiv@grs+3)^0,c
  9853  001236  0E00               	movlw	0
  9854  001238  6E27               	movwf	i2___fldiv@aexp^0,c
  9855  00123A  EF57  F009         	goto	i2l1512
  9856  00123E                     i2l4169:
  9857  00123E  5027               	movf	i2___fldiv@aexp^0,w,c
  9858  001240  B4D8               	btfsc	status,2,c
  9859  001242  EF25  F009         	goto	i2u276_41
  9860  001246  EF27  F009         	goto	i2u276_40
  9861  00124A                     i2u276_41:
  9862  00124A  EF3E  F009         	goto	i2l4177
  9863  00124E                     i2u276_40:
  9864  00124E  90D8               	bcf	status,0,c
  9865  001250  361B               	rlcf	i2___fldiv@rem^0,f,c
  9866  001252  361C               	rlcf	(i2___fldiv@rem+1)^0,f,c
  9867  001254  361D               	rlcf	(i2___fldiv@rem+2)^0,f,c
  9868  001256  361E               	rlcf	(i2___fldiv@rem+3)^0,f,c
  9869  001258  90D8               	bcf	status,0,c
  9870  00125A  360F               	rlcf	i2___fldiv@b^0,f,c
  9871  00125C  3610               	rlcf	(i2___fldiv@b+1)^0,f,c
  9872  00125E  3611               	rlcf	(i2___fldiv@b+2)^0,f,c
  9873  001260  3612               	rlcf	(i2___fldiv@b+3)^0,f,c
  9874  001262  AE25               	btfss	(i2___fldiv@grs+3)^0,7,c
  9875  001264  EF36  F009         	goto	i2u277_41
  9876  001268  EF38  F009         	goto	i2u277_40
  9877  00126C                     i2u277_41:
  9878  00126C  EF39  F009         	goto	i2l1515
  9879  001270                     i2u277_40:
  9880  001270  800F               	bsf	i2___fldiv@b^0,0,c
  9881  001272                     i2l1515:
  9882  001272  90D8               	bcf	status,0,c
  9883  001274  3622               	rlcf	i2___fldiv@grs^0,f,c
  9884  001276  3623               	rlcf	(i2___fldiv@grs+1)^0,f,c
  9885  001278  3624               	rlcf	(i2___fldiv@grs+2)^0,f,c
  9886  00127A  3625               	rlcf	(i2___fldiv@grs+3)^0,f,c
  9887  00127C                     i2l4177:
  9888  00127C  5013               	movf	i2___fldiv@a^0,w,c
  9889  00127E  5C1B               	subwf	i2___fldiv@rem^0,w,c
  9890  001280  5014               	movf	(i2___fldiv@a+1)^0,w,c
  9891  001282  581C               	subwfb	(i2___fldiv@rem+1)^0,w,c
  9892  001284  5015               	movf	(i2___fldiv@a+2)^0,w,c
  9893  001286  581D               	subwfb	(i2___fldiv@rem+2)^0,w,c
  9894  001288  5016               	movf	(i2___fldiv@a+3)^0,w,c
  9895  00128A  581E               	subwfb	(i2___fldiv@rem+3)^0,w,c
  9896  00128C  A0D8               	btfss	status,0,c
  9897  00128E  EF4B  F009         	goto	i2u278_41
  9898  001292  EF4D  F009         	goto	i2u278_40
  9899  001296                     i2u278_41:
  9900  001296  EF56  F009         	goto	i2l4183
  9901  00129A                     i2u278_40:
  9902  00129A  8C25               	bsf	(i2___fldiv@grs+3)^0,6,c
  9903  00129C  5013               	movf	i2___fldiv@a^0,w,c
  9904  00129E  5E1B               	subwf	i2___fldiv@rem^0,f,c
  9905  0012A0  5014               	movf	(i2___fldiv@a+1)^0,w,c
  9906  0012A2  5A1C               	subwfb	(i2___fldiv@rem+1)^0,f,c
  9907  0012A4  5015               	movf	(i2___fldiv@a+2)^0,w,c
  9908  0012A6  5A1D               	subwfb	(i2___fldiv@rem+2)^0,f,c
  9909  0012A8  5016               	movf	(i2___fldiv@a+3)^0,w,c
  9910  0012AA  5A1E               	subwfb	(i2___fldiv@rem+3)^0,f,c
  9911  0012AC                     i2l4183:
  9912  0012AC  2A27               	incf	i2___fldiv@aexp^0,f,c
  9913  0012AE                     i2l1512:
  9914  0012AE  0E19               	movlw	25
  9915  0012B0  6427               	cpfsgt	i2___fldiv@aexp^0,c
  9916  0012B2  EF5D  F009         	goto	i2u279_41
  9917  0012B6  EF5F  F009         	goto	i2u279_40
  9918  0012BA                     i2u279_41:
  9919  0012BA  EF1F  F009         	goto	i2l4169
  9920  0012BE                     i2u279_40:
  9921  0012BE  501B               	movf	i2___fldiv@rem^0,w,c
  9922  0012C0  101C               	iorwf	(i2___fldiv@rem+1)^0,w,c
  9923  0012C2  101D               	iorwf	(i2___fldiv@rem+2)^0,w,c
  9924  0012C4  101E               	iorwf	(i2___fldiv@rem+3)^0,w,c
  9925  0012C6  B4D8               	btfsc	status,2,c
  9926  0012C8  EF68  F009         	goto	i2u280_41
  9927  0012CC  EF6A  F009         	goto	i2u280_40
  9928  0012D0                     i2u280_41:
  9929  0012D0  EF82  F009         	goto	i2l4195
  9930  0012D4                     i2u280_40:
  9931  0012D4  8022               	bsf	i2___fldiv@grs^0,0,c
  9932  0012D6  EF82  F009         	goto	i2l4195
  9933  0012DA                     i2l4189:
  9934  0012DA  90D8               	bcf	status,0,c
  9935  0012DC  360F               	rlcf	i2___fldiv@b^0,f,c
  9936  0012DE  3610               	rlcf	(i2___fldiv@b+1)^0,f,c
  9937  0012E0  3611               	rlcf	(i2___fldiv@b+2)^0,f,c
  9938  0012E2  3612               	rlcf	(i2___fldiv@b+3)^0,f,c
  9939  0012E4  AE25               	btfss	(i2___fldiv@grs+3)^0,7,c
  9940  0012E6  EF77  F009         	goto	i2u281_41
  9941  0012EA  EF79  F009         	goto	i2u281_40
  9942  0012EE                     i2u281_41:
  9943  0012EE  EF7A  F009         	goto	i2l1521
  9944  0012F2                     i2u281_40:
  9945  0012F2  800F               	bsf	i2___fldiv@b^0,0,c
  9946  0012F4                     i2l1521:
  9947  0012F4  90D8               	bcf	status,0,c
  9948  0012F6  3622               	rlcf	i2___fldiv@grs^0,f,c
  9949  0012F8  3623               	rlcf	(i2___fldiv@grs+1)^0,f,c
  9950  0012FA  3624               	rlcf	(i2___fldiv@grs+2)^0,f,c
  9951  0012FC  3625               	rlcf	(i2___fldiv@grs+3)^0,f,c
  9952  0012FE  0620               	decf	i2___fldiv@new_exp^0,f,c
  9953  001300  A0D8               	btfss	status,0,c
  9954  001302  0621               	decf	(i2___fldiv@new_exp+1)^0,f,c
  9955  001304                     i2l4195:
  9956  001304  AE11               	btfss	(i2___fldiv@b+2)^0,7,c
  9957  001306  EF87  F009         	goto	i2u282_41
  9958  00130A  EF89  F009         	goto	i2u282_40
  9959  00130E                     i2u282_41:
  9960  00130E  EF6D  F009         	goto	i2l4189
  9961  001312                     i2u282_40:
  9962  001312  0E00               	movlw	0
  9963  001314  6E27               	movwf	i2___fldiv@aexp^0,c
  9964  001316  AE25               	btfss	(i2___fldiv@grs+3)^0,7,c
  9965  001318  EF90  F009         	goto	i2u283_41
  9966  00131C  EF92  F009         	goto	i2u283_40
  9967  001320                     i2u283_41:
  9968  001320  EFB6  F009         	goto	i2l1523
  9969  001324                     i2u283_40:
  9970  001324  0EFF               	movlw	255
  9971  001326  1422               	andwf	i2___fldiv@grs^0,w,c
  9972  001328  6E17               	movwf	??i2___fldiv^0,c
  9973  00132A  0EFF               	movlw	255
  9974  00132C  1423               	andwf	(i2___fldiv@grs+1)^0,w,c
  9975  00132E  6E18               	movwf	(??i2___fldiv+1)^0,c
  9976  001330  0EFF               	movlw	255
  9977  001332  1424               	andwf	(i2___fldiv@grs+2)^0,w,c
  9978  001334  6E19               	movwf	(??i2___fldiv+2)^0,c
  9979  001336  0E7F               	movlw	127
  9980  001338  1425               	andwf	(i2___fldiv@grs+3)^0,w,c
  9981  00133A  6E1A               	movwf	(??i2___fldiv+3)^0,c
  9982  00133C  5017               	movf	??i2___fldiv^0,w,c
  9983  00133E  1018               	iorwf	(??i2___fldiv+1)^0,w,c
  9984  001340  1019               	iorwf	(??i2___fldiv+2)^0,w,c
  9985  001342  101A               	iorwf	(??i2___fldiv+3)^0,w,c
  9986  001344  B4D8               	btfsc	status,2,c
  9987  001346  EFA7  F009         	goto	i2u284_41
  9988  00134A  EFA9  F009         	goto	i2u284_40
  9989  00134E                     i2u284_41:
  9990  00134E  EFAD  F009         	goto	i2l1524
  9991  001352                     i2u284_40:
  9992  001352                     i2l4203:
  9993  001352  0E01               	movlw	1
  9994  001354  6E27               	movwf	i2___fldiv@aexp^0,c
  9995  001356  EFB6  F009         	goto	i2l1523
  9996  00135A                     i2l1524:
  9997  00135A  A00F               	btfss	i2___fldiv@b^0,0,c
  9998  00135C  EFB2  F009         	goto	i2u285_41
  9999  001360  EFB4  F009         	goto	i2u285_40
 10000  001364                     i2u285_41:
 10001  001364  EFB6  F009         	goto	i2l1523
 10002  001368                     i2u285_40:
 10003  001368  EFA9  F009         	goto	i2l4203
 10004  00136C                     i2l1523:
 10005  00136C  5027               	movf	i2___fldiv@aexp^0,w,c
 10006  00136E  B4D8               	btfsc	status,2,c
 10007  001370  EFBC  F009         	goto	i2u286_41
 10008  001374  EFBE  F009         	goto	i2u286_40
 10009  001378                     i2u286_41:
 10010  001378  EFE2  F009         	goto	i2l4215
 10011  00137C                     i2u286_40:
 10012  00137C  0E01               	movlw	1
 10013  00137E  260F               	addwf	i2___fldiv@b^0,f,c
 10014  001380  0E00               	movlw	0
 10015  001382  2210               	addwfc	(i2___fldiv@b+1)^0,f,c
 10016  001384  2211               	addwfc	(i2___fldiv@b+2)^0,f,c
 10017  001386  2212               	addwfc	(i2___fldiv@b+3)^0,f,c
 10018  001388  A012               	btfss	(i2___fldiv@b+3)^0,0,c
 10019  00138A  EFC9  F009         	goto	i2u287_41
 10020  00138E  EFCB  F009         	goto	i2u287_40
 10021  001392                     i2u287_41:
 10022  001392  EFE2  F009         	goto	i2l4215
 10023  001396                     i2u287_40:
 10024  001396  C00F  F017         	movff	i2___fldiv@b,??i2___fldiv
 10025  00139A  C010  F018         	movff	i2___fldiv@b+1,??i2___fldiv+1
 10026  00139E  C011  F019         	movff	i2___fldiv@b+2,??i2___fldiv+2
 10027  0013A2  C012  F01A         	movff	i2___fldiv@b+3,??i2___fldiv+3
 10028  0013A6  341A               	rlcf	(??i2___fldiv+3)^0,w,c
 10029  0013A8  321A               	rrcf	(??i2___fldiv+3)^0,f,c
 10030  0013AA  3219               	rrcf	(??i2___fldiv+2)^0,f,c
 10031  0013AC  3218               	rrcf	(??i2___fldiv+1)^0,f,c
 10032  0013AE  3217               	rrcf	??i2___fldiv^0,f,c
 10033  0013B0  C017  F00F         	movff	??i2___fldiv,i2___fldiv@b
 10034  0013B4  C018  F010         	movff	??i2___fldiv+1,i2___fldiv@b+1
 10035  0013B8  C019  F011         	movff	??i2___fldiv+2,i2___fldiv@b+2
 10036  0013BC  C01A  F012         	movff	??i2___fldiv+3,i2___fldiv@b+3
 10037  0013C0  4A20               	infsnz	i2___fldiv@new_exp^0,f,c
 10038  0013C2  2A21               	incf	(i2___fldiv@new_exp+1)^0,f,c
 10039  0013C4                     i2l4215:
 10040  0013C4  BE21               	btfsc	(i2___fldiv@new_exp+1)^0,7,c
 10041  0013C6  EFED  F009         	goto	i2u288_41
 10042  0013CA  5021               	movf	(i2___fldiv@new_exp+1)^0,w,c
 10043  0013CC  E108               	bnz	i2u288_40
 10044  0013CE  2820               	incf	i2___fldiv@new_exp^0,w,c
 10045  0013D0  A0D8               	btfss	status,0,c
 10046  0013D2  EFED  F009         	goto	i2u288_41
 10047  0013D6  EFEF  F009         	goto	i2u288_40
 10048  0013DA                     i2u288_41:
 10049  0013DA  EFFA  F009         	goto	i2l4219
 10050  0013DE                     i2u288_40:
 10051  0013DE  0E00               	movlw	0
 10052  0013E0  6E21               	movwf	(i2___fldiv@new_exp+1)^0,c
 10053  0013E2  6820               	setf	i2___fldiv@new_exp^0,c
 10054  0013E4  0E00               	movlw	0
 10055  0013E6  6E0F               	movwf	i2___fldiv@b^0,c
 10056  0013E8  0E00               	movlw	0
 10057  0013EA  6E10               	movwf	(i2___fldiv@b+1)^0,c
 10058  0013EC  0E00               	movlw	0
 10059  0013EE  6E11               	movwf	(i2___fldiv@b+2)^0,c
 10060  0013F0  0E00               	movlw	0
 10061  0013F2  6E12               	movwf	(i2___fldiv@b+3)^0,c
 10062  0013F4                     i2l4219:
 10063  0013F4  BE21               	btfsc	(i2___fldiv@new_exp+1)^0,7,c
 10064  0013F6  EF07  F00A         	goto	i2u289_40
 10065  0013FA  5021               	movf	(i2___fldiv@new_exp+1)^0,w,c
 10066  0013FC  E106               	bnz	i2u289_41
 10067  0013FE  0420               	decf	i2___fldiv@new_exp^0,w,c
 10068  001400  B0D8               	btfsc	status,0,c
 10069  001402  EF05  F00A         	goto	i2u289_41
 10070  001406  EF07  F00A         	goto	i2u289_40
 10071  00140A                     i2u289_41:
 10072  00140A  EF15  F00A         	goto	i2l4223
 10073  00140E                     i2u289_40:
 10074  00140E  0E00               	movlw	0
 10075  001410  6E21               	movwf	(i2___fldiv@new_exp+1)^0,c
 10076  001412  0E00               	movlw	0
 10077  001414  6E20               	movwf	i2___fldiv@new_exp^0,c
 10078  001416  0E00               	movlw	0
 10079  001418  6E0F               	movwf	i2___fldiv@b^0,c
 10080  00141A  0E00               	movlw	0
 10081  00141C  6E10               	movwf	(i2___fldiv@b+1)^0,c
 10082  00141E  0E00               	movlw	0
 10083  001420  6E11               	movwf	(i2___fldiv@b+2)^0,c
 10084  001422  0E00               	movlw	0
 10085  001424  6E12               	movwf	(i2___fldiv@b+3)^0,c
 10086  001426  0E00               	movlw	0
 10087  001428  6E1F               	movwf	i2___fldiv@sign^0,c
 10088  00142A                     i2l4223:
 10089  00142A  C020  F026         	movff	i2___fldiv@new_exp,i2___fldiv@bexp
 10090  00142E  A026               	btfss	i2___fldiv@bexp^0,0,c
 10091  001430  EF1C  F00A         	goto	i2u290_41
 10092  001434  EF1E  F00A         	goto	i2u290_40
 10093  001438                     i2u290_41:
 10094  001438  EF21  F00A         	goto	i2l4229
 10095  00143C                     i2u290_40:
 10096  00143C  8E11               	bsf	(i2___fldiv@b+2)^0,7,c
 10097  00143E  EF22  F00A         	goto	i2l4231
 10098  001442                     i2l4229:
 10099  001442  9E11               	bcf	(i2___fldiv@b+2)^0,7,c
 10100  001444                     i2l4231:
 10101  001444  90D8               	bcf	status,0,c
 10102  001446  3026               	rrcf	i2___fldiv@bexp^0,w,c
 10103  001448  6E12               	movwf	(i2___fldiv@b+3)^0,c
 10104  00144A  EFD8  F008         	goto	i2l4145
 10105  00144E                     i2l1510:
 10106  00144E  0012               	return		;funcret
 10107  001450                     __end_ofi2___fldiv:
 10108                           	opt callstack 0
 10109                           
 10110 ;; *************** function _INT0_ACTION *****************
 10111 ;; Defined at:
 10112 ;;		line 88 in file "main.c"
 10113 ;; Parameters:    Size  Location     Type
 10114 ;;		None
 10115 ;; Auto vars:     Size  Location     Type
 10116 ;;		None
 10117 ;; Return value:  Size  Location     Type
 10118 ;;                  1    wreg      void 
 10119 ;; Registers used:
 10120 ;;		wreg, status,2, cstack
 10121 ;; Tracked objects:
 10122 ;;		On entry : 0/0
 10123 ;;		On exit  : 0/0
 10124 ;;		Unchanged: 0/0
 10125 ;; Data sizes:     COMRAM   BANK0   BANK1   BANK2   BANK3   BANK4   BANK5   BANK6   BANK7
 10126 ;;      Params:         0       0       0       0       0       0       0       0       0
 10127 ;;      Locals:         0       0       0       0       0       0       0       0       0
 10128 ;;      Temps:          0       0       0       0       0       0       0       0       0
 10129 ;;      Totals:         0       0       0       0       0       0       0       0       0
 10130 ;;Total ram usage:        0 bytes
 10131 ;; Hardware stack levels used:    1
 10132 ;; Hardware stack levels required when called:    3
 10133 ;; This function calls:
 10134 ;;		i2_main_Home
 10135 ;; This function is called by:
 10136 ;;		_INT_isr
 10137 ;; This function uses a non-reentrant model
 10138 ;;
 10139                           
 10140                           	psect	text60
 10141  00332C                     __ptext60:
 10142                           	opt callstack 0
 10143  00332C                     _INT0_ACTION:
 10144                           	opt callstack 22
 10145  00332C                     
 10146                           ;main.c: 89:     main_Home();
 10147  00332C  ECDC  F017         	call	i2_main_Home	;wreg free
 10148  003330                     
 10149                           ;main.c: 90:     coordenada_anteriorX = 0;
 10150  003330  0E00               	movlw	0
 10151  003332  0100               	movlb	0	; () banked
 10152  003334  6FAD               	movwf	(_coordenada_anteriorX+1)& (0+255),b
 10153  003336  0E00               	movlw	0
 10154  003338  6FAC               	movwf	_coordenada_anteriorX& (0+255),b
 10155  00333A                     
 10156                           ; BSR set to: 0
 10157                           ;main.c: 91:     coordenada_anteriorY = 0;
 10158  00333A  0E00               	movlw	0
 10159  00333C  6FAB               	movwf	(_coordenada_anteriorY+1)& (0+255),b
 10160  00333E  0E00               	movlw	0
 10161  003340  6FAA               	movwf	_coordenada_anteriorY& (0+255),b
 10162  003342                     
 10163                           ; BSR set to: 0
 10164  003342  0012               	return		;funcret
 10165  003344                     __end_of_INT0_ACTION:
 10166                           	opt callstack 0
 10167                           
 10168 ;; *************** function i2_main_Home *****************
 10169 ;; Defined at:
 10170 ;;		line 116 in file "main.c"
 10171 ;; Parameters:    Size  Location     Type
 10172 ;;		None
 10173 ;; Auto vars:     Size  Location     Type
 10174 ;;		None
 10175 ;; Return value:  Size  Location     Type
 10176 ;;                  1    wreg      void 
 10177 ;; Registers used:
 10178 ;;		wreg, status,2, cstack
 10179 ;; Tracked objects:
 10180 ;;		On entry : 0/0
 10181 ;;		On exit  : 0/0
 10182 ;;		Unchanged: 0/0
 10183 ;; Data sizes:     COMRAM   BANK0   BANK1   BANK2   BANK3   BANK4   BANK5   BANK6   BANK7
 10184 ;;      Params:         0       0       0       0       0       0       0       0       0
 10185 ;;      Locals:         0       0       0       0       0       0       0       0       0
 10186 ;;      Temps:          0       0       0       0       0       0       0       0       0
 10187 ;;      Totals:         0       0       0       0       0       0       0       0       0
 10188 ;;Total ram usage:        0 bytes
 10189 ;; Hardware stack levels used:    1
 10190 ;; Hardware stack levels required when called:    2
 10191 ;; This function calls:
 10192 ;;		i2_Motor_Home
 10193 ;; This function is called by:
 10194 ;;		_INT0_ACTION
 10195 ;; This function uses a non-reentrant model
 10196 ;;
 10197                           
 10198                           	psect	text61
 10199  002FB8                     __ptext61:
 10200                           	opt callstack 0
 10201  002FB8                     i2_main_Home:
 10202                           	opt callstack 22
 10203  002FB8                     
 10204                           ;main.c: 117:     while (BanderaX == 0) {
 10205  002FB8  EFE2  F017         	goto	i2l4965
 10206  002FBC                     i2l868:
 10207                           
 10208                           ;main.c: 118:         PORTDbits.RD0 = 0;
 10209  002FBC  9083               	bcf	131,0,c	;volatile
 10210                           
 10211                           ;main.c: 119:         PORTDbits.RD2 = 1;
 10212  002FBE  8483               	bsf	131,2,c	;volatile
 10213  002FC0                     
 10214                           ;main.c: 120:         Motor_Home();
 10215  002FC0  ECD0  F019         	call	i2_Motor_Home	;wreg free
 10216  002FC4                     i2l4965:
 10217                           
 10218                           ;main.c: 117:     while (BanderaX == 0) {
 10219  002FC4  505C               	movf	_BanderaX^0,w,c
 10220  002FC6  B4D8               	btfsc	status,2,c
 10221  002FC8  EFE8  F017         	goto	i2u375_41
 10222  002FCC  EFEA  F017         	goto	i2u375_40
 10223  002FD0                     i2u375_41:
 10224  002FD0  EFDE  F017         	goto	i2l868
 10225  002FD4                     i2u375_40:
 10226  002FD4  EFF0  F017         	goto	i2l4969
 10227  002FD8                     i2l871:
 10228                           
 10229                           ;main.c: 123:         PORTDbits.RD0 = 1;
 10230  002FD8  8083               	bsf	131,0,c	;volatile
 10231                           
 10232                           ;main.c: 124:         PORTDbits.RD2 = 0;
 10233  002FDA  9483               	bcf	131,2,c	;volatile
 10234  002FDC                     
 10235                           ;main.c: 125:         Motor_Home();
 10236  002FDC  ECD0  F019         	call	i2_Motor_Home	;wreg free
 10237  002FE0                     i2l4969:
 10238                           
 10239                           ;main.c: 122:     while (BanderaY == 0) {
 10240  002FE0  505B               	movf	_BanderaY^0,w,c
 10241  002FE2  B4D8               	btfsc	status,2,c
 10242  002FE4  EFF6  F017         	goto	i2u376_41
 10243  002FE8  EFF8  F017         	goto	i2u376_40
 10244  002FEC                     i2u376_41:
 10245  002FEC  EFEC  F017         	goto	i2l871
 10246  002FF0                     i2u376_40:
 10247  002FF0                     
 10248                           ;main.c: 127:     PORTDbits.RD0 = 1;
 10249  002FF0  8083               	bsf	131,0,c	;volatile
 10250                           
 10251                           ;main.c: 128:     PORTDbits.RD2 = 1;
 10252  002FF2  8483               	bsf	131,2,c	;volatile
 10253                           
 10254                           ;main.c: 129:     T2CONbits.TMR2ON = 0;
 10255  002FF4  94CA               	bcf	202,2,c	;volatile
 10256  002FF6                     
 10257                           ;main.c: 130:     BanderaX = 0;
 10258  002FF6  0E00               	movlw	0
 10259  002FF8  6E5C               	movwf	_BanderaX^0,c
 10260                           
 10261                           ;main.c: 131:     BanderaY = 0;
 10262  002FFA  0E00               	movlw	0
 10263  002FFC  6E5B               	movwf	_BanderaY^0,c
 10264  002FFE  0012               	return		;funcret
 10265  003000                     __end_ofi2_main_Home:
 10266                           	opt callstack 0
 10267                           
 10268 ;; *************** function i2_Motor_Home *****************
 10269 ;; Defined at:
 10270 ;;		line 88 in file "Motor.c"
 10271 ;; Parameters:    Size  Location     Type
 10272 ;;		None
 10273 ;; Auto vars:     Size  Location     Type
 10274 ;;		None
 10275 ;; Return value:  Size  Location     Type
 10276 ;;                  1    wreg      void 
 10277 ;; Registers used:
 10278 ;;		wreg, status,2, cstack
 10279 ;; Tracked objects:
 10280 ;;		On entry : 0/0
 10281 ;;		On exit  : 0/0
 10282 ;;		Unchanged: 0/0
 10283 ;; Data sizes:     COMRAM   BANK0   BANK1   BANK2   BANK3   BANK4   BANK5   BANK6   BANK7
 10284 ;;      Params:         0       0       0       0       0       0       0       0       0
 10285 ;;      Locals:         0       0       0       0       0       0       0       0       0
 10286 ;;      Temps:          0       0       0       0       0       0       0       0       0
 10287 ;;      Totals:         0       0       0       0       0       0       0       0       0
 10288 ;;Total ram usage:        0 bytes
 10289 ;; Hardware stack levels used:    1
 10290 ;; Hardware stack levels required when called:    1
 10291 ;; This function calls:
 10292 ;;		i2_PWM_InitS
 10293 ;; This function is called by:
 10294 ;;		i2_main_Home
 10295 ;; This function uses a non-reentrant model
 10296 ;;
 10297                           
 10298                           	psect	text62
 10299  0033A0                     __ptext62:
 10300                           	opt callstack 0
 10301  0033A0                     i2_Motor_Home:
 10302                           	opt callstack 22
 10303  0033A0                     
 10304                           ;Motor.c: 89:     PORTDbits.RD1 = 1;
 10305  0033A0  8283               	bsf	131,1,c	;volatile
 10306                           
 10307                           ;Motor.c: 90:     PORTDbits.RD3 = 1;
 10308  0033A2  8683               	bsf	131,3,c	;volatile
 10309  0033A4                     
 10310                           ;Motor.c: 91:     PWM_InitS();
 10311  0033A4  EC38  F019         	call	i2_PWM_InitS	;wreg free
 10312  0033A8                     
 10313                           ;Motor.c: 92:     T2CONbits.TMR2ON = 1;
 10314  0033A8  84CA               	bsf	202,2,c	;volatile
 10315  0033AA  0012               	return		;funcret
 10316  0033AC                     __end_ofi2_Motor_Home:
 10317                           	opt callstack 0
 10318                           
 10319 ;; *************** function i2_PWM_InitS *****************
 10320 ;; Defined at:
 10321 ;;		line 86 in file "PWM.c"
 10322 ;; Parameters:    Size  Location     Type
 10323 ;;		None
 10324 ;; Auto vars:     Size  Location     Type
 10325 ;;		None
 10326 ;; Return value:  Size  Location     Type
 10327 ;;                  1    wreg      void 
 10328 ;; Registers used:
 10329 ;;		wreg, status,2
 10330 ;; Tracked objects:
 10331 ;;		On entry : 0/0
 10332 ;;		On exit  : 0/0
 10333 ;;		Unchanged: 0/0
 10334 ;; Data sizes:     COMRAM   BANK0   BANK1   BANK2   BANK3   BANK4   BANK5   BANK6   BANK7
 10335 ;;      Params:         0       0       0       0       0       0       0       0       0
 10336 ;;      Locals:         0       0       0       0       0       0       0       0       0
 10337 ;;      Temps:          0       0       0       0       0       0       0       0       0
 10338 ;;      Totals:         0       0       0       0       0       0       0       0       0
 10339 ;;Total ram usage:        0 bytes
 10340 ;; Hardware stack levels used:    1
 10341 ;; This function calls:
 10342 ;;		Nothing
 10343 ;; This function is called by:
 10344 ;;		i2_PWM_GeneratePulsos
 10345 ;;		i2_Motor_Home
 10346 ;; This function uses a non-reentrant model
 10347 ;;
 10348                           
 10349                           	psect	text63
 10350  003270                     __ptext63:
 10351                           	opt callstack 0
 10352  003270                     i2_PWM_InitS:
 10353                           	opt callstack 22
 10354  003270                     
 10355                           ;PWM.c: 88:     PR2 = 0XFF;
 10356  003270  68CB               	setf	203,c	;volatile
 10357  003272                     
 10358                           ;PWM.c: 89:     CCPR1L = 0X3E;
 10359  003272  0E3E               	movlw	62
 10360  003274  6EBE               	movwf	190,c	;volatile
 10361                           
 10362                           ;PWM.c: 90:     CCPR2L = 0X3E;
 10363  003276  0E3E               	movlw	62
 10364  003278  6EBB               	movwf	187,c	;volatile
 10365  00327A                     
 10366                           ;PWM.c: 91:     TRISCbits.RC1 = 0;
 10367  00327A  9294               	bcf	148,1,c	;volatile
 10368  00327C                     
 10369                           ;PWM.c: 92:     TRISCbits.RC2 = 0;
 10370  00327C  9494               	bcf	148,2,c	;volatile
 10371                           
 10372                           ;PWM.c: 93:     T2CON = 0X03;
 10373  00327E  0E03               	movlw	3
 10374  003280  6ECA               	movwf	202,c	;volatile
 10375                           
 10376                           ;PWM.c: 94:     CCP1CON = 0X0C;
 10377  003282  0E0C               	movlw	12
 10378  003284  6EBD               	movwf	189,c	;volatile
 10379                           
 10380                           ;PWM.c: 95:     CCP2CON = 0X0C;
 10381  003286  0E0C               	movlw	12
 10382  003288  6EBA               	movwf	186,c	;volatile
 10383  00328A                     
 10384                           ;PWM.c: 96:     T2CONbits.TMR2ON = 0;
 10385  00328A  94CA               	bcf	202,2,c	;volatile
 10386  00328C  0012               	return		;funcret
 10387  00328E                     __end_ofi2_PWM_InitS:
 10388                           	opt callstack 0
 10389                           
 10390                           	psect	rparam
 10391  0000                     
 10392                           	psect	temp
 10393  00005D                     btemp:
 10394                           	opt callstack 0
 10395  00005D                     	ds	1
 10396  0000                     int$flags	set	btemp
 10397  0000                     wtemp8	set	btemp+1
 10398  0000                     ttemp5	set	btemp+1
 10399  0000                     ttemp6	set	btemp+4
 10400  0000                     ttemp7	set	btemp+8
 10401                           tosu	equ	0xFFF
 10402                           tosh	equ	0xFFE
 10403                           tosl	equ	0xFFD
 10404                           stkptr	equ	0xFFC
 10405                           pclatu	equ	0xFFB
 10406                           pclath	equ	0xFFA
 10407                           pcl	equ	0xFF9
 10408                           tblptru	equ	0xFF8
 10409                           tblptrh	equ	0xFF7
 10410                           tblptrl	equ	0xFF6
 10411                           tablat	equ	0xFF5
 10412                           prodh	equ	0xFF4
 10413                           prodl	equ	0xFF3
 10414                           indf0	equ	0xFEF
 10415                           postinc0	equ	0xFEE
 10416                           postdec0	equ	0xFED
 10417                           preinc0	equ	0xFEC
 10418                           plusw0	equ	0xFEB
 10419                           fsr0h	equ	0xFEA
 10420                           fsr0l	equ	0xFE9
 10421                           wreg	equ	0xFE8
 10422                           indf1	equ	0xFE7
 10423                           postinc1	equ	0xFE6
 10424                           postdec1	equ	0xFE5
 10425                           preinc1	equ	0xFE4
 10426                           plusw1	equ	0xFE3
 10427                           fsr1h	equ	0xFE2
 10428                           fsr1l	equ	0xFE1
 10429                           bsr	equ	0xFE0
 10430                           indf2	equ	0xFDF
 10431                           postinc2	equ	0xFDE
 10432                           postdec2	equ	0xFDD
 10433                           preinc2	equ	0xFDC
 10434                           plusw2	equ	0xFDB
 10435                           fsr2h	equ	0xFDA
 10436                           fsr2l	equ	0xFD9
 10437                           status	equ	0xFD8


Data Sizes:
    Strings     122
    Constant    124
    Data        0
    BSS         80
    Persistent  0
    Stack       0

Auto Spaces:
    Space          Size  Autos    Used
    COMRAM           94     63      92
    BANK0           160     66     117
    BANK1           256      0       0
    BANK2           256      0       0
    BANK3           256      0       0
    BANK4           256      0       0
    BANK5           256      0       0
    BANK6           256      0       0
    BANK7           256      0       0

Pointer List with Targets:

    atoi@s	PTR const unsigned char  size(2) Largest target is 3
		 -> Serial_Lectura_MemoriaZ@coordenadaZ(BANK0[3]), Serial_Lectura_MemoriaY@coordenadaY(BANK0[3]), Serial_Lectura_MemoriaX@coordenadaX(BANK0[3]), Serial_DecodificacionZ@coordenadaZ(COMRAM[3]), 
		 -> Serial_DecodificacionY@coordenadaY(BANK0[3]), Serial_DecodificacionX@coordenadaX(BANK0[3]), 

    Serial_Escritura_Memoria@string_setpoint	PTR unsigned char  size(2) Largest target is 11
		 -> coordenada_setpoint(BANK0[11]), 

    Serial_Lectura_MemoriaZ@pointerCZ	PTR int  size(2) Largest target is 2
		 -> CoordenadaZ(BANK0[2]), 

    Serial_Lectura_MemoriaY@pointerCY	PTR int  size(2) Largest target is 2
		 -> CoordenadaY(BANK0[2]), 

    Serial_Lectura_MemoriaX@pointerCX	PTR int  size(2) Largest target is 2
		 -> CoordenadaX(BANK0[2]), 

    Serial_DecodificacionY@pointerCY	PTR int  size(2) Largest target is 2
		 -> CoordenadaY(BANK0[2]), 

    Serial_DecodificacionY@string_coordenada	PTR unsigned char  size(2) Largest target is 7
		 -> coordenada_array(BANK0[7]), 

    Serial_DecodificacionX@pointerCX	PTR int  size(2) Largest target is 2
		 -> CoordenadaX(BANK0[2]), 

    Serial_DecodificacionX@string_coordenada	PTR unsigned char  size(2) Largest target is 7
		 -> coordenada_array(BANK0[7]), 

    USART_RxS@pointer	PTR unsigned char  size(2) Largest target is 11
		 -> coordenada_setpoint(BANK0[11]), coordenada_array(BANK0[7]), 

    USART_TxS@str	PTR unsigned char  size(2) Largest target is 18
		 -> STR_46(CODE[3]), STR_45(CODE[3]), STR_44(CODE[18]), STR_43(CODE[3]), 
		 -> STR_42(CODE[3]), STR_41(CODE[3]), STR_40(CODE[3]), STR_39(CODE[5]), 
		 -> STR_38(CODE[5]), STR_37(CODE[5]), STR_36(CODE[3]), Serial_Lectura_MemoriaZ@coordenadaZ(BANK0[3]), 
		 -> STR_35(CODE[3]), Serial_Lectura_MemoriaY@coordenadaY(BANK0[3]), STR_34(CODE[3]), Serial_Lectura_MemoriaX@coordenadaX(BANK0[3]), 
		 -> STR_33(CODE[4]), STR_32(CODE[4]), STR_31(CODE[4]), STR_30(CODE[4]), 
		 -> STR_29(CODE[4]), STR_28(CODE[4]), STR_27(CODE[4]), STR_26(CODE[4]), 
		 -> STR_25(CODE[4]), STR_24(CODE[4]), STR_23(CODE[4]), STR_22(CODE[4]), 
		 -> STR_21(CODE[4]), STR_20(CODE[4]), STR_19(CODE[4]), STR_18(CODE[4]), 
		 -> STR_17(CODE[2]), STR_16(CODE[3]), STR_15(CODE[3]), STR_14(CODE[3]), 
		 -> STR_13(CODE[4]), STR_12(CODE[4]), STR_11(CODE[3]), STR_10(CODE[3]), 
		 -> STR_9(CODE[3]), STR_8(CODE[3]), STR_7(CODE[4]), STR_6(CODE[4]), 
		 -> STR_5(CODE[3]), STR_4(CODE[4]), STR_3(CODE[4]), STR_2(CODE[3]), 
		 -> STR_1(CODE[3]), 


Critical Paths under _main in COMRAM

    None.

Critical Paths under _INT_isr in COMRAM

    _INT_isr->_INT1_ACTION
    _INT_isr->_INT2_ACTION
    _INT2_ACTION->_Motor_Movimiento_Home
    _INT1_ACTION->_Motor_Movimiento_Home
    _Motor_Movimiento_Home->i2_Motor_Conversion
    i2_PWM_GeneratePulsos->i2_PWM_OneshotX
    i2_PWM_GeneratePulsos->i2_PWM_OneshotY
    i2_Motor_Conversion->i2___fltol
    i2___fltol->i2___fldiv
    i2___fldiv->i2___xxtofl

Critical Paths under _main in BANK0

    _main->_Serial_Oupcode
    _USART_Init->___aldiv
    _Serial_Oupcode->_Motor_Movimiento
    _Serial_Lectura_MemoriaZ->_atoi
    _Serial_Lectura_MemoriaY->_atoi
    _Serial_Lectura_MemoriaX->_atoi
    _Serial_Escritura_Memoria->_USART_TxS
    _Serial_DecodificacionY->_atoi
    _Serial_DecodificacionX->_atoi
    _atoi->_isspace
    _Seria_Decodificacion_Memoria->_USART_TxS
    _Motor_MovimientoZ->_USART_TxC
    _Motor_Movimiento->_Motor_Conversion
    _PWM_GeneratePulsos->_PWM_OneshotX
    _PWM_GeneratePulsos->_PWM_OneshotY
    _Motor_Conversion->___fltol
    ___fltol->___fldiv
    ___fldiv->___xxtofl
    _Actuator_Touch->_USART_TxS
    _Actuator_Retract->_USART_TxS
    _Actuator_Hold->_USART_TxS

Critical Paths under _INT_isr in BANK0

    None.

Critical Paths under _main in BANK1

    None.

Critical Paths under _INT_isr in BANK1

    None.

Critical Paths under _main in BANK2

    None.

Critical Paths under _INT_isr in BANK2

    None.

Critical Paths under _main in BANK3

    None.

Critical Paths under _INT_isr in BANK3

    None.

Critical Paths under _main in BANK4

    None.

Critical Paths under _INT_isr in BANK4

    None.

Critical Paths under _main in BANK5

    None.

Critical Paths under _INT_isr in BANK5

    None.

Critical Paths under _main in BANK6

    None.

Critical Paths under _INT_isr in BANK6

    None.

Critical Paths under _main in BANK7

    None.

Critical Paths under _INT_isr in BANK7

    None.

Call Graph Tables:

 ---------------------------------------------------------------------------------
 (Depth) Function   	        Calls       Base Space   Used Autos Params    Refs
 ---------------------------------------------------------------------------------
 (0) _main                                                 2     2      0  102789
                                             64 BANK0      2     2      0
                    _GPIO_init_PORTA
                    _GPIO_init_PORTB
                    _GPIO_init_PORTC
                    _GPIO_init_PORTD
                    _GPIO_init_PORTE
                            _Int_Ext
                     _Serial_Oupcode
                         _USART_Init
                          _USART_TxS
              _Usart_Interface_Flash
                 _Usart_Interface_ON
                          _main_Home
 ---------------------------------------------------------------------------------
 (1) _main_Home                                            0     0      0       0
                         _Motor_Home
 ---------------------------------------------------------------------------------
 (2) _Motor_Home                                           0     0      0       0
                          _PWM_InitS
 ---------------------------------------------------------------------------------
 (1) _Usart_Interface_ON                                   1     1      0      66
                                              0 BANK0      1     1      0
 ---------------------------------------------------------------------------------
 (1) _Usart_Interface_Flash                                3     3      0      66
                                              0 BANK0      3     3      0
 ---------------------------------------------------------------------------------
 (1) _USART_Init                                           8     4      4     877
                                             14 BANK0      8     4      4
                            ___aldiv
 ---------------------------------------------------------------------------------
 (2) ___aldiv                                             14     6      8     756
                                              0 BANK0     14     6      8
 ---------------------------------------------------------------------------------
 (1) _Serial_Oupcode                                       4     4      0   94242
                                             60 BANK0      4     4      0
                      _Actuator_Hold
                   _Actuator_Retract
                     _Actuator_Touch
                   _Motor_Movimiento
                  _Motor_MovimientoZ
       _Seria_Decodificacion_Memoria
             _Serial_DecodificacionX
             _Serial_DecodificacionY
           _Serial_Escritura_Memoria
            _Serial_Lectura_MemoriaX
            _Serial_Lectura_MemoriaY
            _Serial_Lectura_MemoriaZ
           _Serial_RangosCoordenadas
                          _USART_RxC
                          _USART_RxS
                          _USART_TxS
 ---------------------------------------------------------------------------------
 (2) _USART_RxS                                            8     6      2     318
                                              0 BANK0      8     6      2
 ---------------------------------------------------------------------------------
 (2) _USART_RxC                                            0     0      0       0
 ---------------------------------------------------------------------------------
 (2) _Serial_Lectura_MemoriaZ                             12    10      2   10037
                                             22 BANK0     12    10      2
                          _EEPROM_Rx
           _Serial_RangosCoordenadas
                          _USART_TxS
                               _atoi
 ---------------------------------------------------------------------------------
 (2) _Serial_Lectura_MemoriaY                             12    10      2   10037
                                             22 BANK0     12    10      2
                          _EEPROM_Rx
           _Serial_RangosCoordenadas
                          _USART_TxS
                               _atoi
 ---------------------------------------------------------------------------------
 (2) _Serial_Lectura_MemoriaX                             12    10      2   10037
                                             22 BANK0     12    10      2
                          _EEPROM_Rx
           _Serial_RangosCoordenadas
                          _USART_TxS
                               _atoi
 ---------------------------------------------------------------------------------
 (2) _Serial_RangosCoordenadas                             2     0      2     576
                                              0 BANK0      2     0      2
 ---------------------------------------------------------------------------------
 (3) _EEPROM_Rx                                            1     1      0      22
                                              0 BANK0      1     1      0
 ---------------------------------------------------------------------------------
 (2) _Serial_Escritura_Memoria                            12    10      2    8357
                                              8 BANK0     12    10      2
                          _EEPROM_Tx
                          _USART_TxS
 ---------------------------------------------------------------------------------
 (3) _EEPROM_Tx                                            2     1      1     272
                                              0 BANK0      2     1      1
 ---------------------------------------------------------------------------------
 (2) _Serial_DecodificacionY                              13     9      4    2083
                                             22 BANK0     13     9      4
                               _atoi
 ---------------------------------------------------------------------------------
 (2) _Serial_DecodificacionX                              12     8      4    2083
                                             22 BANK0     12     8      4
                               _atoi
 ---------------------------------------------------------------------------------
 (3) _atoi                                                15    13      2    1456
                                              7 BANK0     15    13      2
                             ___wmul
                            _isdigit
                            _isspace
 ---------------------------------------------------------------------------------
 (4) _isspace                                              7     5      2     207
                                              0 BANK0      7     5      2
 ---------------------------------------------------------------------------------
 (4) _isdigit                                              6     4      2     161
                                              0 BANK0      6     4      2
 ---------------------------------------------------------------------------------
 (4) ___wmul                                               6     2      4     311
                                              0 BANK0      6     2      4
 ---------------------------------------------------------------------------------
 (2) _Seria_Decodificacion_Memoria                         3     3      0    7598
                                              8 BANK0      3     3      0
                          _USART_TxS
 ---------------------------------------------------------------------------------
 (2) _Motor_MovimientoZ                                    0     0      0      22
                          _USART_TxC
 ---------------------------------------------------------------------------------
 (3) _USART_TxC                                            1     1      0      22
                                              0 BANK0      1     1      0
 ---------------------------------------------------------------------------------
 (2) _Motor_Movimiento                                     5     1      4   12829
                                             55 BANK0      5     1      4
              _Motor_Calcular_PasosX
              _Motor_Calcular_PasosY
                   _Motor_Conversion
                 _PWM_GeneratePulsos
                          _USART_TxS
 ---------------------------------------------------------------------------------
 (3) _PWM_GeneratePulsos                                  10     6      4     742
                                              2 BANK0     10     6      4
                          _PWM_InitF
                          _PWM_InitS
                       _PWM_OneshotX
                       _PWM_OneshotY
 ---------------------------------------------------------------------------------
 (4) _PWM_OneshotY                                         2     0      2      99
                                              0 BANK0      2     0      2
 ---------------------------------------------------------------------------------
 (4) _PWM_OneshotX                                         2     0      2      99
                                              0 BANK0      2     0      2
 ---------------------------------------------------------------------------------
 (3) _PWM_InitS                                            0     0      0       0
 ---------------------------------------------------------------------------------
 (4) _PWM_InitF                                            0     0      0       0
 ---------------------------------------------------------------------------------
 (3) _Motor_Conversion                                     6     4      2    3611
                                             49 BANK0      6     4      2
                            ___fldiv
                            ___fltol
                           ___xxtofl
 ---------------------------------------------------------------------------------
 (4) ___xxtofl                                            14    10      4     842
                                              0 BANK0     14    10      4
 ---------------------------------------------------------------------------------
 (4) ___fltol                                             10     6      4     305
                                             39 BANK0     10     6      4
                            ___fldiv (ARG)
                           ___xxtofl (ARG)
 ---------------------------------------------------------------------------------
 (4) ___fldiv                                             25    17      8    2167
                                             14 BANK0     25    17      8
                           ___xxtofl (ARG)
 ---------------------------------------------------------------------------------
 (3) _Motor_Calcular_PasosY                                3     1      2     186
                                              0 BANK0      3     1      2
 ---------------------------------------------------------------------------------
 (3) _Motor_Calcular_PasosX                                3     1      2     186
                                              0 BANK0      3     1      2
 ---------------------------------------------------------------------------------
 (2) _Actuator_Touch                                       2     2      0    7538
                                              8 BANK0      2     2      0
                          _USART_TxS
 ---------------------------------------------------------------------------------
 (2) _Actuator_Retract                                     0     0      0    7538
                          _USART_TxS
 ---------------------------------------------------------------------------------
 (2) _Actuator_Hold                                        0     0      0    7538
                          _USART_TxS
 ---------------------------------------------------------------------------------
 (1) _USART_TxS                                            8     4      4    7538
                                              0 BANK0      8     4      4
 ---------------------------------------------------------------------------------
 (1) _Int_Ext                                              0     0      0       0
 ---------------------------------------------------------------------------------
 (1) _GPIO_init_PORTE                                      0     0      0       0
 ---------------------------------------------------------------------------------
 (1) _GPIO_init_PORTD                                      0     0      0       0
 ---------------------------------------------------------------------------------
 (1) _GPIO_init_PORTC                                      0     0      0       0
 ---------------------------------------------------------------------------------
 (1) _GPIO_init_PORTB                                      0     0      0       0
 ---------------------------------------------------------------------------------
 (1) _GPIO_init_PORTA                                      0     0      0       0
 ---------------------------------------------------------------------------------
 Estimated maximum stack depth 4
 ---------------------------------------------------------------------------------
 (Depth) Function   	        Calls       Base Space   Used Autos Params    Refs
 ---------------------------------------------------------------------------------
 (5) _INT_isr                                              1     1      0    5370
                                             62 COMRAM     1     1      0
                        _INT0_ACTION
                        _INT1_ACTION
                        _INT2_ACTION
 ---------------------------------------------------------------------------------
 (6) _INT2_ACTION                                          2     2      0    2685
                                             60 COMRAM     2     2      0
              _Motor_Movimiento_Home
 ---------------------------------------------------------------------------------
 (6) _INT1_ACTION                                          2     2      0    2685
                                             60 COMRAM     2     2      0
              _Motor_Movimiento_Home
 ---------------------------------------------------------------------------------
 (7) _Motor_Movimiento_Home                                5     1      4    2685
                                             55 COMRAM     5     1      4
                 i2_Motor_Conversion
               i2_PWM_GeneratePulsos
 ---------------------------------------------------------------------------------
 (8) i2_PWM_GeneratePulsos                                10     6      4     442
                                              2 COMRAM    10     6      4
                        i2_PWM_InitF
                        i2_PWM_InitS
                     i2_PWM_OneshotX
                     i2_PWM_OneshotY
 ---------------------------------------------------------------------------------
 (9) i2_PWM_OneshotY                                       2     0      2      49
                                              0 COMRAM     2     0      2
 ---------------------------------------------------------------------------------
 (9) i2_PWM_OneshotX                                       2     0      2      49
                                              0 COMRAM     2     0      2
 ---------------------------------------------------------------------------------
 (9) i2_PWM_InitF                                          0     0      0       0
 ---------------------------------------------------------------------------------
 (8) i2_Motor_Conversion                                   6     4      2    1873
                                             49 COMRAM     6     4      2
                          i2___fldiv
                          i2___fltol
                         i2___xxtofl
 ---------------------------------------------------------------------------------
 (9) i2___xxtofl                                          14    10      4     348
                                              0 COMRAM    14    10      4
 ---------------------------------------------------------------------------------
 (9) i2___fltol                                           10     6      4     255
                                             39 COMRAM    10     6      4
                          i2___fldiv (ARG)
                         i2___xxtofl (ARG)
 ---------------------------------------------------------------------------------
 (9) i2___fldiv                                           25    17      8    1173
                                             14 COMRAM    25    17      8
                         i2___xxtofl (ARG)
 ---------------------------------------------------------------------------------
 (6) _INT0_ACTION                                          0     0      0       0
                        i2_main_Home
 ---------------------------------------------------------------------------------
 (7) i2_main_Home                                          0     0      0       0
                       i2_Motor_Home
 ---------------------------------------------------------------------------------
 (8) i2_Motor_Home                                         0     0      0       0
                        i2_PWM_InitS
 ---------------------------------------------------------------------------------
 (9) i2_PWM_InitS                                          0     0      0       0
 ---------------------------------------------------------------------------------
 Estimated maximum stack depth 9
 ---------------------------------------------------------------------------------

 Call Graph Graphs:

 _main (ROOT)
   _GPIO_init_PORTA
   _GPIO_init_PORTB
   _GPIO_init_PORTC
   _GPIO_init_PORTD
   _GPIO_init_PORTE
   _Int_Ext
   _Serial_Oupcode
     _Actuator_Hold
       _USART_TxS
     _Actuator_Retract
       _USART_TxS
     _Actuator_Touch
       _USART_TxS
     _Motor_Movimiento
       _Motor_Calcular_PasosX
       _Motor_Calcular_PasosY
       _Motor_Conversion
         ___fldiv
           ___xxtofl (ARG)
         ___fltol
           ___fldiv (ARG)
             ___xxtofl (ARG)
           ___xxtofl (ARG)
         ___xxtofl
       _PWM_GeneratePulsos
         _PWM_InitF
         _PWM_InitS
         _PWM_OneshotX
         _PWM_OneshotY
       _USART_TxS
     _Motor_MovimientoZ
       _USART_TxC
     _Seria_Decodificacion_Memoria
       _USART_TxS
     _Serial_DecodificacionX
       _atoi
         ___wmul
         _isdigit
         _isspace
     _Serial_DecodificacionY
       _atoi
         ___wmul
         _isdigit
         _isspace
     _Serial_Escritura_Memoria
       _EEPROM_Tx
       _USART_TxS
     _Serial_Lectura_MemoriaX
       _EEPROM_Rx
       _Serial_RangosCoordenadas
       _USART_TxS
       _atoi
         ___wmul
         _isdigit
         _isspace
     _Serial_Lectura_MemoriaY
       _EEPROM_Rx
       _Serial_RangosCoordenadas
       _USART_TxS
       _atoi
         ___wmul
         _isdigit
         _isspace
     _Serial_Lectura_MemoriaZ
       _EEPROM_Rx
       _Serial_RangosCoordenadas
       _USART_TxS
       _atoi
         ___wmul
         _isdigit
         _isspace
     _Serial_RangosCoordenadas
     _USART_RxC
     _USART_RxS
     _USART_TxS
   _USART_Init
     ___aldiv
   _USART_TxS
   _Usart_Interface_Flash
   _Usart_Interface_ON
   _main_Home
     _Motor_Home
       _PWM_InitS

 _INT_isr (ROOT)
   _INT0_ACTION
     i2_main_Home
       i2_Motor_Home
         i2_PWM_InitS
   _INT1_ACTION
     _Motor_Movimiento_Home
       i2_Motor_Conversion
         i2___fldiv
           i2___xxtofl (ARG)
         i2___fltol
           i2___fldiv (ARG)
             i2___xxtofl (ARG)
           i2___xxtofl (ARG)
         i2___xxtofl
       i2_PWM_GeneratePulsos
         i2_PWM_InitF
         i2_PWM_InitS
         i2_PWM_OneshotX
         i2_PWM_OneshotY
   _INT2_ACTION
     _Motor_Movimiento_Home
       i2_Motor_Conversion
         i2___fldiv
           i2___xxtofl (ARG)
         i2___fltol
           i2___fldiv (ARG)
             i2___xxtofl (ARG)
           i2___xxtofl (ARG)
         i2___xxtofl
       i2_PWM_GeneratePulsos
         i2_PWM_InitF
         i2_PWM_InitS
         i2_PWM_OneshotX
         i2_PWM_OneshotY

 Address spaces:
Name               Size   Autos  Total    Cost      Usage
BIGRAM             7FF      0       0      21        0.0%
EEDATA             100      0       0       0        0.0%
BITBANK7           100      0       0      18        0.0%
BANK7              100      0       0      19        0.0%
BITBANK6           100      0       0      16        0.0%
BANK6              100      0       0      17        0.0%
BITBANK5           100      0       0      14        0.0%
BANK5              100      0       0      15        0.0%
BITBANK4           100      0       0      12        0.0%
BANK4              100      0       0      13        0.0%
BITBANK3           100      0       0      10        0.0%
BANK3              100      0       0      11        0.0%
BITBANK2           100      0       0       8        0.0%
BANK2              100      0       0       9        0.0%
BITBANK1           100      0       0       6        0.0%
BANK1              100      0       0       7        0.0%
BITBANK0            A0      0       0       4        0.0%
BANK0               A0     42      75       5       73.1%
BITCOMRAM           5E      0       0       0        0.0%
COMRAM              5E     3F      5C       1       97.9%
BITSFR               0      0       0     200        0.0%
SFR                  0      0       0     200        0.0%
STACK                0      0       0       2        0.0%
NULL                 0      0       0       0        0.0%
ABS                  0      0      D1      20        0.0%
DATA                 0      0      D1       3        0.0%
CODE                 0      0       0       0        0.0%


Microchip Technology PIC18 Macro Assembler V2.10 build 88905656 
Symbol Table                                                                                   Wed Dec 04 23:10:04 2019

              PWM_GeneratePulsos@Oupcode 0067                             i2_Motor_Home 33A0  
                                      _C 0048                    _Motor_Calcular_PasosX 2A74  
                  _Motor_Calcular_PasosY 29F0                             ___fldiv@aexp 0086  
                           ___fldiv@bexp 0085                             ___fldiv@sign 007E  
                           ?_INT0_ACTION 0001                             ?_INT1_ACTION 0001  
                                     _L1 0859                                       _L2 0855  
                                     _L3 0851                                       _L4 084D  
                                     _L5 0849                                       l42 1C16  
                                     _L6 0845                                       l45 1C68  
                                     _P1 0841                                       l54 1D0A  
                                     _P2 083D                                       _P3 0839  
                                     l72 3138                                       _P4 0835  
                                     l65 3230                                       l49 1CB8  
                                     _P5 0831                                       l68 326E  
                                     l76 3106                                       l95 2B6C  
                                     l98 3318                              __CFG_BOR$ON 000000  
                                     _bp 0869                                       _cp 081D  
                           ?_INT2_ACTION 0001                    __size_of_PWM_OneshotX 0032  
                  __size_of_PWM_OneshotY 0032                      ___wmul@multiplicand 0062  
                            __CFG_BORV$3 000000            Serial_Lectura_MemoriaX@i_1431 0080  
                 ??i2_PWM_GeneratePulsos 0007                             __CFG_CP0$OFF 000000  
                           __CFG_CP1$OFF 000000                             __CFG_CP2$OFF 000000  
                           __CFG_CP3$OFF 000000                __end_of_Motor_MovimientoZ 2D9C  
          Serial_Lectura_MemoriaY@i_1439 0080                            _LecturaFiltro 0051  
             ??_Serial_Escritura_Memoria 006A                                      l101 332A  
          Serial_Lectura_MemoriaZ@i_1447 0080                                      l112 2BF0  
                                    l104 3382                                      l107 3392  
                                    l131 2DF6                                      l204 3380  
                                    l116 2C52                                      l221 32A8  
                                    l127 2DAE                                      l226 336C  
                                    l502 24DA                                      l191 3312  
                                    l423 0D18                                      l176 32C4  
                                    l512 23D4                                      l601 2D56  
                                    l521 1F94                                      l290 3358  
                                    l435 296A                                      l620 2D76  
                                    l445 28A0                                      l293 3090  
                                    l461 30D4                                      l622 2D78  
                                    l630 339E                                      l295 309E  
                                    l624 2D9A                                      l616 2D7E  
                                    l296 30A2                                      l618 2D74  
                                    l482 16B8                                      l395 0910  
                                    l492 26E4                                      l661 32E0  
                                    l653 306E                                      l574 2BE0  
                                    l663 32F8                                      l903 2E94  
                                    l656 32C6                                      l649 303A  
                                    l585 2AF6                                      l593 2A72  
                                    l577 29EE                                      l921 2792  
                                    l913 27CA                                      l905 2E96  
                                    l658 32DE                                      l842 20B6  
                                    l915 2748                                      l845 3210  
                                    l925 27CA                                      l909 26FE  
                                    l871 2EB8                                      l928 31C4  
                                    l872 2ED0                                      l873 2EDE  
                                    l868 2E9C                                      l895 2E64  
                                    l899 2E7C                             __CFG_CPB$OFF 000000  
          ?_Seria_Decodificacion_Memoria 0001                                      _PR2 000FCB  
                           __CFG_CPD$OFF 000000         Serial_Lectura_MemoriaX@direccion 0079  
                                    _lg2 082D                              i2___fldiv@a 0013  
                            i2___fldiv@b 000F           __size_of_Motor_Movimiento_Home 0048  
                                    _ovt 0821            __end_of_Motor_Movimiento_Home 2FB8  
                             i2___xxtofl 1872                                      wreg 000FE8  
                     __size_of_EEPROM_Rx 0016                       __size_of_EEPROM_Tx 0034  
                        ?_Actuator_Touch 0001                PWM_GeneratePulsos@pulsosX 0062  
              PWM_GeneratePulsos@pulsosY 0064                             __CFG_LVP$OFF 000000  
       Serial_Lectura_MemoriaY@direccion 0079                     i2PWM_OneshotX@countX 0001  
                           ___fltol@exp1 0090                             __CFG_WDT$OFF 000000  
                                   l1007 21C6                                     l1225 22CE  
                                   l1510 10B4                                     l1512 0F14  
                                   l1521 0F5A                                     l4001 2E40  
                                   l1523 0FD2                                     l1515 0ED8  
                                   l4003 2E44                                     l1524 0FC0  
                                   l1630 1BB2                                     l4007 3000  
                                   l5001 32FA                                     l5011 330E  
                                   l5003 3306                                     l1627 1BAA  
                                   l5013 3310                                     l5005 3308  
                                   l5021 337A                                     l4301 1C00  
                                   l5101 09B0                                     l1590 17AC  
                                   l1638 3038                                     l1646 2E4A  
                                   l5007 330A                                     l5023 337C  
                                   l5015 336E                                     l5031 329C  
                                   l1583 1714                                     l4311 1C48  
                                   l4303 1C02                                     l5111 0A04  
                                   l5103 09C2                                     l5009 330C  
                                   l5025 337E                                     l5017 3376  
                                   l5041 32A6                                     l5033 329E  
                                   l4321 1CB0                                     l4313 1C60  
                                   l4305 1C14                                     l5121 0A62  
                                   l5113 0A0E                                     l5105 09D6  
                                   l1586 1870                                     l5019 3378  
                                   l5035 32A0                                     l5027 328E  
                                   l5043 335A                                     l4315 1C6A  
                                   l4307 1C1C                                     l4323 1CBA  
                                   l4411 1AF4                                     l4403 1A9C  
                                   l5123 0A78                                     l5115 0A28  
                                   l5107 09E0                                     l5037 32A2  
                                   l5029 329A                                     l5045 336A  
                                   l5221 31F6                                     l5213 31EC  
                                   l4341 2C2E                                     l1597 1808  
                                   l4325 1CDA                                     l4317 1C8A  
                                   l4309 1C3A                                     l4333 3318  
                                   l4421 1B7C                                     l4405 1AB2  
                                   l5141 0AFC                                     l5133 0ABA  
                                   l5125 0A84                                     l5117 0A36  
                                   l5109 09F0                                     l5039 32A4  
                                   l5231 3200                                     l5223 31F8  
                                   l5215 31F0                                     l4343 2C34  
                                   l4431 2B80                                     l4327 1CF8  
                                   l4319 1C98                                     l4335 3326  
                                   l4423 1B8E                                     l4415 1B2E  
                                   l4407 1ABA                                     l4351 3350  
                                   l5151 0B6C                                     l5143 0B18  
                                   l5135 0ACA                                     l5127 0A90  
                                   l5119 0A4C                                     l5241 320A  
                                   l5233 3202                                     l5225 31FA  
                                   l5217 31F2                                     l4337 2BE2  
                                   l4441 2A96                                     l3801 0DD0  
                                   l4433 2BD8                                     l3721 325E  
                                   l4329 1D08                                     l4409 1AC2  
                                   l4361 3078                                     l4353 3352  
                                   l4345 3348                                     l5161 0BB6  
                                   l5153 0B76                                     l5145 0B34  
                                   l5129 0AA2                                     l5081 090A  
                                   l5243 320C                                     l5235 3204  
                                   l5227 31FC                                     l5219 31F4  
                                   l4339 2BFE                                     l4451 2AEE  
                                   l4443 2AA6                                     l3811 0E16  
                                   l3803 0DD8                                     l3731 3220  
                                   l3723 326C                                     l3715 3252  
                                   l4291 1BD8                                     l4419 1B6A  
                                   l4611 2866                                     l4603 2826  
                                   l4371 3084                                     l4363 307C  
                                   l4355 3356                                     l4347 334C  
                                   l4531 3382                                     l5171 0BF6  
                                   l5155 0B84                                     l5147 0B50  
                                   l5139 0AE2                                     l5091 0956  
                                   l5083 0922                                     l5251 2E82  
                                   l5245 320E                                     l5237 3206  
                                   l5229 31FE                                     l4445 2AC4  
                                   l4437 2A74                                     l4461 2A40  
                                   l4453 29F0                                     l3821 0E3E  
                                   l3813 0E1A                                     l3805 0DE8  
                                   l4429 2B6E                                     l3733 322E  
                                   l3717 3254                                     l3741 3128  
                                   l4293 1BDA                                     l4285 1BB8  
                                   l4621 29B8                                     l4701 1600  
                                   l4613 2882                                     l4605 2842  
                                   l4373 3088                                     l4365 307E  
                                   l4349 334E                                     l4381 30C2  
                                   l4533 3390                                     l4541 2DCE  
                                   l5181 0C48                                     l5173 0C10  
                                   l5165 0BCE                                     l5157 0B94  
                                   l5149 0B64                                     l5093 096C  
                                   l5085 0936                                     l5261 2EC0  
                                   l5253 2E98                                     l5239 3208  
                                   l4631 3058                                     l4447 2AC6  
                                   l4439 2A94                                     l4463 2A42  
                                   l4455 2A10                                     l3831 0E8C  
                                   l3807 0DFE                                     l3911 21F4  
                                   l3727 3212                                     l3719 325C  
                                   l3743 312C                                     l3751 30E4  
                                   l4295 1BDC                                     l4287 1BCC  
                                   l4623 29D8                                     l4391 1A40  
                                   l4607 285E                                     l4375 308C  
                                   l4367 3080                                     l4359 3074  
                                   l4383 30D0                                     l4543 2DD2  
                                   l5191 0C9E                                     l5183 0C5A  
                                   l5175 0C18                                     l5167 0BDE  
                                   l5159 0BA4                                     l5095 0982  
                                   l5087 093C                                     l5079 08F8  
                                   l5271 2730                                     l5247 2E50  
                                   l5263 2ED6                                     l5255 2EA0  
                                   l4633 32E2                                     l4449 2AD6  
                                   l4465 2A52                                     l4457 2A12  
                                   l3841 0ED6                                     l3833 0E9C  
                                   l3825 0E52                                     l3809 0E0E  
                                   l3817 0E2E                                     l3921 2242  
                                   l3913 221E                                     l3905 21C8  
                                   l3729 321E                                     l3745 3130  
                                   l3737 3108                                     l3753 30F6  
                                   l4297 1BE6                                     l4289 1BD4  
                                   l4617 2970                                     l4641 145C  
                                   l4705 1618                                     l3761 319E  
                                   l4393 1A44                                     l4561 28C8  
                                   l4553 28A2                                     l4609 2862  
                                   l4377 308E                                     l4369 3082  
                                   l4721 25F0                                     l4801 22DE  
                                   l4537 2DA0                                     l5185 0C72  
                                   l5177 0C26                                     l5097 0998  
                                   l5089 0948                                     l5281 2794  
                                   l5273 2736                                     l5249 2E6A  
                                   l5257 2EA4                                     l6241 1F9E  
                                   l4635 32C8                                     l4627 303C  
                                   l4467 2A6A                                     l4459 2A22  
                                   l3851 0F24                                     l3843 0EE2  
                                   l3835 0EA4                                     l3827 0E6C  
                                   l3819 0E3E                                     l3771 0D36  
                                   l3931 226E                                     l3915 2220  
                                   l3907 21E0                                     l3739 3116  
                                   l3755 30FA                                     l4299 1BEE  
                                   l4619 29B0                                     l4651 14AC  
                                   l4643 1474                                     l4707 16B4  
                                   l3763 31BC                                     l4395 1A5E  
                                   l4387 1A26                                     l4571 28F0  
                                   l4563 28CC                                     l4379 30A4  
                                   l4723 25F6                                     l4715 25E6  
                                   l4803 22E6                                     l4539 2DBC  
                                   l5187 0C76                                     l5179 0C3C  
                                   l5099 09A4                                     l5283 27C4  
                                   l5275 274A                                     l5267 26EA  
                                   l5259 2EBC                                     l6251 1FB0  
                                   l6243 1FA2                                     l4629 3056  
                                   l3853 0F3A                                     l3861 0F6A  
                                   l3845 0F00                                     l3837 0EB4  
                                   l3829 0E7C                                     l3781 0D6A  
                                   l3773 0D38                                     l3941 229E  
                                   l3917 2230                                     l3757 30FE  
                                   l3749 30D6                                     l4901 2D6E  
                                   l4661 14E8                                     l4653 14B0  
                                   l4645 1478                                     l4637 1454  
                                   l4397 1A92                                     l4389 1A3C  
                                   l4581 294C                                     l4573 290C  
                                   l4565 28E8                                     l4741 2670  
                                   l4725 260A                                     l4821 2360  
                                   l4805 22FA                                     l5189 0C84  
                                   l5277 277A                                     l5269 2700  
                                   l6261 1FFC                                     l6253 1FC6  
                                   l6245 1FA6                                     l6237 1F96  
                                   l3863 0F78                                     l3855 0F40  
                                   l3847 0F02                                     l3839 0EC8  
                                   l3791 0D9C                                     l3775 0D48  
                                   l3783 0D72                                     l3767 0D1A  
                                   l3943 22AE                                     l3927 225A  
                                   l3919 2234                                     l3951 16D0  
                                   l4903 2D8C                                     l4671 1538  
                                   l4663 1500                                     l4655 14C8  
                                   l4647 1490                                     l4639 1458  
                                   l4399 1A96                                     l4575 2928  
                                   l4559 28AC                                     l4591 27D6  
                                   l4751 26D8                                     l4743 2674  
                                   l4735 2634                                     l4727 2610  
                                   l4831 23C8                                     l4823 2364  
                                   l4815 2324                                     l4807 2300  
                                   l5199 0CB6                                     l5279 2780  
                                   l6271 204E                                     l6263 2000  
                                   l6255 1FCA                                     l6247 1FAA  
                                   l6239 1F9A                                     l3873 0FE2  
                                   l3881 102A                                     l3865 0F7C  
                                   l3857 0F4A                                     l3849 0F12  
                                   l3793 0D9E                                     l3785 0D82  
                                   l3777 0D58                                     l3769 0D28  
                                   l3945 22BE                                     l3937 2282  
                                   l3929 2264                                     l3961 174E  
                                   l3953 16DE                                     l4681 1574  
                                   l4673 153C                                     l4665 1504  
                                   l4657 14CC                                     l4649 1494  
                                   l4577 292C                                     l4593 27FE  
                                   l4585 27CC                                     l4841 1E6E  
                                   l4745 2690                                     l4737 2650  
                                   l4729 262C                                     l4761 23E4  
                                   l4825 2380                                     l4817 2340  
                                   l4809 231C                                     l4921 20CE  
                                   l4905 3394                                     l6281 20B2  
                                   l6273 2066                                     l6265 2018  
                                   l6257 1FE0                                     l6249 1FAE  
                                   l3891 1094                                     l3883 1044  
                                   l3875 0FEE                                     l3867 0F8A  
                                   l3859 0F58                                     l3795 0DAE  
                                   l3787 0D88                                     l3779 0D68  
                                   l3939 228E                                     l3971 17A2  
                                   l3963 1756                                     l3955 1724  
                                   l4691 15C4                                     l4683 158C  
                                   l4675 1554                                     l4667 151C  
                                   l4659 14E4                                     l4579 2930  
                                   l4595 2802                                     l4851 1EC0  
                                   l4843 1E74                                     l4835 1E64  
                                   l4747 26AE                                     l4739 266C  
                                   l4763 23EC                                     l4755 23DA  
                                   l4827 239E                                     l4819 235C  
                                   l4931 2104                                     l4923 20DE  
                                   l4907 3398                                     l6275 207E  
                                   l6267 2030                                     l6259 1FE6  
                                   l3893 10A2                                     l3885 105A  
                                   l3877 0FFC                                     l3869 0FB8  
                                   l3797 0DBE                                     l3789 0D8E  
                                   l3981 1818                                     l3973 17DE  
                                   l3965 1762                                     l3957 173A  
                                   l3949 16BE                                     l4693 15C8  
                                   l4685 1590                                     l4677 1558  
                                   l4669 1520                                     l4597 281E  
                                   l4861 1EF4                                     l4845 1E8A  
                                   l4749 26C2                                     l4781 2466  
                                   l4765 2400                                     l4829 23B2  
                                   l4941 214C                                     l4933 2114  
                                   l4925 20E2                                     l4917 20BA  
                                   l4909 339C                                     l6277 2096  
                                   l6269 2048                                     l3895 10A8  
                                   l3887 1074                                     l3879 1026  
                                   l3799 0DCE                                     l3991 1860  
                                   l3983 181C                                     l3975 17EA  
                                   l3967 1794                                     l4695 15E0  
                                   l4687 15A8                                     l4679 1570  
                                   l4863 1EFA                                     l4847 1E90  
                                   l4791 24CE                                     l4783 246A  
                                   l4775 242A                                     l4767 2406  
                                   l4951 2190                                     l4943 2156  
                                   l4935 212A                                     l4927 20F0  
                                   l4919 20C0                                     l6279 209C  
                                   l3897 10AA                                     l3889 1090  
                                   l3985 1840                                     l3977 17F8  
                                   l3969 1796                                     l4697 15E4  
                                   l4689 15AC                                     l4881 1F80  
                                   l4873 1F34                                     l4865 1F16  
                                   l4857 1ECA                                     l4849 1EAC  
                                   l4785 2486                                     l4777 2446  
                                   l4769 2422                                     l4945 2174  
                                   l4937 2132                                     l4953 2196  
                                   l4929 2100                                     l3987 1850  
                                   l3979 1816                                     l4891 2D4E  
                                   l4699 15FC                                     l3995 2DF8  
                                   l4875 1F3C                                     l4867 1F2A  
                                   l4859 1ED2                                     l4787 24A4  
                                   l4779 2462                                     l4795 22D4  
                                   l4955 21A6                                     l4947 2184  
                                   l4939 213E                                     l3989 185E  
                                   l4893 2D50                                     l4885 2D38  
                                   l3997 2DFE                                     l4877 1F5E  
                                   l4789 24B8                                     l6493 0CCA  
                                   l4957 21B6                                     l4949 2186  
                                   l4981 2B60                                     l4895 2D64  
                                   l4887 2D46                                     l3999 2E12  
                                   l6495 1ADE                                     l4879 1F64  
                                   l4991 2B6A                                     l4983 2B62  
                                   l4975 2AF8                                     l4993 32AA  
                                   l4897 2D6A                                     l4889 2D4C  
                                   l6497 162E                                     l4985 2B64  
                                   l4977 2AFC                                     l4995 32B0  
                                   l4899 2D6C                                     l4987 2B66  
                                   l4979 2B5E                     i2PWM_OneshotY@countY 0001  
                                   l4997 32C0                                     l4989 2B68  
                                   l4999 32C2                                     STR_1 08E6  
                                   STR_2 08E9                                     STR_3 08A6  
                                   STR_4 08AE                                     STR_5 08E9  
                                   STR_6 08A6                                     STR_7 08AE  
                                   STR_8 08E9                                     STR_9 08E9  
                                   u2100 3128                                     u2101 3124  
                                   u2110 30E4                                     u2111 30E0  
                                   u2200 0E3E                                     u2120 30F6  
                                   u2201 0E3A                                     u2121 30F2  
                                   u2210 0EB4                                     u2130 0D36  
                                   u3010 1BCC                                     u2211 0EB0  
                                   u2131 0D32                                     u3011 1BC8  
                                   u2300 0FCE                                     u2220 0ED6  
                                   u2140 0D48                                     u3020 1C00  
                                   u3100 3326                                     u2301 0FCA  
                                   u2221 0ED2                                     u2141 0D44  
                                   u3021 1BFC                                     u3101 3322  
                                   _LATA 000F89                                     u3110 2BFE  
                                   u2310 0FE2                                     u2230 0F00  
                                   u2150 0D58                                     u3030 1C14  
                                   _LATB 000F8A                                     u3111 2BFA  
                                   u2311 0FDE                                     u2231 0EFC  
                                   u2151 0D54                                     u3031 1C10  
                                   _LATC 000F8B                                     u3120 2C2C  
                                   u2320 0FFC                                     u2240 0F24  
                                   u2160 0D9C                                     u2400 227E  
                                   u3040 1C3A                                     u3200 1B64  
                                   _LATD 000F8C                                     u2321 0FF8  
                                   u2241 0F20                                     u2161 0D98  
                                   u2401 227A                                     u3041 1C36  
                                   u3201 1B5E                                     _LATE 000F8D  
                                   u3130 2C52                                     u2330 1044  
                                   u2250 0F3A                                     u2170 0DAE  
                                   u2410 229E                                     u2090 3116  
                                   u3050 1C48                                     u3210 1B66  
                                   u3131 2C4E                                     u2331 1040  
                                   u2251 0F36                                     u2171 0DAA  
                                   u2411 229A                                     u2091 3112  
                                   u3051 1C44                                     u2340 1074  
                                   u2260 0F58                                     u2180 0DBE  
                                   u2420 22AE                                     u2500 1816  
                                   u3060 1C8A                                     u3220 1B7C  
                                   u3140 309E                                     u2341 1070  
                                   u2261 0F54                                     u2181 0DBA  
                                   u2421 22AA                                     u2501 1812  
                                   u3061 1C86                                     u3221 1B78  
                                   u3141 309A                                     u2350 10A2  
                                   u2270 0F78                                     u2190 0DFE  
                                   u2510 1850                                     u2430 16D0  
                                   u3070 1C98                                     u3230 1B8E  
                                   u3150 30C2                                     u3127 2C22  
                                   u2351 109E                                     u2271 0F74  
                                   u2191 0DFA                                     u2511 184C  
                                   u2431 16CC                                     u3071 1C94  
                                   u3231 1B8A                                     u3151 30BE  
                                   u3240 2A94                                     u2280 0F8A  
                                   u2360 21E0                                     u2520 185E  
                                   u2440 16DE                                     u3080 1CDA  
                                   u3160 30D0                                     u3400 2DBC  
                                   u3241 2A90                                     u2281 0F86  
                                   u2361 21DC                                     u2521 185A  
                                   u2441 16DA                                     u3081 1CD6  
                                   u3161 30CC                                     u3401 2DB8  
                                   u3250 2AC4                                     u2290 0FB8  
                                   u2370 2214                                     u2450 173A  
                                   u3090 1CF8                                     u2530 2E12  
                                   u3170 1A5E                                     u3410 2DF6  
                                   u3251 2AC0                                     u2291 0FB4  
                                   u2451 1736                                     u3091 1CF4  
                                   u2531 2E0E                                     u3171 1A5A  
                                   u3411 2DF2                                     u3260 2AEE  
                                   u2380 2242                                     u2460 1790  
                                   u2540 2E40                                     u3180 1A92  
                                   u3420 28E8                                     u3500 262C  
                                   u3261 2AEA                                     u2381 223E  
                                   u2461 178C                                     u2541 2E3C  
                                   u3181 1A8E                                     u3421 28E4  
                                   u3501 2628                                     u3270 2A10  
                                   u2390 2256                                     u2470 17DA  
                                   u2550 3032                                     u3190 1AAE  
                                   u3430 290C                                     u3510 2650  
                                   u3271 2A0C                                     u2391 2252  
                                   u2375 220A                                     u2471 17D6  
                                   u2551 302C                                     u3191 1AAA  
                                   u3431 2908                                     u3511 264C  
                                   u3280 2A40                                     u2480 17F8  
                                   u2560 3034                                     u3440 2928  
                                   u3520 266C                                     u3600 235C  
                                   u3281 2A3C                                     u2481 17F4  
                                   u3441 2924                                     u3521 2668  
                                   u3601 2358                                     u3290 2A6A  
                                   u2490 1808                                     u3450 294C  
                                   u3530 2690                                     u3610 2380  
                                   u3291 2A66                                     u2491 1804  
                                   u3451 2948                                     u3531 268C  
                                   u3611 237C                                     u3460 281E  
                                   u3620 1EAC                                     u3540 2422  
                                   u3700 20F0                                     u3461 281A  
                                   u3621 1EA8                                     u3541 241E  
                                   u3701 20EC                                     u3470 2842  
                                   u3630 1F16                                     u3550 2446  
                                   u3390 3390                                     u3710 212A  
                                   u3471 283E                                     u3631 1F12  
                                   u3551 2442                                     u3391 338C  
                                   u3711 2126                                     u3480 285E  
                                   u3640 1F80                                     u3560 2462  
                                   u3800 09C2                                     u3720 214C  
                                   u3481 285A                                     u3641 1F7C  
                                   u3561 245E                                     u3801 09BE  
                                   u3721 2148                                     u3650 2D46  
                                   u3490 2882                                     u3570 2486  
                                   u3810 09F0                                     u3730 2174  
                                   u3651 2D42                                     u3491 287E  
                                   u3571 2482                                     u3811 09EC  
                                   u3731 2170                                     u3660 2D64  
                                   u3580 231C                                     u3820 0AA2  
                                   u3740 21A6                                     u3900 2EB4  
                                   u3661 2D60                                     u3581 2318  
                                   u3821 0A9E                                     u3741 21A2  
                                   u3901 2EB0                                     u3670 2D8C  
                                   u3590 2340                                     u3830 0ACA  
                                   u3910 2ED0                                     u3671 2D88  
                                   u3591 233C                                     u3831 0AC6  
                                   u3911 2ECC                                     u3680 2D9A  
                                   u3840 0BB6                                     u3920 26FE  
                                   u3681 2D96                                     u3841 0BB2  
                                   u3921 26FA                                     u3850 0BDE  
                                   u3690 20CE                                     u3930 2748  
                                   u3851 0BDA                                     u3691 20CA  
                                   u3931 2744                                     u3860 0C84  
                                   u3940 2792                                     _RCIF 007CF5  
                                   u3861 0C80                                     u3941 278E  
                                   u3790 0922                                     u3870 2E64  
                                   u3791 091E                                     u3871 2E60  
                                   u5607 2072                                     u3880 2E7C  
                                   u3881 2E78                                     u5617 208A  
                                   i2l42 1D68                                     u3890 2E94  
                                   u5627 270C                                     u3891 2E90  
                                   i2l45 1DBC                                     u5637 2724  
                                   i2l54 1E5E                                     u5647 2756  
                                   u5567 200C                                     i2l72 319C  
                                   i2l65 3250                                     i2l49 1E0C  
                                   u5657 276E                                     u5577 2024  
                                   u5667 27A0                                     u5587 203C  
                                   i2l68 328C                                     i2l76 316A  
                                   u5677 27B8                                     u5597 205A  
                                   u5687 3048        Serial_Lectura_MemoriaX@direccionX 007A  
                        __end_of_INT_isr 2CC6                                     _Suma 0044  
                                   _data 0058                                     _cp_h 0879  
                                   _cp_l 0875                                     _dp_h 0809  
                                   _dp_l 0801                                     _atoi 1A26  
                                   _main 1F96                                     _home 0055  
                                   _huge 0861                                     fsr0h 000FEA  
                                   _tiny 085D                                     indf0 000FEF  
                                   fsr2h 000FDA                                     fsr0l 000FE9  
                                   indf1 000FE7                                     indf2 000FDF  
                                   fsr1l 000FE1                                     fsr2l 000FD9  
                                   btemp 005D         Serial_Lectura_MemoriaZ@direccion 0079  
                                   prodh 000FF4                                     prodl 000FF3  
                                   start 000E                            __CFG_IESO$OFF 000000  
                           i2___fltol@f1 0028                          ___fldiv@new_exp 007F  
                           _PWM_OneshotX 3108                             _PWM_OneshotY 30D6  
                          __CFG_MCLRE$ON 000000                             ___param_bank 000000  
 Serial_Escritura_Memoria@direccionFinal 006D                          __end_of_Int_Ext 3212  
       __end_of_Serial_RangosCoordenadas 30D6                  __size_ofi2_PWM_OneshotX 0032  
                __size_ofi2_PWM_OneshotY 0032                       EEPROM_Rx@direccion 0060  
      Serial_Lectura_MemoriaY@direccionY 007A                            __CFG_PLLDIV$1 000000  
                         __CFG_CCP2MX$ON 000000         Serial_Lectura_MemoriaX@pointerCX 0076  
                          ___fltol@sign1 008F                          __end_of___aldiv 21C8  
                                  ?_atoi 0067                                    ?_main 0001  
                        __end_of___fldiv 10B6                                    _EEADR 000FA9  
                                  STR_10 08E9                                    STR_11 08E9  
                                  STR_12 08A6                                    STR_20 08AA  
                                  STR_13 08AE                                    STR_21 08B2  
                                  STR_14 08E9                                    STR_30 08D6  
                                  STR_22 08B6                                    STR_15 08E9  
                                  STR_31 08DA                                    STR_23 08BA  
                                  STR_40 08D7                                    STR_16 08E6  
                                  STR_32 08DE                                    STR_24 08BE  
                                  STR_41 08D7                                    STR_17 08F5  
                                  STR_33 08E2                                    STR_25 08C2  
                                  STR_42 08D7                                    STR_34 08EC  
                                  STR_26 08C6                                    STR_18 089E  
                                  STR_43 08D7                                    STR_35 08EF  
                                  STR_27 08CA                                    STR_19 08A2  
                                  STR_36 08F2                                    STR_28 08CE  
                                  STR_44 087D                                    STR_45 08E9  
                                  STR_29 08D2                                    STR_37 088F  
                                  STR_46 08D7                                    STR_38 0894  
                                  STR_39 0899                          __end_of___fltol 22D0  
                                  _CMCON 000FB4                                    _T2CON 000FCA  
                            i2_main_Home 2FB8                                    i2l630 33AA  
                                  i2l633 2FB6                                    i2l574 2D36  
                                  i2l860 2F6E                                    i2l853 2CC2  
                                  i2l871 2FD8                                    i2l872 2FF0  
                                  i2l856 3342                                    i2l864 2F26  
                                  i2l873 2FFE                                    i2l868 2FBC  
                                  _RCREG 000FAE                                    _SPBRG 000FAF  
                                  _PORTA 000F80                                    _PORTB 000F81  
                                  _PORTC 000F82                                    _PORTD 000F83  
                                  _PORTE 000F84                            __CFG_USBDIV$1 000000  
                                  _TRISD 000F95                                    _TXREG 000FAD  
                          __CFG_PWRT$OFF 000000                            __CFG_WRT0$OFF 000000  
                          __CFG_WRT1$OFF 000000                            __CFG_WRT2$OFF 000000  
                          __CFG_WRT3$OFF 000000                           __CFG_EBTR0$OFF 000000  
                         __CFG_FCMEN$OFF 000000                           __CFG_EBTR1$OFF 000000  
                         __CFG_EBTR2$OFF 000000                           __CFG_EBTR3$OFF 000000  
                          __CFG_WRTB$OFF 000000                            __CFG_WRTC$OFF 000000  
                          __CFG_WRTD$OFF 000000                                    _lg2_h 0829  
                                  _lg2_l 0825         Serial_Lectura_MemoriaY@pointerCY 0076  
                         __CFG_EBTRB$OFF 000000                                    _errno 004B  
                                  _error 0040                                    _ivln2 0819  
                        __end_of_isdigit 303A                          __end_of_ivln2_h 0875  
                        __end_of_ivln2_l 0819                                    _two24 0865  
                          i2___fldiv@grs 0022                            i2___fldiv@rem 001B  
                                  atoi@n 0074                                    atoi@s 0067  
                        __end_of_isspace 2E4C        Serial_Lectura_MemoriaZ@direccionZ 007A  
                                  tablat 000FF5                             USART_TxS@str 0060  
                     __size_of_USART_RxC 0012                       __size_of_USART_TxC 0018  
                     __size_of_USART_RxS 005C                       __size_of_USART_TxS 0072  
                                  ttemp5 005E                                    ttemp6 0061  
                                  ttemp7 0065         Serial_Lectura_MemoriaZ@pointerCZ 0076  
                                  status 000FD8                                    wtemp8 005E  
                         __CFG_ICPRT$OFF 000000                       __size_of_PWM_InitF 0020  
                     __size_of_PWM_InitS 001E                       __size_ofi2___fldiv 039A  
               __end_of_Motor_Conversion 2BE2                           _Serial_Oupcode 08F8  
                     __size_ofi2___fltol 0106                              ?_USART_Init 006E  
                        __initialization 31C6                   ?_Motor_Calcular_PasosX 0060  
                 ?_Motor_Calcular_PasosY 0060               __end_of_PWM_GeneratePulsos 1D0C  
      Serial_DecodificacionX@coordenadaX 007B                        __end_of_EEPROM_Rx 335A  
                      __end_of_EEPROM_Tx 30A4                             __end_of_cp_h 087D  
                           __end_of_cp_l 0879                             __end_of_dp_h 0811  
                           __end_of_dp_l 0809                             __end_of_atoi 1BB4  
                           __end_of_main 20BA                             __end_of_huge 0865  
               ?_Serial_Lectura_MemoriaX 0076                 ?_Serial_Lectura_MemoriaY 0076  
                           __end_of_tiny 0861                 ?_Serial_Lectura_MemoriaZ 0076  
               __size_of_GPIO_init_PORTA 001C                 __size_of_GPIO_init_PORTB 001A  
               __size_of_GPIO_init_PORTC 0014                 __size_of_GPIO_init_PORTD 001C  
               __size_of_GPIO_init_PORTE 0014                       EEPROM_Tx@direccion 0061  
                      ?_Actuator_Retract 0001               __size_of_Motor_MovimientoZ 0064  
                                 ??_atoi 0069                                   ??_main 00A0  
                     ??_Actuator_Retract 0068                            __activetblptr 000002  
                            ?i2___xxtofl 0001                                ??_INT_isr 003F  
         ??_Seria_Decodificacion_Memoria 0068                                   _ADCON1 000FC1  
                           ?i2_PWM_InitF 0001                             ?i2_PWM_InitS 0001  
                                 _ADRESH 000FC4                                   _ADRESL 000FC3  
                                 _EEDATA 000FA8                                   _CCPR1L 000FBE  
                                 _CCPR2L 000FBB                                   _EECON2 000FA7  
                                 i2l1225 25E0                                   i2l1510 144E  
                                 i2l1512 12AE                                   i2l1521 12F4  
                                 i2l1523 136C                                   i2l1515 1272  
                                 i2l4011 3232                                   i2l1524 135A  
                                 i2l4021 3270                                   i2l4101 10B6  
                                 i2l4013 323E                                   i2l4023 3272  
                                 i2l4111 10F2                                   i2l4103 10C2  
                                 i2l4015 3240                                   i2l4025 327A  
                                 i2l4201 1324                                   i2l4121 1122  
                                 i2l4113 1102                                   i2l4105 10D0  
                                 i2l4017 324E                                   i2l4041 3194  
                                 i2l4033 316C                                   i2l4027 327C  
                                 i2l4211 1396                                   i2l4203 1352  
                                 i2l4131 1158                                   i2l4123 1128  
                                 i2l4115 1104                                   i2l4107 10D2  
                                 i2l4035 317A                                   i2l4051 315E  
                                 i2l4029 328A                                   i2l4221 140E  
                                 i2l4213 13C0                                   i2l4141 1198  
                                 i2l4133 1168                                   i2l4125 1136  
                                 i2l4109 10E2                                   i2l4117 110C  
                                 i2l4037 318C                                   i2l4053 3162  
                                 i2l4045 313A                                   i2l1590 1960  
                                 i2l4231 1444                                   i2l4223 142A  
                                 i2l4207 137C                                   i2l4215 13C4  
                                 i2l4143 11A8                                   i2l4151 11C8  
                                 i2l4135 116A                                   i2l4127 1138  
                                 i2l4119 111C                                   i2l4071 2546  
                                 i2l4063 2506                                   i2l1583 18C8  
                                 i2l4039 3190                                   i2l4047 3148  
                                 i2l4225 142E                                   i2l4217 13DE  
                                 i2l4209 1388                                   i2l4161 1206  
                                 i2l4153 11D8                                   i2l4145 11B0  
                                 i2l4129 1148                                   i2l4137 1172  
                                 i2l4081 2576                                   i2l4073 2554  
                                 i2l4065 2530                                   i2l4057 24DC  
                                 i2l4241 1884                                   i2l4049 315A  
                                 i2l1586 1A24                                   i2l4227 143C  
                                 i2l4219 13F4                                   i2l4171 124E  
                                 i2l4163 1216                                   i2l4155 11D8  
                                 i2l4147 11B4                                   i2l4139 1182  
                                 i2l4091 25A0                                   i2l4083 2580  
                                 i2l4067 2532                                   i2l4059 24F2  
                                 i2l4251 1902                                   i2l4243 1892  
                                 i2l4229 1442                                   i2l4181 129C  
                                 i2l4173 1262                                   i2l4165 1226  
                                 i2l4093 25B0                                   i2l4069 2542  
                                 i2l1597 19BC                                   i2l4261 1956  
                                 i2l4253 190A                                   i2l4245 18D8  
                                 i2l4501 1DDC                                   i2l5301 2EE4  
                                 i2l5311 332C                                   i2l4191 12E4  
                                 i2l4183 12AC                                   i2l4175 1270  
                                 i2l4167 1236                                   i2l4159 11EC  
                                 i2l4095 25C0                                   i2l4079 256C  
                                 i2l4271 19CC                                   i2l4263 1992  
                                 i2l4255 1916                                   i2l4247 18EE  
                                 i2l4239 1874                                   i2l4511 1E4A  
                                 i2l4503 1DEA                                   i2l5303 2EFC  
                                 i2l5313 3330                                   i2l4193 12F2  
                                 i2l4185 12BE                                   i2l4177 127C  
                                 i2l4169 123E                                   i2l4097 25D0  
                                 i2l4089 2594                                   i2l4281 1A14  
                                 i2l4273 19D0                                   i2l4265 199E  
                                 i2l4257 1948                                   i2l4521 2D2E  
                                 i2l4513 1E5C                                   i2l4505 1E02  
                                 i2l5305 2F0C                                   i2l5315 333A  
                                 i2l4187 12D4                                   i2l4195 1304  
                                 i2l4179 129A                                   i2l4275 19F4  
                                 i2l4267 19AC                                   i2l4259 194A  
                                 i2l4507 1E0E                                   i2l5307 2F22  
                                 i2l4525 33A0                                   i2l4197 1312  
                                 i2l4189 12DA                                   i2l4277 1A04  
                                 i2l4269 19CA                                   i2l4517 2CC6  
                                 i2l4509 1E2C                                   i2l6301 2C9E  
                                 i2l4527 33A4                                   i2l4199 1316  
                                 i2l4279 1A12                                   i2l4519 2CD6  
                                 i2l4471 1D20                                   i2l6303 2CAC  
                                 i2l4529 33A8                                   i2l4481 1D38  
                                 i2l4473 1D28                                   i2l6305 2CB0  
                                 i2l4491 1D6E                                   i2l4483 1D40  
                                 i2l4475 1D2C                                   i2l5291 2F44  
                                 i2l6307 2CC0                                   i2l4493 1D8C  
                                 i2l4485 1D52                                   i2l4477 1D2E  
                                 i2l4469 1D0E                                   i2l5293 2F54  
                                 i2l4495 1D9A                                   i2l4487 1D54  
                                 i2l4479 1D30                                   i2l4911 2F72  
                                 i2l5295 2F6A                                   i2l5287 2F28  
                                 i2l4497 1DB2                                   i2l4489 1D66  
                                 i2l4913 2F78                                   i2l5289 2F2C  
                                 i2l4499 1DBE                                   i2l5299 2EE0  
                                 i2l6291 2C78                                   i2l6293 2C7A  
                                 i2l6285 2C56                                   i2l6295 2C88  
                                 i2l6287 2C64                                   i2l4961 2FB8  
                                 i2l6297 2C8C                                   i2l6289 2C68  
                                 i2l4971 2FF6                                   i2l4963 2FC0  
                                 i2l6299 2C9C                                   i2l4965 2FC4  
                                 i2l4967 2FDC                                   i2l4969 2FE0  
                                 _OSCCON 000FD3                   __end_of_Serial_Oupcode 0D1A  
                       __end_of___xxtofl 1872                                   _DeltaX 00B0  
                                 _DeltaY 00AE                                ??_Int_Ext 0060  
                     _Usart_Interface_ON 2E4C                           __CFG_XINST$OFF 000000  
                                 _PasosX 00B4                                   _PasosY 00B2  
         __size_of_Usart_Interface_Flash 00E6            __end_of_Usart_Interface_Flash 27CC  
                             _Motor_Home 3394        Serial_DecodificacionY@coordenadaY 007C  
                              ??___aldiv 0068                                   ___wmul 319E  
                              ??___fldiv 0076                           __CFG_STVREN$ON 000000  
                              ??___fltol 008B                      ?_Usart_Interface_ON 0001  
                                 clear_0 31CC                                   clear_1 31D8  
               __end_of_Motor_Movimiento 29F0                              _CoordenadaX 00D3  
                            _CoordenadaY 00D1                              _CoordenadaZ 00CF  
                         i2___fldiv@aexp 0027                           i2___fldiv@bexp 0026  
                          USART_TxC@data 0060                         _coordenada_array 00C8  
                         i2___fldiv@sign 001F                     __size_of_INT0_ACTION 0018  
                      __end_of_USART_RxC 3394                        __end_of_USART_TxC 332C  
                      __end_of_USART_RxS 2DF8                        __end_of_USART_TxS 2C54  
               _Serial_RangosCoordenadas 30A4                     __size_of_INT1_ACTION 0048  
                   __size_of_INT2_ACTION 0048                        __end_of_PWM_InitF 3232  
                      __end_of_PWM_InitS 3270                                ??_isdigit 0062  
                      __end_ofi2___fldiv 1450                        __end_ofi2___fltol 25E2  
                           __mediumconst 0000                                ??_isspace 0062  
                                 tblptrh 000FF7                                   tblptrl 000FF6  
                                 tblptru 000FF8                      __size_of_USART_Init 0076  
                   ??_Usart_Interface_ON 0060                       i2_Motor_Conversion 2CC6  
                           ___xxtofl@arg 006A                             ___xxtofl@exp 0069  
                           ___xxtofl@val 0060                               __accesstop 0060  
                __end_of__initialization 31DE                           i2___fltol@exp1 0031  
                        __CFG_PBADEN$OFF 000000                          ?_Serial_Oupcode 0001  
             Motor_Conversion@conversion 0093                      ?i2_Motor_Conversion 0032  
                          ___rparam_used 000001                  Serial_DecodificacionX@i 007E  
                Serial_DecodificacionY@i 007F                               ___fltol@f1 0087  
        __end_of_Serial_Lectura_MemoriaX 26E6          __end_of_Serial_Lectura_MemoriaY 24DC  
        __end_of_Serial_Lectura_MemoriaZ 23D6                      __size_ofi2___xxtofl 01B4  
                         __pcstackCOMRAM 0001                           i2_PWM_OneshotX 316C  
                         i2_PWM_OneshotY 313A                            __end_of_lg2_h 082D  
                          __end_of_lg2_l 0829                             _Flag_Botones 0057  
                          __end_of_ivln2 081D                            __end_of_two24 0869  
                             __end_of_L1 085D                               __end_of_L2 0859  
                             __end_of_L3 0855                               __end_of_L4 0851  
                             __end_of_L5 084D                               __end_of_L6 0849  
                             __end_of_P1 0845                               __end_of_P2 0841  
                             __end_of_P3 083D                               __end_of_P4 0839  
                             __end_of_P5 0835                               __end_of_bp 0871  
                             __end_of_cp 0821          Serial_DecodificacionX@pointerCX 0078  
                   ??i2_Motor_Conversion 0034                         ??_Actuator_Touch 0068  
                      ??_GPIO_init_PORTA 0060                        ??_GPIO_init_PORTB 0060  
                      ??_GPIO_init_PORTC 0060                        ??_GPIO_init_PORTD 0060  
                      ??_GPIO_init_PORTE 0060          Serial_DecodificacionY@pointerCY 0078  
                     __size_of_main_Home 0048        Motor_Movimiento@Motor_CoordenadaX 0097  
      Motor_Movimiento@Motor_CoordenadaY 0099                               __pbssBANK0 00A2  
Motor_Calcular_PasosY@coordenada_actualY 0060             Motor_Movimiento_Home@Oupcode 003C  
                 __end_ofi2_PWM_OneshotX 319E                   __end_ofi2_PWM_OneshotY 316C  
                            ?_Motor_Home 0001           Serial_Escritura_Memoria@i_1456 0070  
         Serial_Escritura_Memoria@i_1458 0072                                  ?___wmul 0060  
                                _CCP1CON 000FBD                                  _CCP2CON 000FBA  
                             _bites_masS 0059                   __size_of_Actuator_Hold 001A  
                           ?i2_main_Home 0001            __size_ofi2_PWM_GeneratePulsos 0154  
      Serial_Escritura_Memoria@direccion 006C                                ?___xxtofl 0060  
                                _INT_isr 0008                    _Motor_Movimiento_Home 2F70  
                   __size_ofi2_PWM_InitF 0020                     __size_ofi2_PWM_InitS 001E  
                        __CFG_VREGEN$OFF 000000        __size_of_Serial_Escritura_Memoria 0136  
              ?_Serial_Escritura_Memoria 0068                  ??_Motor_Calcular_PasosX 0062  
                ??_Motor_Calcular_PasosY 0062                                  _Lectura 0053  
                                _Int_Ext 31EC                             _bites_menosS 005A  
                           ??_USART_Init 0072                        ?_Motor_Conversion 0091  
                                __Hparam 0000                          ?i2_PWM_OneshotX 0001  
                        ?i2_PWM_OneshotY 0001                                  __Lparam 0000  
                     ??_Motor_Conversion 0093                                  ___aldiv 20BA  
                                ___fldiv 0D1A                                  ___fltol 21C8  
                        __size_of___wmul 0028                        __end_of_main_Home 2EE0  
                           __psmallconst 0800                                _EEPROM_Rx 3344  
                              _EEPROM_Tx 3070                           USART_Init@BAUD 006E  
                                __pcinit 31C6                                  __ramtop 0800  
                                __ptext0 1F96                                  __ptext1 2E98  
                                __ptext2 3394                                  __ptext3 2E4C  
                                __ptext4 26E6                                  __ptext5 2AF8  
                                __ptext6 20BA                                  __ptext7 08F8  
                                __ptext8 2D9C                                  __ptext9 3382  
  Seria_Decodificacion_Memoria@direccion 006A                                _T2CONbits 000FCA  
                     _PWM_GeneratePulsos 1BB4                                  _isdigit 3000  
                                _ivln2_h 0871                             ??i2___xxtofl 0005  
                                _ivln2_l 0815                               ??___xxtofl 0064  
                           _CoordenadaXX 004F                             _CoordenadaYY 004D  
                       ___aldiv@dividend 0060                                  _isspace 2DF8  
       __size_of_Serial_Lectura_MemoriaX 0104         __size_of_Serial_Lectura_MemoriaY 0106  
       __size_of_Serial_Lectura_MemoriaZ 0106                                  atoi@neg 006D  
                     __end_of_USART_Init 2B6E                      __size_of_Motor_Home 000C  
               ??_Serial_DecodificacionX 007A                 ??_Serial_DecodificacionY 007A  
                         __pintcode_body 2C54                      ?_PWM_GeneratePulsos 0062  
              __size_of_Actuator_Retract 001A                     end_of_initialization 31DE  
                        _Coordenadas_mal 00B8               i2PWM_GeneratePulsos@countX 0009  
             i2PWM_GeneratePulsos@countY 000B                            __Lmediumconst 0000  
                                int_func 2C54                            _Actuator_Hold 32E0  
                      _pasos_convertidos 00B6                           i2___xxtofl@arg 000B  
                         i2___xxtofl@exp 000A                           i2___xxtofl@val 0001  
                   _coordenada_anteriorX 00AC                     _coordenada_anteriorY 00AA  
            i2PWM_GeneratePulsos@Oupcode 0008               ??_Serial_RangosCoordenadas 0062  
                              _RCSTAbits 000FAB                       __end_ofi2___xxtofl 1A26  
                       ___aldiv@quotient 006A                                  postdec2 000FDD  
                                postinc0 000FEE                                  postinc2 000FDE  
                   ??_PWM_GeneratePulsos 0066                  Motor_Movimiento@Oupcode 009B  
                  Serial_Oupcode@Oupcode 009F                               ?_EEPROM_Rx 0001  
                             ?_EEPROM_Tx 0060                        ?_Motor_Movimiento 0097  
                              _PORTAbits 000F80                                _PORTCbits 000F82  
                              _PORTDbits 000F83             i2Motor_Conversion@Coordenada 0032  
                     ??_Motor_Movimiento 009B                            ___xxtofl@sign 0068  
                              _USART_RxC 3382                   ?_Motor_Movimiento_Home 0038  
                              _USART_TxC 3314                                _TRISAbits 000F92  
                              _USART_RxS 2D9C                                _USART_TxS 2BE2  
                              _TRISBbits 000F93                                _TRISCbits 000F94  
                              _TRISDbits 000F95                                _TRISEbits 000F96  
            i2PWM_GeneratePulsos@pulsosX 0003              i2PWM_GeneratePulsos@pulsosY 0005  
                            ___fldiv@grs 0081                              ___fldiv@rem 007A  
                        i2___fltol@sign1 0030                            EEPROM_Tx@dato 0060  
                       ??_Serial_Oupcode 009C                                _PWM_InitF 3212  
                              _PWM_InitS 3252                                i2___fldiv 10B6  
                              i2___fltol 24DC                           ?_Actuator_Hold 0001  
                              _TXSTAbits 000FAC        Serial_Oupcode@instruction_counter 009E  
                          ?i2_Motor_Home 0001                            ??_INT0_ACTION 0001  
                        _GPIO_init_PORTA 32AA                          _GPIO_init_PORTB 32FA  
                        _GPIO_init_PORTC 336E                          _GPIO_init_PORTD 328E  
                        _GPIO_init_PORTE 335A                            ??_INT1_ACTION 003D  
                  _Usart_Interface_Flash 26E6                            ??_INT2_ACTION 003D  
                         __end_of___wmul 31C6                                _Distancia 00A6  
                    start_initialization 31C6                               ?_USART_RxC 0001  
                             ?_USART_TxC 0001                               ?_USART_RxS 0060  
                   __size_ofi2_main_Home 0048                               ?_USART_TxS 0060  
                            __end_of_lg2 0831                        _Direccion_Memoria 00BA  
                            __end_of_ovt 0825                               ?_PWM_InitF 0001  
                             ?_PWM_InitS 0001                               ?i2___fldiv 000F  
                             ?i2___fltol 0028              __size_of_Usart_Interface_ON 004C  
        __size_of_Serial_DecodificacionX 00CA          __size_of_Serial_DecodificacionY 00D6  
Serial_DecodificacionX@string_coordenada 0076                            ?_PWM_OneshotX 0060  
                          ?_PWM_OneshotY 0060                           ??i2_Motor_Home 0001  
                           ??_Motor_Home 0060                                 ??___wmul 0064  
                       __CFG_LPT1OSC$OFF 000000                              ??_EEPROM_Rx 0060  
                            ??_EEPROM_Tx 0061  Serial_Escritura_Memoria@string_setpoint 0068  
            __size_ofi2_Motor_Conversion 0072                      __end_of_INT0_ACTION 3344  
                              ___fldiv@a 0072                                ___fldiv@b 006E  
       __end_of_Serial_Escritura_Memoria 1F96                      __end_of_INT1_ACTION 2F70  
                _Serial_Lectura_MemoriaX 25E2                  _Serial_Lectura_MemoriaY 23D6  
                _Serial_Lectura_MemoriaZ 22D0                              __pbssCOMRAM 0040  
                    __end_of_INT2_ACTION 2F28                            __pcstackBANK0 0060  
                               ?_INT_isr 0001                        __end_ofsqrtf@tiny 0815  
                      __size_of___xxtofl 01B8                 Serial_Lectura_MemoriaX@i 007E  
               Serial_Lectura_MemoriaY@i 007E                 Serial_Lectura_MemoriaZ@i 007E  
                     PWM_OneshotX@countX 0060                       __end_of_Motor_Home 33A0  
                       _Actuator_Retract 32C6                          ??_Actuator_Hold 0068  
                     PWM_OneshotY@countY 0060                         ??i2_PWM_OneshotX 0003  
                       ??i2_PWM_OneshotY 0003             __end_ofi2_PWM_GeneratePulsos 1E60  
                              _atoi$2706 006F                                _atoi$2707 0073  
                              _atoi$2708 0071                           ??_PWM_OneshotX 0062  
                         ??_PWM_OneshotY 0062                  __end_of_GPIO_init_PORTA 32C6  
                __end_of_GPIO_init_PORTB 3314                  __end_of_GPIO_init_PORTC 3382  
                __end_of_GPIO_init_PORTD 32AA                  __end_of_GPIO_init_PORTE 336E  
                               ?_Int_Ext 0001  Motor_Calcular_PasosX@coordenada_actualX 0060  
         __size_of_Motor_Calcular_PasosX 0084           __size_of_Motor_Calcular_PasosY 0084  
          __end_of_Motor_Calcular_PasosX 2AF8            __end_of_Motor_Calcular_PasosY 2A74  
                              __pintcode 0008                   ?_Usart_Interface_Flash 0001  
                               ?___aldiv 0060                                 ?___fldiv 006E  
                 _Serial_DecodificacionX 28A2                   _Serial_DecodificacionY 27CC  
                               ?___fltol 0087                                _main_Home 2E98  
                              fabsf@F463 00A2                              __smallconst 0800  
              __size_of_Motor_Conversion 0074                                 ?_isdigit 0060  
                               ?_isspace 0060                              ??_USART_RxC 0060  
                            ??_USART_TxC 0060                              ??_USART_RxS 0062  
                            ??_USART_TxS 0064                            ??i2_PWM_InitF 0001  
                          ??i2_PWM_InitS 0001                              ??_PWM_InitF 0060  
                            ??_PWM_InitS 0060                              ??i2___fldiv 0017  
                            ??i2___fltol 002C                  __size_of_Actuator_Touch 0036  
               PWM_GeneratePulsos@countX 0068                 PWM_GeneratePulsos@countY 006A  
                        ___aldiv@divisor 0064                          ___aldiv@counter 0068  
              Serial_RangosCoordenadas@C 0060                           ___wmul@product 0064  
                               _LATBbits 000F8A                                 _LATCbits 000F8B  
                               _LATDbits 000F8C                                 i2u300_40 1A12  
                               i2u300_41 1A0E                                 i2u330_40 1D20  
                               i2u330_41 1D1C                                 i2u331_40 1D52  
                               i2u331_41 1D4E                                 i2u260_40 315A  
                               i2u332_40 1D66                                 i2u260_41 3156  
                               i2u332_41 1D62                                 i2u261_40 24F2  
                               i2u333_40 1D8C                                 i2u261_41 24EE  
                               i2u333_41 1D88                                 i2u270_40 10F2  
                               i2u262_40 2526                                 i2u334_40 1D9A  
                               i2u270_41 10EE                                 i2u334_41 1D96  
                               i2u262_45 251C                                 i2u271_40 1136  
                               i2u263_40 2554                                 i2u335_40 1DDC  
                               i2u271_41 1132                                 i2u263_41 2550  
                               i2u335_41 1DD8                                 i2u280_40 12D4  
                               i2u272_40 1148                                 i2u264_40 2568  
                               i2u336_40 1DEA                                 i2u280_41 12D0  
                               i2u272_41 1144                                 i2u264_41 2564  
                               i2u336_41 1DE6                                 i2u281_40 12F2  
                               i2u273_40 1158                                 i2u265_40 2590  
                               i2u257_40 317A                                 i2u337_40 1E2C  
                               i2u281_41 12EE                                 i2u273_41 1154  
                               i2u265_41 258C                                 i2u257_41 3176  
                               i2u337_41 1E28                                 _PIR1bits 000F9E  
     Serial_Lectura_MemoriaX@coordenadaX 007B                                 i2u290_40 143C  
                               i2u282_40 1312                                 i2u274_40 1198  
                               i2u266_40 25B0                                 i2u258_40 318C  
                               i2u338_40 1E4A                                 i2u290_41 1438  
                               i2u282_41 130E                                 i2u274_41 1194  
                               i2u266_41 25AC                                 i2u258_41 3188  
                               i2u338_41 1E46                                 i2u283_40 1324  
                               i2u275_40 11D8                                 i2u267_40 25C0  
                               i2u291_40 1884                                 i2u259_40 3148  
                               i2u283_41 1320                                 i2u275_41 11D4  
                               i2u267_41 25BC                                 i2u291_41 1880  
                               i2u259_41 3144                                 _PIR2bits 000FA1  
                               i2u284_40 1352                                 i2u276_40 124E  
                               i2u268_40 10D0                                 i2u292_40 1892  
                               i2u532_40 2C64                                 i2u284_41 134E  
                               i2u276_41 124A                                 i2u268_41 10CC  
                               i2u292_41 188E                                 i2u532_41 2C60  
                               i2u285_40 1368                                 i2u277_40 1270  
                               i2u269_40 10E2                                 i2u293_40 18EE  
                               i2u533_40 2C88                                 i2u285_41 1364  
                               i2u277_41 126C                                 i2u269_41 10DE  
                               i2u293_41 18EA                                 i2u533_41 2C84  
                               i2u286_40 137C                                 i2u278_40 129A  
                               i2u294_40 1944                                 i2u534_40 2CAC  
                               i2u286_41 1378                                 i2u278_41 1296  
                               i2u294_41 1940                                 i2u534_41 2CA8  
                               i2u375_40 2FD4                                 i2u287_40 1396  
                               i2u279_40 12BE                                 i2u295_40 198E  
                               i2u375_41 2FD0                                 i2u287_41 1392  
                               i2u279_41 12BA                                 i2u295_41 198A  
                               i2u376_40 2FF0                                 i2u288_40 13DE  
                               i2u296_40 19AC                                 i2u376_41 2FEC  
                               i2u288_41 13DA                                 i2u296_41 19A8  
                               i2u289_40 140E                                 i2u297_40 19BC  
                               i2u289_41 140A                                 i2u297_41 19B8  
                               i2u298_40 19CA                                 i2u298_41 19C6  
                               i2u570_47 2C92                                 i2u299_40 1A04  
                               i2u395_40 2F54                                 i2u299_41 1A00  
                               i2u395_41 2F50                                 i2u571_47 2CB6  
                               i2u396_40 2F0C                                 i2u396_41 2F08  
                               i2u572_47 2EEE                                 i2u573_47 2F36  
                               i2u569_47 2C6E                                 _UCFGbits 000F6F  
                               _RCONbits 000FD0                        i2___fldiv@new_exp 0020  
                       __CFG_WDTPS$32768 000000                                 _UCONbits 000F6D  
                            _INT0_ACTION 332C                              _INT1_ACTION 2F28  
                            _INT2_ACTION 2EE0                ??_Serial_Lectura_MemoriaX 0078  
              ??_Serial_Lectura_MemoriaY 0078                ??_Serial_Lectura_MemoriaZ 0078  
                             _ADCON0bits 000FC2                               _ADCON1bits 000FC1  
                             _ADCON2bits 000FC0                        ___wmul@multiplier 0060  
                ??_Motor_Movimiento_Home 003C                               ?_main_Home 0001  
                               _BanderaX 005C                                 _BanderaY 005B  
                    _coordenada_setpoint 00BD                     __end_ofi2_Motor_Home 33AC  
                           _isspace$2735 0066             i2Motor_Conversion@conversion 0034  
           Serial_DecodificacionX@i_1391 0080             Serial_DecodificacionY@i_1397 0081  
                       __size_of_INT_isr 2CBE                              _INTCON2bits 000FF1  
                            _INTCON3bits 000FF0                 _Serial_Escritura_Memoria 1E60  
                             USART_RxS@i 0066                               USART_TxS@i 0066  
              __size_of_Motor_Movimiento 0084                        _Coordenadas_fuera 00B9  
                       USART_RxS@pointer 0060                      __end_ofi2_PWM_InitF 3252  
                    __end_ofi2_PWM_InitS 328E                               _EECON1bits 000FA6  
                       ?_GPIO_init_PORTA 0001                         ?_GPIO_init_PORTB 0001  
                       ?_GPIO_init_PORTC 0001                         ?_GPIO_init_PORTD 0001  
                       ?_GPIO_init_PORTE 0001                                 __Hrparam 0000  
                       __size_of_Int_Ext 0026       Serial_Lectura_MemoriaY@coordenadaY 007B  
                               __Lrparam 0000              __size_of_PWM_GeneratePulsos 0158  
                       __size_of___aldiv 010E                         __size_of___fldiv 039C  
                       __size_of___fltol 0108                    __CFG_FOSC$INTOSCIO_EC 000000  
                   i2_PWM_GeneratePulsos 1D0C                     __end_of_PWM_OneshotX 313A  
                   __end_of_PWM_OneshotY 3108                                 ___xxtofl 16BA  
      __size_of_Serial_RangosCoordenadas 0032                         __size_of_isdigit 003A  
              ?_Serial_RangosCoordenadas 0060                         __size_of_isspace 0054  
                               __ptext10 22D0                                 __ptext11 23D6  
                               __ptext20 2DF8                                 __ptext12 25E2  
                               __ptext21 3000                                 __ptext13 30A4  
                               __ptext30 3252                                 __ptext22 319E  
                               __ptext14 3344                                 __ptext31 3212  
                               __ptext23 1450                                 __ptext15 1E60  
                               __ptext40 32E0                                 __ptext32 2B6E  
                               __ptext24 2D38                                 __ptext16 3070  
                               __ptext41 2BE2                                 __ptext33 16BA  
                               __ptext25 3314                                 __ptext17 27CC  
                               __ptext50 2F28                                 __ptext42 31EC  
                               __ptext34 21C8                                 __ptext26 296C  
                               __ptext18 28A2                                 __ptext51 2F70  
                               __ptext43 335A                                 __ptext35 0D1A  
                               __ptext27 1BB4                                 __ptext19 1A26  
                               __ptext60 332C                                 __ptext52 1D0C  
                               __ptext44 328E                                 __ptext36 29F0  
                               __ptext28 30D6                                 __ptext61 2FB8  
                               __ptext53 313A                                 __ptext45 336E  
                               __ptext37 2A74                                 __ptext29 3108  
                               __ptext62 33A0                                 __ptext54 316C  
                               __ptext46 32FA                                 __ptext38 303A  
                               __ptext63 3270                                 __ptext55 3232  
                               __ptext47 32AA                                 __ptext39 32C6  
                               __ptext56 2CC6                                 __ptext57 1872  
                               __ptext49 2EE0                                 __ptext58 24DC  
                               __ptext59 10B6                                 _controlZ 0056  
                          __size_of_atoi 018E                            __size_of_main 0124  
                        _USART_Init$3107 0072                                 _oneshotX 00BC  
                               _oneshotY 00BB       Serial_Lectura_MemoriaZ@coordenadaZ 007B  
                               int$flags 005D                  Usart_Interface_ON@color 0060  
               __end_of_Actuator_Retract 32E0                          USART_RxS@length 0065  
                          ??i2_main_Home 0001                    __CFG_CPUDIV$OSC1_PLL2 000000  
                            ??_main_Home 0060                    ?i2_PWM_GeneratePulsos 0003  
                       _Motor_Conversion 2B6E                               _INTCONbits 000FF2  
             __end_of_Usart_Interface_ON 2E98                                 isdigit@c 0060  
                        USART_TxS@length 0062                              i2_PWM_InitF 3232  
                            i2_PWM_InitS 3270                                 intlevel2 0000  
                         _Actuator_Touch 303A  Serial_DecodificacionY@string_coordenada 0076  
                              sqrtf@tiny 0811                          i2___xxtofl@sign 0009  
                               isspace@c 0060                  ??_Usart_Interface_Flash 0060  
                __size_of_Serial_Oupcode 0422                  ?_Serial_DecodificacionX 0076  
                ?_Serial_DecodificacionY 0076                Serial_Escritura_Memoria@i 006E  
   __end_of_Seria_Decodificacion_Memoria 16BA    __size_of_Seria_Decodificacion_Memoria 026A  
           _Seria_Decodificacion_Memoria 1450               __end_ofi2_Motor_Conversion 2D38  
                  __size_ofi2_Motor_Home 000C                        _Motor_MovimientoZ 2D38  
                           ___aldiv@sign 0069                       ?_Motor_MovimientoZ 0001  
                 __end_of_Actuator_Touch 3070                      __end_ofi2_main_Home 3000  
 Motor_Movimiento_Home@Motor_CoordenadaX 0038   Motor_Movimiento_Home@Motor_CoordenadaY 003A  
             Motor_Conversion@Coordenada 0091                         _Motor_Movimiento 296C  
                  __end_of_Actuator_Hold 32FA                      ??_Motor_MovimientoZ 0061  
         __end_of_Serial_DecodificacionX 296C           __end_of_Serial_DecodificacionY 28A2  
                             _USART_Init 2AF8               Usart_Interface_Flash@color 0062  
