

Microchip MPLAB XC8 Assembler V2.10 build 88905656 
                                                                                               Fri Nov 22 13:04:52 2019

Microchip MPLAB XC8 C Compiler v2.10 (Free license) build 20190730164152 Og1 
     1                           	processor	18F4550
     2                           	fnconf	rparam,??,?,0
     3                           	opt	pw 120
     4                           	opt	flic
     5                           	psect	cinit,global,reloc=2,class=CODE,delta=1
     6                           	psect	bssCOMRAM,global,class=COMRAM,space=1,delta=1,noexec
     7                           	psect	cstackCOMRAM,global,class=COMRAM,space=1,delta=1,noexec
     8                           	psect	text0,global,reloc=2,class=CODE,delta=1
     9                           	psect	text1,global,reloc=2,class=CODE,delta=1
    10                           	psect	text2,global,reloc=2,class=CODE,delta=1
    11                           	psect	text3,global,reloc=2,class=CODE,delta=1
    12                           	psect	text4,global,reloc=2,class=CODE,delta=1,group=1
    13                           	psect	text5,global,reloc=2,class=CODE,delta=1
    14                           	psect	text6,global,reloc=2,class=CODE,delta=1
    15                           	psect	text7,global,reloc=2,class=CODE,delta=1,group=2
    16                           	psect	text8,global,reloc=2,class=CODE,delta=1,group=2
    17                           	psect	text9,global,reloc=2,class=CODE,delta=1,group=2
    18                           	psect	text10,global,reloc=2,class=CODE,delta=1,group=1
    19                           	psect	text11,global,reloc=2,class=CODE,delta=1
    20                           	psect	text12,global,reloc=2,class=CODE,delta=1
    21                           	psect	text13,global,reloc=2,class=CODE,delta=1
    22                           	psect	text14,global,reloc=2,class=CODE,delta=1
    23                           	psect	text15,global,reloc=2,class=CODE,delta=1
    24                           	psect	text16,global,reloc=2,class=CODE,delta=1
    25                           	psect	text17,global,reloc=2,class=CODE,delta=1
    26                           	psect	text18,global,reloc=2,class=CODE,delta=1,group=1
    27                           	psect	text19,global,reloc=2,class=CODE,delta=1,group=1
    28                           	psect	text20,global,reloc=2,class=CODE,delta=1,group=1
    29                           	psect	intsave_regs,global,class=BIGRAM,space=1,delta=1,noexec
    30                           	psect	rparam,global,class=COMRAM,space=1,delta=1,noexec
    31  0000                     
    32                           ; Version 2.10
    33                           ; Generated 31/07/2019 GMT
    34                           ; 
    35                           ; Copyright © 2019, Microchip Technology Inc. and its subsidiaries ("Microchip")
    36                           ; All rights reserved.
    37                           ; 
    38                           ; This software is developed by Microchip Technology Inc. and its subsidiaries ("Microch
      +                          ip").
    39                           ; 
    40                           ; Redistribution and use in source and binary forms, with or without modification, are
    41                           ; permitted provided that the following conditions are met:
    42                           ; 
    43                           ;     1. Redistributions of source code must retain the above copyright notice, this lis
      +                          t of
    44                           ;        conditions and the following disclaimer.
    45                           ; 
    46                           ;     2. Redistributions in binary form must reproduce the above copyright notice, this 
      +                          list
    47                           ;        of conditions and the following disclaimer in the documentation and/or other
    48                           ;        materials provided with the distribution.
    49                           ; 
    50                           ;     3. Microchip's name may not be used to endorse or promote products derived from th
      +                          is
    51                           ;        software without specific prior written permission.
    52                           ; 
    53                           ; THIS SOFTWARE IS PROVIDED BY MICROCHIP "AS IS" AND ANY EXPRESS OR IMPLIED WARRANTIES,
    54                           ; INCLUDING, BUT NOT LIMITED TO, THE IMPLIED WARRANTIES OF MERCHANTABILITY AND FITNESS F
      +                          OR
    55                           ; PURPOSE ARE DISCLAIMED.  IN NO EVENT SHALL MICROCHIP BE LIABLE FOR ANY DIRECT, INDIREC
      +                          T,
    56                           ; INCIDENTAL, SPECIAL, EXEMPLARY, OR CONSEQUENTIAL DAMAGES (INCLUDING BUT NOT LIMITED TO
    57                           ; PROCUREMENT OF SUBSTITUTE GOODS OR SERVICES; LOSS OF USE, DATA OR PROFITS; OR BUSINESS
    58                           ; INTERRUPTION) HOWSOEVER CAUSED AND ON ANY THEORY OF LIABILITY, WHETHER IN CONTRACT, ST
      +                          RICT
    59                           ; LIABILITY, OR TORT (INCLUDING NEGLIGENCE OR OTHERWISE) ARISING IN ANY WAY OUT OF THE U
      +                          SE OF
    60                           ; THIS SOFTWARE, EVEN IF ADVISED OF THE POSSIBILITY OF SUCH DAMAGE.
    61                           ; 
    62                           ; 
    63                           ; Code-generator required, PIC18F4550 Definitions
    64                           ; 
    65                           ; SFR Addresses
    66  0000                     _ADCON0bits	set	4034
    67  0000                     _ADCON2bits	set	4032
    68  0000                     _ADCON0	set	4034
    69  0000                     _ADCON1bits	set	4033
    70  0000                     _TRISAbits	set	3986
    71  0000                     _TRISDbits	set	3989
    72  0000                     _LATD	set	3980
    73  0000                     _PORTD	set	3971
    74  0000                     _LATC	set	3979
    75  0000                     _PORTC	set	3970
    76  0000                     _TRISBbits	set	3987
    77  0000                     _ADCON1	set	4033
    78  0000                     _LATB	set	3978
    79  0000                     _PORTB	set	3969
    80  0000                     _CCP2CON	set	4026
    81  0000                     _CCP1CON	set	4029
    82  0000                     _T2CON	set	4042
    83  0000                     _CCPR2L	set	4027
    84  0000                     _CCPR1L	set	4030
    85  0000                     _PR2	set	4043
    86  0000                     _T2CONbits	set	4042
    87  0000                     _PORTCbits	set	3970
    88  0000                     _RCREG	set	4014
    89  0000                     _TXREG	set	4013
    90  0000                     _PIR1bits	set	3998
    91  0000                     _RCSTAbits	set	4011
    92  0000                     _TXSTAbits	set	4012
    93  0000                     _SPBRG	set	4015
    94  0000                     _TRISCbits	set	3988
    95  0000                     _OSCCON	set	4051
    96  0000                     _RCIF	set	31989
    97                           
    98                           ; #config settings
    99  0000                     
   100                           	psect	cinit
   101  00713C                     __pcinit:
   102                           	opt callstack 0
   103  00713C                     start_initialization:
   104                           	opt callstack 0
   105  00713C                     __initialization:
   106                           	opt callstack 0
   107                           
   108                           ; Clear objects allocated to COMRAM (23 bytes)
   109  00713C  EE00  F040         	lfsr	0,__pbssCOMRAM
   110  007140  0E17               	movlw	23
   111  007142                     clear_0:
   112  007142  6AEE               	clrf	postinc0,c
   113  007144  06E8               	decf	wreg,f,c
   114  007146  E1FD               	bnz	clear_0
   115  007148                     end_of_initialization:
   116                           	opt callstack 0
   117  007148                     __end_of__initialization:
   118                           	opt callstack 0
   119  007148  0E00               	movlw	low (__Lmediumconst shr (0+16))
   120  00714A  6EF8               	movwf	tblptru,c
   121  00714C  0100               	movlb	0
   122  00714E  EF7D  F03A         	goto	_main	;jump to C main() function
   123                           
   124                           	psect	bssCOMRAM
   125  000040                     __pbssCOMRAM:
   126                           	opt callstack 0
   127  000040                     _pasosY:
   128                           	opt callstack 0
   129  000040                     	ds	2
   130  000042                     _pasosX:
   131                           	opt callstack 0
   132  000042                     	ds	2
   133  000044                     _pasos_convertidos:
   134                           	opt callstack 0
   135  000044                     	ds	2
   136  000046                     _pulsosY:
   137                           	opt callstack 0
   138  000046                     	ds	2
   139  000048                     _pulsosX:
   140                           	opt callstack 0
   141  000048                     	ds	2
   142  00004A                     _oneshotY:
   143                           	opt callstack 0
   144  00004A                     	ds	1
   145  00004B                     _oneshotX:
   146                           	opt callstack 0
   147  00004B                     	ds	1
   148  00004C                     _coordenada_array:
   149                           	opt callstack 0
   150  00004C                     	ds	7
   151  000053                     _CY:
   152                           	opt callstack 0
   153  000053                     	ds	2
   154  000055                     _CX:
   155                           	opt callstack 0
   156  000055                     	ds	2
   157                           
   158                           	psect	cstackCOMRAM
   159  000001                     __pcstackCOMRAM:
   160                           	opt callstack 0
   161  000001                     ?_PWM_OneshotX:
   162                           	opt callstack 0
   163  000001                     ?_PWM_OneshotY:
   164                           	opt callstack 0
   165  000001                     ?_isspace:
   166                           	opt callstack 0
   167  000001                     ?_isdigit:
   168                           	opt callstack 0
   169  000001                     ?___wmul:
   170                           	opt callstack 0
   171  000001                     ?___aldiv:
   172                           	opt callstack 0
   173  000001                     ?___xxtofl:
   174                           	opt callstack 0
   175  000001                     USART_RxS@pointer:
   176                           	opt callstack 0
   177  000001                     PWM_OneshotX@pasosX:
   178                           	opt callstack 0
   179  000001                     PWM_OneshotY@pasosY:
   180                           	opt callstack 0
   181  000001                     ___wmul@multiplier:
   182                           	opt callstack 0
   183  000001                     isdigit@c:
   184                           	opt callstack 0
   185  000001                     isspace@c:
   186                           	opt callstack 0
   187  000001                     ___aldiv@dividend:
   188                           	opt callstack 0
   189  000001                     ___xxtofl@val:
   190                           	opt callstack 0
   191                           
   192                           ; 4 bytes @ 0x0
   193  000001                     	ds	2
   194  000003                     ??_isspace:
   195  000003                     ??_isdigit:
   196  000003                     ??_USART_RxS:
   197  000003                     PWM_GeneratePulsos@pulsosX:
   198                           	opt callstack 0
   199  000003                     ___wmul@multiplicand:
   200                           	opt callstack 0
   201                           
   202                           ; 2 bytes @ 0x2
   203  000003                     	ds	2
   204  000005                     ??___xxtofl:
   205  000005                     PWM_GeneratePulsos@pulsosY:
   206                           	opt callstack 0
   207  000005                     ___wmul@product:
   208                           	opt callstack 0
   209  000005                     ___aldiv@divisor:
   210                           	opt callstack 0
   211                           
   212                           ; 4 bytes @ 0x4
   213  000005                     	ds	1
   214  000006                     USART_RxS@lenght:
   215                           	opt callstack 0
   216                           
   217                           ; 1 bytes @ 0x5
   218  000006                     	ds	1
   219  000007                     ??_PWM_GeneratePulsos:
   220  000007                     _isspace$1284:
   221                           	opt callstack 0
   222  000007                     USART_RxS@i:
   223                           	opt callstack 0
   224                           
   225                           ; 2 bytes @ 0x6
   226  000007                     	ds	1
   227  000008                     ?_atoi:
   228                           	opt callstack 0
   229  000008                     PWM_GeneratePulsos@Oupcode:
   230                           	opt callstack 0
   231  000008                     atoi@s:
   232                           	opt callstack 0
   233                           
   234                           ; 2 bytes @ 0x7
   235  000008                     	ds	1
   236  000009                     ___aldiv@counter:
   237                           	opt callstack 0
   238  000009                     ___xxtofl@sign:
   239                           	opt callstack 0
   240  000009                     PWM_GeneratePulsos@pasosX:
   241                           	opt callstack 0
   242                           
   243                           ; 2 bytes @ 0x8
   244  000009                     	ds	1
   245  00000A                     ??_atoi:
   246  00000A                     ___aldiv@sign:
   247                           	opt callstack 0
   248  00000A                     ___xxtofl@exp:
   249                           	opt callstack 0
   250                           
   251                           ; 1 bytes @ 0x9
   252  00000A                     	ds	1
   253  00000B                     PWM_GeneratePulsos@pasosY:
   254                           	opt callstack 0
   255  00000B                     ___aldiv@quotient:
   256                           	opt callstack 0
   257  00000B                     ___xxtofl@arg:
   258                           	opt callstack 0
   259                           
   260                           ; 4 bytes @ 0xA
   261  00000B                     	ds	3
   262  00000E                     atoi@neg:
   263                           	opt callstack 0
   264                           
   265                           ; 2 bytes @ 0xD
   266  00000E                     	ds	1
   267  00000F                     ?___fldiv:
   268                           	opt callstack 0
   269  00000F                     USART_Init@BAUD:
   270                           	opt callstack 0
   271  00000F                     ___fldiv@b:
   272                           	opt callstack 0
   273                           
   274                           ; 4 bytes @ 0xE
   275  00000F                     	ds	1
   276  000010                     _atoi$1266:
   277                           	opt callstack 0
   278                           
   279                           ; 2 bytes @ 0xF
   280  000010                     	ds	2
   281  000012                     _atoi$1268:
   282                           	opt callstack 0
   283                           
   284                           ; 2 bytes @ 0x11
   285  000012                     	ds	1
   286  000013                     ___fldiv@a:
   287                           	opt callstack 0
   288  000013                     _USART_Init$1493:
   289                           	opt callstack 0
   290                           
   291                           ; 4 bytes @ 0x12
   292  000013                     	ds	1
   293  000014                     _atoi$1267:
   294                           	opt callstack 0
   295                           
   296                           ; 1 bytes @ 0x13
   297  000014                     	ds	1
   298  000015                     atoi@n:
   299                           	opt callstack 0
   300                           
   301                           ; 2 bytes @ 0x14
   302  000015                     	ds	2
   303  000017                     ??___fldiv:
   304  000017                     Serial_DecodificacionX@string_coordenada:
   305                           	opt callstack 0
   306  000017                     Serial_DecodificacionY@string_coordenada:
   307                           	opt callstack 0
   308                           
   309                           ; 2 bytes @ 0x16
   310  000017                     	ds	2
   311  000019                     Serial_DecodificacionX@pointerCX:
   312                           	opt callstack 0
   313  000019                     Serial_DecodificacionY@pointerCY:
   314                           	opt callstack 0
   315                           
   316                           ; 2 bytes @ 0x18
   317  000019                     	ds	2
   318  00001B                     ??_Serial_DecodificacionY:
   319  00001B                     Serial_DecodificacionX@coordenadaX:
   320                           	opt callstack 0
   321  00001B                     ___fldiv@rem:
   322                           	opt callstack 0
   323                           
   324                           ; 4 bytes @ 0x1A
   325  00001B                     	ds	2
   326  00001D                     Serial_DecodificacionY@coordenadaY:
   327                           	opt callstack 0
   328                           
   329                           ; 3 bytes @ 0x1C
   330  00001D                     	ds	1
   331  00001E                     Serial_DecodificacionX@i:
   332                           	opt callstack 0
   333                           
   334                           ; 2 bytes @ 0x1D
   335  00001E                     	ds	1
   336  00001F                     ___fldiv@sign:
   337                           	opt callstack 0
   338                           
   339                           ; 1 bytes @ 0x1E
   340  00001F                     	ds	1
   341  000020                     Serial_DecodificacionY@i:
   342                           	opt callstack 0
   343  000020                     ___fldiv@new_exp:
   344                           	opt callstack 0
   345                           
   346                           ; 2 bytes @ 0x1F
   347  000020                     	ds	2
   348  000022                     ___fldiv@grs:
   349                           	opt callstack 0
   350                           
   351                           ; 4 bytes @ 0x21
   352  000022                     	ds	4
   353  000026                     ___fldiv@bexp:
   354                           	opt callstack 0
   355                           
   356                           ; 1 bytes @ 0x25
   357  000026                     	ds	1
   358  000027                     ___fldiv@aexp:
   359                           	opt callstack 0
   360                           
   361                           ; 1 bytes @ 0x26
   362  000027                     	ds	1
   363  000028                     ?___fltol:
   364                           	opt callstack 0
   365  000028                     ___fltol@f1:
   366                           	opt callstack 0
   367                           
   368                           ; 4 bytes @ 0x27
   369  000028                     	ds	4
   370  00002C                     ??___fltol:
   371                           
   372                           ; 1 bytes @ 0x2B
   373  00002C                     	ds	4
   374  000030                     ___fltol@sign1:
   375                           	opt callstack 0
   376                           
   377                           ; 1 bytes @ 0x2F
   378  000030                     	ds	1
   379  000031                     ___fltol@exp1:
   380                           	opt callstack 0
   381                           
   382                           ; 1 bytes @ 0x30
   383  000031                     	ds	1
   384  000032                     ?_Motor_Conversion:
   385                           	opt callstack 0
   386  000032                     Motor_Conversion@Coordenada:
   387                           	opt callstack 0
   388                           
   389                           ; 2 bytes @ 0x31
   390  000032                     	ds	2
   391  000034                     Motor_Conversion@conversion:
   392                           	opt callstack 0
   393                           
   394                           ; 4 bytes @ 0x33
   395  000034                     	ds	4
   396  000038                     Motor_Movimiento@CoordenadaX:
   397                           	opt callstack 0
   398                           
   399                           ; 2 bytes @ 0x37
   400  000038                     	ds	2
   401  00003A                     Motor_Movimiento@CoordenadaY:
   402                           	opt callstack 0
   403                           
   404                           ; 2 bytes @ 0x39
   405  00003A                     	ds	2
   406  00003C                     Motor_Movimiento@Oupcode:
   407                           	opt callstack 0
   408                           
   409                           ; 1 bytes @ 0x3B
   410  00003C                     	ds	1
   411  00003D                     ??_main:
   412                           
   413                           ; 1 bytes @ 0x3C
   414  00003D                     	ds	2
   415  00003F                     main@Oupcode:
   416                           	opt callstack 0
   417                           
   418                           ; 1 bytes @ 0x3E
   419  00003F                     	ds	1
   420                           
   421 ;;
   422 ;;Main: autosize = 0, tempsize = 2, incstack = 0, save=0
   423 ;;
   424 ;; *************** function _main *****************
   425 ;; Defined at:
   426 ;;		line 18 in file "serial.c"
   427 ;; Parameters:    Size  Location     Type
   428 ;;		None
   429 ;; Auto vars:     Size  Location     Type
   430 ;;  Oupcode         1   62[COMRAM] unsigned char 
   431 ;; Return value:  Size  Location     Type
   432 ;;                  1    wreg      void 
   433 ;; Registers used:
   434 ;;		wreg, fsr1l, fsr1h, fsr2l, fsr2h, status,2, status,0, prodl, prodh, cstack
   435 ;; Tracked objects:
   436 ;;		On entry : 0/0
   437 ;;		On exit  : 0/0
   438 ;;		Unchanged: 0/0
   439 ;; Data sizes:     COMRAM   BANK0   BANK1   BANK2   BANK3   BANK4   BANK5   BANK6   BANK7
   440 ;;      Params:         0       0       0       0       0       0       0       0       0
   441 ;;      Locals:         1       0       0       0       0       0       0       0       0
   442 ;;      Temps:          2       0       0       0       0       0       0       0       0
   443 ;;      Totals:         3       0       0       0       0       0       0       0       0
   444 ;;Total ram usage:        3 bytes
   445 ;; Hardware stack levels required when called:    3
   446 ;; This function calls:
   447 ;;		_Motor_Movimiento
   448 ;;		_Serial_DecodificacionX
   449 ;;		_Serial_DecodificacionY
   450 ;;		_USART_Init
   451 ;;		_USART_Rx
   452 ;;		_USART_RxS
   453 ;; This function is called by:
   454 ;;		Startup code after reset
   455 ;; This function uses a non-reentrant model
   456 ;;
   457                           
   458                           	psect	text0
   459  0074FA                     __ptext0:
   460                           	opt callstack 0
   461  0074FA                     _main:
   462                           	opt callstack 28
   463  0074FA                     
   464                           ;serial.c: 19:     USART_Init(9600);
   465  0074FA  0E80               	movlw	128
   466  0074FC  6E0F               	movwf	USART_Init@BAUD^0,c
   467  0074FE  0E25               	movlw	37
   468  007500  6E10               	movwf	(USART_Init@BAUD+1)^0,c
   469  007502  0E00               	movlw	0
   470  007504  6E11               	movwf	(USART_Init@BAUD+2)^0,c
   471  007506  0E00               	movlw	0
   472  007508  6E12               	movwf	(USART_Init@BAUD+3)^0,c
   473  00750A  EC43  F03A         	call	_USART_Init	;wreg free
   474  00750E                     l2089:
   475                           
   476                           ;serial.c: 21:          char Oupcode = USART_Rx();
   477  00750E  EC95  F038         	call	_USART_Rx	;wreg free
   478  007512  6E3F               	movwf	main@Oupcode^0,c
   479                           
   480                           ;serial.c: 22:         switch (Oupcode) {
   481  007514  EFD1  F03A         	goto	l2107
   482  007518                     l2091:
   483                           
   484                           ;serial.c: 24:                 USART_RxS(7, coordenada_array);
   485  007518  0E4C               	movlw	low _coordenada_array
   486  00751A  6E01               	movwf	USART_RxS@pointer^0,c
   487  00751C  0E00               	movlw	high _coordenada_array
   488  00751E  6E02               	movwf	(USART_RxS@pointer+1)^0,c
   489  007520  0E07               	movlw	7
   490  007522  EC77  F039         	call	_USART_RxS
   491  007526                     
   492                           ;serial.c: 25:                 Serial_DecodificacionX(coordenada_array, &CX);
   493  007526  0E4C               	movlw	low _coordenada_array
   494  007528  6E17               	movwf	Serial_DecodificacionX@string_coordenada^0,c
   495  00752A  0E00               	movlw	high _coordenada_array
   496  00752C  6E18               	movwf	(Serial_DecodificacionX@string_coordenada+1)^0,c
   497  00752E  0E55               	movlw	low _CX
   498  007530  6E19               	movwf	Serial_DecodificacionX@pointerCX^0,c
   499  007532  0E00               	movlw	high _CX
   500  007534  6E1A               	movwf	(Serial_DecodificacionX@pointerCX+1)^0,c
   501  007536  ECA2  F039         	call	_Serial_DecodificacionX	;wreg free
   502  00753A                     
   503                           ;serial.c: 26:                 Serial_DecodificacionY(coordenada_array, &CY);
   504  00753A  0E4C               	movlw	low _coordenada_array
   505  00753C  6E17               	movwf	Serial_DecodificacionY@string_coordenada^0,c
   506  00753E  0E00               	movlw	high _coordenada_array
   507  007540  6E18               	movwf	(Serial_DecodificacionY@string_coordenada+1)^0,c
   508  007542  0E53               	movlw	low _CY
   509  007544  6E19               	movwf	Serial_DecodificacionY@pointerCY^0,c
   510  007546  0E00               	movlw	high _CY
   511  007548  6E1A               	movwf	(Serial_DecodificacionY@pointerCY+1)^0,c
   512  00754A  ECD3  F039         	call	_Serial_DecodificacionY	;wreg free
   513  00754E                     
   514                           ;serial.c: 27:                 Motor_Movimiento(Oupcode,CX,CY);
   515  00754E  C055  F038         	movff	_CX,Motor_Movimiento@CoordenadaX
   516  007552  C056  F039         	movff	_CX+1,Motor_Movimiento@CoordenadaX+1
   517  007556  C053  F03A         	movff	_CY,Motor_Movimiento@CoordenadaY
   518  00755A  C054  F03B         	movff	_CY+1,Motor_Movimiento@CoordenadaY+1
   519  00755E  503F               	movf	main@Oupcode^0,w,c
   520  007560  EC2D  F039         	call	_Motor_Movimiento
   521                           
   522                           ;serial.c: 28:                 break;
   523  007564  EF87  F03A         	goto	l2089
   524  007568                     l2099:
   525                           
   526                           ;serial.c: 30:                 USART_RxS(7, coordenada_array);
   527  007568  0E4C               	movlw	low _coordenada_array
   528  00756A  6E01               	movwf	USART_RxS@pointer^0,c
   529  00756C  0E00               	movlw	high _coordenada_array
   530  00756E  6E02               	movwf	(USART_RxS@pointer+1)^0,c
   531  007570  0E07               	movlw	7
   532  007572  EC77  F039         	call	_USART_RxS
   533  007576                     
   534                           ;serial.c: 31:                 Serial_DecodificacionX(coordenada_array, &CX);
   535  007576  0E4C               	movlw	low _coordenada_array
   536  007578  6E17               	movwf	Serial_DecodificacionX@string_coordenada^0,c
   537  00757A  0E00               	movlw	high _coordenada_array
   538  00757C  6E18               	movwf	(Serial_DecodificacionX@string_coordenada+1)^0,c
   539  00757E  0E55               	movlw	low _CX
   540  007580  6E19               	movwf	Serial_DecodificacionX@pointerCX^0,c
   541  007582  0E00               	movlw	high _CX
   542  007584  6E1A               	movwf	(Serial_DecodificacionX@pointerCX+1)^0,c
   543  007586  ECA2  F039         	call	_Serial_DecodificacionX	;wreg free
   544  00758A                     
   545                           ;serial.c: 32:                 Serial_DecodificacionY(coordenada_array, &CY);
   546  00758A  0E4C               	movlw	low _coordenada_array
   547  00758C  6E17               	movwf	Serial_DecodificacionY@string_coordenada^0,c
   548  00758E  0E00               	movlw	high _coordenada_array
   549  007590  6E18               	movwf	(Serial_DecodificacionY@string_coordenada+1)^0,c
   550  007592  0E53               	movlw	low _CY
   551  007594  6E19               	movwf	Serial_DecodificacionY@pointerCY^0,c
   552  007596  0E00               	movlw	high _CY
   553  007598  6E1A               	movwf	(Serial_DecodificacionY@pointerCY+1)^0,c
   554  00759A  ECD3  F039         	call	_Serial_DecodificacionY	;wreg free
   555                           
   556                           ;serial.c: 33:                 break;
   557  00759E  EF87  F03A         	goto	l2089
   558  0075A2                     l2107:
   559  0075A2  503F               	movf	main@Oupcode^0,w,c
   560  0075A4  6E3D               	movwf	??_main^0,c
   561  0075A6  6A3E               	clrf	(??_main+1)^0,c
   562                           
   563                           ; Switch on 2 bytes has been partitioned into a top level switch of size 1, and 1 sub-sw
      +                          itches
   564                           ; Switch size 1, requested type "simple"
   565                           ; Number of cases is 1, Range of values is 0 to 0
   566                           ; switch strategies available:
   567                           ; Name         Instructions Cycles
   568                           ; simple_byte            4     3 (average)
   569                           ;	Chosen strategy is simple_byte
   570  0075A8  503E               	movf	(??_main+1)^0,w,c
   571  0075AA  0A00               	xorlw	0	; case 0
   572  0075AC  B4D8               	btfsc	status,2,c
   573  0075AE  EFDB  F03A         	goto	l2121
   574  0075B2  EF87  F03A         	goto	l2089
   575  0075B6                     l2121:
   576                           
   577                           ; Switch size 1, requested type "simple"
   578                           ; Number of cases is 6, Range of values is 70 to 84
   579                           ; switch strategies available:
   580                           ; Name         Instructions Cycles
   581                           ; simple_byte           19    10 (average)
   582                           ;	Chosen strategy is simple_byte
   583  0075B6  503D               	movf	??_main^0,w,c
   584  0075B8  0A46               	xorlw	70	; case 70
   585  0075BA  B4D8               	btfsc	status,2,c
   586  0075BC  EF8C  F03A         	goto	l2091
   587  0075C0  0A0E               	xorlw	14	; case 72
   588  0075C2  B4D8               	btfsc	status,2,c
   589  0075C4  EF87  F03A         	goto	l2089
   590  0075C8  0A07               	xorlw	7	; case 79
   591  0075CA  B4D8               	btfsc	status,2,c
   592  0075CC  EF87  F03A         	goto	l2089
   593  0075D0  0A1D               	xorlw	29	; case 82
   594  0075D2  B4D8               	btfsc	status,2,c
   595  0075D4  EF87  F03A         	goto	l2089
   596  0075D8  0A01               	xorlw	1	; case 83
   597  0075DA  B4D8               	btfsc	status,2,c
   598  0075DC  EFB4  F03A         	goto	l2099
   599  0075E0  0A07               	xorlw	7	; case 84
   600  0075E2  B4D8               	btfsc	status,2,c
   601  0075E4  EF87  F03A         	goto	l2089
   602  0075E8  EF87  F03A         	goto	l2089
   603  0075EC  EF00  F000         	goto	start
   604  0075F0                     __end_of_main:
   605                           	opt callstack 0
   606                           
   607 ;; *************** function _USART_RxS *****************
   608 ;; Defined at:
   609 ;;		line 48 in file "UART.c"
   610 ;; Parameters:    Size  Location     Type
   611 ;;  lenght          1    wreg     unsigned char 
   612 ;;  pointer         2    0[COMRAM] PTR unsigned char 
   613 ;;		 -> coordenada_array(7), 
   614 ;; Auto vars:     Size  Location     Type
   615 ;;  lenght          1    5[COMRAM] unsigned char 
   616 ;;  i               2    6[COMRAM] int 
   617 ;; Return value:  Size  Location     Type
   618 ;;                  1    wreg      void 
   619 ;; Registers used:
   620 ;;		wreg, fsr2l, fsr2h, status,2, status,0
   621 ;; Tracked objects:
   622 ;;		On entry : 0/0
   623 ;;		On exit  : 0/0
   624 ;;		Unchanged: 0/0
   625 ;; Data sizes:     COMRAM   BANK0   BANK1   BANK2   BANK3   BANK4   BANK5   BANK6   BANK7
   626 ;;      Params:         2       0       0       0       0       0       0       0       0
   627 ;;      Locals:         3       0       0       0       0       0       0       0       0
   628 ;;      Temps:          3       0       0       0       0       0       0       0       0
   629 ;;      Totals:         8       0       0       0       0       0       0       0       0
   630 ;;Total ram usage:        8 bytes
   631 ;; Hardware stack levels used:    1
   632 ;; This function calls:
   633 ;;		Nothing
   634 ;; This function is called by:
   635 ;;		_main
   636 ;; This function uses a non-reentrant model
   637 ;;
   638                           
   639                           	psect	text1
   640  0072EE                     __ptext1:
   641                           	opt callstack 0
   642  0072EE                     _USART_RxS:
   643                           	opt callstack 30
   644                           
   645                           ;incstack = 0
   646                           ;USART_RxS@lenght stored from wreg
   647  0072EE  6E06               	movwf	USART_RxS@lenght^0,c
   648  0072F0                     
   649                           ;UART.c: 49:     for (int i = 0; i < lenght; i++)
   650  0072F0  0E00               	movlw	0
   651  0072F2  6E08               	movwf	(USART_RxS@i+1)^0,c
   652  0072F4  0E00               	movlw	0
   653  0072F6  6E07               	movwf	USART_RxS@i^0,c
   654  0072F8  EF8F  F039         	goto	l2055
   655  0072FC                     l52:
   656  0072FC  AA9E               	btfss	3998,5,c	;volatile
   657  0072FE  EF83  F039         	goto	u1471
   658  007302  EF85  F039         	goto	u1470
   659  007306                     u1471:
   660  007306  EF7E  F039         	goto	l52
   661  00730A                     u1470:
   662  00730A                     
   663                           ;UART.c: 52:             pointer[i] = RCREG;
   664  00730A  5007               	movf	USART_RxS@i^0,w,c
   665  00730C  2401               	addwf	USART_RxS@pointer^0,w,c
   666  00730E  6ED9               	movwf	fsr2l,c
   667  007310  5008               	movf	(USART_RxS@i+1)^0,w,c
   668  007312  2002               	addwfc	(USART_RxS@pointer+1)^0,w,c
   669  007314  6EDA               	movwf	fsr2h,c
   670  007316  CFAE FFDF          	movff	4014,indf2	;volatile
   671  00731A                     
   672                           ;UART.c: 53:         }
   673  00731A  4A07               	infsnz	USART_RxS@i^0,f,c
   674  00731C  2A08               	incf	(USART_RxS@i+1)^0,f,c
   675  00731E                     l2055:
   676  00731E  5006               	movf	USART_RxS@lenght^0,w,c
   677  007320  6E03               	movwf	??_USART_RxS^0,c
   678  007322  6A04               	clrf	(??_USART_RxS+1)^0,c
   679  007324  5003               	movf	??_USART_RxS^0,w,c
   680  007326  5C07               	subwf	USART_RxS@i^0,w,c
   681  007328  5008               	movf	(USART_RxS@i+1)^0,w,c
   682  00732A  0A80               	xorlw	128
   683  00732C  6E05               	movwf	(??_USART_RxS+2)^0,c
   684  00732E  5004               	movf	(??_USART_RxS+1)^0,w,c
   685  007330  0A80               	xorlw	128
   686  007332  5805               	subwfb	(??_USART_RxS+2)^0,w,c
   687  007334  A0D8               	btfss	status,0,c
   688  007336  EF9F  F039         	goto	u1481
   689  00733A  EFA1  F039         	goto	u1480
   690  00733E                     u1481:
   691  00733E  EF7E  F039         	goto	l52
   692  007342                     u1480:
   693  007342  0012               	return		;funcret
   694  007344                     __end_of_USART_RxS:
   695                           	opt callstack 0
   696                           
   697 ;; *************** function _USART_Rx *****************
   698 ;; Defined at:
   699 ;;		line 30 in file "UART.c"
   700 ;; Parameters:    Size  Location     Type
   701 ;;		None
   702 ;; Auto vars:     Size  Location     Type
   703 ;;		None
   704 ;; Return value:  Size  Location     Type
   705 ;;                  1    wreg      unsigned char 
   706 ;; Registers used:
   707 ;;		wreg, status,2
   708 ;; Tracked objects:
   709 ;;		On entry : 0/0
   710 ;;		On exit  : 0/0
   711 ;;		Unchanged: 0/0
   712 ;; Data sizes:     COMRAM   BANK0   BANK1   BANK2   BANK3   BANK4   BANK5   BANK6   BANK7
   713 ;;      Params:         0       0       0       0       0       0       0       0       0
   714 ;;      Locals:         0       0       0       0       0       0       0       0       0
   715 ;;      Temps:          0       0       0       0       0       0       0       0       0
   716 ;;      Totals:         0       0       0       0       0       0       0       0       0
   717 ;;Total ram usage:        0 bytes
   718 ;; Hardware stack levels used:    1
   719 ;; This function calls:
   720 ;;		Nothing
   721 ;; This function is called by:
   722 ;;		_main
   723 ;; This function uses a non-reentrant model
   724 ;;
   725                           
   726                           	psect	text2
   727  00712A                     __ptext2:
   728                           	opt callstack 0
   729  00712A                     _USART_Rx:
   730                           	opt callstack 30
   731  00712A                     l30:
   732  00712A  AA9E               	btfss	158,5,c	;volatile
   733  00712C  EF9A  F038         	goto	u701
   734  007130  EF9C  F038         	goto	u700
   735  007134                     u701:
   736  007134  EF95  F038         	goto	l30
   737  007138                     u700:
   738  007138                     
   739                           ;UART.c: 32:     return RCREG;
   740  007138  50AE               	movf	174,w,c	;volatile
   741  00713A  0012               	return		;funcret
   742  00713C                     __end_of_USART_Rx:
   743                           	opt callstack 0
   744                           
   745 ;; *************** function _USART_Init *****************
   746 ;; Defined at:
   747 ;;		line 6 in file "UART.c"
   748 ;; Parameters:    Size  Location     Type
   749 ;;  BAUD            4   14[COMRAM] long 
   750 ;; Auto vars:     Size  Location     Type
   751 ;;		None
   752 ;; Return value:  Size  Location     Type
   753 ;;                  1    wreg      void 
   754 ;; Registers used:
   755 ;;		wreg, status,2, status,0, cstack
   756 ;; Tracked objects:
   757 ;;		On entry : 0/0
   758 ;;		On exit  : 0/0
   759 ;;		Unchanged: 0/0
   760 ;; Data sizes:     COMRAM   BANK0   BANK1   BANK2   BANK3   BANK4   BANK5   BANK6   BANK7
   761 ;;      Params:         4       0       0       0       0       0       0       0       0
   762 ;;      Locals:         4       0       0       0       0       0       0       0       0
   763 ;;      Temps:          0       0       0       0       0       0       0       0       0
   764 ;;      Totals:         8       0       0       0       0       0       0       0       0
   765 ;;Total ram usage:        8 bytes
   766 ;; Hardware stack levels used:    1
   767 ;; Hardware stack levels required when called:    1
   768 ;; This function calls:
   769 ;;		___aldiv
   770 ;; This function is called by:
   771 ;;		_main
   772 ;; This function uses a non-reentrant model
   773 ;;
   774                           
   775                           	psect	text3
   776  007486                     __ptext3:
   777                           	opt callstack 0
   778  007486                     _USART_Init:
   779                           	opt callstack 29
   780  007486                     
   781                           ;UART.c: 7:       OSCCON= 0x72;
   782  007486  0E72               	movlw	114
   783  007488  6ED3               	movwf	211,c	;volatile
   784  00748A                     
   785                           ;UART.c: 8:     TRISCbits.RC6 = 0;
   786  00748A  9C94               	bcf	148,6,c	;volatile
   787  00748C                     
   788                           ;UART.c: 9:     TRISCbits.RC7 = 1;
   789  00748C  8E94               	bsf	148,7,c	;volatile
   790  00748E                     
   791                           ;UART.c: 12:     SPBRG = (unsigned char)(((8000000/BAUD)/64)-1);
   792  00748E  C00F  F005         	movff	USART_Init@BAUD,___aldiv@divisor
   793  007492  C010  F006         	movff	USART_Init@BAUD+1,___aldiv@divisor+1
   794  007496  C011  F007         	movff	USART_Init@BAUD+2,___aldiv@divisor+2
   795  00749A  C012  F008         	movff	USART_Init@BAUD+3,___aldiv@divisor+3
   796  00749E  0E00               	movlw	0
   797  0074A0  6E01               	movwf	___aldiv@dividend^0,c
   798  0074A2  0E12               	movlw	18
   799  0074A4  6E02               	movwf	(___aldiv@dividend+1)^0,c
   800  0074A6  0E7A               	movlw	122
   801  0074A8  6E03               	movwf	(___aldiv@dividend+2)^0,c
   802  0074AA  0E00               	movlw	0
   803  0074AC  6E04               	movwf	(___aldiv@dividend+3)^0,c
   804  0074AE  EC7B  F03B         	call	___aldiv	;wreg free
   805  0074B2  C001  F013         	movff	?___aldiv,_USART_Init$1493
   806  0074B6  C002  F014         	movff	?___aldiv+1,_USART_Init$1493+1
   807  0074BA  C003  F015         	movff	?___aldiv+2,_USART_Init$1493+2
   808  0074BE  C004  F016         	movff	?___aldiv+3,_USART_Init$1493+3
   809  0074C2                     
   810                           ;UART.c: 12:     SPBRG = (unsigned char)(((8000000/BAUD)/64)-1);
   811  0074C2  C013  F001         	movff	_USART_Init$1493,___aldiv@dividend
   812  0074C6  C014  F002         	movff	_USART_Init$1493+1,___aldiv@dividend+1
   813  0074CA  C015  F003         	movff	_USART_Init$1493+2,___aldiv@dividend+2
   814  0074CE  C016  F004         	movff	_USART_Init$1493+3,___aldiv@dividend+3
   815  0074D2  0E40               	movlw	64
   816  0074D4  6E05               	movwf	___aldiv@divisor^0,c
   817  0074D6  0E00               	movlw	0
   818  0074D8  6E06               	movwf	(___aldiv@divisor+1)^0,c
   819  0074DA  0E00               	movlw	0
   820  0074DC  6E07               	movwf	(___aldiv@divisor+2)^0,c
   821  0074DE  0E00               	movlw	0
   822  0074E0  6E08               	movwf	(___aldiv@divisor+3)^0,c
   823  0074E2  EC7B  F03B         	call	___aldiv	;wreg free
   824  0074E6  0401               	decf	?___aldiv^0,w,c
   825  0074E8  6EAF               	movwf	175,c	;volatile
   826  0074EA                     
   827                           ;UART.c: 14:     TXSTAbits.BRGH = 0;
   828  0074EA  94AC               	bcf	172,2,c	;volatile
   829  0074EC                     
   830                           ;UART.c: 15:     TXSTAbits.SYNC = 0;
   831  0074EC  98AC               	bcf	172,4,c	;volatile
   832  0074EE                     
   833                           ;UART.c: 16:     RCSTAbits.SPEN = 1;
   834  0074EE  8EAB               	bsf	171,7,c	;volatile
   835  0074F0                     
   836                           ;UART.c: 18:     TXSTAbits.TX9 = 0;
   837  0074F0  9CAC               	bcf	172,6,c	;volatile
   838  0074F2                     
   839                           ;UART.c: 19:     TXSTAbits.TXEN = 1;
   840  0074F2  8AAC               	bsf	172,5,c	;volatile
   841  0074F4                     
   842                           ;UART.c: 21:     RCSTAbits.RC9 = 0;
   843  0074F4  9CAB               	bcf	171,6,c	;volatile
   844  0074F6                     
   845                           ;UART.c: 22:     RCSTAbits.CREN = 1;
   846  0074F6  88AB               	bsf	171,4,c	;volatile
   847  0074F8  0012               	return		;funcret
   848  0074FA                     __end_of_USART_Init:
   849                           	opt callstack 0
   850                           
   851 ;; *************** function ___aldiv *****************
   852 ;; Defined at:
   853 ;;		line 7 in file "C:\Program Files (x86)\Microchip\xc8\v2.10\pic\sources\c99\common\aldiv.c"
   854 ;; Parameters:    Size  Location     Type
   855 ;;  dividend        4    0[COMRAM] long 
   856 ;;  divisor         4    4[COMRAM] long 
   857 ;; Auto vars:     Size  Location     Type
   858 ;;  quotient        4   10[COMRAM] long 
   859 ;;  sign            1    9[COMRAM] unsigned char 
   860 ;;  counter         1    8[COMRAM] unsigned char 
   861 ;; Return value:  Size  Location     Type
   862 ;;                  4    0[COMRAM] long 
   863 ;; Registers used:
   864 ;;		wreg, status,2, status,0
   865 ;; Tracked objects:
   866 ;;		On entry : 0/0
   867 ;;		On exit  : 0/0
   868 ;;		Unchanged: 0/0
   869 ;; Data sizes:     COMRAM   BANK0   BANK1   BANK2   BANK3   BANK4   BANK5   BANK6   BANK7
   870 ;;      Params:         8       0       0       0       0       0       0       0       0
   871 ;;      Locals:         6       0       0       0       0       0       0       0       0
   872 ;;      Temps:          0       0       0       0       0       0       0       0       0
   873 ;;      Totals:        14       0       0       0       0       0       0       0       0
   874 ;;Total ram usage:       14 bytes
   875 ;; Hardware stack levels used:    1
   876 ;; This function calls:
   877 ;;		Nothing
   878 ;; This function is called by:
   879 ;;		_USART_Init
   880 ;; This function uses a non-reentrant model
   881 ;;
   882                           
   883                           	psect	text4
   884  0076F6                     __ptext4:
   885                           	opt callstack 0
   886  0076F6                     ___aldiv:
   887                           	opt callstack 29
   888  0076F6  0E00               	movlw	0
   889  0076F8  6E0A               	movwf	___aldiv@sign^0,c
   890  0076FA  BE08               	btfsc	(___aldiv@divisor+3)^0,7,c
   891  0076FC  EF84  F03B         	goto	u1410
   892  007700  EF82  F03B         	goto	u1411
   893  007704                     u1411:
   894  007704  EF8E  F03B         	goto	l1989
   895  007708                     u1410:
   896  007708  1E08               	comf	(___aldiv@divisor+3)^0,f,c
   897  00770A  1E07               	comf	(___aldiv@divisor+2)^0,f,c
   898  00770C  1E06               	comf	(___aldiv@divisor+1)^0,f,c
   899  00770E  6C05               	negf	___aldiv@divisor^0,c
   900  007710  0E00               	movlw	0
   901  007712  2206               	addwfc	(___aldiv@divisor+1)^0,f,c
   902  007714  2207               	addwfc	(___aldiv@divisor+2)^0,f,c
   903  007716  2208               	addwfc	(___aldiv@divisor+3)^0,f,c
   904  007718  0E01               	movlw	1
   905  00771A  6E0A               	movwf	___aldiv@sign^0,c
   906  00771C                     l1989:
   907  00771C  BE04               	btfsc	(___aldiv@dividend+3)^0,7,c
   908  00771E  EF95  F03B         	goto	u1420
   909  007722  EF93  F03B         	goto	u1421
   910  007726                     u1421:
   911  007726  EF9F  F03B         	goto	l1995
   912  00772A                     u1420:
   913  00772A  1E04               	comf	(___aldiv@dividend+3)^0,f,c
   914  00772C  1E03               	comf	(___aldiv@dividend+2)^0,f,c
   915  00772E  1E02               	comf	(___aldiv@dividend+1)^0,f,c
   916  007730  6C01               	negf	___aldiv@dividend^0,c
   917  007732  0E00               	movlw	0
   918  007734  2202               	addwfc	(___aldiv@dividend+1)^0,f,c
   919  007736  2203               	addwfc	(___aldiv@dividend+2)^0,f,c
   920  007738  2204               	addwfc	(___aldiv@dividend+3)^0,f,c
   921  00773A  0E01               	movlw	1
   922  00773C  1A0A               	xorwf	___aldiv@sign^0,f,c
   923  00773E                     l1995:
   924  00773E  0E00               	movlw	0
   925  007740  6E0B               	movwf	___aldiv@quotient^0,c
   926  007742  0E00               	movlw	0
   927  007744  6E0C               	movwf	(___aldiv@quotient+1)^0,c
   928  007746  0E00               	movlw	0
   929  007748  6E0D               	movwf	(___aldiv@quotient+2)^0,c
   930  00774A  0E00               	movlw	0
   931  00774C  6E0E               	movwf	(___aldiv@quotient+3)^0,c
   932  00774E  5005               	movf	___aldiv@divisor^0,w,c
   933  007750  1006               	iorwf	(___aldiv@divisor+1)^0,w,c
   934  007752  1007               	iorwf	(___aldiv@divisor+2)^0,w,c
   935  007754  1008               	iorwf	(___aldiv@divisor+3)^0,w,c
   936  007756  B4D8               	btfsc	status,2,c
   937  007758  EFB0  F03B         	goto	u1431
   938  00775C  EFB2  F03B         	goto	u1430
   939  007760                     u1431:
   940  007760  EFE8  F03B         	goto	l2017
   941  007764                     u1430:
   942  007764  0E01               	movlw	1
   943  007766  6E09               	movwf	___aldiv@counter^0,c
   944  007768  EFBC  F03B         	goto	l2003
   945  00776C                     l2001:
   946  00776C  90D8               	bcf	status,0,c
   947  00776E  3605               	rlcf	___aldiv@divisor^0,f,c
   948  007770  3606               	rlcf	(___aldiv@divisor+1)^0,f,c
   949  007772  3607               	rlcf	(___aldiv@divisor+2)^0,f,c
   950  007774  3608               	rlcf	(___aldiv@divisor+3)^0,f,c
   951  007776  2A09               	incf	___aldiv@counter^0,f,c
   952  007778                     l2003:
   953  007778  AE08               	btfss	(___aldiv@divisor+3)^0,7,c
   954  00777A  EFC1  F03B         	goto	u1441
   955  00777E  EFC3  F03B         	goto	u1440
   956  007782                     u1441:
   957  007782  EFB6  F03B         	goto	l2001
   958  007786                     u1440:
   959  007786                     l2005:
   960  007786  90D8               	bcf	status,0,c
   961  007788  360B               	rlcf	___aldiv@quotient^0,f,c
   962  00778A  360C               	rlcf	(___aldiv@quotient+1)^0,f,c
   963  00778C  360D               	rlcf	(___aldiv@quotient+2)^0,f,c
   964  00778E  360E               	rlcf	(___aldiv@quotient+3)^0,f,c
   965  007790  5005               	movf	___aldiv@divisor^0,w,c
   966  007792  5C01               	subwf	___aldiv@dividend^0,w,c
   967  007794  5006               	movf	(___aldiv@divisor+1)^0,w,c
   968  007796  5802               	subwfb	(___aldiv@dividend+1)^0,w,c
   969  007798  5007               	movf	(___aldiv@divisor+2)^0,w,c
   970  00779A  5803               	subwfb	(___aldiv@dividend+2)^0,w,c
   971  00779C  5008               	movf	(___aldiv@divisor+3)^0,w,c
   972  00779E  5804               	subwfb	(___aldiv@dividend+3)^0,w,c
   973  0077A0  A0D8               	btfss	status,0,c
   974  0077A2  EFD5  F03B         	goto	u1451
   975  0077A6  EFD7  F03B         	goto	u1450
   976  0077AA                     u1451:
   977  0077AA  EFE0  F03B         	goto	l2013
   978  0077AE                     u1450:
   979  0077AE  5005               	movf	___aldiv@divisor^0,w,c
   980  0077B0  5E01               	subwf	___aldiv@dividend^0,f,c
   981  0077B2  5006               	movf	(___aldiv@divisor+1)^0,w,c
   982  0077B4  5A02               	subwfb	(___aldiv@dividend+1)^0,f,c
   983  0077B6  5007               	movf	(___aldiv@divisor+2)^0,w,c
   984  0077B8  5A03               	subwfb	(___aldiv@dividend+2)^0,f,c
   985  0077BA  5008               	movf	(___aldiv@divisor+3)^0,w,c
   986  0077BC  5A04               	subwfb	(___aldiv@dividend+3)^0,f,c
   987  0077BE  800B               	bsf	___aldiv@quotient^0,0,c
   988  0077C0                     l2013:
   989  0077C0  90D8               	bcf	status,0,c
   990  0077C2  3208               	rrcf	(___aldiv@divisor+3)^0,f,c
   991  0077C4  3207               	rrcf	(___aldiv@divisor+2)^0,f,c
   992  0077C6  3206               	rrcf	(___aldiv@divisor+1)^0,f,c
   993  0077C8  3205               	rrcf	___aldiv@divisor^0,f,c
   994  0077CA  2E09               	decfsz	___aldiv@counter^0,f,c
   995  0077CC  EFC3  F03B         	goto	l2005
   996  0077D0                     l2017:
   997  0077D0  500A               	movf	___aldiv@sign^0,w,c
   998  0077D2  B4D8               	btfsc	status,2,c
   999  0077D4  EFEE  F03B         	goto	u1461
  1000  0077D8  EFF0  F03B         	goto	u1460
  1001  0077DC                     u1461:
  1002  0077DC  EFF8  F03B         	goto	l2021
  1003  0077E0                     u1460:
  1004  0077E0  1E0E               	comf	(___aldiv@quotient+3)^0,f,c
  1005  0077E2  1E0D               	comf	(___aldiv@quotient+2)^0,f,c
  1006  0077E4  1E0C               	comf	(___aldiv@quotient+1)^0,f,c
  1007  0077E6  6C0B               	negf	___aldiv@quotient^0,c
  1008  0077E8  0E00               	movlw	0
  1009  0077EA  220C               	addwfc	(___aldiv@quotient+1)^0,f,c
  1010  0077EC  220D               	addwfc	(___aldiv@quotient+2)^0,f,c
  1011  0077EE  220E               	addwfc	(___aldiv@quotient+3)^0,f,c
  1012  0077F0                     l2021:
  1013  0077F0  C00B  F001         	movff	___aldiv@quotient,?___aldiv
  1014  0077F4  C00C  F002         	movff	___aldiv@quotient+1,?___aldiv+1
  1015  0077F8  C00D  F003         	movff	___aldiv@quotient+2,?___aldiv+2
  1016  0077FC  C00E  F004         	movff	___aldiv@quotient+3,?___aldiv+3
  1017  007800  0012               	return		;funcret
  1018  007802                     __end_of___aldiv:
  1019                           	opt callstack 0
  1020                           
  1021 ;; *************** function _Serial_DecodificacionY *****************
  1022 ;; Defined at:
  1023 ;;		line 60 in file "serial.c"
  1024 ;; Parameters:    Size  Location     Type
  1025 ;;  string_coord    2   22[COMRAM] PTR unsigned char 
  1026 ;;		 -> coordenada_array(7), 
  1027 ;;  pointerCY       2   24[COMRAM] PTR int 
  1028 ;;		 -> CY(2), 
  1029 ;; Auto vars:     Size  Location     Type
  1030 ;;  i               2   31[COMRAM] int 
  1031 ;;  coordenadaY     3   28[COMRAM] unsigned char [3]
  1032 ;; Return value:  Size  Location     Type
  1033 ;;                  1    wreg      void 
  1034 ;; Registers used:
  1035 ;;		wreg, fsr1l, fsr1h, fsr2l, fsr2h, status,2, status,0, prodl, prodh, cstack
  1036 ;; Tracked objects:
  1037 ;;		On entry : 0/0
  1038 ;;		On exit  : 0/0
  1039 ;;		Unchanged: 0/0
  1040 ;; Data sizes:     COMRAM   BANK0   BANK1   BANK2   BANK3   BANK4   BANK5   BANK6   BANK7
  1041 ;;      Params:         4       0       0       0       0       0       0       0       0
  1042 ;;      Locals:         5       0       0       0       0       0       0       0       0
  1043 ;;      Temps:          2       0       0       0       0       0       0       0       0
  1044 ;;      Totals:        11       0       0       0       0       0       0       0       0
  1045 ;;Total ram usage:       11 bytes
  1046 ;; Hardware stack levels used:    1
  1047 ;; Hardware stack levels required when called:    2
  1048 ;; This function calls:
  1049 ;;		_atoi
  1050 ;; This function is called by:
  1051 ;;		_main
  1052 ;; This function uses a non-reentrant model
  1053 ;;
  1054                           
  1055                           	psect	text5
  1056  0073A6                     __ptext5:
  1057                           	opt callstack 0
  1058  0073A6                     _Serial_DecodificacionY:
  1059                           	opt callstack 28
  1060  0073A6                     
  1061                           ;serial.c: 61:     char coordenadaY[3];;serial.c: 62:     for (int i = 0; i < 3; i++) {
  1062  0073A6  0E00               	movlw	0
  1063  0073A8  6E21               	movwf	(Serial_DecodificacionY@i+1)^0,c
  1064  0073AA  0E00               	movlw	0
  1065  0073AC  6E20               	movwf	Serial_DecodificacionY@i^0,c
  1066  0073AE                     l2077:
  1067                           
  1068                           ;serial.c: 63:         coordenadaY[i] = string_coordenada[4 + i];
  1069  0073AE  5020               	movf	Serial_DecodificacionY@i^0,w,c
  1070  0073B0  2417               	addwf	Serial_DecodificacionY@string_coordenada^0,w,c
  1071  0073B2  6E1B               	movwf	??_Serial_DecodificacionY^0,c
  1072  0073B4  5021               	movf	(Serial_DecodificacionY@i+1)^0,w,c
  1073  0073B6  2018               	addwfc	(Serial_DecodificacionY@string_coordenada+1)^0,w,c
  1074  0073B8  6E1C               	movwf	(??_Serial_DecodificacionY+1)^0,c
  1075  0073BA  0E04               	movlw	4
  1076  0073BC  241B               	addwf	??_Serial_DecodificacionY^0,w,c
  1077  0073BE  6ED9               	movwf	fsr2l,c
  1078  0073C0  0E00               	movlw	0
  1079  0073C2  201C               	addwfc	(??_Serial_DecodificacionY+1)^0,w,c
  1080  0073C4  6EDA               	movwf	fsr2h,c
  1081  0073C6  0E1D               	movlw	low Serial_DecodificacionY@coordenadaY
  1082  0073C8  2420               	addwf	Serial_DecodificacionY@i^0,w,c
  1083  0073CA  6EE1               	movwf	fsr1l,c
  1084  0073CC  0E00               	movlw	high Serial_DecodificacionY@coordenadaY
  1085  0073CE  2021               	addwfc	(Serial_DecodificacionY@i+1)^0,w,c
  1086  0073D0  6EE2               	movwf	fsr1h,c
  1087  0073D2  CFDF FFE7          	movff	indf2,indf1
  1088  0073D6                     
  1089                           ;serial.c: 64:     }
  1090  0073D6  4A20               	infsnz	Serial_DecodificacionY@i^0,f,c
  1091  0073D8  2A21               	incf	(Serial_DecodificacionY@i+1)^0,f,c
  1092  0073DA  BE21               	btfsc	(Serial_DecodificacionY@i+1)^0,7,c
  1093  0073DC  EFF9  F039         	goto	u1501
  1094  0073E0  5021               	movf	(Serial_DecodificacionY@i+1)^0,w,c
  1095  0073E2  E109               	bnz	u1500
  1096  0073E4  0E03               	movlw	3
  1097  0073E6  5C20               	subwf	Serial_DecodificacionY@i^0,w,c
  1098  0073E8  A0D8               	btfss	status,0,c
  1099  0073EA  EFF9  F039         	goto	u1501
  1100  0073EE  EFFB  F039         	goto	u1500
  1101  0073F2                     u1501:
  1102  0073F2  EFD7  F039         	goto	l2077
  1103  0073F6                     u1500:
  1104  0073F6                     
  1105                           ;serial.c: 65:     *pointerCY = atoi(coordenadaY);
  1106  0073F6  0E1D               	movlw	low Serial_DecodificacionY@coordenadaY
  1107  0073F8  6E08               	movwf	atoi@s^0,c
  1108  0073FA  0E00               	movlw	high Serial_DecodificacionY@coordenadaY
  1109  0073FC  6E09               	movwf	(atoi@s+1)^0,c
  1110  0073FE  EC94  F03C         	call	_atoi	;wreg free
  1111  007402  C019  FFD9         	movff	Serial_DecodificacionY@pointerCY,fsr2l
  1112  007406  C01A  FFDA         	movff	Serial_DecodificacionY@pointerCY+1,fsr2h
  1113  00740A  C008  FFDE         	movff	?_atoi,postinc2
  1114  00740E  C009  FFDD         	movff	?_atoi+1,postdec2
  1115  007412  0012               	return		;funcret
  1116  007414                     __end_of_Serial_DecodificacionY:
  1117                           	opt callstack 0
  1118                           
  1119 ;; *************** function _Serial_DecodificacionX *****************
  1120 ;; Defined at:
  1121 ;;		line 51 in file "serial.c"
  1122 ;; Parameters:    Size  Location     Type
  1123 ;;  string_coord    2   22[COMRAM] PTR unsigned char 
  1124 ;;		 -> coordenada_array(7), 
  1125 ;;  pointerCX       2   24[COMRAM] PTR int 
  1126 ;;		 -> CX(2), 
  1127 ;; Auto vars:     Size  Location     Type
  1128 ;;  i               2   29[COMRAM] int 
  1129 ;;  coordenadaX     3   26[COMRAM] unsigned char [3]
  1130 ;; Return value:  Size  Location     Type
  1131 ;;                  1    wreg      void 
  1132 ;; Registers used:
  1133 ;;		wreg, fsr1l, fsr1h, fsr2l, fsr2h, status,2, status,0, prodl, prodh, cstack
  1134 ;; Tracked objects:
  1135 ;;		On entry : 0/0
  1136 ;;		On exit  : 0/0
  1137 ;;		Unchanged: 0/0
  1138 ;; Data sizes:     COMRAM   BANK0   BANK1   BANK2   BANK3   BANK4   BANK5   BANK6   BANK7
  1139 ;;      Params:         4       0       0       0       0       0       0       0       0
  1140 ;;      Locals:         5       0       0       0       0       0       0       0       0
  1141 ;;      Temps:          0       0       0       0       0       0       0       0       0
  1142 ;;      Totals:         9       0       0       0       0       0       0       0       0
  1143 ;;Total ram usage:        9 bytes
  1144 ;; Hardware stack levels used:    1
  1145 ;; Hardware stack levels required when called:    2
  1146 ;; This function calls:
  1147 ;;		_atoi
  1148 ;; This function is called by:
  1149 ;;		_main
  1150 ;; This function uses a non-reentrant model
  1151 ;;
  1152                           
  1153                           	psect	text6
  1154  007344                     __ptext6:
  1155                           	opt callstack 0
  1156  007344                     _Serial_DecodificacionX:
  1157                           	opt callstack 28
  1158  007344                     
  1159                           ;serial.c: 52:     char coordenadaX[3];;serial.c: 53:     for (int i = 0; i < 3; i++) {
  1160  007344  0E00               	movlw	0
  1161  007346  6E1F               	movwf	(Serial_DecodificacionX@i+1)^0,c
  1162  007348  0E00               	movlw	0
  1163  00734A  6E1E               	movwf	Serial_DecodificacionX@i^0,c
  1164  00734C                     l2063:
  1165                           
  1166                           ;serial.c: 54:         coordenadaX[i] = string_coordenada[i];
  1167  00734C  501E               	movf	Serial_DecodificacionX@i^0,w,c
  1168  00734E  2417               	addwf	Serial_DecodificacionX@string_coordenada^0,w,c
  1169  007350  6ED9               	movwf	fsr2l,c
  1170  007352  501F               	movf	(Serial_DecodificacionX@i+1)^0,w,c
  1171  007354  2018               	addwfc	(Serial_DecodificacionX@string_coordenada+1)^0,w,c
  1172  007356  6EDA               	movwf	fsr2h,c
  1173  007358  0E1B               	movlw	low Serial_DecodificacionX@coordenadaX
  1174  00735A  241E               	addwf	Serial_DecodificacionX@i^0,w,c
  1175  00735C  6EE1               	movwf	fsr1l,c
  1176  00735E  0E00               	movlw	high Serial_DecodificacionX@coordenadaX
  1177  007360  201F               	addwfc	(Serial_DecodificacionX@i+1)^0,w,c
  1178  007362  6EE2               	movwf	fsr1h,c
  1179  007364  CFDF FFE7          	movff	indf2,indf1
  1180  007368                     
  1181                           ;serial.c: 55:     }
  1182  007368  4A1E               	infsnz	Serial_DecodificacionX@i^0,f,c
  1183  00736A  2A1F               	incf	(Serial_DecodificacionX@i+1)^0,f,c
  1184  00736C  BE1F               	btfsc	(Serial_DecodificacionX@i+1)^0,7,c
  1185  00736E  EFC2  F039         	goto	u1491
  1186  007372  501F               	movf	(Serial_DecodificacionX@i+1)^0,w,c
  1187  007374  E109               	bnz	u1490
  1188  007376  0E03               	movlw	3
  1189  007378  5C1E               	subwf	Serial_DecodificacionX@i^0,w,c
  1190  00737A  A0D8               	btfss	status,0,c
  1191  00737C  EFC2  F039         	goto	u1491
  1192  007380  EFC4  F039         	goto	u1490
  1193  007384                     u1491:
  1194  007384  EFA6  F039         	goto	l2063
  1195  007388                     u1490:
  1196  007388                     
  1197                           ;serial.c: 56:     *pointerCX = atoi(coordenadaX);
  1198  007388  0E1B               	movlw	low Serial_DecodificacionX@coordenadaX
  1199  00738A  6E08               	movwf	atoi@s^0,c
  1200  00738C  0E00               	movlw	high Serial_DecodificacionX@coordenadaX
  1201  00738E  6E09               	movwf	(atoi@s+1)^0,c
  1202  007390  EC94  F03C         	call	_atoi	;wreg free
  1203  007394  C019  FFD9         	movff	Serial_DecodificacionX@pointerCX,fsr2l
  1204  007398  C01A  FFDA         	movff	Serial_DecodificacionX@pointerCX+1,fsr2h
  1205  00739C  C008  FFDE         	movff	?_atoi,postinc2
  1206  0073A0  C009  FFDD         	movff	?_atoi+1,postdec2
  1207  0073A4  0012               	return		;funcret
  1208  0073A6                     __end_of_Serial_DecodificacionX:
  1209                           	opt callstack 0
  1210                           
  1211 ;; *************** function _atoi *****************
  1212 ;; Defined at:
  1213 ;;		line 4 in file "C:\Program Files (x86)\Microchip\xc8\v2.10\pic\sources\c99\common\atoi.c"
  1214 ;; Parameters:    Size  Location     Type
  1215 ;;  s               2    7[COMRAM] PTR const unsigned char 
  1216 ;;		 -> Serial_DecodificacionY@coordenadaY(3), Serial_DecodificacionX@coordenadaX(3), 
  1217 ;; Auto vars:     Size  Location     Type
  1218 ;;  n               2   20[COMRAM] int 
  1219 ;;  neg             2   13[COMRAM] int 
  1220 ;; Return value:  Size  Location     Type
  1221 ;;                  2    7[COMRAM] int 
  1222 ;; Registers used:
  1223 ;;		wreg, fsr2l, fsr2h, status,2, status,0, prodl, prodh, cstack
  1224 ;; Tracked objects:
  1225 ;;		On entry : 0/0
  1226 ;;		On exit  : 0/0
  1227 ;;		Unchanged: 0/0
  1228 ;; Data sizes:     COMRAM   BANK0   BANK1   BANK2   BANK3   BANK4   BANK5   BANK6   BANK7
  1229 ;;      Params:         2       0       0       0       0       0       0       0       0
  1230 ;;      Locals:         9       0       0       0       0       0       0       0       0
  1231 ;;      Temps:          4       0       0       0       0       0       0       0       0
  1232 ;;      Totals:        15       0       0       0       0       0       0       0       0
  1233 ;;Total ram usage:       15 bytes
  1234 ;; Hardware stack levels used:    1
  1235 ;; Hardware stack levels required when called:    1
  1236 ;; This function calls:
  1237 ;;		___wmul
  1238 ;;		_isdigit
  1239 ;;		_isspace
  1240 ;; This function is called by:
  1241 ;;		_Serial_DecodificacionX
  1242 ;;		_Serial_DecodificacionY
  1243 ;; This function uses a non-reentrant model
  1244 ;;
  1245                           
  1246                           	psect	text7
  1247  007928                     __ptext7:
  1248                           	opt callstack 0
  1249  007928                     _atoi:
  1250                           	opt callstack 28
  1251  007928  0E00               	movlw	0
  1252  00792A  6E16               	movwf	(atoi@n+1)^0,c
  1253  00792C  0E00               	movlw	0
  1254  00792E  6E15               	movwf	atoi@n^0,c
  1255  007930  0E00               	movlw	0
  1256  007932  6E0F               	movwf	(atoi@neg+1)^0,c
  1257  007934  0E00               	movlw	0
  1258  007936  6E0E               	movwf	atoi@neg^0,c
  1259  007938  EFA0  F03C         	goto	l1895
  1260  00793C                     l1893:
  1261  00793C  4A08               	infsnz	atoi@s^0,f,c
  1262  00793E  2A09               	incf	(atoi@s+1)^0,f,c
  1263  007940                     l1895:
  1264  007940  0E01               	movlw	1
  1265  007942  6E14               	movwf	_atoi$1267^0,c
  1266  007944  C008  FFD9         	movff	atoi@s,fsr2l
  1267  007948  C009  FFDA         	movff	atoi@s+1,fsr2h
  1268  00794C  0E20               	movlw	32
  1269  00794E  18DE               	xorwf	postinc2,w,c
  1270  007950  B4D8               	btfsc	status,2,c
  1271  007952  EFAD  F03C         	goto	u1271
  1272  007956  EFAF  F03C         	goto	u1270
  1273  00795A                     u1271:
  1274  00795A  EFCB  F03C         	goto	l1903
  1275  00795E                     u1270:
  1276  00795E  0EF7               	movlw	247
  1277  007960  6E0A               	movwf	??_atoi^0,c
  1278  007962  0EFF               	movlw	255
  1279  007964  6E0B               	movwf	(??_atoi+1)^0,c
  1280  007966  C008  FFD9         	movff	atoi@s,fsr2l
  1281  00796A  C009  FFDA         	movff	atoi@s+1,fsr2h
  1282  00796E  50DF               	movf	indf2,w,c
  1283  007970  6E0C               	movwf	(??_atoi+2)^0,c
  1284  007972  6A0D               	clrf	(??_atoi+3)^0,c
  1285  007974  500A               	movf	??_atoi^0,w,c
  1286  007976  260C               	addwf	(??_atoi+2)^0,f,c
  1287  007978  500B               	movf	(??_atoi+1)^0,w,c
  1288  00797A  220D               	addwfc	(??_atoi+3)^0,f,c
  1289  00797C  500D               	movf	(??_atoi+3)^0,w,c
  1290  00797E  E109               	bnz	u1280
  1291  007980  0E05               	movlw	5
  1292  007982  5C0C               	subwf	(??_atoi+2)^0,w,c
  1293  007984  A0D8               	btfss	status,0,c
  1294  007986  EFC7  F03C         	goto	u1281
  1295  00798A  EFC9  F03C         	goto	u1280
  1296  00798E                     u1281:
  1297  00798E  EFCB  F03C         	goto	l1903
  1298  007992                     u1280:
  1299  007992  0E00               	movlw	0
  1300  007994  6E14               	movwf	_atoi$1267^0,c
  1301  007996                     l1903:
  1302  007996  C014  F010         	movff	_atoi$1267,_atoi$1266
  1303  00799A  6A11               	clrf	(_atoi$1266+1)^0,c
  1304  00799C  5010               	movf	_atoi$1266^0,w,c
  1305  00799E  1011               	iorwf	(_atoi$1266+1)^0,w,c
  1306  0079A0  A4D8               	btfss	status,2,c
  1307  0079A2  EFD5  F03C         	goto	u1291
  1308  0079A6  EFD7  F03C         	goto	u1290
  1309  0079AA                     u1291:
  1310  0079AA  EF9E  F03C         	goto	l1893
  1311  0079AE                     u1290:
  1312  0079AE  EFE1  F03C         	goto	l1913
  1313  0079B2                     l1909:
  1314  0079B2  0E00               	movlw	0
  1315  0079B4  6E0F               	movwf	(atoi@neg+1)^0,c
  1316  0079B6  0E01               	movlw	1
  1317  0079B8  6E0E               	movwf	atoi@neg^0,c
  1318  0079BA                     l1911:
  1319  0079BA  4A08               	infsnz	atoi@s^0,f,c
  1320  0079BC  2A09               	incf	(atoi@s+1)^0,f,c
  1321  0079BE  EF16  F03D         	goto	l1919
  1322  0079C2                     l1913:
  1323  0079C2  C008  FFD9         	movff	atoi@s,fsr2l
  1324  0079C6  C009  FFDA         	movff	atoi@s+1,fsr2h
  1325  0079CA  50DF               	movf	indf2,w,c
  1326  0079CC  6E0A               	movwf	??_atoi^0,c
  1327  0079CE  6A0B               	clrf	(??_atoi+1)^0,c
  1328                           
  1329                           ; Switch on 2 bytes has been partitioned into a top level switch of size 1, and 1 sub-sw
      +                          itches
  1330                           ; Switch size 1, requested type "simple"
  1331                           ; Number of cases is 1, Range of values is 0 to 0
  1332                           ; switch strategies available:
  1333                           ; Name         Instructions Cycles
  1334                           ; simple_byte            4     3 (average)
  1335                           ;	Chosen strategy is simple_byte
  1336  0079D0  500B               	movf	(??_atoi+1)^0,w,c
  1337  0079D2  0A00               	xorlw	0	; case 0
  1338  0079D4  B4D8               	btfsc	status,2,c
  1339  0079D6  EFEF  F03C         	goto	l2123
  1340  0079DA  EF16  F03D         	goto	l1919
  1341  0079DE                     l2123:
  1342                           
  1343                           ; Switch size 1, requested type "simple"
  1344                           ; Number of cases is 2, Range of values is 43 to 45
  1345                           ; switch strategies available:
  1346                           ; Name         Instructions Cycles
  1347                           ; simple_byte            7     4 (average)
  1348                           ;	Chosen strategy is simple_byte
  1349  0079DE  500A               	movf	??_atoi^0,w,c
  1350  0079E0  0A2B               	xorlw	43	; case 43
  1351  0079E2  B4D8               	btfsc	status,2,c
  1352  0079E4  EFDD  F03C         	goto	l1911
  1353  0079E8  0A06               	xorlw	6	; case 45
  1354  0079EA  B4D8               	btfsc	status,2,c
  1355  0079EC  EFD9  F03C         	goto	l1909
  1356  0079F0  EF16  F03D         	goto	l1919
  1357  0079F4                     l1915:
  1358  0079F4  C015  F001         	movff	atoi@n,___wmul@multiplier
  1359  0079F8  C016  F002         	movff	atoi@n+1,___wmul@multiplier+1
  1360  0079FC  0E00               	movlw	0
  1361  0079FE  6E04               	movwf	(___wmul@multiplicand+1)^0,c
  1362  007A00  0E0A               	movlw	10
  1363  007A02  6E03               	movwf	___wmul@multiplicand^0,c
  1364  007A04  ECCE  F038         	call	___wmul	;wreg free
  1365  007A08  C008  FFD9         	movff	atoi@s,fsr2l
  1366  007A0C  C009  FFDA         	movff	atoi@s+1,fsr2h
  1367  007A10  50DF               	movf	indf2,w,c
  1368  007A12  6E0A               	movwf	??_atoi^0,c
  1369  007A14  500A               	movf	??_atoi^0,w,c
  1370  007A16  5E01               	subwf	?___wmul^0,f,c
  1371  007A18  0E00               	movlw	0
  1372  007A1A  5A02               	subwfb	(?___wmul+1)^0,f,c
  1373  007A1C  0E30               	movlw	48
  1374  007A1E  2401               	addwf	?___wmul^0,w,c
  1375  007A20  6E15               	movwf	atoi@n^0,c
  1376  007A22  0E00               	movlw	0
  1377  007A24  2002               	addwfc	(?___wmul+1)^0,w,c
  1378  007A26  6E16               	movwf	(atoi@n+1)^0,c
  1379  007A28  EFDD  F03C         	goto	l1911
  1380  007A2C                     l1919:
  1381  007A2C  0ED0               	movlw	208
  1382  007A2E  6E0A               	movwf	??_atoi^0,c
  1383  007A30  0EFF               	movlw	255
  1384  007A32  6E0B               	movwf	(??_atoi+1)^0,c
  1385  007A34  C008  FFD9         	movff	atoi@s,fsr2l
  1386  007A38  C009  FFDA         	movff	atoi@s+1,fsr2h
  1387  007A3C  50DF               	movf	indf2,w,c
  1388  007A3E  6E0C               	movwf	(??_atoi+2)^0,c
  1389  007A40  6A0D               	clrf	(??_atoi+3)^0,c
  1390  007A42  500A               	movf	??_atoi^0,w,c
  1391  007A44  260C               	addwf	(??_atoi+2)^0,f,c
  1392  007A46  500B               	movf	(??_atoi+1)^0,w,c
  1393  007A48  220D               	addwfc	(??_atoi+3)^0,f,c
  1394  007A4A  500D               	movf	(??_atoi+3)^0,w,c
  1395  007A4C  E10A               	bnz	u1300
  1396  007A4E  0E0A               	movlw	10
  1397  007A50  5C0C               	subwf	(??_atoi+2)^0,w,c
  1398  007A52  A0D8               	btfss	status,0,c
  1399  007A54  EF2E  F03D         	goto	u1301
  1400  007A58  EF31  F03D         	goto	u1300
  1401  007A5C                     u1301:
  1402  007A5C  0E01               	movlw	1
  1403  007A5E  EF32  F03D         	goto	u1310
  1404  007A62                     u1300:
  1405  007A62  0E00               	movlw	0
  1406  007A64                     u1310:
  1407  007A64  6E12               	movwf	_atoi$1268^0,c
  1408  007A66  6A13               	clrf	(_atoi$1268+1)^0,c
  1409  007A68  5012               	movf	_atoi$1268^0,w,c
  1410  007A6A  1013               	iorwf	(_atoi$1268+1)^0,w,c
  1411  007A6C  A4D8               	btfss	status,2,c
  1412  007A6E  EF3B  F03D         	goto	u1321
  1413  007A72  EF3D  F03D         	goto	u1320
  1414  007A76                     u1321:
  1415  007A76  EFFA  F03C         	goto	l1915
  1416  007A7A                     u1320:
  1417  007A7A  500E               	movf	atoi@neg^0,w,c
  1418  007A7C  100F               	iorwf	(atoi@neg+1)^0,w,c
  1419  007A7E  A4D8               	btfss	status,2,c
  1420  007A80  EF44  F03D         	goto	u1331
  1421  007A84  EF46  F03D         	goto	u1330
  1422  007A88                     u1331:
  1423  007A88  EF54  F03D         	goto	l986
  1424  007A8C                     u1330:
  1425  007A8C  C015  F00A         	movff	atoi@n,??_atoi
  1426  007A90  C016  F00B         	movff	atoi@n+1,??_atoi+1
  1427  007A94  1E0A               	comf	??_atoi^0,f,c
  1428  007A96  1E0B               	comf	(??_atoi+1)^0,f,c
  1429  007A98  4A0A               	infsnz	??_atoi^0,f,c
  1430  007A9A  2A0B               	incf	(??_atoi+1)^0,f,c
  1431  007A9C  C00A  F008         	movff	??_atoi,?_atoi
  1432  007AA0  C00B  F009         	movff	??_atoi+1,?_atoi+1
  1433  007AA4  EF58  F03D         	goto	l989
  1434  007AA8                     l986:
  1435  007AA8  C015  F008         	movff	atoi@n,?_atoi
  1436  007AAC  C016  F009         	movff	atoi@n+1,?_atoi+1
  1437  007AB0                     l989:
  1438  007AB0  0012               	return		;funcret
  1439  007AB2                     __end_of_atoi:
  1440                           	opt callstack 0
  1441                           
  1442 ;; *************** function _isspace *****************
  1443 ;; Defined at:
  1444 ;;		line 5 in file "C:\Program Files (x86)\Microchip\xc8\v2.10\pic\sources\c99\common\isspace.c"
  1445 ;; Parameters:    Size  Location     Type
  1446 ;;  c               2    0[COMRAM] int 
  1447 ;; Auto vars:     Size  Location     Type
  1448 ;;		None
  1449 ;; Return value:  Size  Location     Type
  1450 ;;                  2    0[COMRAM] int 
  1451 ;; Registers used:
  1452 ;;		wreg, status,2, status,0
  1453 ;; Tracked objects:
  1454 ;;		On entry : 0/0
  1455 ;;		On exit  : 0/0
  1456 ;;		Unchanged: 0/0
  1457 ;; Data sizes:     COMRAM   BANK0   BANK1   BANK2   BANK3   BANK4   BANK5   BANK6   BANK7
  1458 ;;      Params:         2       0       0       0       0       0       0       0       0
  1459 ;;      Locals:         1       0       0       0       0       0       0       0       0
  1460 ;;      Temps:          4       0       0       0       0       0       0       0       0
  1461 ;;      Totals:         7       0       0       0       0       0       0       0       0
  1462 ;;Total ram usage:        7 bytes
  1463 ;; Hardware stack levels used:    1
  1464 ;; This function calls:
  1465 ;;		Nothing
  1466 ;; This function is called by:
  1467 ;;		_atoi
  1468 ;; This function uses a non-reentrant model
  1469 ;;
  1470                           
  1471                           	psect	text8
  1472  00729C                     __ptext8:
  1473                           	opt callstack 0
  1474  00729C                     _isspace:
  1475                           	opt callstack 28
  1476  00729C  0E01               	movlw	1
  1477  00729E  6E07               	movwf	_isspace$1284^0,c
  1478  0072A0  0E20               	movlw	32
  1479  0072A2  1801               	xorwf	isspace@c^0,w,c
  1480  0072A4  1002               	iorwf	(isspace@c+1)^0,w,c
  1481  0072A6  B4D8               	btfsc	status,2,c
  1482  0072A8  EF58  F039         	goto	u1231
  1483  0072AC  EF5A  F039         	goto	u1230
  1484  0072B0                     u1231:
  1485  0072B0  EF73  F039         	goto	l1883
  1486  0072B4                     u1230:
  1487  0072B4  0EF7               	movlw	247
  1488  0072B6  6E03               	movwf	??_isspace^0,c
  1489  0072B8  0EFF               	movlw	255
  1490  0072BA  6E04               	movwf	(??_isspace+1)^0,c
  1491  0072BC  C001  F005         	movff	isspace@c,??_isspace+2
  1492  0072C0  C002  F006         	movff	isspace@c+1,??_isspace+3
  1493  0072C4  5003               	movf	??_isspace^0,w,c
  1494  0072C6  2605               	addwf	(??_isspace+2)^0,f,c
  1495  0072C8  5004               	movf	(??_isspace+1)^0,w,c
  1496  0072CA  2206               	addwfc	(??_isspace+3)^0,f,c
  1497  0072CC  5006               	movf	(??_isspace+3)^0,w,c
  1498  0072CE  E109               	bnz	u1240
  1499  0072D0  0E05               	movlw	5
  1500  0072D2  5C05               	subwf	(??_isspace+2)^0,w,c
  1501  0072D4  A0D8               	btfss	status,0,c
  1502  0072D6  EF6F  F039         	goto	u1241
  1503  0072DA  EF71  F039         	goto	u1240
  1504  0072DE                     u1241:
  1505  0072DE  EF73  F039         	goto	l1883
  1506  0072E2                     u1240:
  1507  0072E2  0E00               	movlw	0
  1508  0072E4  6E07               	movwf	_isspace$1284^0,c
  1509  0072E6                     l1883:
  1510  0072E6  C007  F001         	movff	_isspace$1284,?_isspace
  1511  0072EA  6A02               	clrf	(?_isspace+1)^0,c
  1512  0072EC  0012               	return		;funcret
  1513  0072EE                     __end_of_isspace:
  1514                           	opt callstack 0
  1515                           
  1516 ;; *************** function _isdigit *****************
  1517 ;; Defined at:
  1518 ;;		line 5 in file "C:\Program Files (x86)\Microchip\xc8\v2.10\pic\sources\c99\common\isdigit.c"
  1519 ;; Parameters:    Size  Location     Type
  1520 ;;  c               2    0[COMRAM] int 
  1521 ;; Auto vars:     Size  Location     Type
  1522 ;;		None
  1523 ;; Return value:  Size  Location     Type
  1524 ;;                  2    0[COMRAM] int 
  1525 ;; Registers used:
  1526 ;;		wreg, status,2, status,0
  1527 ;; Tracked objects:
  1528 ;;		On entry : 0/0
  1529 ;;		On exit  : 0/0
  1530 ;;		Unchanged: 0/0
  1531 ;; Data sizes:     COMRAM   BANK0   BANK1   BANK2   BANK3   BANK4   BANK5   BANK6   BANK7
  1532 ;;      Params:         2       0       0       0       0       0       0       0       0
  1533 ;;      Locals:         0       0       0       0       0       0       0       0       0
  1534 ;;      Temps:          4       0       0       0       0       0       0       0       0
  1535 ;;      Totals:         6       0       0       0       0       0       0       0       0
  1536 ;;Total ram usage:        6 bytes
  1537 ;; Hardware stack levels used:    1
  1538 ;; This function calls:
  1539 ;;		Nothing
  1540 ;; This function is called by:
  1541 ;;		_atoi
  1542 ;; This function uses a non-reentrant model
  1543 ;;
  1544                           
  1545                           	psect	text9
  1546  007222                     __ptext9:
  1547                           	opt callstack 0
  1548  007222                     _isdigit:
  1549                           	opt callstack 28
  1550  007222  0ED0               	movlw	208
  1551  007224  6E03               	movwf	??_isdigit^0,c
  1552  007226  0EFF               	movlw	255
  1553  007228  6E04               	movwf	(??_isdigit+1)^0,c
  1554  00722A  C001  F005         	movff	isdigit@c,??_isdigit+2
  1555  00722E  C002  F006         	movff	isdigit@c+1,??_isdigit+3
  1556  007232  5003               	movf	??_isdigit^0,w,c
  1557  007234  2605               	addwf	(??_isdigit+2)^0,f,c
  1558  007236  5004               	movf	(??_isdigit+1)^0,w,c
  1559  007238  2206               	addwfc	(??_isdigit+3)^0,f,c
  1560  00723A  5006               	movf	(??_isdigit+3)^0,w,c
  1561  00723C  E10A               	bnz	u1250
  1562  00723E  0E0A               	movlw	10
  1563  007240  5C05               	subwf	(??_isdigit+2)^0,w,c
  1564  007242  A0D8               	btfss	status,0,c
  1565  007244  EF26  F039         	goto	u1251
  1566  007248  EF29  F039         	goto	u1250
  1567  00724C                     u1251:
  1568  00724C  0E01               	movlw	1
  1569  00724E  EF2A  F039         	goto	u1260
  1570  007252                     u1250:
  1571  007252  0E00               	movlw	0
  1572  007254                     u1260:
  1573  007254  6E01               	movwf	?_isdigit^0,c
  1574  007256  6A02               	clrf	(?_isdigit+1)^0,c
  1575  007258  0012               	return		;funcret
  1576  00725A                     __end_of_isdigit:
  1577                           	opt callstack 0
  1578                           
  1579 ;; *************** function ___wmul *****************
  1580 ;; Defined at:
  1581 ;;		line 15 in file "C:\Program Files (x86)\Microchip\xc8\v2.10\pic\sources\c99\common\Umul16.c"
  1582 ;; Parameters:    Size  Location     Type
  1583 ;;  multiplier      2    0[COMRAM] unsigned int 
  1584 ;;  multiplicand    2    2[COMRAM] unsigned int 
  1585 ;; Auto vars:     Size  Location     Type
  1586 ;;  product         2    4[COMRAM] unsigned int 
  1587 ;; Return value:  Size  Location     Type
  1588 ;;                  2    0[COMRAM] unsigned int 
  1589 ;; Registers used:
  1590 ;;		wreg, status,2, status,0, prodl, prodh
  1591 ;; Tracked objects:
  1592 ;;		On entry : 0/0
  1593 ;;		On exit  : 0/0
  1594 ;;		Unchanged: 0/0
  1595 ;; Data sizes:     COMRAM   BANK0   BANK1   BANK2   BANK3   BANK4   BANK5   BANK6   BANK7
  1596 ;;      Params:         4       0       0       0       0       0       0       0       0
  1597 ;;      Locals:         2       0       0       0       0       0       0       0       0
  1598 ;;      Temps:          0       0       0       0       0       0       0       0       0
  1599 ;;      Totals:         6       0       0       0       0       0       0       0       0
  1600 ;;Total ram usage:        6 bytes
  1601 ;; Hardware stack levels used:    1
  1602 ;; This function calls:
  1603 ;;		Nothing
  1604 ;; This function is called by:
  1605 ;;		_atoi
  1606 ;; This function uses a non-reentrant model
  1607 ;;
  1608                           
  1609                           	psect	text10
  1610  00719C                     __ptext10:
  1611                           	opt callstack 0
  1612  00719C                     ___wmul:
  1613                           	opt callstack 28
  1614  00719C  5001               	movf	___wmul@multiplier^0,w,c
  1615  00719E  0203               	mulwf	___wmul@multiplicand^0,c
  1616  0071A0  CFF3 F005          	movff	prodl,___wmul@product
  1617  0071A4  CFF4 F006          	movff	prodh,___wmul@product+1
  1618  0071A8  5001               	movf	___wmul@multiplier^0,w,c
  1619  0071AA  0204               	mulwf	(___wmul@multiplicand+1)^0,c
  1620  0071AC  50F3               	movf	243,w,c
  1621  0071AE  2606               	addwf	(___wmul@product+1)^0,f,c
  1622  0071B0  5002               	movf	(___wmul@multiplier+1)^0,w,c
  1623  0071B2  0203               	mulwf	___wmul@multiplicand^0,c
  1624  0071B4  50F3               	movf	243,w,c
  1625  0071B6  2606               	addwf	(___wmul@product+1)^0,f,c
  1626  0071B8  C005  F001         	movff	___wmul@product,?___wmul
  1627  0071BC  C006  F002         	movff	___wmul@product+1,?___wmul+1
  1628  0071C0  0012               	return		;funcret
  1629  0071C2                     __end_of___wmul:
  1630                           	opt callstack 0
  1631                           
  1632 ;; *************** function _Motor_Movimiento *****************
  1633 ;; Defined at:
  1634 ;;		line 21 in file "Motor.c"
  1635 ;; Parameters:    Size  Location     Type
  1636 ;;  Oupcode         1    wreg     unsigned char 
  1637 ;;  CoordenadaX     2   55[COMRAM] int 
  1638 ;;  CoordenadaY     2   57[COMRAM] int 
  1639 ;; Auto vars:     Size  Location     Type
  1640 ;;  Oupcode         1   59[COMRAM] unsigned char 
  1641 ;; Return value:  Size  Location     Type
  1642 ;;                  1    wreg      void 
  1643 ;; Registers used:
  1644 ;;		wreg, status,2, status,0, cstack
  1645 ;; Tracked objects:
  1646 ;;		On entry : 0/0
  1647 ;;		On exit  : 0/0
  1648 ;;		Unchanged: 0/0
  1649 ;; Data sizes:     COMRAM   BANK0   BANK1   BANK2   BANK3   BANK4   BANK5   BANK6   BANK7
  1650 ;;      Params:         4       0       0       0       0       0       0       0       0
  1651 ;;      Locals:         1       0       0       0       0       0       0       0       0
  1652 ;;      Temps:          0       0       0       0       0       0       0       0       0
  1653 ;;      Totals:         5       0       0       0       0       0       0       0       0
  1654 ;;Total ram usage:        5 bytes
  1655 ;; Hardware stack levels used:    1
  1656 ;; Hardware stack levels required when called:    2
  1657 ;; This function calls:
  1658 ;;		_Motor_Conversion
  1659 ;;		_PWM_GeneratePulsos
  1660 ;; This function is called by:
  1661 ;;		_main
  1662 ;; This function uses a non-reentrant model
  1663 ;;
  1664                           
  1665                           	psect	text11
  1666  00725A                     __ptext11:
  1667                           	opt callstack 0
  1668  00725A                     _Motor_Movimiento:
  1669                           	opt callstack 28
  1670                           
  1671                           ;incstack = 0
  1672                           ;Motor_Movimiento@Oupcode stored from wreg
  1673  00725A  6E3C               	movwf	Motor_Movimiento@Oupcode^0,c
  1674  00725C                     
  1675                           ;Motor.c: 22:     pasosX=Motor_Conversion(CoordenadaX);
  1676  00725C  C038  F032         	movff	Motor_Movimiento@CoordenadaX,Motor_Conversion@Coordenada
  1677  007260  C039  F033         	movff	Motor_Movimiento@CoordenadaX+1,Motor_Conversion@Coordenada+1
  1678  007264  EC0A  F03A         	call	_Motor_Conversion	;wreg free
  1679  007268  C032  F042         	movff	?_Motor_Conversion,_pasosX
  1680  00726C  C033  F043         	movff	?_Motor_Conversion+1,_pasosX+1
  1681                           
  1682                           ;Motor.c: 23:     pasosY=Motor_Conversion(CoordenadaY);
  1683  007270  C03A  F032         	movff	Motor_Movimiento@CoordenadaY,Motor_Conversion@Coordenada
  1684  007274  C03B  F033         	movff	Motor_Movimiento@CoordenadaY+1,Motor_Conversion@Coordenada+1
  1685  007278  EC0A  F03A         	call	_Motor_Conversion	;wreg free
  1686  00727C  C032  F040         	movff	?_Motor_Conversion,_pasosY
  1687  007280  C033  F041         	movff	?_Motor_Conversion+1,_pasosY+1
  1688                           
  1689                           ;Motor.c: 24:     PWM_GeneratePulsos(Oupcode,pasosX,pasosY);
  1690  007284  C042  F003         	movff	_pasosX,PWM_GeneratePulsos@pulsosX
  1691  007288  C043  F004         	movff	_pasosX+1,PWM_GeneratePulsos@pulsosX+1
  1692  00728C  C040  F005         	movff	_pasosY,PWM_GeneratePulsos@pulsosY
  1693  007290  C041  F006         	movff	_pasosY+1,PWM_GeneratePulsos@pulsosY+1
  1694  007294  503C               	movf	Motor_Movimiento@Oupcode^0,w,c
  1695  007296  EC01  F03C         	call	_PWM_GeneratePulsos
  1696  00729A  0012               	return		;funcret
  1697  00729C                     __end_of_Motor_Movimiento:
  1698                           	opt callstack 0
  1699                           
  1700 ;; *************** function _PWM_GeneratePulsos *****************
  1701 ;; Defined at:
  1702 ;;		line 6 in file "PWM.c"
  1703 ;; Parameters:    Size  Location     Type
  1704 ;;  Oupcode         1    wreg     unsigned char 
  1705 ;;  pulsosX         2    2[COMRAM] int 
  1706 ;;  pulsosY         2    4[COMRAM] int 
  1707 ;; Auto vars:     Size  Location     Type
  1708 ;;  Oupcode         1    7[COMRAM] unsigned char 
  1709 ;;  pasosY          2   10[COMRAM] int 
  1710 ;;  pasosX          2    8[COMRAM] int 
  1711 ;; Return value:  Size  Location     Type
  1712 ;;                  1    wreg      void 
  1713 ;; Registers used:
  1714 ;;		wreg, status,2, status,0, cstack
  1715 ;; Tracked objects:
  1716 ;;		On entry : 0/0
  1717 ;;		On exit  : 0/0
  1718 ;;		Unchanged: 0/0
  1719 ;; Data sizes:     COMRAM   BANK0   BANK1   BANK2   BANK3   BANK4   BANK5   BANK6   BANK7
  1720 ;;      Params:         4       0       0       0       0       0       0       0       0
  1721 ;;      Locals:         5       0       0       0       0       0       0       0       0
  1722 ;;      Temps:          1       0       0       0       0       0       0       0       0
  1723 ;;      Totals:        10       0       0       0       0       0       0       0       0
  1724 ;;Total ram usage:       10 bytes
  1725 ;; Hardware stack levels used:    1
  1726 ;; Hardware stack levels required when called:    1
  1727 ;; This function calls:
  1728 ;;		_PWM_InitF
  1729 ;;		_PWM_InitS
  1730 ;;		_PWM_OneshotX
  1731 ;;		_PWM_OneshotY
  1732 ;; This function is called by:
  1733 ;;		_Motor_Movimiento
  1734 ;; This function uses a non-reentrant model
  1735 ;;
  1736                           
  1737                           	psect	text12
  1738  007802                     __ptext12:
  1739                           	opt callstack 0
  1740  007802                     _PWM_GeneratePulsos:
  1741                           	opt callstack 28
  1742                           
  1743                           ;incstack = 0
  1744                           ;PWM_GeneratePulsos@Oupcode stored from wreg
  1745  007802  6E08               	movwf	PWM_GeneratePulsos@Oupcode^0,c
  1746  007804                     
  1747                           ;PWM.c: 7:     if (Oupcode == 'S') {
  1748  007804  0E53               	movlw	83
  1749  007806  1808               	xorwf	PWM_GeneratePulsos@Oupcode^0,w,c
  1750  007808  A4D8               	btfss	status,2,c
  1751  00780A  EF09  F03C         	goto	u1341
  1752  00780E  EF0B  F03C         	goto	u1340
  1753  007812                     u1341:
  1754  007812  EF0F  F03C         	goto	l1937
  1755  007816                     u1340:
  1756  007816                     
  1757                           ;PWM.c: 8:         PWM_InitS();
  1758  007816  ECA9  F038         	call	_PWM_InitS	;wreg free
  1759                           
  1760                           ;PWM.c: 9:     } else {
  1761  00781A  EF11  F03C         	goto	l1939
  1762  00781E                     l1937:
  1763                           
  1764                           ;PWM.c: 10:         PWM_InitF();
  1765  00781E  ECBB  F038         	call	_PWM_InitF	;wreg free
  1766  007822                     l1939:
  1767                           
  1768                           ;PWM.c: 12:     PORTCbits.RC0 = 0;
  1769  007822  9082               	bcf	130,0,c	;volatile
  1770  007824                     
  1771                           ;PWM.c: 13:     PORTCbits.RC4 = 0;
  1772  007824  9882               	bcf	130,4,c	;volatile
  1773  007826                     
  1774                           ;PWM.c: 14:     T2CONbits.TMR2ON = 1;
  1775  007826  84CA               	bsf	202,2,c	;volatile
  1776  007828                     
  1777                           ;PWM.c: 15:     int pasosX = 0;
  1778  007828  0E00               	movlw	0
  1779  00782A  6E0A               	movwf	(PWM_GeneratePulsos@pasosX+1)^0,c
  1780  00782C  0E00               	movlw	0
  1781  00782E  6E09               	movwf	PWM_GeneratePulsos@pasosX^0,c
  1782  007830                     
  1783                           ;PWM.c: 16:     int pasosY = 0;
  1784  007830  0E00               	movlw	0
  1785  007832  6E0C               	movwf	(PWM_GeneratePulsos@pasosY+1)^0,c
  1786  007834  0E00               	movlw	0
  1787  007836  6E0B               	movwf	PWM_GeneratePulsos@pasosY^0,c
  1788                           
  1789                           ;PWM.c: 17:     while (pasosX < pulsosX && pasosY < pulsosY) {
  1790  007838  EF6C  F03C         	goto	l1965
  1791  00783C                     l1949:
  1792                           
  1793                           ;PWM.c: 18:         if (pasosX < pulsosX) {
  1794  00783C  5003               	movf	PWM_GeneratePulsos@pulsosX^0,w,c
  1795  00783E  5C09               	subwf	PWM_GeneratePulsos@pasosX^0,w,c
  1796  007840  500A               	movf	(PWM_GeneratePulsos@pasosX+1)^0,w,c
  1797  007842  0A80               	xorlw	128
  1798  007844  6E07               	movwf	??_PWM_GeneratePulsos^0,c
  1799  007846  5004               	movf	(PWM_GeneratePulsos@pulsosX+1)^0,w,c
  1800  007848  0A80               	xorlw	128
  1801  00784A  5807               	subwfb	??_PWM_GeneratePulsos^0,w,c
  1802  00784C  B0D8               	btfsc	status,0,c
  1803  00784E  EF2B  F03C         	goto	u1351
  1804  007852  EF2D  F03C         	goto	u1350
  1805  007856                     u1351:
  1806  007856  EF44  F03C         	goto	l157
  1807  00785A                     u1350:
  1808  00785A                     
  1809                           ;PWM.c: 19:             if (PORTCbits.RC2 == 1) {
  1810  00785A  A482               	btfss	130,2,c	;volatile
  1811  00785C  EF32  F03C         	goto	u1361
  1812  007860  EF34  F03C         	goto	u1360
  1813  007864                     u1361:
  1814  007864  EF40  F03C         	goto	l1955
  1815  007868                     u1360:
  1816  007868                     
  1817                           ;PWM.c: 20:                 pasosX = PWM_OneshotX(pasosX);
  1818  007868  C009  F001         	movff	PWM_GeneratePulsos@pasosX,PWM_OneshotX@pasosX
  1819  00786C  C00A  F002         	movff	PWM_GeneratePulsos@pasosX+1,PWM_OneshotX@pasosX+1
  1820  007870  ECE1  F038         	call	_PWM_OneshotX	;wreg free
  1821  007874  C001  F009         	movff	?_PWM_OneshotX,PWM_GeneratePulsos@pasosX
  1822  007878  C002  F00A         	movff	?_PWM_OneshotX+1,PWM_GeneratePulsos@pasosX+1
  1823                           
  1824                           ;PWM.c: 21:             } else {
  1825  00787C  EF45  F03C         	goto	l1957
  1826  007880                     l1955:
  1827                           
  1828                           ;PWM.c: 22:                 oneshotX = 0;
  1829  007880  0E00               	movlw	0
  1830  007882  6E4B               	movwf	_oneshotX^0,c
  1831  007884  EF45  F03C         	goto	l1957
  1832  007888                     l157:
  1833                           
  1834                           ;PWM.c: 25:             PORTCbits.RC0 = 1;
  1835  007888  8082               	bsf	130,0,c	;volatile
  1836  00788A                     l1957:
  1837                           
  1838                           ;PWM.c: 27:         if (pasosY < pulsosY) {
  1839  00788A  5005               	movf	PWM_GeneratePulsos@pulsosY^0,w,c
  1840  00788C  5C0B               	subwf	PWM_GeneratePulsos@pasosY^0,w,c
  1841  00788E  500C               	movf	(PWM_GeneratePulsos@pasosY+1)^0,w,c
  1842  007890  0A80               	xorlw	128
  1843  007892  6E07               	movwf	??_PWM_GeneratePulsos^0,c
  1844  007894  5006               	movf	(PWM_GeneratePulsos@pulsosY+1)^0,w,c
  1845  007896  0A80               	xorlw	128
  1846  007898  5807               	subwfb	??_PWM_GeneratePulsos^0,w,c
  1847  00789A  B0D8               	btfsc	status,0,c
  1848  00789C  EF52  F03C         	goto	u1371
  1849  0078A0  EF54  F03C         	goto	u1370
  1850  0078A4                     u1371:
  1851  0078A4  EF6B  F03C         	goto	l161
  1852  0078A8                     u1370:
  1853  0078A8                     
  1854                           ;PWM.c: 28:             if (PORTCbits.RC1 == 1) {
  1855  0078A8  A282               	btfss	130,1,c	;volatile
  1856  0078AA  EF59  F03C         	goto	u1381
  1857  0078AE  EF5B  F03C         	goto	u1380
  1858  0078B2                     u1381:
  1859  0078B2  EF67  F03C         	goto	l1963
  1860  0078B6                     u1380:
  1861  0078B6                     
  1862                           ;PWM.c: 29:                 pasosY = PWM_OneshotY(pasosY);
  1863  0078B6  C00B  F001         	movff	PWM_GeneratePulsos@pasosY,PWM_OneshotY@pasosY
  1864  0078BA  C00C  F002         	movff	PWM_GeneratePulsos@pasosY+1,PWM_OneshotY@pasosY+1
  1865  0078BE  ECF9  F038         	call	_PWM_OneshotY	;wreg free
  1866  0078C2  C001  F00B         	movff	?_PWM_OneshotY,PWM_GeneratePulsos@pasosY
  1867  0078C6  C002  F00C         	movff	?_PWM_OneshotY+1,PWM_GeneratePulsos@pasosY+1
  1868                           
  1869                           ;PWM.c: 30:             } else {
  1870  0078CA  EF6C  F03C         	goto	l1965
  1871  0078CE                     l1963:
  1872                           
  1873                           ;PWM.c: 31:                 oneshotY = 0;
  1874  0078CE  0E00               	movlw	0
  1875  0078D0  6E4A               	movwf	_oneshotY^0,c
  1876  0078D2  EF6C  F03C         	goto	l1965
  1877  0078D6                     l161:
  1878                           
  1879                           ;PWM.c: 34:             PORTCbits.RC4 = 1;
  1880  0078D6  8882               	bsf	130,4,c	;volatile
  1881  0078D8                     l1965:
  1882                           
  1883                           ;PWM.c: 17:     while (pasosX < pulsosX && pasosY < pulsosY) {
  1884  0078D8  5003               	movf	PWM_GeneratePulsos@pulsosX^0,w,c
  1885  0078DA  5C09               	subwf	PWM_GeneratePulsos@pasosX^0,w,c
  1886  0078DC  500A               	movf	(PWM_GeneratePulsos@pasosX+1)^0,w,c
  1887  0078DE  0A80               	xorlw	128
  1888  0078E0  6E07               	movwf	??_PWM_GeneratePulsos^0,c
  1889  0078E2  5004               	movf	(PWM_GeneratePulsos@pulsosX+1)^0,w,c
  1890  0078E4  0A80               	xorlw	128
  1891  0078E6  5807               	subwfb	??_PWM_GeneratePulsos^0,w,c
  1892  0078E8  B0D8               	btfsc	status,0,c
  1893  0078EA  EF79  F03C         	goto	u1391
  1894  0078EE  EF7B  F03C         	goto	u1390
  1895  0078F2                     u1391:
  1896  0078F2  EF8A  F03C         	goto	l1969
  1897  0078F6                     u1390:
  1898  0078F6  5005               	movf	PWM_GeneratePulsos@pulsosY^0,w,c
  1899  0078F8  5C0B               	subwf	PWM_GeneratePulsos@pasosY^0,w,c
  1900  0078FA  500C               	movf	(PWM_GeneratePulsos@pasosY+1)^0,w,c
  1901  0078FC  0A80               	xorlw	128
  1902  0078FE  6E07               	movwf	??_PWM_GeneratePulsos^0,c
  1903  007900  5006               	movf	(PWM_GeneratePulsos@pulsosY+1)^0,w,c
  1904  007902  0A80               	xorlw	128
  1905  007904  5807               	subwfb	??_PWM_GeneratePulsos^0,w,c
  1906  007906  A0D8               	btfss	status,0,c
  1907  007908  EF88  F03C         	goto	u1401
  1908  00790C  EF8A  F03C         	goto	u1400
  1909  007910                     u1401:
  1910  007910  EF1E  F03C         	goto	l1949
  1911  007914                     u1400:
  1912  007914                     l1969:
  1913                           
  1914                           ;PWM.c: 38:     oneshotX = 0;
  1915  007914  0E00               	movlw	0
  1916  007916  6E4B               	movwf	_oneshotX^0,c
  1917                           
  1918                           ;PWM.c: 39:     pasosY = 0;
  1919  007918  0E00               	movlw	0
  1920  00791A  6E0C               	movwf	(PWM_GeneratePulsos@pasosY+1)^0,c
  1921  00791C  0E00               	movlw	0
  1922  00791E  6E0B               	movwf	PWM_GeneratePulsos@pasosY^0,c
  1923                           
  1924                           ;PWM.c: 40:     oneshotY = 0;
  1925  007920  0E00               	movlw	0
  1926  007922  6E4A               	movwf	_oneshotY^0,c
  1927  007924                     
  1928                           ;PWM.c: 41:     T2CONbits.TMR2ON = 0;
  1929  007924  94CA               	bcf	202,2,c	;volatile
  1930  007926  0012               	return		;funcret
  1931  007928                     __end_of_PWM_GeneratePulsos:
  1932                           	opt callstack 0
  1933                           
  1934 ;; *************** function _PWM_OneshotY *****************
  1935 ;; Defined at:
  1936 ;;		line 84 in file "PWM.c"
  1937 ;; Parameters:    Size  Location     Type
  1938 ;;  pasosY          2    0[COMRAM] int 
  1939 ;; Auto vars:     Size  Location     Type
  1940 ;;		None
  1941 ;; Return value:  Size  Location     Type
  1942 ;;                  2    0[COMRAM] int 
  1943 ;; Registers used:
  1944 ;;		wreg, status,2, status,0
  1945 ;; Tracked objects:
  1946 ;;		On entry : 0/0
  1947 ;;		On exit  : 0/0
  1948 ;;		Unchanged: 0/0
  1949 ;; Data sizes:     COMRAM   BANK0   BANK1   BANK2   BANK3   BANK4   BANK5   BANK6   BANK7
  1950 ;;      Params:         2       0       0       0       0       0       0       0       0
  1951 ;;      Locals:         0       0       0       0       0       0       0       0       0
  1952 ;;      Temps:          0       0       0       0       0       0       0       0       0
  1953 ;;      Totals:         2       0       0       0       0       0       0       0       0
  1954 ;;Total ram usage:        2 bytes
  1955 ;; Hardware stack levels used:    1
  1956 ;; This function calls:
  1957 ;;		Nothing
  1958 ;; This function is called by:
  1959 ;;		_PWM_GeneratePulsos
  1960 ;; This function uses a non-reentrant model
  1961 ;;
  1962                           
  1963                           	psect	text13
  1964  0071F2                     __ptext13:
  1965                           	opt callstack 0
  1966  0071F2                     _PWM_OneshotY:
  1967                           	opt callstack 28
  1968  0071F2                     
  1969                           ;PWM.c: 85:     if (PORTCbits.RC1 == 1 & oneshotY == 0) {
  1970  0071F2  A282               	btfss	130,1,c	;volatile
  1971  0071F4  EFFE  F038         	goto	u811
  1972  0071F8  EF00  F039         	goto	u810
  1973  0071FC                     u811:
  1974  0071FC  EF0C  F039         	goto	l1637
  1975  007200                     u810:
  1976  007200  504A               	movf	_oneshotY^0,w,c
  1977  007202  A4D8               	btfss	status,2,c
  1978  007204  EF06  F039         	goto	u821
  1979  007208  EF08  F039         	goto	u820
  1980  00720C                     u821:
  1981  00720C  EF0C  F039         	goto	l1637
  1982  007210                     u820:
  1983  007210                     
  1984                           ;PWM.c: 86:         pasosY++;
  1985  007210  4A01               	infsnz	PWM_OneshotY@pasosY^0,f,c
  1986  007212  2A02               	incf	(PWM_OneshotY@pasosY+1)^0,f,c
  1987  007214                     
  1988                           ;PWM.c: 87:         oneshotY = 1;
  1989  007214  0E01               	movlw	1
  1990  007216  6E4A               	movwf	_oneshotY^0,c
  1991  007218                     l1637:
  1992                           
  1993                           ;PWM.c: 89:     return pasosY;
  1994  007218  C001  F001         	movff	PWM_OneshotY@pasosY,?_PWM_OneshotY
  1995  00721C  C002  F002         	movff	PWM_OneshotY@pasosY+1,?_PWM_OneshotY+1
  1996  007220  0012               	return		;funcret
  1997  007222                     __end_of_PWM_OneshotY:
  1998                           	opt callstack 0
  1999                           
  2000 ;; *************** function _PWM_OneshotX *****************
  2001 ;; Defined at:
  2002 ;;		line 76 in file "PWM.c"
  2003 ;; Parameters:    Size  Location     Type
  2004 ;;  pasosX          2    0[COMRAM] int 
  2005 ;; Auto vars:     Size  Location     Type
  2006 ;;		None
  2007 ;; Return value:  Size  Location     Type
  2008 ;;                  2    0[COMRAM] int 
  2009 ;; Registers used:
  2010 ;;		wreg, status,2, status,0
  2011 ;; Tracked objects:
  2012 ;;		On entry : 0/0
  2013 ;;		On exit  : 0/0
  2014 ;;		Unchanged: 0/0
  2015 ;; Data sizes:     COMRAM   BANK0   BANK1   BANK2   BANK3   BANK4   BANK5   BANK6   BANK7
  2016 ;;      Params:         2       0       0       0       0       0       0       0       0
  2017 ;;      Locals:         0       0       0       0       0       0       0       0       0
  2018 ;;      Temps:          0       0       0       0       0       0       0       0       0
  2019 ;;      Totals:         2       0       0       0       0       0       0       0       0
  2020 ;;Total ram usage:        2 bytes
  2021 ;; Hardware stack levels used:    1
  2022 ;; This function calls:
  2023 ;;		Nothing
  2024 ;; This function is called by:
  2025 ;;		_PWM_GeneratePulsos
  2026 ;; This function uses a non-reentrant model
  2027 ;;
  2028                           
  2029                           	psect	text14
  2030  0071C2                     __ptext14:
  2031                           	opt callstack 0
  2032  0071C2                     _PWM_OneshotX:
  2033                           	opt callstack 28
  2034  0071C2                     
  2035                           ;PWM.c: 77:     if (PORTCbits.RC2 == 1 & oneshotX == 0) {
  2036  0071C2  A482               	btfss	130,2,c	;volatile
  2037  0071C4  EFE6  F038         	goto	u791
  2038  0071C8  EFE8  F038         	goto	u790
  2039  0071CC                     u791:
  2040  0071CC  EFF4  F038         	goto	l1625
  2041  0071D0                     u790:
  2042  0071D0  504B               	movf	_oneshotX^0,w,c
  2043  0071D2  A4D8               	btfss	status,2,c
  2044  0071D4  EFEE  F038         	goto	u801
  2045  0071D8  EFF0  F038         	goto	u800
  2046  0071DC                     u801:
  2047  0071DC  EFF4  F038         	goto	l1625
  2048  0071E0                     u800:
  2049  0071E0                     
  2050                           ;PWM.c: 78:         pasosX++;
  2051  0071E0  4A01               	infsnz	PWM_OneshotX@pasosX^0,f,c
  2052  0071E2  2A02               	incf	(PWM_OneshotX@pasosX+1)^0,f,c
  2053  0071E4                     
  2054                           ;PWM.c: 79:         oneshotX = 1;
  2055  0071E4  0E01               	movlw	1
  2056  0071E6  6E4B               	movwf	_oneshotX^0,c
  2057  0071E8                     l1625:
  2058                           
  2059                           ;PWM.c: 81:     return pasosX;
  2060  0071E8  C001  F001         	movff	PWM_OneshotX@pasosX,?_PWM_OneshotX
  2061  0071EC  C002  F002         	movff	PWM_OneshotX@pasosX+1,?_PWM_OneshotX+1
  2062  0071F0  0012               	return		;funcret
  2063  0071F2                     __end_of_PWM_OneshotX:
  2064                           	opt callstack 0
  2065                           
  2066 ;; *************** function _PWM_InitS *****************
  2067 ;; Defined at:
  2068 ;;		line 60 in file "PWM.c"
  2069 ;; Parameters:    Size  Location     Type
  2070 ;;		None
  2071 ;; Auto vars:     Size  Location     Type
  2072 ;;		None
  2073 ;; Return value:  Size  Location     Type
  2074 ;;                  1    wreg      void 
  2075 ;; Registers used:
  2076 ;;		wreg, status,2
  2077 ;; Tracked objects:
  2078 ;;		On entry : 0/0
  2079 ;;		On exit  : 0/0
  2080 ;;		Unchanged: 0/0
  2081 ;; Data sizes:     COMRAM   BANK0   BANK1   BANK2   BANK3   BANK4   BANK5   BANK6   BANK7
  2082 ;;      Params:         0       0       0       0       0       0       0       0       0
  2083 ;;      Locals:         0       0       0       0       0       0       0       0       0
  2084 ;;      Temps:          0       0       0       0       0       0       0       0       0
  2085 ;;      Totals:         0       0       0       0       0       0       0       0       0
  2086 ;;Total ram usage:        0 bytes
  2087 ;; Hardware stack levels used:    1
  2088 ;; This function calls:
  2089 ;;		Nothing
  2090 ;; This function is called by:
  2091 ;;		_PWM_GeneratePulsos
  2092 ;; This function uses a non-reentrant model
  2093 ;;
  2094                           
  2095                           	psect	text15
  2096  007152                     __ptext15:
  2097                           	opt callstack 0
  2098  007152                     _PWM_InitS:
  2099                           	opt callstack 28
  2100  007152                     
  2101                           ;PWM.c: 62:     PR2 = 0XFF;
  2102  007152  68CB               	setf	203,c	;volatile
  2103  007154                     
  2104                           ;PWM.c: 63:     CCPR1L = 0X3E;
  2105  007154  0E3E               	movlw	62
  2106  007156  6EBE               	movwf	190,c	;volatile
  2107                           
  2108                           ;PWM.c: 64:     CCPR2L = 0X3E;
  2109  007158  0E3E               	movlw	62
  2110  00715A  6EBB               	movwf	187,c	;volatile
  2111  00715C                     
  2112                           ;PWM.c: 65:     TRISCbits.RC1 = 0;
  2113  00715C  9294               	bcf	148,1,c	;volatile
  2114  00715E                     
  2115                           ;PWM.c: 66:     TRISCbits.RC0 = 0;
  2116  00715E  9094               	bcf	148,0,c	;volatile
  2117  007160                     
  2118                           ;PWM.c: 67:     TRISCbits.RC2 = 0;
  2119  007160  9494               	bcf	148,2,c	;volatile
  2120                           
  2121                           ;PWM.c: 68:     T2CON = 0X03;
  2122  007162  0E03               	movlw	3
  2123  007164  6ECA               	movwf	202,c	;volatile
  2124                           
  2125                           ;PWM.c: 69:     CCP1CON = 0X0C;
  2126  007166  0E0C               	movlw	12
  2127  007168  6EBD               	movwf	189,c	;volatile
  2128                           
  2129                           ;PWM.c: 70:     CCP2CON = 0X0C;
  2130  00716A  0E0C               	movlw	12
  2131  00716C  6EBA               	movwf	186,c	;volatile
  2132  00716E                     
  2133                           ;PWM.c: 71:     T2CONbits.TMR2ON = 0;
  2134  00716E  94CA               	bcf	202,2,c	;volatile
  2135  007170                     
  2136                           ;PWM.c: 72:     PORTCbits.RC0 = 1;
  2137  007170  8082               	bsf	130,0,c	;volatile
  2138  007172                     
  2139                           ;PWM.c: 73:     PORTCbits.RC4 = 1;
  2140  007172  8882               	bsf	130,4,c	;volatile
  2141  007174  0012               	return		;funcret
  2142  007176                     __end_of_PWM_InitS:
  2143                           	opt callstack 0
  2144                           
  2145 ;; *************** function _PWM_InitF *****************
  2146 ;; Defined at:
  2147 ;;		line 44 in file "PWM.c"
  2148 ;; Parameters:    Size  Location     Type
  2149 ;;		None
  2150 ;; Auto vars:     Size  Location     Type
  2151 ;;		None
  2152 ;; Return value:  Size  Location     Type
  2153 ;;                  1    wreg      void 
  2154 ;; Registers used:
  2155 ;;		wreg, status,2
  2156 ;; Tracked objects:
  2157 ;;		On entry : 0/0
  2158 ;;		On exit  : 0/0
  2159 ;;		Unchanged: 0/0
  2160 ;; Data sizes:     COMRAM   BANK0   BANK1   BANK2   BANK3   BANK4   BANK5   BANK6   BANK7
  2161 ;;      Params:         0       0       0       0       0       0       0       0       0
  2162 ;;      Locals:         0       0       0       0       0       0       0       0       0
  2163 ;;      Temps:          0       0       0       0       0       0       0       0       0
  2164 ;;      Totals:         0       0       0       0       0       0       0       0       0
  2165 ;;Total ram usage:        0 bytes
  2166 ;; Hardware stack levels used:    1
  2167 ;; This function calls:
  2168 ;;		Nothing
  2169 ;; This function is called by:
  2170 ;;		_PWM_GeneratePulsos
  2171 ;; This function uses a non-reentrant model
  2172 ;;
  2173                           
  2174                           	psect	text16
  2175  007176                     __ptext16:
  2176                           	opt callstack 0
  2177  007176                     _PWM_InitF:
  2178                           	opt callstack 28
  2179  007176                     
  2180                           ;PWM.c: 46:     PR2 = 0X7C;
  2181  007176  0E7C               	movlw	124
  2182  007178  6ECB               	movwf	203,c	;volatile
  2183                           
  2184                           ;PWM.c: 47:     CCPR1L = 0X3E;
  2185  00717A  0E3E               	movlw	62
  2186  00717C  6EBE               	movwf	190,c	;volatile
  2187                           
  2188                           ;PWM.c: 48:     CCPR2L = 0X3E;
  2189  00717E  0E3E               	movlw	62
  2190  007180  6EBB               	movwf	187,c	;volatile
  2191  007182                     
  2192                           ;PWM.c: 49:     TRISCbits.RC1 = 0;
  2193  007182  9294               	bcf	148,1,c	;volatile
  2194  007184                     
  2195                           ;PWM.c: 50:     TRISCbits.RC0 = 0;
  2196  007184  9094               	bcf	148,0,c	;volatile
  2197  007186                     
  2198                           ;PWM.c: 51:     TRISCbits.RC2 = 0;
  2199  007186  9494               	bcf	148,2,c	;volatile
  2200                           
  2201                           ;PWM.c: 52:     T2CON = 0X03;
  2202  007188  0E03               	movlw	3
  2203  00718A  6ECA               	movwf	202,c	;volatile
  2204                           
  2205                           ;PWM.c: 53:     CCP1CON = 0X0C;
  2206  00718C  0E0C               	movlw	12
  2207  00718E  6EBD               	movwf	189,c	;volatile
  2208                           
  2209                           ;PWM.c: 54:     CCP2CON = 0X0C;
  2210  007190  0E0C               	movlw	12
  2211  007192  6EBA               	movwf	186,c	;volatile
  2212  007194                     
  2213                           ;PWM.c: 55:     T2CONbits.TMR2ON = 0;
  2214  007194  94CA               	bcf	202,2,c	;volatile
  2215  007196                     
  2216                           ;PWM.c: 56:     PORTCbits.RC0 = 1;
  2217  007196  8082               	bsf	130,0,c	;volatile
  2218  007198                     
  2219                           ;PWM.c: 57:     PORTCbits.RC4 = 1;
  2220  007198  8882               	bsf	130,4,c	;volatile
  2221  00719A  0012               	return		;funcret
  2222  00719C                     __end_of_PWM_InitF:
  2223                           	opt callstack 0
  2224                           
  2225 ;; *************** function _Motor_Conversion *****************
  2226 ;; Defined at:
  2227 ;;		line 15 in file "Motor.c"
  2228 ;; Parameters:    Size  Location     Type
  2229 ;;  Coordenada      2   49[COMRAM] int 
  2230 ;; Auto vars:     Size  Location     Type
  2231 ;;  conversion      4   51[COMRAM] float 
  2232 ;; Return value:  Size  Location     Type
  2233 ;;                  2   49[COMRAM] int 
  2234 ;; Registers used:
  2235 ;;		wreg, status,2, status,0, cstack
  2236 ;; Tracked objects:
  2237 ;;		On entry : 0/0
  2238 ;;		On exit  : 0/0
  2239 ;;		Unchanged: 0/0
  2240 ;; Data sizes:     COMRAM   BANK0   BANK1   BANK2   BANK3   BANK4   BANK5   BANK6   BANK7
  2241 ;;      Params:         2       0       0       0       0       0       0       0       0
  2242 ;;      Locals:         4       0       0       0       0       0       0       0       0
  2243 ;;      Temps:          0       0       0       0       0       0       0       0       0
  2244 ;;      Totals:         6       0       0       0       0       0       0       0       0
  2245 ;;Total ram usage:        6 bytes
  2246 ;; Hardware stack levels used:    1
  2247 ;; Hardware stack levels required when called:    1
  2248 ;; This function calls:
  2249 ;;		___fldiv
  2250 ;;		___fltol
  2251 ;;		___xxtofl
  2252 ;; This function is called by:
  2253 ;;		_Motor_Movimiento
  2254 ;; This function uses a non-reentrant model
  2255 ;;
  2256                           
  2257                           	psect	text17
  2258  007414                     __ptext17:
  2259                           	opt callstack 0
  2260  007414                     _Motor_Conversion:
  2261                           	opt callstack 28
  2262  007414                     
  2263                           ;Motor.c: 16:     float conversion=0.2;
  2264  007414  0ECD               	movlw	205
  2265  007416  6E34               	movwf	Motor_Conversion@conversion^0,c
  2266  007418  0ECC               	movlw	204
  2267  00741A  6E35               	movwf	(Motor_Conversion@conversion+1)^0,c
  2268  00741C  0E4C               	movlw	76
  2269  00741E  6E36               	movwf	(Motor_Conversion@conversion+2)^0,c
  2270  007420  0E3E               	movlw	62
  2271  007422  6E37               	movwf	(Motor_Conversion@conversion+3)^0,c
  2272  007424                     
  2273                           ;Motor.c: 17:     pasos_convertidos=Coordenada/conversion;
  2274  007424  C034  F013         	movff	Motor_Conversion@conversion,___fldiv@a
  2275  007428  C035  F014         	movff	Motor_Conversion@conversion+1,___fldiv@a+1
  2276  00742C  C036  F015         	movff	Motor_Conversion@conversion+2,___fldiv@a+2
  2277  007430  C037  F016         	movff	Motor_Conversion@conversion+3,___fldiv@a+3
  2278  007434  C032  F001         	movff	Motor_Conversion@Coordenada,___xxtofl@val
  2279  007438  C033  F002         	movff	Motor_Conversion@Coordenada+1,___xxtofl@val+1
  2280  00743C  0E00               	movlw	0
  2281  00743E  BE02               	btfsc	(___xxtofl@val+1)^0,7,c
  2282  007440  0EFF               	movlw	-1
  2283  007442  6E03               	movwf	(___xxtofl@val+2)^0,c
  2284  007444  6E04               	movwf	(___xxtofl@val+3)^0,c
  2285  007446  0E01               	movlw	1
  2286  007448  EC59  F03D         	call	___xxtofl
  2287  00744C  C001  F00F         	movff	?___xxtofl,___fldiv@b
  2288  007450  C002  F010         	movff	?___xxtofl+1,___fldiv@b+1
  2289  007454  C003  F011         	movff	?___xxtofl+2,___fldiv@b+2
  2290  007458  C004  F012         	movff	?___xxtofl+3,___fldiv@b+3
  2291  00745C  EC33  F03E         	call	___fldiv	;wreg free
  2292  007460  C00F  F028         	movff	?___fldiv,___fltol@f1
  2293  007464  C010  F029         	movff	?___fldiv+1,___fltol@f1+1
  2294  007468  C011  F02A         	movff	?___fldiv+2,___fltol@f1+2
  2295  00746C  C012  F02B         	movff	?___fldiv+3,___fltol@f1+3
  2296  007470  ECF8  F03A         	call	___fltol	;wreg free
  2297  007474  C028  F044         	movff	?___fltol,_pasos_convertidos
  2298  007478  C029  F045         	movff	?___fltol+1,_pasos_convertidos+1
  2299  00747C                     
  2300                           ;Motor.c: 18:     return pasos_convertidos;
  2301  00747C  C044  F032         	movff	_pasos_convertidos,?_Motor_Conversion
  2302  007480  C045  F033         	movff	_pasos_convertidos+1,?_Motor_Conversion+1
  2303  007484  0012               	return		;funcret
  2304  007486                     __end_of_Motor_Conversion:
  2305                           	opt callstack 0
  2306                           
  2307 ;; *************** function ___xxtofl *****************
  2308 ;; Defined at:
  2309 ;;		line 10 in file "C:\Program Files (x86)\Microchip\xc8\v2.10\pic\sources\c99\common\xxtofl.c"
  2310 ;; Parameters:    Size  Location     Type
  2311 ;;  sign            1    wreg     unsigned char 
  2312 ;;  val             4    0[COMRAM] long 
  2313 ;; Auto vars:     Size  Location     Type
  2314 ;;  sign            1    8[COMRAM] unsigned char 
  2315 ;;  arg             4   10[COMRAM] unsigned long 
  2316 ;;  exp             1    9[COMRAM] unsigned char 
  2317 ;; Return value:  Size  Location     Type
  2318 ;;                  4    0[COMRAM] unsigned char 
  2319 ;; Registers used:
  2320 ;;		wreg, status,2, status,0
  2321 ;; Tracked objects:
  2322 ;;		On entry : 0/0
  2323 ;;		On exit  : 0/0
  2324 ;;		Unchanged: 0/0
  2325 ;; Data sizes:     COMRAM   BANK0   BANK1   BANK2   BANK3   BANK4   BANK5   BANK6   BANK7
  2326 ;;      Params:         4       0       0       0       0       0       0       0       0
  2327 ;;      Locals:         6       0       0       0       0       0       0       0       0
  2328 ;;      Temps:          4       0       0       0       0       0       0       0       0
  2329 ;;      Totals:        14       0       0       0       0       0       0       0       0
  2330 ;;Total ram usage:       14 bytes
  2331 ;; Hardware stack levels used:    1
  2332 ;; This function calls:
  2333 ;;		Nothing
  2334 ;; This function is called by:
  2335 ;;		_Motor_Conversion
  2336 ;; This function uses a non-reentrant model
  2337 ;;
  2338                           
  2339                           	psect	text18
  2340  007AB2                     __ptext18:
  2341                           	opt callstack 0
  2342  007AB2                     ___xxtofl:
  2343                           	opt callstack 28
  2344                           
  2345                           ;incstack = 0
  2346                           ;___xxtofl@sign stored from wreg
  2347  007AB2  6E09               	movwf	___xxtofl@sign^0,c
  2348  007AB4  5009               	movf	___xxtofl@sign^0,w,c
  2349  007AB6  B4D8               	btfsc	status,2,c
  2350  007AB8  EF60  F03D         	goto	u1131
  2351  007ABC  EF62  F03D         	goto	u1130
  2352  007AC0                     u1131:
  2353  007AC0  EF84  F03D         	goto	l942
  2354  007AC4                     u1130:
  2355  007AC4  BE04               	btfsc	(___xxtofl@val+3)^0,7,c
  2356  007AC6  EF69  F03D         	goto	u1140
  2357  007ACA  EF67  F03D         	goto	u1141
  2358  007ACE                     u1141:
  2359  007ACE  EF84  F03D         	goto	l942
  2360  007AD2                     u1140:
  2361  007AD2  C001  F005         	movff	___xxtofl@val,??___xxtofl
  2362  007AD6  C002  F006         	movff	___xxtofl@val+1,??___xxtofl+1
  2363  007ADA  C003  F007         	movff	___xxtofl@val+2,??___xxtofl+2
  2364  007ADE  C004  F008         	movff	___xxtofl@val+3,??___xxtofl+3
  2365  007AE2  1E05               	comf	??___xxtofl^0,f,c
  2366  007AE4  1E06               	comf	(??___xxtofl+1)^0,f,c
  2367  007AE6  1E07               	comf	(??___xxtofl+2)^0,f,c
  2368  007AE8  1E08               	comf	(??___xxtofl+3)^0,f,c
  2369  007AEA  2A05               	incf	??___xxtofl^0,f,c
  2370  007AEC  0E00               	movlw	0
  2371  007AEE  2206               	addwfc	(??___xxtofl+1)^0,f,c
  2372  007AF0  2207               	addwfc	(??___xxtofl+2)^0,f,c
  2373  007AF2  2208               	addwfc	(??___xxtofl+3)^0,f,c
  2374  007AF4  C005  F00B         	movff	??___xxtofl,___xxtofl@arg
  2375  007AF8  C006  F00C         	movff	??___xxtofl+1,___xxtofl@arg+1
  2376  007AFC  C007  F00D         	movff	??___xxtofl+2,___xxtofl@arg+2
  2377  007B00  C008  F00E         	movff	??___xxtofl+3,___xxtofl@arg+3
  2378  007B04  EF8C  F03D         	goto	l1835
  2379  007B08                     l942:
  2380  007B08  C001  F00B         	movff	___xxtofl@val,___xxtofl@arg
  2381  007B0C  C002  F00C         	movff	___xxtofl@val+1,___xxtofl@arg+1
  2382  007B10  C003  F00D         	movff	___xxtofl@val+2,___xxtofl@arg+2
  2383  007B14  C004  F00E         	movff	___xxtofl@val+3,___xxtofl@arg+3
  2384  007B18                     l1835:
  2385  007B18  5001               	movf	___xxtofl@val^0,w,c
  2386  007B1A  1002               	iorwf	(___xxtofl@val+1)^0,w,c
  2387  007B1C  1003               	iorwf	(___xxtofl@val+2)^0,w,c
  2388  007B1E  1004               	iorwf	(___xxtofl@val+3)^0,w,c
  2389  007B20  A4D8               	btfss	status,2,c
  2390  007B22  EF95  F03D         	goto	u1151
  2391  007B26  EF97  F03D         	goto	u1150
  2392  007B2A                     u1151:
  2393  007B2A  EFA1  F03D         	goto	l1841
  2394  007B2E                     u1150:
  2395  007B2E  0E00               	movlw	0
  2396  007B30  6E01               	movwf	?___xxtofl^0,c
  2397  007B32  0E00               	movlw	0
  2398  007B34  6E02               	movwf	(?___xxtofl+1)^0,c
  2399  007B36  0E00               	movlw	0
  2400  007B38  6E03               	movwf	(?___xxtofl+2)^0,c
  2401  007B3A  0E00               	movlw	0
  2402  007B3C  6E04               	movwf	(?___xxtofl+3)^0,c
  2403  007B3E  EF32  F03E         	goto	l945
  2404  007B42                     l1841:
  2405  007B42  0E96               	movlw	150
  2406  007B44  6E0A               	movwf	___xxtofl@exp^0,c
  2407  007B46  EFAB  F03D         	goto	l1845
  2408  007B4A                     l1843:
  2409  007B4A  2A0A               	incf	___xxtofl@exp^0,f,c
  2410  007B4C  90D8               	bcf	status,0,c
  2411  007B4E  320E               	rrcf	(___xxtofl@arg+3)^0,f,c
  2412  007B50  320D               	rrcf	(___xxtofl@arg+2)^0,f,c
  2413  007B52  320C               	rrcf	(___xxtofl@arg+1)^0,f,c
  2414  007B54  320B               	rrcf	___xxtofl@arg^0,f,c
  2415  007B56                     l1845:
  2416  007B56  0E00               	movlw	0
  2417  007B58  140B               	andwf	___xxtofl@arg^0,w,c
  2418  007B5A  6E05               	movwf	??___xxtofl^0,c
  2419  007B5C  0E00               	movlw	0
  2420  007B5E  140C               	andwf	(___xxtofl@arg+1)^0,w,c
  2421  007B60  6E06               	movwf	(??___xxtofl+1)^0,c
  2422  007B62  0E00               	movlw	0
  2423  007B64  140D               	andwf	(___xxtofl@arg+2)^0,w,c
  2424  007B66  6E07               	movwf	(??___xxtofl+2)^0,c
  2425  007B68  0EFE               	movlw	254
  2426  007B6A  140E               	andwf	(___xxtofl@arg+3)^0,w,c
  2427  007B6C  6E08               	movwf	(??___xxtofl+3)^0,c
  2428  007B6E  5005               	movf	??___xxtofl^0,w,c
  2429  007B70  1006               	iorwf	(??___xxtofl+1)^0,w,c
  2430  007B72  1007               	iorwf	(??___xxtofl+2)^0,w,c
  2431  007B74  1008               	iorwf	(??___xxtofl+3)^0,w,c
  2432  007B76  A4D8               	btfss	status,2,c
  2433  007B78  EFC0  F03D         	goto	u1161
  2434  007B7C  EFC2  F03D         	goto	u1160
  2435  007B80                     u1161:
  2436  007B80  EFA5  F03D         	goto	l1843
  2437  007B84                     u1160:
  2438  007B84  EFD0  F03D         	goto	l949
  2439  007B88                     l1847:
  2440  007B88  2A0A               	incf	___xxtofl@exp^0,f,c
  2441  007B8A  0E01               	movlw	1
  2442  007B8C  260B               	addwf	___xxtofl@arg^0,f,c
  2443  007B8E  0E00               	movlw	0
  2444  007B90  220C               	addwfc	(___xxtofl@arg+1)^0,f,c
  2445  007B92  220D               	addwfc	(___xxtofl@arg+2)^0,f,c
  2446  007B94  220E               	addwfc	(___xxtofl@arg+3)^0,f,c
  2447  007B96  90D8               	bcf	status,0,c
  2448  007B98  320E               	rrcf	(___xxtofl@arg+3)^0,f,c
  2449  007B9A  320D               	rrcf	(___xxtofl@arg+2)^0,f,c
  2450  007B9C  320C               	rrcf	(___xxtofl@arg+1)^0,f,c
  2451  007B9E  320B               	rrcf	___xxtofl@arg^0,f,c
  2452  007BA0                     l949:
  2453  007BA0  0E00               	movlw	0
  2454  007BA2  140B               	andwf	___xxtofl@arg^0,w,c
  2455  007BA4  6E05               	movwf	??___xxtofl^0,c
  2456  007BA6  0E00               	movlw	0
  2457  007BA8  140C               	andwf	(___xxtofl@arg+1)^0,w,c
  2458  007BAA  6E06               	movwf	(??___xxtofl+1)^0,c
  2459  007BAC  0E00               	movlw	0
  2460  007BAE  140D               	andwf	(___xxtofl@arg+2)^0,w,c
  2461  007BB0  6E07               	movwf	(??___xxtofl+2)^0,c
  2462  007BB2  0EFF               	movlw	255
  2463  007BB4  140E               	andwf	(___xxtofl@arg+3)^0,w,c
  2464  007BB6  6E08               	movwf	(??___xxtofl+3)^0,c
  2465  007BB8  5005               	movf	??___xxtofl^0,w,c
  2466  007BBA  1006               	iorwf	(??___xxtofl+1)^0,w,c
  2467  007BBC  1007               	iorwf	(??___xxtofl+2)^0,w,c
  2468  007BBE  1008               	iorwf	(??___xxtofl+3)^0,w,c
  2469  007BC0  A4D8               	btfss	status,2,c
  2470  007BC2  EFE5  F03D         	goto	u1171
  2471  007BC6  EFE7  F03D         	goto	u1170
  2472  007BCA                     u1171:
  2473  007BCA  EFC4  F03D         	goto	l1847
  2474  007BCE                     u1170:
  2475  007BCE  EFEF  F03D         	goto	l1855
  2476  007BD2                     l1853:
  2477  007BD2  060A               	decf	___xxtofl@exp^0,f,c
  2478  007BD4  90D8               	bcf	status,0,c
  2479  007BD6  360B               	rlcf	___xxtofl@arg^0,f,c
  2480  007BD8  360C               	rlcf	(___xxtofl@arg+1)^0,f,c
  2481  007BDA  360D               	rlcf	(___xxtofl@arg+2)^0,f,c
  2482  007BDC  360E               	rlcf	(___xxtofl@arg+3)^0,f,c
  2483  007BDE                     l1855:
  2484  007BDE  BE0D               	btfsc	(___xxtofl@arg+2)^0,7,c
  2485  007BE0  EFF4  F03D         	goto	u1181
  2486  007BE4  EFF6  F03D         	goto	u1180
  2487  007BE8                     u1181:
  2488  007BE8  EFFE  F03D         	goto	l956
  2489  007BEC                     u1180:
  2490  007BEC  0E02               	movlw	2
  2491  007BEE  600A               	cpfslt	___xxtofl@exp^0,c
  2492  007BF0  EFFC  F03D         	goto	u1191
  2493  007BF4  EFFE  F03D         	goto	u1190
  2494  007BF8                     u1191:
  2495  007BF8  EFE9  F03D         	goto	l1853
  2496  007BFC                     u1190:
  2497  007BFC                     l956:
  2498  007BFC  B00A               	btfsc	___xxtofl@exp^0,0,c
  2499  007BFE  EF03  F03E         	goto	u1201
  2500  007C02  EF05  F03E         	goto	u1200
  2501  007C06                     u1201:
  2502  007C06  EF06  F03E         	goto	l1861
  2503  007C0A                     u1200:
  2504  007C0A  9E0D               	bcf	(___xxtofl@arg+2)^0,7,c
  2505  007C0C                     l1861:
  2506  007C0C  90D8               	bcf	status,0,c
  2507  007C0E  320A               	rrcf	___xxtofl@exp^0,f,c
  2508  007C10  C00A  F005         	movff	___xxtofl@exp,??___xxtofl
  2509  007C14  6A06               	clrf	(??___xxtofl+1)^0,c
  2510  007C16  6A07               	clrf	(??___xxtofl+2)^0,c
  2511  007C18  6A08               	clrf	(??___xxtofl+3)^0,c
  2512  007C1A  C005  F008         	movff	??___xxtofl,??___xxtofl+3
  2513  007C1E  6A07               	clrf	(??___xxtofl+2)^0,c
  2514  007C20  6A06               	clrf	(??___xxtofl+1)^0,c
  2515  007C22  6A05               	clrf	??___xxtofl^0,c
  2516  007C24  5005               	movf	??___xxtofl^0,w,c
  2517  007C26  120B               	iorwf	___xxtofl@arg^0,f,c
  2518  007C28  5006               	movf	(??___xxtofl+1)^0,w,c
  2519  007C2A  120C               	iorwf	(___xxtofl@arg+1)^0,f,c
  2520  007C2C  5007               	movf	(??___xxtofl+2)^0,w,c
  2521  007C2E  120D               	iorwf	(___xxtofl@arg+2)^0,f,c
  2522  007C30  5008               	movf	(??___xxtofl+3)^0,w,c
  2523  007C32  120E               	iorwf	(___xxtofl@arg+3)^0,f,c
  2524  007C34  5009               	movf	___xxtofl@sign^0,w,c
  2525  007C36  B4D8               	btfsc	status,2,c
  2526  007C38  EF20  F03E         	goto	u1211
  2527  007C3C  EF22  F03E         	goto	u1210
  2528  007C40                     u1211:
  2529  007C40  EF2A  F03E         	goto	l1871
  2530  007C44                     u1210:
  2531  007C44  BE04               	btfsc	(___xxtofl@val+3)^0,7,c
  2532  007C46  EF29  F03E         	goto	u1220
  2533  007C4A  EF27  F03E         	goto	u1221
  2534  007C4E                     u1221:
  2535  007C4E  EF2A  F03E         	goto	l1871
  2536  007C52                     u1220:
  2537  007C52  8E0E               	bsf	(___xxtofl@arg+3)^0,7,c
  2538  007C54                     l1871:
  2539  007C54  C00B  F001         	movff	___xxtofl@arg,?___xxtofl
  2540  007C58  C00C  F002         	movff	___xxtofl@arg+1,?___xxtofl+1
  2541  007C5C  C00D  F003         	movff	___xxtofl@arg+2,?___xxtofl+2
  2542  007C60  C00E  F004         	movff	___xxtofl@arg+3,?___xxtofl+3
  2543  007C64                     l945:
  2544  007C64  0012               	return		;funcret
  2545  007C66                     __end_of___xxtofl:
  2546                           	opt callstack 0
  2547                           
  2548 ;; *************** function ___fltol *****************
  2549 ;; Defined at:
  2550 ;;		line 43 in file "C:\Program Files (x86)\Microchip\xc8\v2.10\pic\sources\c99\common\fltol.c"
  2551 ;; Parameters:    Size  Location     Type
  2552 ;;  f1              4   39[COMRAM] unsigned char 
  2553 ;; Auto vars:     Size  Location     Type
  2554 ;;  exp1            1   48[COMRAM] unsigned char 
  2555 ;;  sign1           1   47[COMRAM] unsigned char 
  2556 ;; Return value:  Size  Location     Type
  2557 ;;                  4   39[COMRAM] long 
  2558 ;; Registers used:
  2559 ;;		wreg, status,2, status,0
  2560 ;; Tracked objects:
  2561 ;;		On entry : 0/0
  2562 ;;		On exit  : 0/0
  2563 ;;		Unchanged: 0/0
  2564 ;; Data sizes:     COMRAM   BANK0   BANK1   BANK2   BANK3   BANK4   BANK5   BANK6   BANK7
  2565 ;;      Params:         4       0       0       0       0       0       0       0       0
  2566 ;;      Locals:         2       0       0       0       0       0       0       0       0
  2567 ;;      Temps:          4       0       0       0       0       0       0       0       0
  2568 ;;      Totals:        10       0       0       0       0       0       0       0       0
  2569 ;;Total ram usage:       10 bytes
  2570 ;; Hardware stack levels used:    1
  2571 ;; This function calls:
  2572 ;;		Nothing
  2573 ;; This function is called by:
  2574 ;;		_Motor_Conversion
  2575 ;; This function uses a non-reentrant model
  2576 ;;
  2577                           
  2578                           	psect	text19
  2579  0075F0                     __ptext19:
  2580                           	opt callstack 0
  2581  0075F0                     ___fltol:
  2582                           	opt callstack 28
  2583  0075F0  342A               	rlcf	(___fltol@f1+2)^0,w,c
  2584  0075F2  342B               	rlcf	(___fltol@f1+3)^0,w,c
  2585  0075F4  6E31               	movwf	___fltol@exp1^0,c
  2586  0075F6  5031               	movf	___fltol@exp1^0,w,c
  2587  0075F8  A4D8               	btfss	status,2,c
  2588  0075FA  EF01  F03B         	goto	u1061
  2589  0075FE  EF03  F03B         	goto	u1060
  2590  007602                     u1061:
  2591  007602  EF0D  F03B         	goto	l1791
  2592  007606                     u1060:
  2593  007606                     l1787:
  2594  007606  0E00               	movlw	0
  2595  007608  6E28               	movwf	?___fltol^0,c
  2596  00760A  0E00               	movlw	0
  2597  00760C  6E29               	movwf	(?___fltol+1)^0,c
  2598  00760E  0E00               	movlw	0
  2599  007610  6E2A               	movwf	(?___fltol+2)^0,c
  2600  007612  0E00               	movlw	0
  2601  007614  6E2B               	movwf	(?___fltol+3)^0,c
  2602  007616  EF7A  F03B         	goto	l584
  2603  00761A                     l1791:
  2604  00761A  C028  F02C         	movff	___fltol@f1,??___fltol
  2605  00761E  C029  F02D         	movff	___fltol@f1+1,??___fltol+1
  2606  007622  C02A  F02E         	movff	___fltol@f1+2,??___fltol+2
  2607  007626  C02B  F02F         	movff	___fltol@f1+3,??___fltol+3
  2608  00762A  0E20               	movlw	32
  2609  00762C  EF1D  F03B         	goto	u1070
  2610  007630                     u1075:
  2611  007630  90D8               	bcf	status,0,c
  2612  007632  322F               	rrcf	(??___fltol+3)^0,f,c
  2613  007634  322E               	rrcf	(??___fltol+2)^0,f,c
  2614  007636  322D               	rrcf	(??___fltol+1)^0,f,c
  2615  007638  322C               	rrcf	??___fltol^0,f,c
  2616  00763A                     u1070:
  2617  00763A  2EE8               	decfsz	wreg,f,c
  2618  00763C  EF18  F03B         	goto	u1075
  2619  007640  502C               	movf	??___fltol^0,w,c
  2620  007642  6E30               	movwf	___fltol@sign1^0,c
  2621  007644  8E2A               	bsf	(___fltol@f1+2)^0,7,c
  2622  007646  0EFF               	movlw	255
  2623  007648  1628               	andwf	___fltol@f1^0,f,c
  2624  00764A  0EFF               	movlw	255
  2625  00764C  1629               	andwf	(___fltol@f1+1)^0,f,c
  2626  00764E  0EFF               	movlw	255
  2627  007650  162A               	andwf	(___fltol@f1+2)^0,f,c
  2628  007652  0E00               	movlw	0
  2629  007654  162B               	andwf	(___fltol@f1+3)^0,f,c
  2630  007656  0E96               	movlw	150
  2631  007658  5E31               	subwf	___fltol@exp1^0,f,c
  2632  00765A  BE31               	btfsc	___fltol@exp1^0,7,c
  2633  00765C  EF34  F03B         	goto	u1080
  2634  007660  EF32  F03B         	goto	u1081
  2635  007664                     u1081:
  2636  007664  EF4A  F03B         	goto	l1811
  2637  007668                     u1080:
  2638  007668  5031               	movf	___fltol@exp1^0,w,c
  2639  00766A  0A80               	xorlw	128
  2640  00766C  0F97               	addlw	151
  2641  00766E  B0D8               	btfsc	status,0,c
  2642  007670  EF3C  F03B         	goto	u1091
  2643  007674  EF3E  F03B         	goto	u1090
  2644  007678                     u1091:
  2645  007678  EF40  F03B         	goto	l1807
  2646  00767C                     u1090:
  2647  00767C  EF03  F03B         	goto	l1787
  2648  007680                     l1807:
  2649  007680  90D8               	bcf	status,0,c
  2650  007682  322B               	rrcf	(___fltol@f1+3)^0,f,c
  2651  007684  322A               	rrcf	(___fltol@f1+2)^0,f,c
  2652  007686  3229               	rrcf	(___fltol@f1+1)^0,f,c
  2653  007688  3228               	rrcf	___fltol@f1^0,f,c
  2654  00768A  3E31               	incfsz	___fltol@exp1^0,f,c
  2655  00768C  EF40  F03B         	goto	l1807
  2656  007690  EF62  F03B         	goto	l1821
  2657  007694                     l1811:
  2658  007694  0E1F               	movlw	31
  2659  007696  6431               	cpfsgt	___fltol@exp1^0,c
  2660  007698  EF50  F03B         	goto	u1101
  2661  00769C  EF52  F03B         	goto	u1100
  2662  0076A0                     u1101:
  2663  0076A0  EF5A  F03B         	goto	l1819
  2664  0076A4                     u1100:
  2665  0076A4  EF03  F03B         	goto	l1787
  2666  0076A8                     l1817:
  2667  0076A8  90D8               	bcf	status,0,c
  2668  0076AA  3628               	rlcf	___fltol@f1^0,f,c
  2669  0076AC  3629               	rlcf	(___fltol@f1+1)^0,f,c
  2670  0076AE  362A               	rlcf	(___fltol@f1+2)^0,f,c
  2671  0076B0  362B               	rlcf	(___fltol@f1+3)^0,f,c
  2672  0076B2  0631               	decf	___fltol@exp1^0,f,c
  2673  0076B4                     l1819:
  2674  0076B4  5031               	movf	___fltol@exp1^0,w,c
  2675  0076B6  A4D8               	btfss	status,2,c
  2676  0076B8  EF60  F03B         	goto	u1111
  2677  0076BC  EF62  F03B         	goto	u1110
  2678  0076C0                     u1111:
  2679  0076C0  EF54  F03B         	goto	l1817
  2680  0076C4                     u1110:
  2681  0076C4                     l1821:
  2682  0076C4  5030               	movf	___fltol@sign1^0,w,c
  2683  0076C6  B4D8               	btfsc	status,2,c
  2684  0076C8  EF68  F03B         	goto	u1121
  2685  0076CC  EF6A  F03B         	goto	u1120
  2686  0076D0                     u1121:
  2687  0076D0  EF72  F03B         	goto	l1825
  2688  0076D4                     u1120:
  2689  0076D4  1E2B               	comf	(___fltol@f1+3)^0,f,c
  2690  0076D6  1E2A               	comf	(___fltol@f1+2)^0,f,c
  2691  0076D8  1E29               	comf	(___fltol@f1+1)^0,f,c
  2692  0076DA  6C28               	negf	___fltol@f1^0,c
  2693  0076DC  0E00               	movlw	0
  2694  0076DE  2229               	addwfc	(___fltol@f1+1)^0,f,c
  2695  0076E0  222A               	addwfc	(___fltol@f1+2)^0,f,c
  2696  0076E2  222B               	addwfc	(___fltol@f1+3)^0,f,c
  2697  0076E4                     l1825:
  2698  0076E4  C028  F028         	movff	___fltol@f1,?___fltol
  2699  0076E8  C029  F029         	movff	___fltol@f1+1,?___fltol+1
  2700  0076EC  C02A  F02A         	movff	___fltol@f1+2,?___fltol+2
  2701  0076F0  C02B  F02B         	movff	___fltol@f1+3,?___fltol+3
  2702  0076F4                     l584:
  2703  0076F4  0012               	return		;funcret
  2704  0076F6                     __end_of___fltol:
  2705                           	opt callstack 0
  2706                           
  2707 ;; *************** function ___fldiv *****************
  2708 ;; Defined at:
  2709 ;;		line 11 in file "C:\Program Files (x86)\Microchip\xc8\v2.10\pic\sources\c99\common\sprcdiv.c"
  2710 ;; Parameters:    Size  Location     Type
  2711 ;;  b               4   14[COMRAM] long 
  2712 ;;  a               4   18[COMRAM] long 
  2713 ;; Auto vars:     Size  Location     Type
  2714 ;;  grs             4   33[COMRAM] unsigned long 
  2715 ;;  rem             4   26[COMRAM] unsigned long 
  2716 ;;  new_exp         2   31[COMRAM] short 
  2717 ;;  aexp            1   38[COMRAM] unsigned char 
  2718 ;;  bexp            1   37[COMRAM] unsigned char 
  2719 ;;  sign            1   30[COMRAM] unsigned char 
  2720 ;; Return value:  Size  Location     Type
  2721 ;;                  4   14[COMRAM] unsigned char 
  2722 ;; Registers used:
  2723 ;;		wreg, status,2, status,0
  2724 ;; Tracked objects:
  2725 ;;		On entry : 0/0
  2726 ;;		On exit  : 0/0
  2727 ;;		Unchanged: 0/0
  2728 ;; Data sizes:     COMRAM   BANK0   BANK1   BANK2   BANK3   BANK4   BANK5   BANK6   BANK7
  2729 ;;      Params:         8       0       0       0       0       0       0       0       0
  2730 ;;      Locals:        13       0       0       0       0       0       0       0       0
  2731 ;;      Temps:          4       0       0       0       0       0       0       0       0
  2732 ;;      Totals:        25       0       0       0       0       0       0       0       0
  2733 ;;Total ram usage:       25 bytes
  2734 ;; Hardware stack levels used:    1
  2735 ;; This function calls:
  2736 ;;		Nothing
  2737 ;; This function is called by:
  2738 ;;		_Motor_Conversion
  2739 ;; This function uses a non-reentrant model
  2740 ;;
  2741                           
  2742                           	psect	text20
  2743  007C66                     __ptext20:
  2744                           	opt callstack 0
  2745  007C66                     ___fldiv:
  2746                           	opt callstack 28
  2747  007C66  5012               	movf	(___fldiv@b+3)^0,w,c
  2748  007C68  0B80               	andlw	128
  2749  007C6A  6E1F               	movwf	___fldiv@sign^0,c
  2750  007C6C  5012               	movf	(___fldiv@b+3)^0,w,c
  2751  007C6E  2412               	addwf	(___fldiv@b+3)^0,w,c
  2752  007C70  6E26               	movwf	___fldiv@bexp^0,c
  2753  007C72  AE11               	btfss	(___fldiv@b+2)^0,7,c
  2754  007C74  EF3E  F03E         	goto	u831
  2755  007C78  EF40  F03E         	goto	u830
  2756  007C7C                     u831:
  2757  007C7C  EF41  F03E         	goto	l1653
  2758  007C80                     u830:
  2759  007C80  8026               	bsf	___fldiv@bexp^0,0,c
  2760  007C82                     l1653:
  2761  007C82  5026               	movf	___fldiv@bexp^0,w,c
  2762  007C84  B4D8               	btfsc	status,2,c
  2763  007C86  EF47  F03E         	goto	u841
  2764  007C8A  EF49  F03E         	goto	u840
  2765  007C8E                     u841:
  2766  007C8E  EF5E  F03E         	goto	l1663
  2767  007C92                     u840:
  2768  007C92  2826               	incf	___fldiv@bexp^0,w,c
  2769  007C94  A4D8               	btfss	status,2,c
  2770  007C96  EF4F  F03E         	goto	u851
  2771  007C9A  EF51  F03E         	goto	u850
  2772  007C9E                     u851:
  2773  007C9E  EF59  F03E         	goto	l1659
  2774  007CA2                     u850:
  2775  007CA2  0E00               	movlw	0
  2776  007CA4  6E0F               	movwf	___fldiv@b^0,c
  2777  007CA6  0E00               	movlw	0
  2778  007CA8  6E10               	movwf	(___fldiv@b+1)^0,c
  2779  007CAA  0E00               	movlw	0
  2780  007CAC  6E11               	movwf	(___fldiv@b+2)^0,c
  2781  007CAE  0E00               	movlw	0
  2782  007CB0  6E12               	movwf	(___fldiv@b+3)^0,c
  2783  007CB2                     l1659:
  2784  007CB2  8E11               	bsf	(___fldiv@b+2)^0,7,c
  2785  007CB4  0E00               	movlw	0
  2786  007CB6  6E12               	movwf	(___fldiv@b+3)^0,c
  2787  007CB8  EF66  F03E         	goto	l1665
  2788  007CBC                     l1663:
  2789  007CBC  0E00               	movlw	0
  2790  007CBE  6E0F               	movwf	___fldiv@b^0,c
  2791  007CC0  0E00               	movlw	0
  2792  007CC2  6E10               	movwf	(___fldiv@b+1)^0,c
  2793  007CC4  0E00               	movlw	0
  2794  007CC6  6E11               	movwf	(___fldiv@b+2)^0,c
  2795  007CC8  0E00               	movlw	0
  2796  007CCA  6E12               	movwf	(___fldiv@b+3)^0,c
  2797  007CCC                     l1665:
  2798  007CCC  5016               	movf	(___fldiv@a+3)^0,w,c
  2799  007CCE  0B80               	andlw	128
  2800  007CD0  1A1F               	xorwf	___fldiv@sign^0,f,c
  2801  007CD2  5016               	movf	(___fldiv@a+3)^0,w,c
  2802  007CD4  2416               	addwf	(___fldiv@a+3)^0,w,c
  2803  007CD6  6E27               	movwf	___fldiv@aexp^0,c
  2804  007CD8  AE15               	btfss	(___fldiv@a+2)^0,7,c
  2805  007CDA  EF71  F03E         	goto	u861
  2806  007CDE  EF73  F03E         	goto	u860
  2807  007CE2                     u861:
  2808  007CE2  EF74  F03E         	goto	l1673
  2809  007CE6                     u860:
  2810  007CE6  8027               	bsf	___fldiv@aexp^0,0,c
  2811  007CE8                     l1673:
  2812  007CE8  5027               	movf	___fldiv@aexp^0,w,c
  2813  007CEA  B4D8               	btfsc	status,2,c
  2814  007CEC  EF7A  F03E         	goto	u871
  2815  007CF0  EF7C  F03E         	goto	u870
  2816  007CF4                     u871:
  2817  007CF4  EF91  F03E         	goto	l1683
  2818  007CF8                     u870:
  2819  007CF8  2827               	incf	___fldiv@aexp^0,w,c
  2820  007CFA  A4D8               	btfss	status,2,c
  2821  007CFC  EF82  F03E         	goto	u881
  2822  007D00  EF84  F03E         	goto	u880
  2823  007D04                     u881:
  2824  007D04  EF8C  F03E         	goto	l1679
  2825  007D08                     u880:
  2826  007D08  0E00               	movlw	0
  2827  007D0A  6E13               	movwf	___fldiv@a^0,c
  2828  007D0C  0E00               	movlw	0
  2829  007D0E  6E14               	movwf	(___fldiv@a+1)^0,c
  2830  007D10  0E00               	movlw	0
  2831  007D12  6E15               	movwf	(___fldiv@a+2)^0,c
  2832  007D14  0E00               	movlw	0
  2833  007D16  6E16               	movwf	(___fldiv@a+3)^0,c
  2834  007D18                     l1679:
  2835  007D18  8E15               	bsf	(___fldiv@a+2)^0,7,c
  2836  007D1A  0E00               	movlw	0
  2837  007D1C  6E16               	movwf	(___fldiv@a+3)^0,c
  2838  007D1E  EF99  F03E         	goto	l1685
  2839  007D22                     l1683:
  2840  007D22  0E00               	movlw	0
  2841  007D24  6E13               	movwf	___fldiv@a^0,c
  2842  007D26  0E00               	movlw	0
  2843  007D28  6E14               	movwf	(___fldiv@a+1)^0,c
  2844  007D2A  0E00               	movlw	0
  2845  007D2C  6E15               	movwf	(___fldiv@a+2)^0,c
  2846  007D2E  0E00               	movlw	0
  2847  007D30  6E16               	movwf	(___fldiv@a+3)^0,c
  2848  007D32                     l1685:
  2849  007D32  5013               	movf	___fldiv@a^0,w,c
  2850  007D34  1014               	iorwf	(___fldiv@a+1)^0,w,c
  2851  007D36  1015               	iorwf	(___fldiv@a+2)^0,w,c
  2852  007D38  1016               	iorwf	(___fldiv@a+3)^0,w,c
  2853  007D3A  A4D8               	btfss	status,2,c
  2854  007D3C  EFA2  F03E         	goto	u891
  2855  007D40  EFA4  F03E         	goto	u890
  2856  007D44                     u891:
  2857  007D44  EFBC  F03E         	goto	l1697
  2858  007D48                     u890:
  2859  007D48  0E00               	movlw	0
  2860  007D4A  6E0F               	movwf	___fldiv@b^0,c
  2861  007D4C  0E00               	movlw	0
  2862  007D4E  6E10               	movwf	(___fldiv@b+1)^0,c
  2863  007D50  0E00               	movlw	0
  2864  007D52  6E11               	movwf	(___fldiv@b+2)^0,c
  2865  007D54  0E00               	movlw	0
  2866  007D56  6E12               	movwf	(___fldiv@b+3)^0,c
  2867  007D58  0E80               	movlw	128
  2868  007D5A  1211               	iorwf	(___fldiv@b+2)^0,f,c
  2869  007D5C  0E7F               	movlw	127
  2870  007D5E  1212               	iorwf	(___fldiv@b+3)^0,f,c
  2871  007D60                     l1691:
  2872  007D60  501F               	movf	___fldiv@sign^0,w,c
  2873  007D62  1212               	iorwf	(___fldiv@b+3)^0,f,c
  2874  007D64  C00F  F00F         	movff	___fldiv@b,?___fldiv
  2875  007D68  C010  F010         	movff	___fldiv@b+1,?___fldiv+1
  2876  007D6C  C011  F011         	movff	___fldiv@b+2,?___fldiv+2
  2877  007D70  C012  F012         	movff	___fldiv@b+3,?___fldiv+3
  2878  007D74  EFFF  F03F         	goto	l869
  2879  007D78                     l1697:
  2880  007D78  5026               	movf	___fldiv@bexp^0,w,c
  2881  007D7A  A4D8               	btfss	status,2,c
  2882  007D7C  EFC2  F03E         	goto	u901
  2883  007D80  EFC4  F03E         	goto	u900
  2884  007D84                     u901:
  2885  007D84  EFCE  F03E         	goto	l1705
  2886  007D88                     u900:
  2887  007D88  0E00               	movlw	0
  2888  007D8A  6E0F               	movwf	?___fldiv^0,c
  2889  007D8C  0E00               	movlw	0
  2890  007D8E  6E10               	movwf	(?___fldiv+1)^0,c
  2891  007D90  0E00               	movlw	0
  2892  007D92  6E11               	movwf	(?___fldiv+2)^0,c
  2893  007D94  0E00               	movlw	0
  2894  007D96  6E12               	movwf	(?___fldiv+3)^0,c
  2895  007D98  EFFF  F03F         	goto	l869
  2896  007D9C                     l1705:
  2897  007D9C  5027               	movf	___fldiv@aexp^0,w,c
  2898  007D9E  C026  F017         	movff	___fldiv@bexp,??___fldiv
  2899  007DA2  6A18               	clrf	(??___fldiv+1)^0,c
  2900  007DA4  5E17               	subwf	??___fldiv^0,f,c
  2901  007DA6  0E00               	movlw	0
  2902  007DA8  5A18               	subwfb	(??___fldiv+1)^0,f,c
  2903  007DAA  0E7F               	movlw	127
  2904  007DAC  2417               	addwf	??___fldiv^0,w,c
  2905  007DAE  6E20               	movwf	___fldiv@new_exp^0,c
  2906  007DB0  0E00               	movlw	0
  2907  007DB2  2018               	addwfc	(??___fldiv+1)^0,w,c
  2908  007DB4  6E21               	movwf	(___fldiv@new_exp+1)^0,c
  2909  007DB6  C00F  F01B         	movff	___fldiv@b,___fldiv@rem
  2910  007DBA  C010  F01C         	movff	___fldiv@b+1,___fldiv@rem+1
  2911  007DBE  C011  F01D         	movff	___fldiv@b+2,___fldiv@rem+2
  2912  007DC2  C012  F01E         	movff	___fldiv@b+3,___fldiv@rem+3
  2913  007DC6  0E00               	movlw	0
  2914  007DC8  6E0F               	movwf	___fldiv@b^0,c
  2915  007DCA  0E00               	movlw	0
  2916  007DCC  6E10               	movwf	(___fldiv@b+1)^0,c
  2917  007DCE  0E00               	movlw	0
  2918  007DD0  6E11               	movwf	(___fldiv@b+2)^0,c
  2919  007DD2  0E00               	movlw	0
  2920  007DD4  6E12               	movwf	(___fldiv@b+3)^0,c
  2921  007DD6  0E00               	movlw	0
  2922  007DD8  6E22               	movwf	___fldiv@grs^0,c
  2923  007DDA  0E00               	movlw	0
  2924  007DDC  6E23               	movwf	(___fldiv@grs+1)^0,c
  2925  007DDE  0E00               	movlw	0
  2926  007DE0  6E24               	movwf	(___fldiv@grs+2)^0,c
  2927  007DE2  0E00               	movlw	0
  2928  007DE4  6E25               	movwf	(___fldiv@grs+3)^0,c
  2929  007DE6  0E00               	movlw	0
  2930  007DE8  6E27               	movwf	___fldiv@aexp^0,c
  2931  007DEA  EF2F  F03F         	goto	l871
  2932  007DEE                     l1715:
  2933  007DEE  5027               	movf	___fldiv@aexp^0,w,c
  2934  007DF0  B4D8               	btfsc	status,2,c
  2935  007DF2  EFFD  F03E         	goto	u911
  2936  007DF6  EFFF  F03E         	goto	u910
  2937  007DFA                     u911:
  2938  007DFA  EF16  F03F         	goto	l1723
  2939  007DFE                     u910:
  2940  007DFE  90D8               	bcf	status,0,c
  2941  007E00  361B               	rlcf	___fldiv@rem^0,f,c
  2942  007E02  361C               	rlcf	(___fldiv@rem+1)^0,f,c
  2943  007E04  361D               	rlcf	(___fldiv@rem+2)^0,f,c
  2944  007E06  361E               	rlcf	(___fldiv@rem+3)^0,f,c
  2945  007E08  90D8               	bcf	status,0,c
  2946  007E0A  360F               	rlcf	___fldiv@b^0,f,c
  2947  007E0C  3610               	rlcf	(___fldiv@b+1)^0,f,c
  2948  007E0E  3611               	rlcf	(___fldiv@b+2)^0,f,c
  2949  007E10  3612               	rlcf	(___fldiv@b+3)^0,f,c
  2950  007E12  AE25               	btfss	(___fldiv@grs+3)^0,7,c
  2951  007E14  EF0E  F03F         	goto	u921
  2952  007E18  EF10  F03F         	goto	u920
  2953  007E1C                     u921:
  2954  007E1C  EF11  F03F         	goto	l874
  2955  007E20                     u920:
  2956  007E20  800F               	bsf	___fldiv@b^0,0,c
  2957  007E22                     l874:
  2958  007E22  90D8               	bcf	status,0,c
  2959  007E24  3622               	rlcf	___fldiv@grs^0,f,c
  2960  007E26  3623               	rlcf	(___fldiv@grs+1)^0,f,c
  2961  007E28  3624               	rlcf	(___fldiv@grs+2)^0,f,c
  2962  007E2A  3625               	rlcf	(___fldiv@grs+3)^0,f,c
  2963  007E2C                     l1723:
  2964  007E2C  5013               	movf	___fldiv@a^0,w,c
  2965  007E2E  5C1B               	subwf	___fldiv@rem^0,w,c
  2966  007E30  5014               	movf	(___fldiv@a+1)^0,w,c
  2967  007E32  581C               	subwfb	(___fldiv@rem+1)^0,w,c
  2968  007E34  5015               	movf	(___fldiv@a+2)^0,w,c
  2969  007E36  581D               	subwfb	(___fldiv@rem+2)^0,w,c
  2970  007E38  5016               	movf	(___fldiv@a+3)^0,w,c
  2971  007E3A  581E               	subwfb	(___fldiv@rem+3)^0,w,c
  2972  007E3C  A0D8               	btfss	status,0,c
  2973  007E3E  EF23  F03F         	goto	u931
  2974  007E42  EF25  F03F         	goto	u930
  2975  007E46                     u931:
  2976  007E46  EF2E  F03F         	goto	l1729
  2977  007E4A                     u930:
  2978  007E4A  8C25               	bsf	(___fldiv@grs+3)^0,6,c
  2979  007E4C  5013               	movf	___fldiv@a^0,w,c
  2980  007E4E  5E1B               	subwf	___fldiv@rem^0,f,c
  2981  007E50  5014               	movf	(___fldiv@a+1)^0,w,c
  2982  007E52  5A1C               	subwfb	(___fldiv@rem+1)^0,f,c
  2983  007E54  5015               	movf	(___fldiv@a+2)^0,w,c
  2984  007E56  5A1D               	subwfb	(___fldiv@rem+2)^0,f,c
  2985  007E58  5016               	movf	(___fldiv@a+3)^0,w,c
  2986  007E5A  5A1E               	subwfb	(___fldiv@rem+3)^0,f,c
  2987  007E5C                     l1729:
  2988  007E5C  2A27               	incf	___fldiv@aexp^0,f,c
  2989  007E5E                     l871:
  2990  007E5E  0E19               	movlw	25
  2991  007E60  6427               	cpfsgt	___fldiv@aexp^0,c
  2992  007E62  EF35  F03F         	goto	u941
  2993  007E66  EF37  F03F         	goto	u940
  2994  007E6A                     u941:
  2995  007E6A  EFF7  F03E         	goto	l1715
  2996  007E6E                     u940:
  2997  007E6E  501B               	movf	___fldiv@rem^0,w,c
  2998  007E70  101C               	iorwf	(___fldiv@rem+1)^0,w,c
  2999  007E72  101D               	iorwf	(___fldiv@rem+2)^0,w,c
  3000  007E74  101E               	iorwf	(___fldiv@rem+3)^0,w,c
  3001  007E76  B4D8               	btfsc	status,2,c
  3002  007E78  EF40  F03F         	goto	u951
  3003  007E7C  EF42  F03F         	goto	u950
  3004  007E80                     u951:
  3005  007E80  EF5A  F03F         	goto	l1741
  3006  007E84                     u950:
  3007  007E84  8022               	bsf	___fldiv@grs^0,0,c
  3008  007E86  EF5A  F03F         	goto	l1741
  3009  007E8A                     l1735:
  3010  007E8A  90D8               	bcf	status,0,c
  3011  007E8C  360F               	rlcf	___fldiv@b^0,f,c
  3012  007E8E  3610               	rlcf	(___fldiv@b+1)^0,f,c
  3013  007E90  3611               	rlcf	(___fldiv@b+2)^0,f,c
  3014  007E92  3612               	rlcf	(___fldiv@b+3)^0,f,c
  3015  007E94  AE25               	btfss	(___fldiv@grs+3)^0,7,c
  3016  007E96  EF4F  F03F         	goto	u961
  3017  007E9A  EF51  F03F         	goto	u960
  3018  007E9E                     u961:
  3019  007E9E  EF52  F03F         	goto	l880
  3020  007EA2                     u960:
  3021  007EA2  800F               	bsf	___fldiv@b^0,0,c
  3022  007EA4                     l880:
  3023  007EA4  90D8               	bcf	status,0,c
  3024  007EA6  3622               	rlcf	___fldiv@grs^0,f,c
  3025  007EA8  3623               	rlcf	(___fldiv@grs+1)^0,f,c
  3026  007EAA  3624               	rlcf	(___fldiv@grs+2)^0,f,c
  3027  007EAC  3625               	rlcf	(___fldiv@grs+3)^0,f,c
  3028  007EAE  0620               	decf	___fldiv@new_exp^0,f,c
  3029  007EB0  A0D8               	btfss	status,0,c
  3030  007EB2  0621               	decf	(___fldiv@new_exp+1)^0,f,c
  3031  007EB4                     l1741:
  3032  007EB4  AE11               	btfss	(___fldiv@b+2)^0,7,c
  3033  007EB6  EF5F  F03F         	goto	u971
  3034  007EBA  EF61  F03F         	goto	u970
  3035  007EBE                     u971:
  3036  007EBE  EF45  F03F         	goto	l1735
  3037  007EC2                     u970:
  3038  007EC2  0E00               	movlw	0
  3039  007EC4  6E27               	movwf	___fldiv@aexp^0,c
  3040  007EC6  AE25               	btfss	(___fldiv@grs+3)^0,7,c
  3041  007EC8  EF68  F03F         	goto	u981
  3042  007ECC  EF6A  F03F         	goto	u980
  3043  007ED0                     u981:
  3044  007ED0  EF8E  F03F         	goto	l882
  3045  007ED4                     u980:
  3046  007ED4  0EFF               	movlw	255
  3047  007ED6  1422               	andwf	___fldiv@grs^0,w,c
  3048  007ED8  6E17               	movwf	??___fldiv^0,c
  3049  007EDA  0EFF               	movlw	255
  3050  007EDC  1423               	andwf	(___fldiv@grs+1)^0,w,c
  3051  007EDE  6E18               	movwf	(??___fldiv+1)^0,c
  3052  007EE0  0EFF               	movlw	255
  3053  007EE2  1424               	andwf	(___fldiv@grs+2)^0,w,c
  3054  007EE4  6E19               	movwf	(??___fldiv+2)^0,c
  3055  007EE6  0E7F               	movlw	127
  3056  007EE8  1425               	andwf	(___fldiv@grs+3)^0,w,c
  3057  007EEA  6E1A               	movwf	(??___fldiv+3)^0,c
  3058  007EEC  5017               	movf	??___fldiv^0,w,c
  3059  007EEE  1018               	iorwf	(??___fldiv+1)^0,w,c
  3060  007EF0  1019               	iorwf	(??___fldiv+2)^0,w,c
  3061  007EF2  101A               	iorwf	(??___fldiv+3)^0,w,c
  3062  007EF4  B4D8               	btfsc	status,2,c
  3063  007EF6  EF7F  F03F         	goto	u991
  3064  007EFA  EF81  F03F         	goto	u990
  3065  007EFE                     u991:
  3066  007EFE  EF85  F03F         	goto	l883
  3067  007F02                     u990:
  3068  007F02                     l1749:
  3069  007F02  0E01               	movlw	1
  3070  007F04  6E27               	movwf	___fldiv@aexp^0,c
  3071  007F06  EF8E  F03F         	goto	l882
  3072  007F0A                     l883:
  3073  007F0A  A00F               	btfss	___fldiv@b^0,0,c
  3074  007F0C  EF8A  F03F         	goto	u1001
  3075  007F10  EF8C  F03F         	goto	u1000
  3076  007F14                     u1001:
  3077  007F14  EF8E  F03F         	goto	l882
  3078  007F18                     u1000:
  3079  007F18  EF81  F03F         	goto	l1749
  3080  007F1C                     l882:
  3081  007F1C  5027               	movf	___fldiv@aexp^0,w,c
  3082  007F1E  B4D8               	btfsc	status,2,c
  3083  007F20  EF94  F03F         	goto	u1011
  3084  007F24  EF96  F03F         	goto	u1010
  3085  007F28                     u1011:
  3086  007F28  EFBA  F03F         	goto	l1761
  3087  007F2C                     u1010:
  3088  007F2C  0E01               	movlw	1
  3089  007F2E  260F               	addwf	___fldiv@b^0,f,c
  3090  007F30  0E00               	movlw	0
  3091  007F32  2210               	addwfc	(___fldiv@b+1)^0,f,c
  3092  007F34  2211               	addwfc	(___fldiv@b+2)^0,f,c
  3093  007F36  2212               	addwfc	(___fldiv@b+3)^0,f,c
  3094  007F38  A012               	btfss	(___fldiv@b+3)^0,0,c
  3095  007F3A  EFA1  F03F         	goto	u1021
  3096  007F3E  EFA3  F03F         	goto	u1020
  3097  007F42                     u1021:
  3098  007F42  EFBA  F03F         	goto	l1761
  3099  007F46                     u1020:
  3100  007F46  C00F  F017         	movff	___fldiv@b,??___fldiv
  3101  007F4A  C010  F018         	movff	___fldiv@b+1,??___fldiv+1
  3102  007F4E  C011  F019         	movff	___fldiv@b+2,??___fldiv+2
  3103  007F52  C012  F01A         	movff	___fldiv@b+3,??___fldiv+3
  3104  007F56  341A               	rlcf	(??___fldiv+3)^0,w,c
  3105  007F58  321A               	rrcf	(??___fldiv+3)^0,f,c
  3106  007F5A  3219               	rrcf	(??___fldiv+2)^0,f,c
  3107  007F5C  3218               	rrcf	(??___fldiv+1)^0,f,c
  3108  007F5E  3217               	rrcf	??___fldiv^0,f,c
  3109  007F60  C017  F00F         	movff	??___fldiv,___fldiv@b
  3110  007F64  C018  F010         	movff	??___fldiv+1,___fldiv@b+1
  3111  007F68  C019  F011         	movff	??___fldiv+2,___fldiv@b+2
  3112  007F6C  C01A  F012         	movff	??___fldiv+3,___fldiv@b+3
  3113  007F70  4A20               	infsnz	___fldiv@new_exp^0,f,c
  3114  007F72  2A21               	incf	(___fldiv@new_exp+1)^0,f,c
  3115  007F74                     l1761:
  3116  007F74  BE21               	btfsc	(___fldiv@new_exp+1)^0,7,c
  3117  007F76  EFC5  F03F         	goto	u1031
  3118  007F7A  5021               	movf	(___fldiv@new_exp+1)^0,w,c
  3119  007F7C  E108               	bnz	u1030
  3120  007F7E  2820               	incf	___fldiv@new_exp^0,w,c
  3121  007F80  A0D8               	btfss	status,0,c
  3122  007F82  EFC5  F03F         	goto	u1031
  3123  007F86  EFC7  F03F         	goto	u1030
  3124  007F8A                     u1031:
  3125  007F8A  EFD2  F03F         	goto	l1765
  3126  007F8E                     u1030:
  3127  007F8E  0E00               	movlw	0
  3128  007F90  6E21               	movwf	(___fldiv@new_exp+1)^0,c
  3129  007F92  6820               	setf	___fldiv@new_exp^0,c
  3130  007F94  0E00               	movlw	0
  3131  007F96  6E0F               	movwf	___fldiv@b^0,c
  3132  007F98  0E00               	movlw	0
  3133  007F9A  6E10               	movwf	(___fldiv@b+1)^0,c
  3134  007F9C  0E00               	movlw	0
  3135  007F9E  6E11               	movwf	(___fldiv@b+2)^0,c
  3136  007FA0  0E00               	movlw	0
  3137  007FA2  6E12               	movwf	(___fldiv@b+3)^0,c
  3138  007FA4                     l1765:
  3139  007FA4  BE21               	btfsc	(___fldiv@new_exp+1)^0,7,c
  3140  007FA6  EFDF  F03F         	goto	u1040
  3141  007FAA  5021               	movf	(___fldiv@new_exp+1)^0,w,c
  3142  007FAC  E106               	bnz	u1041
  3143  007FAE  0420               	decf	___fldiv@new_exp^0,w,c
  3144  007FB0  B0D8               	btfsc	status,0,c
  3145  007FB2  EFDD  F03F         	goto	u1041
  3146  007FB6  EFDF  F03F         	goto	u1040
  3147  007FBA                     u1041:
  3148  007FBA  EFED  F03F         	goto	l1769
  3149  007FBE                     u1040:
  3150  007FBE  0E00               	movlw	0
  3151  007FC0  6E21               	movwf	(___fldiv@new_exp+1)^0,c
  3152  007FC2  0E00               	movlw	0
  3153  007FC4  6E20               	movwf	___fldiv@new_exp^0,c
  3154  007FC6  0E00               	movlw	0
  3155  007FC8  6E0F               	movwf	___fldiv@b^0,c
  3156  007FCA  0E00               	movlw	0
  3157  007FCC  6E10               	movwf	(___fldiv@b+1)^0,c
  3158  007FCE  0E00               	movlw	0
  3159  007FD0  6E11               	movwf	(___fldiv@b+2)^0,c
  3160  007FD2  0E00               	movlw	0
  3161  007FD4  6E12               	movwf	(___fldiv@b+3)^0,c
  3162  007FD6  0E00               	movlw	0
  3163  007FD8  6E1F               	movwf	___fldiv@sign^0,c
  3164  007FDA                     l1769:
  3165  007FDA  C020  F026         	movff	___fldiv@new_exp,___fldiv@bexp
  3166  007FDE  A026               	btfss	___fldiv@bexp^0,0,c
  3167  007FE0  EFF4  F03F         	goto	u1051
  3168  007FE4  EFF6  F03F         	goto	u1050
  3169  007FE8                     u1051:
  3170  007FE8  EFF9  F03F         	goto	l1775
  3171  007FEC                     u1050:
  3172  007FEC  8E11               	bsf	(___fldiv@b+2)^0,7,c
  3173  007FEE  EFFA  F03F         	goto	l1777
  3174  007FF2                     l1775:
  3175  007FF2  9E11               	bcf	(___fldiv@b+2)^0,7,c
  3176  007FF4                     l1777:
  3177  007FF4  90D8               	bcf	status,0,c
  3178  007FF6  3026               	rrcf	___fldiv@bexp^0,w,c
  3179  007FF8  6E12               	movwf	(___fldiv@b+3)^0,c
  3180  007FFA  EFB0  F03E         	goto	l1691
  3181  007FFE                     l869:
  3182  007FFE  0012               	return		;funcret
  3183  008000                     __end_of___fldiv:
  3184                           	opt callstack 0
  3185  0000                     
  3186                           	psect	rparam
  3187  0000                     tosu	equ	0xFFF
  3188                           tosh	equ	0xFFE
  3189                           tosl	equ	0xFFD
  3190                           stkptr	equ	0xFFC
  3191                           pclatu	equ	0xFFB
  3192                           pclath	equ	0xFFA
  3193                           pcl	equ	0xFF9
  3194                           tblptru	equ	0xFF8
  3195                           tblptrh	equ	0xFF7
  3196                           tblptrl	equ	0xFF6
  3197                           tablat	equ	0xFF5
  3198                           prodh	equ	0xFF4
  3199                           prodl	equ	0xFF3
  3200                           indf0	equ	0xFEF
  3201                           postinc0	equ	0xFEE
  3202                           postdec0	equ	0xFED
  3203                           preinc0	equ	0xFEC
  3204                           plusw0	equ	0xFEB
  3205                           fsr0h	equ	0xFEA
  3206                           fsr0l	equ	0xFE9
  3207                           wreg	equ	0xFE8
  3208                           indf1	equ	0xFE7
  3209                           postinc1	equ	0xFE6
  3210                           postdec1	equ	0xFE5
  3211                           preinc1	equ	0xFE4
  3212                           plusw1	equ	0xFE3
  3213                           fsr1h	equ	0xFE2
  3214                           fsr1l	equ	0xFE1
  3215                           bsr	equ	0xFE0
  3216                           indf2	equ	0xFDF
  3217                           postinc2	equ	0xFDE
  3218                           postdec2	equ	0xFDD
  3219                           preinc2	equ	0xFDC
  3220                           plusw2	equ	0xFDB
  3221                           fsr2h	equ	0xFDA
  3222                           fsr2l	equ	0xFD9
  3223                           status	equ	0xFD8


Data Sizes:
    Strings     0
    Constant    0
    Data        0
    BSS         23
    Persistent  0
    Stack       0

Auto Spaces:
    Space          Size  Autos    Used
    COMRAM           95     63      86
    BANK0           160      0       0
    BANK1           256      0       0
    BANK2           256      0       0
    BANK3           256      0       0
    BANK4           256      0       0
    BANK5           256      0       0
    BANK6           256      0       0
    BANK7           256      0       0

Pointer List with Targets:

    atoi@s	PTR const unsigned char  size(2) Largest target is 3
		 -> Serial_DecodificacionY@coordenadaY(COMRAM[3]), Serial_DecodificacionX@coordenadaX(COMRAM[3]), 

    Serial_DecodificacionY@pointerCY	PTR int  size(2) Largest target is 2
		 -> CY(COMRAM[2]), 

    Serial_DecodificacionY@string_coordenada	PTR unsigned char  size(2) Largest target is 7
		 -> coordenada_array(COMRAM[7]), 

    Serial_DecodificacionX@pointerCX	PTR int  size(2) Largest target is 2
		 -> CX(COMRAM[2]), 

    Serial_DecodificacionX@string_coordenada	PTR unsigned char  size(2) Largest target is 7
		 -> coordenada_array(COMRAM[7]), 

    USART_RxS@pointer	PTR unsigned char  size(2) Largest target is 7
		 -> coordenada_array(COMRAM[7]), 


Critical Paths under _main in COMRAM

    _main->_Motor_Movimiento
    _USART_Init->___aldiv
    _Serial_DecodificacionY->_atoi
    _Serial_DecodificacionX->_atoi
    _atoi->_isspace
    _Motor_Movimiento->_Motor_Conversion
    _PWM_GeneratePulsos->_PWM_OneshotX
    _PWM_GeneratePulsos->_PWM_OneshotY
    _Motor_Conversion->___fltol
    ___fltol->___fldiv
    ___fldiv->___xxtofl

Critical Paths under _main in BANK0

    None.

Critical Paths under _main in BANK1

    None.

Critical Paths under _main in BANK2

    None.

Critical Paths under _main in BANK3

    None.

Critical Paths under _main in BANK4

    None.

Critical Paths under _main in BANK5

    None.

Critical Paths under _main in BANK6

    None.

Critical Paths under _main in BANK7

    None.

Call Graph Tables:

 ---------------------------------------------------------------------------------
 (Depth) Function   	        Calls       Base Space   Used Autos Params    Refs
 ---------------------------------------------------------------------------------
 (0) _main                                                 3     3      0    7413
                                             60 COMRAM     3     3      0
                   _Motor_Movimiento
             _Serial_DecodificacionX
             _Serial_DecodificacionY
                         _USART_Init
                           _USART_Rx
                          _USART_RxS
 ---------------------------------------------------------------------------------
 (1) _USART_RxS                                            8     6      2     242
                                              0 COMRAM     8     6      2
 ---------------------------------------------------------------------------------
 (1) _USART_Rx                                             0     0      0       0
 ---------------------------------------------------------------------------------
 (1) _USART_Init                                           8     4      4     725
                                             14 COMRAM     8     4      4
                            ___aldiv
 ---------------------------------------------------------------------------------
 (2) ___aldiv                                             14     6      8     604
                                              0 COMRAM    14     6      8
 ---------------------------------------------------------------------------------
 (1) _Serial_DecodificacionY                              11     7      4    1643
                                             22 COMRAM    11     7      4
                               _atoi
 ---------------------------------------------------------------------------------
 (1) _Serial_DecodificacionX                               9     5      4    1643
                                             22 COMRAM     9     5      4
                               _atoi
 ---------------------------------------------------------------------------------
 (2) _atoi                                                15    13      2    1152
                                              7 COMRAM    15    13      2
                             ___wmul
                            _isdigit
                            _isspace
 ---------------------------------------------------------------------------------
 (3) _isspace                                              7     5      2     207
                                              0 COMRAM     7     5      2
 ---------------------------------------------------------------------------------
 (3) _isdigit                                              6     4      2     161
                                              0 COMRAM     6     4      2
 ---------------------------------------------------------------------------------
 (3) ___wmul                                               6     2      4     311
                                              0 COMRAM     6     2      4
 ---------------------------------------------------------------------------------
 (1) _Motor_Movimiento                                     5     1      4    3115
                                             55 COMRAM     5     1      4
                   _Motor_Conversion
                 _PWM_GeneratePulsos
 ---------------------------------------------------------------------------------
 (2) _PWM_GeneratePulsos                                  10     6      4     598
                                              2 COMRAM    10     6      4
                          _PWM_InitF
                          _PWM_InitS
                       _PWM_OneshotX
                       _PWM_OneshotY
 ---------------------------------------------------------------------------------
 (3) _PWM_OneshotY                                         2     0      2      99
                                              0 COMRAM     2     0      2
 ---------------------------------------------------------------------------------
 (3) _PWM_OneshotX                                         2     0      2      99
                                              0 COMRAM     2     0      2
 ---------------------------------------------------------------------------------
 (3) _PWM_InitS                                            0     0      0       0
 ---------------------------------------------------------------------------------
 (3) _PWM_InitF                                            0     0      0       0
 ---------------------------------------------------------------------------------
 (2) _Motor_Conversion                                     6     4      2    2299
                                             49 COMRAM     6     4      2
                            ___fldiv
                            ___fltol
                           ___xxtofl
 ---------------------------------------------------------------------------------
 (3) ___xxtofl                                            14    10      4     398
                                              0 COMRAM    14    10      4
 ---------------------------------------------------------------------------------
 (3) ___fltol                                             10     6      4     305
                                             39 COMRAM    10     6      4
                            ___fldiv (ARG)
                           ___xxtofl (ARG)
 ---------------------------------------------------------------------------------
 (3) ___fldiv                                             25    17      8    1399
                                             14 COMRAM    25    17      8
                           ___xxtofl (ARG)
 ---------------------------------------------------------------------------------
 Estimated maximum stack depth 3
 ---------------------------------------------------------------------------------

 Call Graph Graphs:

 _main (ROOT)
   _Motor_Movimiento
     _Motor_Conversion
       ___fldiv
         ___xxtofl (ARG)
       ___fltol
         ___fldiv (ARG)
           ___xxtofl (ARG)
         ___xxtofl (ARG)
       ___xxtofl
     _PWM_GeneratePulsos
       _PWM_InitF
       _PWM_InitS
       _PWM_OneshotX
       _PWM_OneshotY
   _Serial_DecodificacionX
     _atoi
       ___wmul
       _isdigit
       _isspace
   _Serial_DecodificacionY
     _atoi
       ___wmul
       _isdigit
       _isspace
   _USART_Init
     ___aldiv
   _USART_Rx
   _USART_RxS

 Address spaces:
Name               Size   Autos  Total    Cost      Usage
BIGRAM             7FF      0       0      21        0.0%
EEDATA             100      0       0       0        0.0%
BITBANK7           100      0       0      18        0.0%
BANK7              100      0       0      19        0.0%
BITBANK6           100      0       0      16        0.0%
BANK6              100      0       0      17        0.0%
BITBANK5           100      0       0      14        0.0%
BANK5              100      0       0      15        0.0%
BITBANK4           100      0       0      12        0.0%
BANK4              100      0       0      13        0.0%
BITBANK3           100      0       0      10        0.0%
BANK3              100      0       0      11        0.0%
BITBANK2           100      0       0       8        0.0%
BANK2              100      0       0       9        0.0%
BITBANK1           100      0       0       6        0.0%
BANK1              100      0       0       7        0.0%
BITBANK0            A0      0       0       4        0.0%
BANK0               A0      0       0       5        0.0%
BITCOMRAM           5F      0       0       0        0.0%
COMRAM              5F     3F      56       1       90.5%
BITSFR               0      0       0     200        0.0%
SFR                  0      0       0     200        0.0%
STACK                0      0       0       2        0.0%
NULL                 0      0       0       0        0.0%
ABS                  0      0      56      20        0.0%
DATA                 0      0      56       3        0.0%
CODE                 0      0       0       0        0.0%


Microchip Technology PIC18 Macro Assembler V2.10 build 88905656 
Symbol Table                                                                                   Fri Nov 22 13:04:52 2019

              PWM_GeneratePulsos@Oupcode 0008                             ___fldiv@aexp 0027  
                           ___fldiv@bexp 0026                             ___fldiv@sign 001F  
                                     l21 74F8                                       l30 712A  
                                     l33 713A                                       l52 72FC  
                                     l56 7342                                       _CX 0055  
                                     _CY 0053                    __size_of_PWM_OneshotX 0030  
                  __size_of_PWM_OneshotY 0030                      ___wmul@multiplicand 0003  
                                    l111 73A4                                      l201 7484  
                                    l204 729A                                      l116 7412  
                                    l161 78D6                                      l171 719A  
                                    l157 7888                                      l174 7174  
                                    l182 7220                                      l168 7926  
                                    l178 71F0                                      l366 7800  
                                    l287 71C0                                      l584 76F4  
                                    l942 7B08                                      l871 7E5E  
                                    l880 7EA4                                      l945 7C64  
                                    l882 7F1C                                      l874 7E22  
                                    l883 7F0A                                      l956 7BFC  
                                    l869 7FFE                                      l949 7BA0  
                                    l992 7258                                      l986 7AA8  
                                    l989 7AB0                             __CFG_CPB$OFF 000000  
                                    _PR2 000FCB                             __CFG_CPD$OFF 000000  
                                    u700 7138                                      u701 7134  
                                    u800 71E0                                      u801 71DC  
                                    u810 7200                                      u811 71FC  
                                    u900 7D88                                      u820 7210  
                                    u901 7D84                                      u821 720C  
                                    u910 7DFE                                      u830 7C80  
                                    u911 7DFA                                      u831 7C7C  
                                    u920 7E20                                      u840 7C92  
                                    u921 7E1C                                      u841 7C8E  
                                    u930 7E4A                                      u850 7CA2  
                                    u931 7E46                                      u851 7C9E  
                                    u940 7E6E                                      u860 7CE6  
                                    u941 7E6A                                      u861 7CE2  
                                    u950 7E84                                      u870 7CF8  
                                    u790 71D0                                      u951 7E80  
                                    u871 7CF4                                      u791 71CC  
                                    u960 7EA2                                      u880 7D08  
                                    u961 7E9E                                      u881 7D04  
                                    u970 7EC2                                      u890 7D48  
                                    u971 7EBE                                      u891 7D44  
                                    u980 7ED4                                      u981 7ED0  
                                    u990 7F02                                      u991 7EFE  
                            main@Oupcode 003F                                      wreg 000FE8  
              PWM_GeneratePulsos@pulsosX 0003                PWM_GeneratePulsos@pulsosY 0005  
                           __CFG_LVP$OFF 000000                             ___fltol@exp1 0031  
                           __CFG_WDT$OFF 000000                                     l1000 72EC  
                                   l1011 715E                                     l1021 7176  
                                   l1013 7160                                     l1005 7152  
                                   l1031 7196                                     l1023 7182  
                                   l1015 716E                                     l1007 7154  
                                   l1033 7198                                     l1025 7184  
                                   l1017 7170                                     l1009 715C  
                                   l2001 776C                                     l1027 7186  
                                   l1019 7172                                     l2011 77BE  
                                   l2003 7778                                     l1029 7194  
                                   l2021 77F0                                     l2013 77C0  
                                   l2005 7786                                     l2101 7576  
                                   l2015 77CA                                     l2007 7790  
                                   l2031 748E                                     l2103 758A  
                                   l2009 77AE                                     l2017 77D0  
                                   l2041 74F0                                     l2033 74C2  
                                   l2025 7486                                     l2121 75B6  
                                   l2123 79DE                                     l2019 77E0  
                                   l2043 74F2                                     l2035 74EA  
                                   l2027 748A                                     l2051 730A  
                                   l2107 75A2                                     l2045 74F4  
                                   l2037 74EC                                     l2029 748C  
                                   l2053 731A                                     l2063 734C  
                                   l2071 73A6                                     l2047 74F6  
                                   l2039 74EE                                     l2055 731E  
                                   l2065 7368                                     l2057 7344  
                                   l2081 73DA                                     l2049 72F0  
                                   l2067 736C                                     l2083 73F6  
                                   l2091 7518                                     l1701 7D88  
                                   l1621 71E0                                     l2085 725C  
                                   l2069 7388                                     l2077 73AE  
                                   l2093 7526                                     l1711 7DD6  
                                   l1623 71E4                                     l1631 7200  
                                   l2079 73D6                                     l1471 712A  
                                   l2095 753A                                     l2087 74FA  
                                   l1721 7E20                                     l1713 7DE6  
                                   l1705 7D9C                                     l1801 7668  
                                   l1625 71E8                                     l1617 71C2  
                                   l1633 7210                                     l1641 719C  
                                   l1473 7138                                     l2097 754E  
                                   l2089 750E                                     l1731 7E6E  
                                   l1723 7E2C                                     l1715 7DEE  
                                   l1707 7DB6                                     l1651 7C80  
                                   l1811 7694                                     l1619 71D0  
                                   l1635 7214                                     l1643 71B8  
                                   l2099 7568                                     l1733 7E84  
                                   l1741 7EB4                                     l1725 7E4A  
                                   l1717 7DFE                                     l1709 7DC6  
                                   l1661 7CB4                                     l1653 7C82  
                                   l1821 76C4                                     l1637 7218  
                                   l1629 71F2                                     l1901 7992  
                                   l1743 7EC2                                     l1735 7E8A  
                                   l1727 7E4C                                     l1719 7E12  
                                   l1671 7CE6                                     l1655 7C92  
                                   l1663 7CBC                                     l1647 7C66  
                                   l1823 76D4                                     l1807 7680  
                                   l1831 7AC4                                     l1911 79BA  
                                   l1903 7996                                     l1753 7F2C  
                                   l1761 7F74                                     l1745 7EC6  
                                   l1737 7E94                                     l1729 7E5C  
                                   l1681 7D1A                                     l1673 7CE8  
                                   l1665 7CCC                                     l1657 7CA2  
                                   l1649 7C72                                     l1825 76E4  
                                   l1817 76A8                                     l1809 768A  
                                   l1841 7B42                                     l1833 7AD2  
                                   l1913 79C2                                     l1771 7FDE  
                                   l1763 7F8E                                     l1755 7F38  
                                   l1747 7ED4                                     l1739 7EA2  
                                   l1691 7D60                                     l1675 7CF8  
                                   l1683 7D22                                     l1667 7CD2  
                                   l1659 7CB2                                     l1819 76B4  
                                   l1851 7B96                                     l1843 7B4A  
                                   l1835 7B18                                     l1923 7A68  
                                   l1915 79F4                                     l1907 799C  
                                   l1773 7FEC                                     l1765 7FA4  
                                   l1757 7F46                                     l1749 7F02  
                                   l1693 7D64                                     l1685 7D32  
                                   l1677 7D08                                     l1669 7CD8  
                                   l1861 7C0C                                     l1853 7BD2  
                                   l1845 7B56                                     l1837 7B2E  
                                   l1829 7AB4                                     l1941 7824  
                                   l1933 7804                                     l1925 7A7A  
                                   l1909 79B2                                     l1775 7FF2  
                                   l1767 7FBE                                     l1759 7F70  
                                   l1687 7D48                                     l1679 7D18  
                                   l1791 761A                                     l1871 7C54  
                                   l1863 7C10                                     l1855 7BDE  
                                   l1847 7B88                                     l1951 785A  
                                   l1943 7826                                     l1935 7816  
                                   l1927 7A8C                                     l1919 7A2C  
                                   l1777 7FF4                                     l1769 7FDA  
                                   l1689 7D58                                     l1697 7D78  
                                   l1793 7644                                     l1785 75F0  
                                   l1865 7C34                                     l1857 7BEC  
                                   l1849 7B8A                                     l1961 78B6  
                                   l1953 7868                                     l1945 7828  
                                   l1937 781E                                     l1881 72E2  
                                   l1699 7D88                                     l1795 7646  
                                   l1787 7606                                     l1867 7C44  
                                   l1859 7C0A                                     l1971 7924  
                                   l1963 78CE                                     l1955 7880  
                                   l1947 7830                                     l1939 7822  
                                   l1883 72E6                                     l1875 729C  
                                   l1891 7928                                     l1797 7656  
                                   l1869 7C52                                     l1973 7414  
                                   l1957 788A                                     l1949 783C  
                                   l1965 78D8                                     l1877 72A0  
                                   l1893 793C                                     l1981 76F6  
                                   l1799 765A                                     l1975 7424  
                                   l1967 78F6                                     l1959 78A8  
                                   l1887 7222                                     l1879 72B4  
                                   l1895 7940                                     l1991 772A  
                                   l1983 76FA                                     l1977 747C  
                                   l1969 7914                                     l1897 7944  
                                   l1993 773A                                     l1985 7708  
                                   l1899 795E                                     l1995 773E  
                                   l1987 7718                                     l1997 774E  
                                   l1989 771C                                     l1999 7764  
                                   u1000 7F18                                     u1001 7F14  
                                   u1010 7F2C                                     u1011 7F28  
                                   u1020 7F46                                     u1100 76A4  
                                   u1021 7F42                                     u1101 76A0  
                                   u1030 7F8E                                     u1110 76C4  
                                   u1031 7F8A                                     u1111 76C0  
                                   u1040 7FBE                                     u1120 76D4  
                                   u1200 7C0A                                     u1041 7FBA  
                                   u1121 76D0                                     u1201 7C06  
                                   u1050 7FEC                                     u1210 7C44  
                                   u1130 7AC4                                     u1051 7FE8  
                                   u1211 7C40                                     u1131 7AC0  
                                   u1060 7606                                     u1220 7C52  
                                   u1140 7AD2                                     u1300 7A62  
                                   u1061 7602                                     u1221 7C4E  
                                   u1141 7ACE                                     u1301 7A5C  
                                   u1070 763A                                     u1150 7B2E  
                                   u1230 72B4                                     u1310 7A64  
                                   u1151 7B2A                                     u1231 72B0  
                                   u1080 7668                                     u1160 7B84  
                                   u1400 7914                                     u1240 72E2  
                                   u1320 7A7A                                     u1081 7664  
                                   u1161 7B80                                     u1401 7910  
                                   u1241 72DE                                     u1321 7A76  
                                   u1090 767C                                     u1170 7BCE  
                                   u1250 7252                                     u1330 7A8C  
                                   u1410 7708                                     u1091 7678  
                                   u1075 7630                                     u1171 7BCA  
                                   u1251 724C                                     u1331 7A88  
                                   u1411 7704                                     u1180 7BEC  
                                   u1340 7816                                     u1260 7254  
                                   u1500 73F6                                     u1420 772A  
                                   u1181 7BE8                                     u1341 7812  
                                   u1501 73F2                                     u1421 7726  
                                   u1190 7BFC                                     u1350 785A  
                                   u1270 795E                                     u1430 7764  
                                   _LATB 000F8A                                     u1191 7BF8  
                                   u1351 7856                                     u1271 795A  
                                   u1431 7760                                     _LATC 000F8B  
                                   u1360 7868                                     u1280 7992  
                                   u1440 7786                                     _LATD 000F8C  
                                   u1361 7864                                     u1281 798E  
                                   u1441 7782                                     u1370 78A8  
                                   u1290 79AE                                     u1450 77AE  
                                   u1371 78A4                                     u1291 79AA  
                                   u1451 77AA                                     u1380 78B6  
                                   u1460 77E0                                     u1381 78B2  
                                   u1461 77DC                                     u1390 78F6  
                                   u1470 730A                                     u1391 78F2  
                                   u1471 7306                                     u1480 7342  
                                   u1481 733E                                     u1490 7388  
                                   u1491 7384                                     _RCIF 007CF5  
                                   _atoi 7928                                     _main 74FA  
                                   fsr2h 000FDA                                     indf1 000FE7  
                                   indf2 000FDF                                     fsr1l 000FE1  
                                   fsr2l 000FD9                                     prodh 000FF4  
                                   prodl 000FF3                                     start 0000  
                        ___fldiv@new_exp 0020                             _PWM_OneshotX 71C2  
                           _PWM_OneshotY 71F2                            __CFG_MCLRE$ON 000000  
                           ___param_bank 000000                            ___fltol@sign1 0030  
                        __end_of___aldiv 7802                                    ?_atoi 0008  
                                  ?_main 0001                          __end_of___fldiv 8000  
                        __end_of___fltol 76F6                                    _T2CON 000FCA  
                                  _RCREG 000FAE                                    _SPBRG 000FAF  
                                  _PORTB 000F81                                    _PORTC 000F82  
                                  _PORTD 000F83                                    _TXREG 000FAD  
                         __CFG_FCMEN$OFF 000000                          __end_of_isdigit 725A  
                                  atoi@n 0015                                    atoi@s 0008  
                       __end_of_USART_Rx 713C                          __end_of_isspace 72EE  
                     __size_of_USART_RxS 0056                                    status 000FD8  
                     __size_of_PWM_InitF 0026                       __size_of_PWM_InitS 0024  
               __end_of_Motor_Conversion 7486                              ?_USART_Init 000F  
                        __initialization 713C               __end_of_PWM_GeneratePulsos 7928  
      Serial_DecodificacionX@coordenadaX 001B                             __end_of_atoi 7AB2  
                           __end_of_main 75F0                                   ??_atoi 000A  
                                 ??_main 003D                            __activetblptr 000002  
                                 _ADCON0 000FC2                                   _ADCON1 000FC1  
                                 _CCPR1L 000FBE                                   _CCPR2L 000FBB  
                                 _OSCCON 000FD3                         __end_of___xxtofl 7C66  
      Serial_DecodificacionY@coordenadaY 001D                                ??___aldiv 0009  
                                 ___wmul 719C                                ??___fldiv 0017  
                              ??___fltol 002C                                   clear_0 7142  
               __end_of_Motor_Movimiento 729C                                   _pasosX 0042  
                                 _pasosY 0040                         _coordenada_array 004C  
                      __end_of_USART_RxS 7344                        __end_of_PWM_InitF 719C  
                      __end_of_PWM_InitS 7176                                ??_isdigit 0003  
                              ??_isspace 0003                                   tblptru 000FF8  
                    __size_of_USART_Init 0074                             ___xxtofl@arg 000B  
                           ___xxtofl@exp 000A                             ___xxtofl@val 0001  
                             __accesstop 0060                  __end_of__initialization 7148  
             Motor_Conversion@conversion 0034                            ___rparam_used 000001  
                Serial_DecodificacionX@i 001E                  Serial_DecodificacionY@i 0020  
                             ___fltol@f1 0028                           __pcstackCOMRAM 0001  
                              ?_USART_Rx 0001          Serial_DecodificacionX@pointerCX 0019  
        Serial_DecodificacionY@pointerCY 0019              Motor_Movimiento@CoordenadaX 0038  
            Motor_Movimiento@CoordenadaY 003A                                  ?___wmul 0001  
                                _CCP1CON 000FBD                                  _CCP2CON 000FBA  
                             ??_USART_Rx 0001                                ?___xxtofl 0001  
                           ??_USART_Init 0013                        ?_Motor_Conversion 0032  
                                __Hparam 0000                                  __Lparam 0000  
                     ??_Motor_Conversion 0034                                  ___aldiv 76F6  
                                ___fldiv 7C66                                  ___fltol 75F0  
                        __size_of___wmul 0026                           USART_Init@BAUD 000F  
                                __pcinit 713C                                  __ramtop 0800  
                                __ptext0 74FA                                  __ptext1 72EE  
                                __ptext2 712A                                  __ptext3 7486  
                                __ptext4 76F6                                  __ptext5 73A6  
                                __ptext6 7344                                  __ptext7 7928  
                                __ptext8 729C                                  __ptext9 7222  
                              _T2CONbits 000FCA                       _PWM_GeneratePulsos 7802  
                                _isdigit 7222                               ??___xxtofl 0005  
                       ___aldiv@dividend 0001                                  _isspace 729C  
                                atoi@neg 000E                       __end_of_USART_Init 74FA  
                                _pulsosX 0048                                  _pulsosY 0046  
               ??_Serial_DecodificacionX 001B                 ??_Serial_DecodificacionY 001B  
                    ?_PWM_GeneratePulsos 0003                     end_of_initialization 7148  
                          __Lmediumconst 0000                        _pasos_convertidos 0044  
                              _RCSTAbits 000FAB                         ___aldiv@quotient 000B  
                                postdec2 000FDD                                  postinc0 000FEE  
                                postinc2 000FDE                     ??_PWM_GeneratePulsos 0007  
                Motor_Movimiento@Oupcode 003C                        ?_Motor_Movimiento 0038  
                              _PORTCbits 000F82                       ??_Motor_Movimiento 003C  
                          ___xxtofl@sign 0009                                _TRISAbits 000F92  
                              _USART_RxS 72EE                                _TRISBbits 000F93  
                              _TRISCbits 000F94                                _TRISDbits 000F95  
                            ___fldiv@grs 0022                              ___fldiv@rem 001B  
                              _PWM_InitF 7176                                _PWM_InitS 7152  
                              _TXSTAbits 000FAC                           __end_of___wmul 71C2  
                      __size_of_USART_Rx 0012                      start_initialization 713C  
                             ?_USART_RxS 0001                               ?_PWM_InitF 0001  
                             ?_PWM_InitS 0001          __size_of_Serial_DecodificacionX 0062  
        __size_of_Serial_DecodificacionY 006E  Serial_DecodificacionX@string_coordenada 0017  
                          ?_PWM_OneshotX 0001                            ?_PWM_OneshotY 0001  
                               ??___wmul 0005                                ___fldiv@a 0013  
                              ___fldiv@b 000F                              __pbssCOMRAM 0040  
                      __size_of___xxtofl 01B4                       PWM_OneshotX@pasosX 0001  
                     PWM_OneshotY@pasosY 0001                                _atoi$1266 0010  
                              _atoi$1267 0014                                _atoi$1268 0012  
                         ??_PWM_OneshotX 0003                           ??_PWM_OneshotY 0003  
                               ?___aldiv 0001                                 ?___fldiv 000F  
                 _Serial_DecodificacionX 7344                   _Serial_DecodificacionY 73A6  
                               ?___fltol 0028                __size_of_Motor_Conversion 0072  
                               ?_isdigit 0001                                 ?_isspace 0001  
                            ??_USART_RxS 0003                              ??_PWM_InitF 0001  
                            ??_PWM_InitS 0001                          ___aldiv@divisor 0005  
                        ___aldiv@counter 0009                 PWM_GeneratePulsos@pasosX 0009  
               PWM_GeneratePulsos@pasosY 000B                           ___wmul@product 0005  
                               _PIR1bits 000F9E                                 _USART_Rx 712A  
                             _ADCON0bits 000FC2                               _ADCON1bits 000FC1  
                             _ADCON2bits 000FC0                        ___wmul@multiplier 0001  
                           _isspace$1284 0007                               USART_RxS@i 0007  
              __size_of_Motor_Movimiento 0042                         USART_RxS@pointer 0001  
                               __Hrparam 0000                                 __Lrparam 0000  
            __size_of_PWM_GeneratePulsos 0126                         __size_of___aldiv 010C  
                       __size_of___fldiv 039A                         __size_of___fltol 0106  
                  __CFG_FOSC$INTOSCIO_EC 000000                     __end_of_PWM_OneshotX 71F2  
                   __end_of_PWM_OneshotY 7222                                 ___xxtofl 7AB2  
                       __size_of_isdigit 0038                         __size_of_isspace 0052  
                               __ptext10 719C                                 __ptext11 725A  
                               __ptext20 7C66                                 __ptext12 7802  
                               __ptext13 71F2                                 __ptext14 71C2  
                               __ptext15 7152                                 __ptext16 7176  
                               __ptext17 7414                                 __ptext18 7AB2  
                               __ptext19 75F0                            __size_of_atoi 018A  
                          __size_of_main 00F6                          _USART_Init$1493 0013  
                               _oneshotX 004B                                 _oneshotY 004A  
                        USART_RxS@lenght 0006                         _Motor_Conversion 7414  
                               isdigit@c 0001  Serial_DecodificacionY@string_coordenada 0017  
                               isspace@c 0001                  ?_Serial_DecodificacionX 0017  
                ?_Serial_DecodificacionY 0017                             ___aldiv@sign 000A  
             Motor_Conversion@Coordenada 0032                         _Motor_Movimiento 725A  
         __end_of_Serial_DecodificacionX 73A6           __end_of_Serial_DecodificacionY 7414  
                             _USART_Init 7486  
