

Microchip MPLAB XC8 Assembler V2.10 build 88905656 
                                                                                               Wed Nov 27 21:54:24 2019

Microchip MPLAB XC8 C Compiler v2.10 (Free license) build 20190730164152 Og1 
     1                           	processor	18F4550
     2                           	fnconf	rparam,??,?,0
     3                           	opt	pw 120
     4                           	opt	flic
     5                           	psect	mediumconst,global,reloc=2,class=MEDIUMCONST,delta=1,noexec
     6                           	psect	cinit,global,reloc=2,class=CODE,delta=1
     7                           	psect	bssCOMRAM,global,class=COMRAM,space=1,delta=1,noexec
     8                           	psect	bssBANK0,global,class=BANK0,space=1,delta=1,lowdata,noexec
     9                           	psect	cstackCOMRAM,global,class=COMRAM,space=1,delta=1,noexec
    10                           	psect	text0,global,reloc=2,class=CODE,delta=1
    11                           	psect	text1,global,reloc=2,class=CODE,delta=1
    12                           	psect	text2,global,reloc=2,class=CODE,delta=1
    13                           	psect	text3,global,reloc=2,class=CODE,delta=1
    14                           	psect	text4,global,reloc=2,class=CODE,delta=1,group=1
    15                           	psect	text5,global,reloc=2,class=CODE,delta=1
    16                           	psect	text6,global,reloc=2,class=CODE,delta=1
    17                           	psect	text7,global,reloc=2,class=CODE,delta=1
    18                           	psect	text8,global,reloc=2,class=CODE,delta=1
    19                           	psect	text9,global,reloc=2,class=CODE,delta=1
    20                           	psect	text10,global,reloc=2,class=CODE,delta=1
    21                           	psect	text11,global,reloc=2,class=CODE,delta=1
    22                           	psect	text12,global,reloc=2,class=CODE,delta=1,group=2
    23                           	psect	text13,global,reloc=2,class=CODE,delta=1,group=2
    24                           	psect	text14,global,reloc=2,class=CODE,delta=1,group=2
    25                           	psect	text15,global,reloc=2,class=CODE,delta=1,group=1
    26                           	psect	text16,global,reloc=2,class=CODE,delta=1
    27                           	psect	text17,global,reloc=2,class=CODE,delta=1
    28                           	psect	text18,global,reloc=2,class=CODE,delta=1
    29                           	psect	text19,global,reloc=2,class=CODE,delta=1
    30                           	psect	text20,global,reloc=2,class=CODE,delta=1
    31                           	psect	text21,global,reloc=2,class=CODE,delta=1
    32                           	psect	text22,global,reloc=2,class=CODE,delta=1
    33                           	psect	text23,global,reloc=2,class=CODE,delta=1
    34                           	psect	text24,global,reloc=2,class=CODE,delta=1,group=1
    35                           	psect	text25,global,reloc=2,class=CODE,delta=1,group=1
    36                           	psect	text26,global,reloc=2,class=CODE,delta=1,group=1
    37                           	psect	text27,global,reloc=2,class=CODE,delta=1
    38                           	psect	text28,global,reloc=2,class=CODE,delta=1
    39                           	psect	text29,global,reloc=2,class=CODE,delta=1
    40                           	psect	text30,global,reloc=2,class=CODE,delta=1
    41                           	psect	text31,global,reloc=2,class=CODE,delta=1
    42                           	psect	text32,global,reloc=2,class=CODE,delta=1
    43                           	psect	intcode,global,reloc=2,class=CODE,delta=1
    44                           	psect	intcode_body,global,reloc=2,class=CODE,delta=1
    45                           	psect	text34,global,reloc=2,class=CODE,delta=1
    46                           	psect	intsave_regs,global,class=BIGRAM,space=1,delta=1,noexec
    47                           	psect	rparam,global,class=COMRAM,space=1,delta=1,noexec
    48                           	psect	temp,global,ovrld,common,class=COMRAM,space=1,delta=1
    49  0000                     
    50                           ; Version 2.10
    51                           ; Generated 31/07/2019 GMT
    52                           ; 
    53                           ; Copyright © 2019, Microchip Technology Inc. and its subsidiaries ("Microchip")
    54                           ; All rights reserved.
    55                           ; 
    56                           ; This software is developed by Microchip Technology Inc. and its subsidiaries ("Microch
      +                          ip").
    57                           ; 
    58                           ; Redistribution and use in source and binary forms, with or without modification, are
    59                           ; permitted provided that the following conditions are met:
    60                           ; 
    61                           ;     1. Redistributions of source code must retain the above copyright notice, this lis
      +                          t of
    62                           ;        conditions and the following disclaimer.
    63                           ; 
    64                           ;     2. Redistributions in binary form must reproduce the above copyright notice, this 
      +                          list
    65                           ;        of conditions and the following disclaimer in the documentation and/or other
    66                           ;        materials provided with the distribution.
    67                           ; 
    68                           ;     3. Microchip's name may not be used to endorse or promote products derived from th
      +                          is
    69                           ;        software without specific prior written permission.
    70                           ; 
    71                           ; THIS SOFTWARE IS PROVIDED BY MICROCHIP "AS IS" AND ANY EXPRESS OR IMPLIED WARRANTIES,
    72                           ; INCLUDING, BUT NOT LIMITED TO, THE IMPLIED WARRANTIES OF MERCHANTABILITY AND FITNESS F
      +                          OR
    73                           ; PURPOSE ARE DISCLAIMED.  IN NO EVENT SHALL MICROCHIP BE LIABLE FOR ANY DIRECT, INDIREC
      +                          T,
    74                           ; INCIDENTAL, SPECIAL, EXEMPLARY, OR CONSEQUENTIAL DAMAGES (INCLUDING BUT NOT LIMITED TO
    75                           ; PROCUREMENT OF SUBSTITUTE GOODS OR SERVICES; LOSS OF USE, DATA OR PROFITS; OR BUSINESS
    76                           ; INTERRUPTION) HOWSOEVER CAUSED AND ON ANY THEORY OF LIABILITY, WHETHER IN CONTRACT, ST
      +                          RICT
    77                           ; LIABILITY, OR TORT (INCLUDING NEGLIGENCE OR OTHERWISE) ARISING IN ANY WAY OUT OF THE U
      +                          SE OF
    78                           ; THIS SOFTWARE, EVEN IF ADVISED OF THE POSSIBILITY OF SUCH DAMAGE.
    79                           ; 
    80                           ; 
    81                           ; Code-generator required, PIC18F4550 Definitions
    82                           ; 
    83                           ; SFR Addresses
    84  0000                     
    85                           	psect	mediumconst
    86  007CA4                     __pmediumconst:
    87                           	opt callstack 0
    88  007CA4  00                 	db	0
    89  007CA5                     _dp_l:
    90                           	opt callstack 0
    91  007CA5  0000               	dw	0
    92  007CA7  0000               	dw	0
    93  007CA9  CFDC               	dw	53212
    94  007CAB  35D1               	dw	13777
    95  007CAD                     __end_of_dp_l:
    96                           	opt callstack 0
    97  007CAD                     _dp_h:
    98                           	opt callstack 0
    99  007CAD  0000               	dw	0
   100  007CAF  0000               	dw	0
   101  007CB1  C000               	dw	49152
   102  007CB3  3F15               	dw	16149
   103  007CB5                     __end_of_dp_h:
   104                           	opt callstack 0
   105  007CB5  4260               	dw	16992
   106  007CB7  0DA2               	dw	3490
   107  007CB9                     __end_ofsqrtf@tiny:
   108                           	opt callstack 0
   109  007CB9  A570               	dw	42352
   110  007CBB  36EC               	dw	14060
   111  007CBD                     __end_of_ivln2_l:
   112                           	opt callstack 0
   113  007CBD  AA3B               	dw	43579
   114  007CBF  3FB8               	dw	16312
   115  007CC1                     __end_of_ivln2:
   116                           	opt callstack 0
   117  007CC1  384F               	dw	14415
   118  007CC3  3F76               	dw	16246
   119  007CC5                     __end_of_cp:
   120                           	opt callstack 0
   121  007CC5  AA3C               	dw	43580
   122  007CC7  3338               	dw	13112
   123  007CC9                     __end_of_ovt:
   124                           	opt callstack 0
   125  007CC9  BE8C               	dw	48780
   126  007CCB  35BF               	dw	13759
   127  007CCD                     __end_of_lg2_l:
   128                           	opt callstack 0
   129  007CCD  7200               	dw	29184
   130  007CCF  3F31               	dw	16177
   131  007CD1                     __end_of_lg2_h:
   132                           	opt callstack 0
   133  007CD1  7218               	dw	29208
   134  007CD3  3F31               	dw	16177
   135  007CD5                     __end_of_lg2:
   136                           	opt callstack 0
   137  007CD5  BB4C               	dw	47948
   138  007CD7  3331               	dw	13105
   139  007CD9                     __end_of_P5:
   140                           	opt callstack 0
   141  007CD9  EA0E               	dw	59918
   142  007CDB  B5DD               	dw	46557
   143  007CDD                     __end_of_P4:
   144                           	opt callstack 0
   145  007CDD  B355               	dw	45909
   146  007CDF  388A               	dw	14474
   147  007CE1                     __end_of_P3:
   148                           	opt callstack 0
   149  007CE1  0B61               	dw	2913
   150  007CE3  BB36               	dw	47926
   151  007CE5                     __end_of_P2:
   152                           	opt callstack 0
   153  007CE5  AAAB               	dw	43691
   154  007CE7  3E2A               	dw	15914
   155  007CE9                     __end_of_P1:
   156                           	opt callstack 0
   157  007CE9  F142               	dw	61762
   158  007CEB  3E53               	dw	15955
   159  007CED                     __end_of_L6:
   160                           	opt callstack 0
   161  007CED  3255               	dw	12885
   162  007CEF  3E6C               	dw	15980
   163  007CF1                     __end_of_L5:
   164                           	opt callstack 0
   165  007CF1  A305               	dw	41733
   166  007CF3  3E8B               	dw	16011
   167  007CF5                     __end_of_L4:
   168                           	opt callstack 0
   169  007CF5  AAAB               	dw	43691
   170  007CF7  3EAA               	dw	16042
   171  007CF9                     __end_of_L3:
   172                           	opt callstack 0
   173  007CF9  6DB7               	dw	28087
   174  007CFB  3EDB               	dw	16091
   175  007CFD                     __end_of_L2:
   176                           	opt callstack 0
   177  007CFD  999A               	dw	39322
   178  007CFF  3F19               	dw	16153
   179  007D01                     __end_of_L1:
   180                           	opt callstack 0
   181  007D01  4260               	dw	16992
   182  007D03  0DA2               	dw	3490
   183  007D05                     __end_of_tiny:
   184                           	opt callstack 0
   185  007D05  F2CA               	dw	62154
   186  007D07  7149               	dw	29001
   187  007D09                     __end_of_huge:
   188                           	opt callstack 0
   189  007D09  0000               	dw	0
   190  007D0B  4B80               	dw	19328
   191  007D0D                     __end_of_two24:
   192                           	opt callstack 0
   193  007D0D                     _bp:
   194                           	opt callstack 0
   195  007D0D  0000               	dw	0
   196  007D0F  3F80               	dw	16256
   197  007D11  0000               	dw	0
   198  007D13  3FC0               	dw	16320
   199  007D15                     __end_of_bp:
   200                           	opt callstack 0
   201  007D15  AA00               	dw	43520
   202  007D17  3FB8               	dw	16312
   203  007D19                     __end_of_ivln2_h:
   204                           	opt callstack 0
   205  007D19  23C6               	dw	9158
   206  007D1B  B8F6               	dw	47350
   207  007D1D                     __end_of_cp_l:
   208                           	opt callstack 0
   209  007D1D  4000               	dw	16384
   210  007D1F  3F76               	dw	16246
   211  007D21                     __end_of_cp_h:
   212                           	opt callstack 0
   213  0000                     _PORTBbits	set	3969
   214  0000                     _INTCON2bits	set	4081
   215  0000                     _INTCON3bits	set	4080
   216  0000                     _RCONbits	set	4048
   217  0000                     _TRISD	set	3989
   218  0000                     _PIR2bits	set	4001
   219  0000                     _EECON2	set	4007
   220  0000                     _INTCONbits	set	4082
   221  0000                     _EEDATA	set	4008
   222  0000                     _EEADR	set	4009
   223  0000                     _EECON1bits	set	4006
   224  0000                     _LATCbits	set	3979
   225  0000                     _LATDbits	set	3980
   226  0000                     _OSCCON	set	4051
   227  0000                     _ADCON2bits	set	4032
   228  0000                     _ADCON1bits	set	4033
   229  0000                     _ADRESH	set	4036
   230  0000                     _ADRESL	set	4035
   231  0000                     _ADCON0bits	set	4034
   232  0000                     _TRISEbits	set	3990
   233  0000                     _LATE	set	3981
   234  0000                     _PORTE	set	3972
   235  0000                     _TRISDbits	set	3989
   236  0000                     _LATD	set	3980
   237  0000                     _PORTD	set	3971
   238  0000                     _LATC	set	3979
   239  0000                     _PORTC	set	3970
   240  0000                     _TRISBbits	set	3987
   241  0000                     _LATB	set	3978
   242  0000                     _PORTB	set	3969
   243  0000                     _TRISAbits	set	3986
   244  0000                     _CMCON	set	4020
   245  0000                     _ADCON1	set	4033
   246  0000                     _LATA	set	3977
   247  0000                     _PORTA	set	3968
   248  0000                     _RCREG	set	4014
   249  0000                     _TXREG	set	4013
   250  0000                     _PIR1bits	set	3998
   251  0000                     _RCSTAbits	set	4011
   252  0000                     _TXSTAbits	set	4012
   253  0000                     _SPBRG	set	4015
   254  0000                     _CCP2CON	set	4026
   255  0000                     _CCP1CON	set	4029
   256  0000                     _T2CON	set	4042
   257  0000                     _TRISCbits	set	3988
   258  0000                     _CCPR2L	set	4027
   259  0000                     _CCPR1L	set	4030
   260  0000                     _PR2	set	4043
   261  0000                     _PORTCbits	set	3970
   262  0000                     _T2CONbits	set	4042
   263  0000                     _PORTDbits	set	3971
   264  0000                     _RCIF	set	31989
   265  007D21                     STR_2:
   266  007D21  50                 	db	80	;'P'
   267  007D22  4C                 	db	76	;'L'
   268  007D23  45                 	db	69	;'E'
   269  007D24  41                 	db	65	;'A'
   270  007D25  53                 	db	83	;'S'
   271  007D26  45                 	db	69	;'E'
   272  007D27  20                 	db	32
   273  007D28  49                 	db	73	;'I'
   274  007D29  4E                 	db	78	;'N'
   275  007D2A  53                 	db	83	;'S'
   276  007D2B  45                 	db	69	;'E'
   277  007D2C  52                 	db	82	;'R'
   278  007D2D  54                 	db	84	;'T'
   279  007D2E  20                 	db	32
   280  007D2F  54                 	db	84	;'T'
   281  007D30  48                 	db	72	;'H'
   282  007D31  45                 	db	69	;'E'
   283  007D32  20                 	db	32
   284  007D33  49                 	db	73	;'I'
   285  007D34  4E                 	db	78	;'N'
   286  007D35  53                 	db	83	;'S'
   287  007D36  54                 	db	84	;'T'
   288  007D37  52                 	db	82	;'R'
   289  007D38  55                 	db	85	;'U'
   290  007D39  43                 	db	67	;'C'
   291  007D3A  54                 	db	84	;'T'
   292  007D3B  49                 	db	73	;'I'
   293  007D3C  4F                 	db	79	;'O'
   294  007D3D  4E                 	db	78	;'N'
   295  007D3E  20                 	db	32
   296  007D3F  4F                 	db	79	;'O'
   297  007D40  46                 	db	70	;'F'
   298  007D41  20                 	db	32
   299  007D42  53                 	db	83	;'S'
   300  007D43  45                 	db	69	;'E'
   301  007D44  54                 	db	84	;'T'
   302  007D45  50                 	db	80	;'P'
   303  007D46  4F                 	db	79	;'O'
   304  007D47  49                 	db	73	;'I'
   305  007D48  4E                 	db	78	;'N'
   306  007D49  54                 	db	84	;'T'
   307  007D4A  00                 	db	0
   308  007D4B                     STR_10:
   309  007D4B  50                 	db	80	;'P'
   310  007D4C  4C                 	db	76	;'L'
   311  007D4D  45                 	db	69	;'E'
   312  007D4E  41                 	db	65	;'A'
   313  007D4F  53                 	db	83	;'S'
   314  007D50  45                 	db	69	;'E'
   315  007D51  20                 	db	32
   316  007D52  4D                 	db	77	;'M'
   317  007D53  4F                 	db	79	;'O'
   318  007D54  44                 	db	68	;'D'
   319  007D55  49                 	db	73	;'I'
   320  007D56  46                 	db	70	;'F'
   321  007D57  59                 	db	89	;'Y'
   322  007D58  20                 	db	32
   323  007D59  54                 	db	84	;'T'
   324  007D5A  48                 	db	72	;'H'
   325  007D5B  45                 	db	69	;'E'
   326  007D5C  20                 	db	32
   327  007D5D  53                 	db	83	;'S'
   328  007D5E  45                 	db	69	;'E'
   329  007D5F  54                 	db	84	;'T'
   330  007D60  50                 	db	80	;'P'
   331  007D61  4F                 	db	79	;'O'
   332  007D62  49                 	db	73	;'I'
   333  007D63  4E                 	db	78	;'N'
   334  007D64  54                 	db	84	;'T'
   335  007D65  20                 	db	32
   336  007D66  41                 	db	65	;'A'
   337  007D67  4E                 	db	78	;'N'
   338  007D68  44                 	db	68	;'D'
   339  007D69  20                 	db	32
   340  007D6A  54                 	db	84	;'T'
   341  007D6B  52                 	db	82	;'R'
   342  007D6C  59                 	db	89	;'Y'
   343  007D6D  20                 	db	32
   344  007D6E  41                 	db	65	;'A'
   345  007D6F  47                 	db	71	;'G'
   346  007D70  41                 	db	65	;'A'
   347  007D71  49                 	db	73	;'I'
   348  007D72  4E                 	db	78	;'N'
   349  007D73  00                 	db	0
   350  007D74                     STR_12:
   351  007D74  45                 	db	69	;'E'
   352  007D75  52                 	db	82	;'R'
   353  007D76  52                 	db	82	;'R'
   354  007D77  4F                 	db	79	;'O'
   355  007D78  52                 	db	82	;'R'
   356  007D79  20                 	db	32
   357  007D7A  43                 	db	67	;'C'
   358  007D7B  4F                 	db	79	;'O'
   359  007D7C  52                 	db	82	;'R'
   360  007D7D  44                 	db	68	;'D'
   361  007D7E  49                 	db	73	;'I'
   362  007D7F  4E                 	db	78	;'N'
   363  007D80  41                 	db	65	;'A'
   364  007D81  54                 	db	84	;'T'
   365  007D82  45                 	db	69	;'E'
   366  007D83  53                 	db	83	;'S'
   367  007D84  20                 	db	32
   368  007D85  4F                 	db	79	;'O'
   369  007D86  55                 	db	85	;'U'
   370  007D87  54                 	db	84	;'T'
   371  007D88  53                 	db	83	;'S'
   372  007D89  49                 	db	73	;'I'
   373  007D8A  44                 	db	68	;'D'
   374  007D8B  45                 	db	69	;'E'
   375  007D8C  20                 	db	32
   376  007D8D  54                 	db	84	;'T'
   377  007D8E  48                 	db	72	;'H'
   378  007D8F  45                 	db	69	;'E'
   379  007D90  20                 	db	32
   380  007D91  52                 	db	82	;'R'
   381  007D92  41                 	db	65	;'A'
   382  007D93  4E                 	db	78	;'N'
   383  007D94  47                 	db	71	;'G'
   384  007D95  45                 	db	69	;'E'
   385  007D96  00                 	db	0
   386  007D97                     STR_23:
   387  007D97  43                 	db	67	;'C'
   388  007D98  4F                 	db	79	;'O'
   389  007D99  4F                 	db	79	;'O'
   390  007D9A  52                 	db	82	;'R'
   391  007D9B  44                 	db	68	;'D'
   392  007D9C  49                 	db	73	;'I'
   393  007D9D  4E                 	db	78	;'N'
   394  007D9E  41                 	db	65	;'A'
   395  007D9F  54                 	db	84	;'T'
   396  007DA0  45                 	db	69	;'E'
   397  007DA1  20                 	db	32
   398  007DA2  4F                 	db	79	;'O'
   399  007DA3  46                 	db	70	;'F'
   400  007DA4  20                 	db	32
   401  007DA5  53                 	db	83	;'S'
   402  007DA6  45                 	db	69	;'E'
   403  007DA7  54                 	db	84	;'T'
   404  007DA8  50                 	db	80	;'P'
   405  007DA9  4F                 	db	79	;'O'
   406  007DAA  49                 	db	73	;'I'
   407  007DAB  4E                 	db	78	;'N'
   408  007DAC  54                 	db	84	;'T'
   409  007DAD  20                 	db	32
   410  007DAE  31                 	db	49	;'1'
   411  007DAF  30                 	db	48	;'0'
   412  007DB0  20                 	db	32
   413  007DB1  00                 	db	0
   414  007DB2                     STR_24:
   415  007DB2  43                 	db	67	;'C'
   416  007DB3  4F                 	db	79	;'O'
   417  007DB4  4F                 	db	79	;'O'
   418  007DB5  52                 	db	82	;'R'
   419  007DB6  44                 	db	68	;'D'
   420  007DB7  49                 	db	73	;'I'
   421  007DB8  4E                 	db	78	;'N'
   422  007DB9  41                 	db	65	;'A'
   423  007DBA  54                 	db	84	;'T'
   424  007DBB  45                 	db	69	;'E'
   425  007DBC  20                 	db	32
   426  007DBD  4F                 	db	79	;'O'
   427  007DBE  46                 	db	70	;'F'
   428  007DBF  20                 	db	32
   429  007DC0  53                 	db	83	;'S'
   430  007DC1  45                 	db	69	;'E'
   431  007DC2  54                 	db	84	;'T'
   432  007DC3  50                 	db	80	;'P'
   433  007DC4  4F                 	db	79	;'O'
   434  007DC5  49                 	db	73	;'I'
   435  007DC6  4E                 	db	78	;'N'
   436  007DC7  54                 	db	84	;'T'
   437  007DC8  20                 	db	32
   438  007DC9  31                 	db	49	;'1'
   439  007DCA  31                 	db	49	;'1'
   440  007DCB  20                 	db	32
   441  007DCC  00                 	db	0
   442  007DCD                     STR_25:
   443  007DCD  43                 	db	67	;'C'
   444  007DCE  4F                 	db	79	;'O'
   445  007DCF  4F                 	db	79	;'O'
   446  007DD0  52                 	db	82	;'R'
   447  007DD1  44                 	db	68	;'D'
   448  007DD2  49                 	db	73	;'I'
   449  007DD3  4E                 	db	78	;'N'
   450  007DD4  41                 	db	65	;'A'
   451  007DD5  54                 	db	84	;'T'
   452  007DD6  45                 	db	69	;'E'
   453  007DD7  20                 	db	32
   454  007DD8  4F                 	db	79	;'O'
   455  007DD9  46                 	db	70	;'F'
   456  007DDA  20                 	db	32
   457  007DDB  53                 	db	83	;'S'
   458  007DDC  45                 	db	69	;'E'
   459  007DDD  54                 	db	84	;'T'
   460  007DDE  50                 	db	80	;'P'
   461  007DDF  4F                 	db	79	;'O'
   462  007DE0  49                 	db	73	;'I'
   463  007DE1  4E                 	db	78	;'N'
   464  007DE2  54                 	db	84	;'T'
   465  007DE3  20                 	db	32
   466  007DE4  31                 	db	49	;'1'
   467  007DE5  32                 	db	50	;'2'
   468  007DE6  20                 	db	32
   469  007DE7  00                 	db	0
   470  007DE8                     STR_26:
   471  007DE8  43                 	db	67	;'C'
   472  007DE9  4F                 	db	79	;'O'
   473  007DEA  4F                 	db	79	;'O'
   474  007DEB  52                 	db	82	;'R'
   475  007DEC  44                 	db	68	;'D'
   476  007DED  49                 	db	73	;'I'
   477  007DEE  4E                 	db	78	;'N'
   478  007DEF  41                 	db	65	;'A'
   479  007DF0  54                 	db	84	;'T'
   480  007DF1  45                 	db	69	;'E'
   481  007DF2  20                 	db	32
   482  007DF3  4F                 	db	79	;'O'
   483  007DF4  46                 	db	70	;'F'
   484  007DF5  20                 	db	32
   485  007DF6  53                 	db	83	;'S'
   486  007DF7  45                 	db	69	;'E'
   487  007DF8  54                 	db	84	;'T'
   488  007DF9  50                 	db	80	;'P'
   489  007DFA  4F                 	db	79	;'O'
   490  007DFB  49                 	db	73	;'I'
   491  007DFC  4E                 	db	78	;'N'
   492  007DFD  54                 	db	84	;'T'
   493  007DFE  20                 	db	32
   494  007DFF  31                 	db	49	;'1'
   495  007E00  33                 	db	51	;'3'
   496  007E01  20                 	db	32
   497  007E02  00                 	db	0
   498  007E03                     STR_27:
   499  007E03  43                 	db	67	;'C'
   500  007E04  4F                 	db	79	;'O'
   501  007E05  4F                 	db	79	;'O'
   502  007E06  52                 	db	82	;'R'
   503  007E07  44                 	db	68	;'D'
   504  007E08  49                 	db	73	;'I'
   505  007E09  4E                 	db	78	;'N'
   506  007E0A  41                 	db	65	;'A'
   507  007E0B  54                 	db	84	;'T'
   508  007E0C  45                 	db	69	;'E'
   509  007E0D  20                 	db	32
   510  007E0E  4F                 	db	79	;'O'
   511  007E0F  46                 	db	70	;'F'
   512  007E10  20                 	db	32
   513  007E11  53                 	db	83	;'S'
   514  007E12  45                 	db	69	;'E'
   515  007E13  54                 	db	84	;'T'
   516  007E14  50                 	db	80	;'P'
   517  007E15  4F                 	db	79	;'O'
   518  007E16  49                 	db	73	;'I'
   519  007E17  4E                 	db	78	;'N'
   520  007E18  54                 	db	84	;'T'
   521  007E19  20                 	db	32
   522  007E1A  31                 	db	49	;'1'
   523  007E1B  34                 	db	52	;'4'
   524  007E1C  20                 	db	32
   525  007E1D  00                 	db	0
   526  007E1E                     STR_28:
   527  007E1E  43                 	db	67	;'C'
   528  007E1F  4F                 	db	79	;'O'
   529  007E20  4F                 	db	79	;'O'
   530  007E21  52                 	db	82	;'R'
   531  007E22  44                 	db	68	;'D'
   532  007E23  49                 	db	73	;'I'
   533  007E24  4E                 	db	78	;'N'
   534  007E25  41                 	db	65	;'A'
   535  007E26  54                 	db	84	;'T'
   536  007E27  45                 	db	69	;'E'
   537  007E28  20                 	db	32
   538  007E29  4F                 	db	79	;'O'
   539  007E2A  46                 	db	70	;'F'
   540  007E2B  20                 	db	32
   541  007E2C  53                 	db	83	;'S'
   542  007E2D  45                 	db	69	;'E'
   543  007E2E  54                 	db	84	;'T'
   544  007E2F  50                 	db	80	;'P'
   545  007E30  4F                 	db	79	;'O'
   546  007E31  49                 	db	73	;'I'
   547  007E32  4E                 	db	78	;'N'
   548  007E33  54                 	db	84	;'T'
   549  007E34  20                 	db	32
   550  007E35  31                 	db	49	;'1'
   551  007E36  35                 	db	53	;'5'
   552  007E37  20                 	db	32
   553  007E38  00                 	db	0
   554  007E39                     STR_13:
   555  007E39  43                 	db	67	;'C'
   556  007E3A  4F                 	db	79	;'O'
   557  007E3B  4F                 	db	79	;'O'
   558  007E3C  52                 	db	82	;'R'
   559  007E3D  44                 	db	68	;'D'
   560  007E3E  49                 	db	73	;'I'
   561  007E3F  4E                 	db	78	;'N'
   562  007E40  41                 	db	65	;'A'
   563  007E41  54                 	db	84	;'T'
   564  007E42  45                 	db	69	;'E'
   565  007E43  20                 	db	32
   566  007E44  4F                 	db	79	;'O'
   567  007E45  46                 	db	70	;'F'
   568  007E46  20                 	db	32
   569  007E47  53                 	db	83	;'S'
   570  007E48  45                 	db	69	;'E'
   571  007E49  54                 	db	84	;'T'
   572  007E4A  50                 	db	80	;'P'
   573  007E4B  4F                 	db	79	;'O'
   574  007E4C  49                 	db	73	;'I'
   575  007E4D  4E                 	db	78	;'N'
   576  007E4E  54                 	db	84	;'T'
   577  007E4F  20                 	db	32
   578  007E50  30                 	db	48	;'0'
   579  007E51  20                 	db	32
   580  007E52  00                 	db	0
   581  007E53                     STR_14:
   582  007E53  43                 	db	67	;'C'
   583  007E54  4F                 	db	79	;'O'
   584  007E55  4F                 	db	79	;'O'
   585  007E56  52                 	db	82	;'R'
   586  007E57  44                 	db	68	;'D'
   587  007E58  49                 	db	73	;'I'
   588  007E59  4E                 	db	78	;'N'
   589  007E5A  41                 	db	65	;'A'
   590  007E5B  54                 	db	84	;'T'
   591  007E5C  45                 	db	69	;'E'
   592  007E5D  20                 	db	32
   593  007E5E  4F                 	db	79	;'O'
   594  007E5F  46                 	db	70	;'F'
   595  007E60  20                 	db	32
   596  007E61  53                 	db	83	;'S'
   597  007E62  45                 	db	69	;'E'
   598  007E63  54                 	db	84	;'T'
   599  007E64  50                 	db	80	;'P'
   600  007E65  4F                 	db	79	;'O'
   601  007E66  49                 	db	73	;'I'
   602  007E67  4E                 	db	78	;'N'
   603  007E68  54                 	db	84	;'T'
   604  007E69  20                 	db	32
   605  007E6A  31                 	db	49	;'1'
   606  007E6B  20                 	db	32
   607  007E6C  00                 	db	0
   608  007E6D                     STR_15:
   609  007E6D  43                 	db	67	;'C'
   610  007E6E  4F                 	db	79	;'O'
   611  007E6F  4F                 	db	79	;'O'
   612  007E70  52                 	db	82	;'R'
   613  007E71  44                 	db	68	;'D'
   614  007E72  49                 	db	73	;'I'
   615  007E73  4E                 	db	78	;'N'
   616  007E74  41                 	db	65	;'A'
   617  007E75  54                 	db	84	;'T'
   618  007E76  45                 	db	69	;'E'
   619  007E77  20                 	db	32
   620  007E78  4F                 	db	79	;'O'
   621  007E79  46                 	db	70	;'F'
   622  007E7A  20                 	db	32
   623  007E7B  53                 	db	83	;'S'
   624  007E7C  45                 	db	69	;'E'
   625  007E7D  54                 	db	84	;'T'
   626  007E7E  50                 	db	80	;'P'
   627  007E7F  4F                 	db	79	;'O'
   628  007E80  49                 	db	73	;'I'
   629  007E81  4E                 	db	78	;'N'
   630  007E82  54                 	db	84	;'T'
   631  007E83  20                 	db	32
   632  007E84  32                 	db	50	;'2'
   633  007E85  20                 	db	32
   634  007E86  00                 	db	0
   635  007E87                     STR_16:
   636  007E87  43                 	db	67	;'C'
   637  007E88  4F                 	db	79	;'O'
   638  007E89  4F                 	db	79	;'O'
   639  007E8A  52                 	db	82	;'R'
   640  007E8B  44                 	db	68	;'D'
   641  007E8C  49                 	db	73	;'I'
   642  007E8D  4E                 	db	78	;'N'
   643  007E8E  41                 	db	65	;'A'
   644  007E8F  54                 	db	84	;'T'
   645  007E90  45                 	db	69	;'E'
   646  007E91  20                 	db	32
   647  007E92  4F                 	db	79	;'O'
   648  007E93  46                 	db	70	;'F'
   649  007E94  20                 	db	32
   650  007E95  53                 	db	83	;'S'
   651  007E96  45                 	db	69	;'E'
   652  007E97  54                 	db	84	;'T'
   653  007E98  50                 	db	80	;'P'
   654  007E99  4F                 	db	79	;'O'
   655  007E9A  49                 	db	73	;'I'
   656  007E9B  4E                 	db	78	;'N'
   657  007E9C  54                 	db	84	;'T'
   658  007E9D  20                 	db	32
   659  007E9E  33                 	db	51	;'3'
   660  007E9F  20                 	db	32
   661  007EA0  00                 	db	0
   662  007EA1                     STR_17:
   663  007EA1  43                 	db	67	;'C'
   664  007EA2  4F                 	db	79	;'O'
   665  007EA3  4F                 	db	79	;'O'
   666  007EA4  52                 	db	82	;'R'
   667  007EA5  44                 	db	68	;'D'
   668  007EA6  49                 	db	73	;'I'
   669  007EA7  4E                 	db	78	;'N'
   670  007EA8  41                 	db	65	;'A'
   671  007EA9  54                 	db	84	;'T'
   672  007EAA  45                 	db	69	;'E'
   673  007EAB  20                 	db	32
   674  007EAC  4F                 	db	79	;'O'
   675  007EAD  46                 	db	70	;'F'
   676  007EAE  20                 	db	32
   677  007EAF  53                 	db	83	;'S'
   678  007EB0  45                 	db	69	;'E'
   679  007EB1  54                 	db	84	;'T'
   680  007EB2  50                 	db	80	;'P'
   681  007EB3  4F                 	db	79	;'O'
   682  007EB4  49                 	db	73	;'I'
   683  007EB5  4E                 	db	78	;'N'
   684  007EB6  54                 	db	84	;'T'
   685  007EB7  20                 	db	32
   686  007EB8  34                 	db	52	;'4'
   687  007EB9  20                 	db	32
   688  007EBA  00                 	db	0
   689  007EBB                     STR_18:
   690  007EBB  43                 	db	67	;'C'
   691  007EBC  4F                 	db	79	;'O'
   692  007EBD  4F                 	db	79	;'O'
   693  007EBE  52                 	db	82	;'R'
   694  007EBF  44                 	db	68	;'D'
   695  007EC0  49                 	db	73	;'I'
   696  007EC1  4E                 	db	78	;'N'
   697  007EC2  41                 	db	65	;'A'
   698  007EC3  54                 	db	84	;'T'
   699  007EC4  45                 	db	69	;'E'
   700  007EC5  20                 	db	32
   701  007EC6  4F                 	db	79	;'O'
   702  007EC7  46                 	db	70	;'F'
   703  007EC8  20                 	db	32
   704  007EC9  53                 	db	83	;'S'
   705  007ECA  45                 	db	69	;'E'
   706  007ECB  54                 	db	84	;'T'
   707  007ECC  50                 	db	80	;'P'
   708  007ECD  4F                 	db	79	;'O'
   709  007ECE  49                 	db	73	;'I'
   710  007ECF  4E                 	db	78	;'N'
   711  007ED0  54                 	db	84	;'T'
   712  007ED1  20                 	db	32
   713  007ED2  35                 	db	53	;'5'
   714  007ED3  20                 	db	32
   715  007ED4  00                 	db	0
   716  007ED5                     STR_19:
   717  007ED5  43                 	db	67	;'C'
   718  007ED6  4F                 	db	79	;'O'
   719  007ED7  4F                 	db	79	;'O'
   720  007ED8  52                 	db	82	;'R'
   721  007ED9  44                 	db	68	;'D'
   722  007EDA  49                 	db	73	;'I'
   723  007EDB  4E                 	db	78	;'N'
   724  007EDC  41                 	db	65	;'A'
   725  007EDD  54                 	db	84	;'T'
   726  007EDE  45                 	db	69	;'E'
   727  007EDF  20                 	db	32
   728  007EE0  4F                 	db	79	;'O'
   729  007EE1  46                 	db	70	;'F'
   730  007EE2  20                 	db	32
   731  007EE3  53                 	db	83	;'S'
   732  007EE4  45                 	db	69	;'E'
   733  007EE5  54                 	db	84	;'T'
   734  007EE6  50                 	db	80	;'P'
   735  007EE7  4F                 	db	79	;'O'
   736  007EE8  49                 	db	73	;'I'
   737  007EE9  4E                 	db	78	;'N'
   738  007EEA  54                 	db	84	;'T'
   739  007EEB  20                 	db	32
   740  007EEC  36                 	db	54	;'6'
   741  007EED  20                 	db	32
   742  007EEE  00                 	db	0
   743  007EEF                     STR_20:
   744  007EEF  43                 	db	67	;'C'
   745  007EF0  4F                 	db	79	;'O'
   746  007EF1  4F                 	db	79	;'O'
   747  007EF2  52                 	db	82	;'R'
   748  007EF3  44                 	db	68	;'D'
   749  007EF4  49                 	db	73	;'I'
   750  007EF5  4E                 	db	78	;'N'
   751  007EF6  41                 	db	65	;'A'
   752  007EF7  54                 	db	84	;'T'
   753  007EF8  45                 	db	69	;'E'
   754  007EF9  20                 	db	32
   755  007EFA  4F                 	db	79	;'O'
   756  007EFB  46                 	db	70	;'F'
   757  007EFC  20                 	db	32
   758  007EFD  53                 	db	83	;'S'
   759  007EFE  45                 	db	69	;'E'
   760  007EFF  54                 	db	84	;'T'
   761  007F00  50                 	db	80	;'P'
   762  007F01  4F                 	db	79	;'O'
   763  007F02  49                 	db	73	;'I'
   764  007F03  4E                 	db	78	;'N'
   765  007F04  54                 	db	84	;'T'
   766  007F05  20                 	db	32
   767  007F06  37                 	db	55	;'7'
   768  007F07  20                 	db	32
   769  007F08  00                 	db	0
   770  007F09                     STR_21:
   771  007F09  43                 	db	67	;'C'
   772  007F0A  4F                 	db	79	;'O'
   773  007F0B  4F                 	db	79	;'O'
   774  007F0C  52                 	db	82	;'R'
   775  007F0D  44                 	db	68	;'D'
   776  007F0E  49                 	db	73	;'I'
   777  007F0F  4E                 	db	78	;'N'
   778  007F10  41                 	db	65	;'A'
   779  007F11  54                 	db	84	;'T'
   780  007F12  45                 	db	69	;'E'
   781  007F13  20                 	db	32
   782  007F14  4F                 	db	79	;'O'
   783  007F15  46                 	db	70	;'F'
   784  007F16  20                 	db	32
   785  007F17  53                 	db	83	;'S'
   786  007F18  45                 	db	69	;'E'
   787  007F19  54                 	db	84	;'T'
   788  007F1A  50                 	db	80	;'P'
   789  007F1B  4F                 	db	79	;'O'
   790  007F1C  49                 	db	73	;'I'
   791  007F1D  4E                 	db	78	;'N'
   792  007F1E  54                 	db	84	;'T'
   793  007F1F  20                 	db	32
   794  007F20  38                 	db	56	;'8'
   795  007F21  20                 	db	32
   796  007F22  00                 	db	0
   797  007F23                     STR_22:
   798  007F23  43                 	db	67	;'C'
   799  007F24  4F                 	db	79	;'O'
   800  007F25  4F                 	db	79	;'O'
   801  007F26  52                 	db	82	;'R'
   802  007F27  44                 	db	68	;'D'
   803  007F28  49                 	db	73	;'I'
   804  007F29  4E                 	db	78	;'N'
   805  007F2A  41                 	db	65	;'A'
   806  007F2B  54                 	db	84	;'T'
   807  007F2C  45                 	db	69	;'E'
   808  007F2D  20                 	db	32
   809  007F2E  4F                 	db	79	;'O'
   810  007F2F  46                 	db	70	;'F'
   811  007F30  20                 	db	32
   812  007F31  53                 	db	83	;'S'
   813  007F32  45                 	db	69	;'E'
   814  007F33  54                 	db	84	;'T'
   815  007F34  50                 	db	80	;'P'
   816  007F35  4F                 	db	79	;'O'
   817  007F36  49                 	db	73	;'I'
   818  007F37  4E                 	db	78	;'N'
   819  007F38  54                 	db	84	;'T'
   820  007F39  20                 	db	32
   821  007F3A  39                 	db	57	;'9'
   822  007F3B  20                 	db	32
   823  007F3C  00                 	db	0
   824  007F3D                     STR_3:
   825  007F3D  57                 	db	87	;'W'
   826  007F3E  41                 	db	65	;'A'
   827  007F3F  49                 	db	73	;'I'
   828  007F40  54                 	db	84	;'T'
   829  007F41  49                 	db	73	;'I'
   830  007F42  4E                 	db	78	;'N'
   831  007F43  47                 	db	71	;'G'
   832  007F44  20                 	db	32
   833  007F45  46                 	db	70	;'F'
   834  007F46  4F                 	db	79	;'O'
   835  007F47  52                 	db	82	;'R'
   836  007F48  20                 	db	32
   837  007F49  49                 	db	73	;'I'
   838  007F4A  4E                 	db	78	;'N'
   839  007F4B  53                 	db	83	;'S'
   840  007F4C  54                 	db	84	;'T'
   841  007F4D  52                 	db	82	;'R'
   842  007F4E  55                 	db	85	;'U'
   843  007F4F  43                 	db	67	;'C'
   844  007F50  54                 	db	84	;'T'
   845  007F51  49                 	db	73	;'I'
   846  007F52  4F                 	db	79	;'O'
   847  007F53  4E                 	db	78	;'N'
   848  007F54  00                 	db	0
   849  007F55                     STR_4:
   850  007F55  57                 	db	87	;'W'
   851  007F56  41                 	db	65	;'A'
   852  007F57  49                 	db	73	;'I'
   853  007F58  54                 	db	84	;'T'
   854  007F59  20                 	db	32
   855  007F5A  55                 	db	85	;'U'
   856  007F5B  4E                 	db	78	;'N'
   857  007F5C  54                 	db	84	;'T'
   858  007F5D  49                 	db	73	;'I'
   859  007F5E  4C                 	db	76	;'L'
   860  007F5F  20                 	db	32
   861  007F60  43                 	db	67	;'C'
   862  007F61  4F                 	db	79	;'O'
   863  007F62  4D                 	db	77	;'M'
   864  007F63  50                 	db	80	;'P'
   865  007F64  4C                 	db	76	;'L'
   866  007F65  45                 	db	69	;'E'
   867  007F66  54                 	db	84	;'T'
   868  007F67  45                 	db	69	;'E'
   869  007F68  2E                 	db	46
   870  007F69  2E                 	db	46
   871  007F6A  2E                 	db	46
   872  007F6B  00                 	db	0
   873  007F6C                     STR_33:
   874  007F6C  43                 	db	67	;'C'
   875  007F6D  4F                 	db	79	;'O'
   876  007F6E  4F                 	db	79	;'O'
   877  007F6F  52                 	db	82	;'R'
   878  007F70  44                 	db	68	;'D'
   879  007F71  49                 	db	73	;'I'
   880  007F72  4E                 	db	78	;'N'
   881  007F73  41                 	db	65	;'A'
   882  007F74  54                 	db	84	;'T'
   883  007F75  45                 	db	69	;'E'
   884  007F76  20                 	db	32
   885  007F77  58                 	db	88	;'X'
   886  007F78  20                 	db	32
   887  007F79  53                 	db	83	;'S'
   888  007F7A  41                 	db	65	;'A'
   889  007F7B  56                 	db	86	;'V'
   890  007F7C  45                 	db	69	;'E'
   891  007F7D  44                 	db	68	;'D'
   892  007F7E  00                 	db	0
   893  007F7F                     STR_34:
   894  007F7F  43                 	db	67	;'C'
   895  007F80  4F                 	db	79	;'O'
   896  007F81  4F                 	db	79	;'O'
   897  007F82  52                 	db	82	;'R'
   898  007F83  44                 	db	68	;'D'
   899  007F84  49                 	db	73	;'I'
   900  007F85  4E                 	db	78	;'N'
   901  007F86  41                 	db	65	;'A'
   902  007F87  54                 	db	84	;'T'
   903  007F88  45                 	db	69	;'E'
   904  007F89  20                 	db	32
   905  007F8A  59                 	db	89	;'Y'
   906  007F8B  20                 	db	32
   907  007F8C  53                 	db	83	;'S'
   908  007F8D  41                 	db	65	;'A'
   909  007F8E  56                 	db	86	;'V'
   910  007F8F  45                 	db	69	;'E'
   911  007F90  44                 	db	68	;'D'
   912  007F91  00                 	db	0
   913  007F92                     STR_35:
   914  007F92  43                 	db	67	;'C'
   915  007F93  4F                 	db	79	;'O'
   916  007F94  4F                 	db	79	;'O'
   917  007F95  52                 	db	82	;'R'
   918  007F96  44                 	db	68	;'D'
   919  007F97  49                 	db	73	;'I'
   920  007F98  4E                 	db	78	;'N'
   921  007F99  41                 	db	65	;'A'
   922  007F9A  54                 	db	84	;'T'
   923  007F9B  45                 	db	69	;'E'
   924  007F9C  20                 	db	32
   925  007F9D  5A                 	db	90	;'Z'
   926  007F9E  20                 	db	32
   927  007F9F  53                 	db	83	;'S'
   928  007FA0  41                 	db	65	;'A'
   929  007FA1  56                 	db	86	;'V'
   930  007FA2  45                 	db	69	;'E'
   931  007FA3  44                 	db	68	;'D'
   932  007FA4  00                 	db	0
   933  007FA5                     STR_1:
   934  007FA5  57                 	db	87	;'W'
   935  007FA6  45                 	db	69	;'E'
   936  007FA7  4C                 	db	76	;'L'
   937  007FA8  43                 	db	67	;'C'
   938  007FA9  4F                 	db	79	;'O'
   939  007FAA  4D                 	db	77	;'M'
   940  007FAB  45                 	db	69	;'E'
   941  007FAC  20                 	db	32
   942  007FAD  54                 	db	84	;'T'
   943  007FAE  4F                 	db	79	;'O'
   944  007FAF  20                 	db	32
   945  007FB0  53                 	db	83	;'S'
   946  007FB1  50                 	db	80	;'P'
   947  007FB2  41                 	db	65	;'A'
   948  007FB3  52                 	db	82	;'R'
   949  007FB4  4B                 	db	75	;'K'
   950  007FB5  00                 	db	0
   951  007FB6                     STR_30:
   952  007FB6  43                 	db	67	;'C'
   953  007FB7  4F                 	db	79	;'O'
   954  007FB8  4F                 	db	79	;'O'
   955  007FB9  52                 	db	82	;'R'
   956  007FBA  44                 	db	68	;'D'
   957  007FBB  49                 	db	73	;'I'
   958  007FBC  4E                 	db	78	;'N'
   959  007FBD  41                 	db	65	;'A'
   960  007FBE  54                 	db	84	;'T'
   961  007FBF  45                 	db	69	;'E'
   962  007FC0  20                 	db	32
   963  007FC1  58                 	db	88	;'X'
   964  007FC2  3A                 	db	58	;':'
   965  007FC3  00                 	db	0
   966  007FC4                     STR_31:
   967  007FC4  43                 	db	67	;'C'
   968  007FC5  4F                 	db	79	;'O'
   969  007FC6  4F                 	db	79	;'O'
   970  007FC7  52                 	db	82	;'R'
   971  007FC8  44                 	db	68	;'D'
   972  007FC9  49                 	db	73	;'I'
   973  007FCA  4E                 	db	78	;'N'
   974  007FCB  41                 	db	65	;'A'
   975  007FCC  54                 	db	84	;'T'
   976  007FCD  45                 	db	69	;'E'
   977  007FCE  20                 	db	32
   978  007FCF  59                 	db	89	;'Y'
   979  007FD0  3A                 	db	58	;':'
   980  007FD1  00                 	db	0
   981  007FD2                     STR_32:
   982  007FD2  43                 	db	67	;'C'
   983  007FD3  4F                 	db	79	;'O'
   984  007FD4  4F                 	db	79	;'O'
   985  007FD5  52                 	db	82	;'R'
   986  007FD6  44                 	db	68	;'D'
   987  007FD7  49                 	db	73	;'I'
   988  007FD8  4E                 	db	78	;'N'
   989  007FD9  41                 	db	65	;'A'
   990  007FDA  54                 	db	84	;'T'
   991  007FDB  45                 	db	69	;'E'
   992  007FDC  20                 	db	32
   993  007FDD  5A                 	db	90	;'Z'
   994  007FDE  3A                 	db	58	;':'
   995  007FDF  00                 	db	0
   996  007FE0                     STR_36:
   997  007FE0  43                 	db	67	;'C'
   998  007FE1  4F                 	db	79	;'O'
   999  007FE2  4D                 	db	77	;'M'
  1000  007FE3  50                 	db	80	;'P'
  1001  007FE4  4C                 	db	76	;'L'
  1002  007FE5  45                 	db	69	;'E'
  1003  007FE6  54                 	db	84	;'T'
  1004  007FE7  45                 	db	69	;'E'
  1005  007FE8  44                 	db	68	;'D'
  1006  007FE9  00                 	db	0
  1007  007FEA                     STR_38:
  1008  007FEA  43                 	db	67	;'C'
  1009  007FEB  4F                 	db	79	;'O'
  1010  007FEC  4D                 	db	77	;'M'
  1011  007FED  50                 	db	80	;'P'
  1012  007FEE  4C                 	db	76	;'L'
  1013  007FEF  45                 	db	69	;'E'
  1014  007FF0  54                 	db	84	;'T'
  1015  007FF1  45                 	db	69	;'E'
  1016  007FF2  00                 	db	0
  1017  007FF3                     STR_37:
  1018  007FF3  54                 	db	84	;'T'
  1019  007FF4  4F                 	db	79	;'O'
  1020  007FF5  55                 	db	85	;'U'
  1021  007FF6  43                 	db	67	;'C'
  1022  007FF7  48                 	db	72	;'H'
  1023  007FF8  00                 	db	0
  1024  007FF9                     STR_29:
  1025  007FF9  52                 	db	82	;'R'
  1026  007FFA  45                 	db	69	;'E'
  1027  007FFB  41                 	db	65	;'A'
  1028  007FFC  44                 	db	68	;'D'
  1029  007FFD  00                 	db	0
  1030  0000                     
  1031                           ; #config settings
  1032  007FFE  00                 	db	0	; dummy byte at the end
  1033  0000                     
  1034                           	psect	cinit
  1035  001848                     __pcinit:
  1036                           	opt callstack 0
  1037  001848                     start_initialization:
  1038                           	opt callstack 0
  1039  001848                     __initialization:
  1040                           	opt callstack 0
  1041                           
  1042                           ; Clear objects allocated to BANK0 (40 bytes)
  1043  001848  EE00  F060         	lfsr	0,__pbssBANK0
  1044  00184C  0E28               	movlw	40
  1045  00184E                     clear_0:
  1046  00184E  6AEE               	clrf	postinc0,c
  1047  001850  06E8               	decf	wreg,f,c
  1048  001852  E1FD               	bnz	clear_0
  1049                           
  1050                           ; Clear objects allocated to COMRAM (30 bytes)
  1051  001854  EE00  F041         	lfsr	0,__pbssCOMRAM
  1052  001858  0E1E               	movlw	30
  1053  00185A                     clear_1:
  1054  00185A  6AEE               	clrf	postinc0,c
  1055  00185C  06E8               	decf	wreg,f,c
  1056  00185E  E1FD               	bnz	clear_1
  1057  001860                     end_of_initialization:
  1058                           	opt callstack 0
  1059  001860                     __end_of__initialization:
  1060                           	opt callstack 0
  1061  001860  905F               	bcf	int$flags,0,c	;clear compiler interrupt flag (level 1)
  1062  001862  925F               	bcf	int$flags,1,c	;clear compiler interrupt flag (level 2)
  1063  001864  0E00               	movlw	low (__Lmediumconst shr (0+16))
  1064  001866  6EF8               	movwf	tblptru,c
  1065  001868  0100               	movlb	0
  1066  00186A  EFD6  F001         	goto	_main	;jump to C main() function
  1067                           
  1068                           	psect	bssCOMRAM
  1069  000041                     __pbssCOMRAM:
  1070                           	opt callstack 0
  1071  000041                     _coordenada_anteriorY:
  1072                           	opt callstack 0
  1073  000041                     	ds	2
  1074  000043                     _coordenada_anteriorX:
  1075                           	opt callstack 0
  1076  000043                     	ds	2
  1077  000045                     _DeltaY:
  1078                           	opt callstack 0
  1079  000045                     	ds	2
  1080  000047                     _DeltaX:
  1081                           	opt callstack 0
  1082  000047                     	ds	2
  1083  000049                     _PasosY:
  1084                           	opt callstack 0
  1085  000049                     	ds	2
  1086  00004B                     _PasosX:
  1087                           	opt callstack 0
  1088  00004B                     	ds	2
  1089  00004D                     _pasos_convertidos:
  1090                           	opt callstack 0
  1091  00004D                     	ds	2
  1092  00004F                     _Lectura:
  1093                           	opt callstack 0
  1094  00004F                     	ds	2
  1095  000051                     _oneshot:
  1096                           	opt callstack 0
  1097  000051                     	ds	1
  1098  000052                     _data:
  1099                           	opt callstack 0
  1100  000052                     	ds	1
  1101  000053                     _Coordenadas_fuera:
  1102                           	opt callstack 0
  1103  000053                     	ds	1
  1104  000054                     _Direccion_Memoria:
  1105                           	opt callstack 0
  1106  000054                     	ds	1
  1107  000055                     _bites_masS:
  1108                           	opt callstack 0
  1109  000055                     	ds	1
  1110  000056                     _bites_menosS:
  1111                           	opt callstack 0
  1112  000056                     	ds	1
  1113  000057                     _oneshotY:
  1114                           	opt callstack 0
  1115  000057                     	ds	1
  1116  000058                     _oneshotX:
  1117                           	opt callstack 0
  1118  000058                     	ds	1
  1119  000059                     _CoordenadaZ:
  1120                           	opt callstack 0
  1121  000059                     	ds	2
  1122  00005B                     _CoordenadaY:
  1123                           	opt callstack 0
  1124  00005B                     	ds	2
  1125  00005D                     _CoordenadaX:
  1126                           	opt callstack 0
  1127  00005D                     	ds	2
  1128                           
  1129                           	psect	bssBANK0
  1130  000060                     __pbssBANK0:
  1131                           	opt callstack 0
  1132  000060                     fabsf@F463:
  1133                           	opt callstack 0
  1134  000060                     	ds	4
  1135  000064                     _Distancia:
  1136                           	opt callstack 0
  1137  000064                     	ds	4
  1138  000068                     _Suma:
  1139                           	opt callstack 0
  1140  000068                     	ds	4
  1141  00006C                     _errno:
  1142                           	opt callstack 0
  1143  00006C                     	ds	2
  1144  00006E                     _cont:
  1145                           	opt callstack 0
  1146  00006E                     	ds	2
  1147  000070                     _CoordenadaYY:
  1148                           	opt callstack 0
  1149  000070                     	ds	2
  1150  000072                     _CoordenadaXX:
  1151                           	opt callstack 0
  1152  000072                     	ds	2
  1153  000074                     _LecturaFiltro:
  1154                           	opt callstack 0
  1155  000074                     	ds	2
  1156  000076                     _coordenada_setpoint:
  1157                           	opt callstack 0
  1158  000076                     	ds	11
  1159  000081                     _coordenada_array:
  1160                           	opt callstack 0
  1161  000081                     	ds	7
  1162                           
  1163                           	psect	cstackCOMRAM
  1164  000001                     __pcstackCOMRAM:
  1165                           	opt callstack 0
  1166  000001                     ?_PWM_OneshotX:
  1167                           	opt callstack 0
  1168  000001                     ?_PWM_OneshotY:
  1169                           	opt callstack 0
  1170  000001                     ?_isspace:
  1171                           	opt callstack 0
  1172  000001                     ?_isdigit:
  1173                           	opt callstack 0
  1174  000001                     ?___wmul:
  1175                           	opt callstack 0
  1176  000001                     ?___aldiv:
  1177                           	opt callstack 0
  1178  000001                     ?___xxtofl:
  1179                           	opt callstack 0
  1180  000001                     EEPROM_Rx@direccion:
  1181                           	opt callstack 0
  1182  000001                     EEPROM_Tx@dato:
  1183                           	opt callstack 0
  1184  000001                     PWM_OneshotX@countX:
  1185                           	opt callstack 0
  1186  000001                     PWM_OneshotY@countY:
  1187                           	opt callstack 0
  1188  000001                     USART_TxS@str:
  1189                           	opt callstack 0
  1190  000001                     USART_RxS@pointer:
  1191                           	opt callstack 0
  1192  000001                     Motor_Calcular_PasosX@coordenada_actualX:
  1193                           	opt callstack 0
  1194  000001                     Motor_Calcular_PasosY@coordenada_actualY:
  1195                           	opt callstack 0
  1196  000001                     ___wmul@multiplier:
  1197                           	opt callstack 0
  1198  000001                     isdigit@c:
  1199                           	opt callstack 0
  1200  000001                     isspace@c:
  1201                           	opt callstack 0
  1202  000001                     ___aldiv@dividend:
  1203                           	opt callstack 0
  1204  000001                     ___xxtofl@val:
  1205                           	opt callstack 0
  1206                           
  1207                           ; 4 bytes @ 0x0
  1208  000001                     	ds	1
  1209  000002                     EEPROM_Tx@direccion:
  1210                           	opt callstack 0
  1211                           
  1212                           ; 1 bytes @ 0x1
  1213  000002                     	ds	1
  1214  000003                     ??_Motor_Calcular_PasosX:
  1215  000003                     ??_Motor_Calcular_PasosY:
  1216  000003                     ??_isspace:
  1217  000003                     ??_isdigit:
  1218  000003                     ??_USART_RxS:
  1219  000003                     PWM_GeneratePulsos@pulsosX:
  1220                           	opt callstack 0
  1221  000003                     USART_TxS@length:
  1222                           	opt callstack 0
  1223  000003                     ___wmul@multiplicand:
  1224                           	opt callstack 0
  1225                           
  1226                           ; 2 bytes @ 0x2
  1227  000003                     	ds	2
  1228  000005                     ??_USART_TxS:
  1229  000005                     ??___xxtofl:
  1230  000005                     PWM_GeneratePulsos@pulsosY:
  1231                           	opt callstack 0
  1232  000005                     ___wmul@product:
  1233                           	opt callstack 0
  1234  000005                     ___aldiv@divisor:
  1235                           	opt callstack 0
  1236                           
  1237                           ; 4 bytes @ 0x4
  1238  000005                     	ds	1
  1239  000006                     USART_RxS@length:
  1240                           	opt callstack 0
  1241                           
  1242                           ; 1 bytes @ 0x5
  1243  000006                     	ds	1
  1244  000007                     ??_PWM_GeneratePulsos:
  1245  000007                     _isspace$2324:
  1246                           	opt callstack 0
  1247  000007                     USART_TxS@i:
  1248                           	opt callstack 0
  1249  000007                     USART_RxS@i:
  1250                           	opt callstack 0
  1251                           
  1252                           ; 2 bytes @ 0x6
  1253  000007                     	ds	1
  1254  000008                     ?_atoi:
  1255                           	opt callstack 0
  1256  000008                     PWM_GeneratePulsos@Oupcode:
  1257                           	opt callstack 0
  1258  000008                     atoi@s:
  1259                           	opt callstack 0
  1260                           
  1261                           ; 2 bytes @ 0x7
  1262  000008                     	ds	1
  1263  000009                     ??_Actuator_Touch:
  1264  000009                     ??_Seria_Decodificacion_Memoria:
  1265  000009                     ___aldiv@counter:
  1266                           	opt callstack 0
  1267  000009                     ___xxtofl@sign:
  1268                           	opt callstack 0
  1269  000009                     PWM_GeneratePulsos@countX:
  1270                           	opt callstack 0
  1271  000009                     Serial_RangosCoordenadas@C:
  1272                           	opt callstack 0
  1273  000009                     Serial_Escritura_Memoria@string_setpoint:
  1274                           	opt callstack 0
  1275                           
  1276                           ; 2 bytes @ 0x8
  1277  000009                     	ds	1
  1278  00000A                     ??_atoi:
  1279  00000A                     ___aldiv@sign:
  1280                           	opt callstack 0
  1281  00000A                     ___xxtofl@exp:
  1282                           	opt callstack 0
  1283                           
  1284                           ; 1 bytes @ 0x9
  1285  00000A                     	ds	1
  1286  00000B                     ??_Serial_Escritura_Memoria:
  1287  00000B                     Seria_Decodificacion_Memoria@direccion:
  1288                           	opt callstack 0
  1289  00000B                     PWM_GeneratePulsos@countY:
  1290                           	opt callstack 0
  1291  00000B                     ___aldiv@quotient:
  1292                           	opt callstack 0
  1293  00000B                     ___xxtofl@arg:
  1294                           	opt callstack 0
  1295                           
  1296                           ; 4 bytes @ 0xA
  1297  00000B                     	ds	2
  1298  00000D                     Serial_Escritura_Memoria@direccion:
  1299                           	opt callstack 0
  1300                           
  1301                           ; 1 bytes @ 0xC
  1302  00000D                     	ds	1
  1303  00000E                     Serial_Escritura_Memoria@direccionFinal:
  1304                           	opt callstack 0
  1305  00000E                     atoi@neg:
  1306                           	opt callstack 0
  1307                           
  1308                           ; 2 bytes @ 0xD
  1309  00000E                     	ds	1
  1310  00000F                     ?___fldiv:
  1311                           	opt callstack 0
  1312  00000F                     Serial_Escritura_Memoria@i:
  1313                           	opt callstack 0
  1314  00000F                     USART_Init@BAUD:
  1315                           	opt callstack 0
  1316  00000F                     ___fldiv@b:
  1317                           	opt callstack 0
  1318                           
  1319                           ; 4 bytes @ 0xE
  1320  00000F                     	ds	1
  1321  000010                     _atoi$2306:
  1322                           	opt callstack 0
  1323                           
  1324                           ; 2 bytes @ 0xF
  1325  000010                     	ds	1
  1326  000011                     Serial_Escritura_Memoria@i_1159:
  1327                           	opt callstack 0
  1328                           
  1329                           ; 2 bytes @ 0x10
  1330  000011                     	ds	1
  1331  000012                     _atoi$2308:
  1332                           	opt callstack 0
  1333                           
  1334                           ; 2 bytes @ 0x11
  1335  000012                     	ds	1
  1336  000013                     Serial_Escritura_Memoria@i_1161:
  1337                           	opt callstack 0
  1338  000013                     ___fldiv@a:
  1339                           	opt callstack 0
  1340  000013                     _USART_Init$2709:
  1341                           	opt callstack 0
  1342                           
  1343                           ; 4 bytes @ 0x12
  1344  000013                     	ds	1
  1345  000014                     _atoi$2307:
  1346                           	opt callstack 0
  1347                           
  1348                           ; 1 bytes @ 0x13
  1349  000014                     	ds	1
  1350  000015                     atoi@n:
  1351                           	opt callstack 0
  1352                           
  1353                           ; 2 bytes @ 0x14
  1354  000015                     	ds	2
  1355  000017                     ??___fldiv:
  1356  000017                     Serial_DecodificacionX@string_coordenada:
  1357                           	opt callstack 0
  1358  000017                     Serial_DecodificacionY@string_coordenada:
  1359                           	opt callstack 0
  1360  000017                     Serial_Lectura_Memoria@pointerCX:
  1361                           	opt callstack 0
  1362                           
  1363                           ; 2 bytes @ 0x16
  1364  000017                     	ds	2
  1365  000019                     Serial_DecodificacionX@pointerCX:
  1366                           	opt callstack 0
  1367  000019                     Serial_DecodificacionY@pointerCY:
  1368                           	opt callstack 0
  1369  000019                     Serial_Lectura_Memoria@pointerCY:
  1370                           	opt callstack 0
  1371                           
  1372                           ; 2 bytes @ 0x18
  1373  000019                     	ds	2
  1374  00001B                     ??_Serial_DecodificacionY:
  1375  00001B                     Serial_Lectura_Memoria@pointerCZ:
  1376                           	opt callstack 0
  1377  00001B                     Serial_DecodificacionX@coordenadaX:
  1378                           	opt callstack 0
  1379  00001B                     ___fldiv@rem:
  1380                           	opt callstack 0
  1381                           
  1382                           ; 4 bytes @ 0x1A
  1383  00001B                     	ds	2
  1384  00001D                     Serial_DecodificacionY@coordenadaY:
  1385                           	opt callstack 0
  1386  00001D                     Serial_Lectura_Memoria@coordenadaY:
  1387                           	opt callstack 0
  1388                           
  1389                           ; 3 bytes @ 0x1C
  1390  00001D                     	ds	1
  1391  00001E                     Serial_DecodificacionX@i:
  1392                           	opt callstack 0
  1393                           
  1394                           ; 2 bytes @ 0x1D
  1395  00001E                     	ds	1
  1396  00001F                     ___fldiv@sign:
  1397                           	opt callstack 0
  1398                           
  1399                           ; 1 bytes @ 0x1E
  1400  00001F                     	ds	1
  1401  000020                     Serial_DecodificacionY@i:
  1402                           	opt callstack 0
  1403  000020                     ___fldiv@new_exp:
  1404                           	opt callstack 0
  1405  000020                     Serial_Lectura_Memoria@coordenadaZ:
  1406                           	opt callstack 0
  1407                           
  1408                           ; 3 bytes @ 0x1F
  1409  000020                     	ds	2
  1410  000022                     ___fldiv@grs:
  1411                           	opt callstack 0
  1412                           
  1413                           ; 4 bytes @ 0x21
  1414  000022                     	ds	1
  1415  000023                     Serial_Lectura_Memoria@direccionX:
  1416                           	opt callstack 0
  1417                           
  1418                           ; 1 bytes @ 0x22
  1419  000023                     	ds	1
  1420  000024                     Serial_Lectura_Memoria@direccionY:
  1421                           	opt callstack 0
  1422                           
  1423                           ; 1 bytes @ 0x23
  1424  000024                     	ds	1
  1425  000025                     Serial_Lectura_Memoria@direccionZ:
  1426                           	opt callstack 0
  1427                           
  1428                           ; 1 bytes @ 0x24
  1429  000025                     	ds	1
  1430  000026                     ___fldiv@bexp:
  1431                           	opt callstack 0
  1432  000026                     Serial_Lectura_Memoria@coordenadaX:
  1433                           	opt callstack 0
  1434                           
  1435                           ; 3 bytes @ 0x25
  1436  000026                     	ds	1
  1437  000027                     ___fldiv@aexp:
  1438                           	opt callstack 0
  1439                           
  1440                           ; 1 bytes @ 0x26
  1441  000027                     	ds	1
  1442  000028                     ?___fltol:
  1443                           	opt callstack 0
  1444  000028                     ___fltol@f1:
  1445                           	opt callstack 0
  1446                           
  1447                           ; 4 bytes @ 0x27
  1448  000028                     	ds	1
  1449  000029                     Serial_Lectura_Memoria@direccion:
  1450                           	opt callstack 0
  1451                           
  1452                           ; 1 bytes @ 0x28
  1453  000029                     	ds	1
  1454  00002A                     Serial_Lectura_Memoria@i:
  1455                           	opt callstack 0
  1456                           
  1457                           ; 2 bytes @ 0x29
  1458  00002A                     	ds	2
  1459  00002C                     ??___fltol:
  1460  00002C                     Serial_Lectura_Memoria@i_1147:
  1461                           	opt callstack 0
  1462                           
  1463                           ; 2 bytes @ 0x2B
  1464  00002C                     	ds	2
  1465  00002E                     Serial_Lectura_Memoria@i_1148:
  1466                           	opt callstack 0
  1467                           
  1468                           ; 2 bytes @ 0x2D
  1469  00002E                     	ds	2
  1470  000030                     ___fltol@sign1:
  1471                           	opt callstack 0
  1472                           
  1473                           ; 1 bytes @ 0x2F
  1474  000030                     	ds	1
  1475  000031                     ___fltol@exp1:
  1476                           	opt callstack 0
  1477                           
  1478                           ; 1 bytes @ 0x30
  1479  000031                     	ds	1
  1480  000032                     ?_Motor_Conversion:
  1481                           	opt callstack 0
  1482  000032                     Motor_Conversion@Coordenada:
  1483                           	opt callstack 0
  1484                           
  1485                           ; 2 bytes @ 0x31
  1486  000032                     	ds	2
  1487  000034                     Motor_Conversion@conversion:
  1488                           	opt callstack 0
  1489                           
  1490                           ; 4 bytes @ 0x33
  1491  000034                     	ds	4
  1492  000038                     Motor_Movimiento@Motor_CoordenadaX:
  1493                           	opt callstack 0
  1494                           
  1495                           ; 2 bytes @ 0x37
  1496  000038                     	ds	2
  1497  00003A                     Motor_Movimiento@Motor_CoordenadaY:
  1498                           	opt callstack 0
  1499                           
  1500                           ; 2 bytes @ 0x39
  1501  00003A                     	ds	2
  1502  00003C                     Motor_Movimiento@Oupcode:
  1503                           	opt callstack 0
  1504                           
  1505                           ; 1 bytes @ 0x3B
  1506  00003C                     	ds	1
  1507  00003D                     ??_main:
  1508                           
  1509                           ; 1 bytes @ 0x3C
  1510  00003D                     	ds	2
  1511  00003F                     main@instruction_counter:
  1512                           	opt callstack 0
  1513                           
  1514                           ; 1 bytes @ 0x3E
  1515  00003F                     	ds	1
  1516  000040                     main@Oupcode:
  1517                           	opt callstack 0
  1518                           
  1519                           ; 1 bytes @ 0x3F
  1520  000040                     	ds	1
  1521                           
  1522 ;;
  1523 ;;Main: autosize = 0, tempsize = 2, incstack = 0, save=0
  1524 ;;
  1525 ;; *************** function _main *****************
  1526 ;; Defined at:
  1527 ;;		line 21 in file "serial.c"
  1528 ;; Parameters:    Size  Location     Type
  1529 ;;		None
  1530 ;; Auto vars:     Size  Location     Type
  1531 ;;  Oupcode         1   63[COMRAM] unsigned char 
  1532 ;;  instruction_    1   62[COMRAM] unsigned char 
  1533 ;; Return value:  Size  Location     Type
  1534 ;;                  1    wreg      void 
  1535 ;; Registers used:
  1536 ;;		wreg, fsr0l, fsr0h, fsr1l, fsr1h, fsr2l, fsr2h, status,2, status,0, tblptrl, tblptrh, tblptru, prodl, prodh, cstack
  1537 ;; Tracked objects:
  1538 ;;		On entry : 0/0
  1539 ;;		On exit  : 0/0
  1540 ;;		Unchanged: 0/0
  1541 ;; Data sizes:     COMRAM   BANK0   BANK1   BANK2   BANK3   BANK4   BANK5   BANK6   BANK7
  1542 ;;      Params:         0       0       0       0       0       0       0       0       0
  1543 ;;      Locals:         2       0       0       0       0       0       0       0       0
  1544 ;;      Temps:          2       0       0       0       0       0       0       0       0
  1545 ;;      Totals:         4       0       0       0       0       0       0       0       0
  1546 ;;Total ram usage:        4 bytes
  1547 ;; Hardware stack levels required when called:    5
  1548 ;; This function calls:
  1549 ;;		_Actuator_Hold
  1550 ;;		_Actuator_Retract
  1551 ;;		_Actuator_Touch
  1552 ;;		_Motor_Movimiento
  1553 ;;		_Seria_Decodificacion_Memoria
  1554 ;;		_Serial_DecodificacionX
  1555 ;;		_Serial_DecodificacionY
  1556 ;;		_Serial_Escritura_Memoria
  1557 ;;		_Serial_Lectura_Memoria
  1558 ;;		_Serial_RangosCoordenadas
  1559 ;;		_USART_Init
  1560 ;;		_USART_RxC
  1561 ;;		_USART_RxS
  1562 ;;		_USART_TxS
  1563 ;; This function is called by:
  1564 ;;		Startup code after reset
  1565 ;; This function uses a non-reentrant model
  1566 ;;
  1567                           
  1568                           	psect	text0
  1569  0003AC                     __ptext0:
  1570                           	opt callstack 0
  1571  0003AC                     _main:
  1572                           	opt callstack 26
  1573  0003AC                     
  1574                           ;serial.c: 22:     OSCCON = 0x72;
  1575  0003AC  0E72               	movlw	114
  1576  0003AE  6ED3               	movwf	211,c	;volatile
  1577  0003B0                     
  1578                           ;serial.c: 23:     USART_Init(9600);
  1579  0003B0  0E80               	movlw	128
  1580  0003B2  6E0F               	movwf	USART_Init@BAUD^0,c
  1581  0003B4  0E25               	movlw	37
  1582  0003B6  6E10               	movwf	(USART_Init@BAUD+1)^0,c
  1583  0003B8  0E00               	movlw	0
  1584  0003BA  6E11               	movwf	(USART_Init@BAUD+2)^0,c
  1585  0003BC  0E00               	movlw	0
  1586  0003BE  6E12               	movwf	(USART_Init@BAUD+3)^0,c
  1587  0003C0  EC45  F00A         	call	_USART_Init	;wreg free
  1588  0003C4                     
  1589                           ;serial.c: 24:     TRISDbits.TRISD0 = 0;
  1590  0003C4  9095               	bcf	149,0,c	;volatile
  1591  0003C6                     
  1592                           ;serial.c: 25:     TRISDbits.TRISD2 = 0;
  1593  0003C6  9495               	bcf	149,2,c	;volatile
  1594  0003C8                     
  1595                           ;serial.c: 26:     TRISDbits.TRISD1 = 0;
  1596  0003C8  9295               	bcf	149,1,c	;volatile
  1597  0003CA                     
  1598                           ;serial.c: 27:     TRISDbits.TRISD3 = 0;
  1599  0003CA  9695               	bcf	149,3,c	;volatile
  1600  0003CC                     
  1601                           ;serial.c: 28:     PORTDbits.RD0 = 1;
  1602  0003CC  8083               	bsf	131,0,c	;volatile
  1603  0003CE                     
  1604                           ;serial.c: 29:     PORTDbits.RD0 = 1;
  1605  0003CE  8083               	bsf	131,0,c	;volatile
  1606  0003D0                     
  1607                           ;serial.c: 30:     TRISCbits.RC1 = 0;
  1608  0003D0  9294               	bcf	148,1,c	;volatile
  1609  0003D2                     
  1610                           ;serial.c: 31:     TRISCbits.RC2 = 0;
  1611  0003D2  9494               	bcf	148,2,c	;volatile
  1612  0003D4                     
  1613                           ;serial.c: 32:     PORTCbits.RC1 = 0;
  1614  0003D4  9282               	bcf	130,1,c	;volatile
  1615  0003D6                     
  1616                           ;serial.c: 33:     char instruction_counter = 0;
  1617  0003D6  0E00               	movlw	0
  1618  0003D8  6E3F               	movwf	main@instruction_counter^0,c
  1619  0003DA                     
  1620                           ;serial.c: 34:     USART_TxS("WELCOME TO SPARK", sizeof ("WELCOME TO SPARK"));
  1621  0003DA  0EA5               	movlw	low STR_1
  1622  0003DC  6E01               	movwf	USART_TxS@str^0,c
  1623  0003DE  0E7F               	movlw	high STR_1
  1624  0003E0  6E02               	movwf	(USART_TxS@str+1)^0,c
  1625  0003E2  0E00               	movlw	0
  1626  0003E4  6E04               	movwf	(USART_TxS@length+1)^0,c
  1627  0003E6  0E11               	movlw	17
  1628  0003E8  6E03               	movwf	USART_TxS@length^0,c
  1629  0003EA  ECB4  F00A         	call	_USART_TxS	;wreg free
  1630  0003EE                     
  1631                           ;serial.c: 35:     USART_TxS("PLEASE INSERT THE INSTRUCTION OF SETPOINT", sizeof ("PLEAS
      +                          E INSERT THE INSTRUCTION OF SETPOINT"));
  1632  0003EE  0E21               	movlw	low STR_2
  1633  0003F0  6E01               	movwf	USART_TxS@str^0,c
  1634  0003F2  0E7D               	movlw	high STR_2
  1635  0003F4  6E02               	movwf	(USART_TxS@str+1)^0,c
  1636  0003F6  0E00               	movlw	0
  1637  0003F8  6E04               	movwf	(USART_TxS@length+1)^0,c
  1638  0003FA  0E2A               	movlw	42
  1639  0003FC  6E03               	movwf	USART_TxS@length^0,c
  1640  0003FE  ECB4  F00A         	call	_USART_TxS	;wreg free
  1641  000402                     l4315:
  1642                           
  1643                           ;serial.c: 37:         if (instruction_counter == 0) {
  1644  000402  503F               	movf	main@instruction_counter^0,w,c
  1645  000404  A4D8               	btfss	status,2,c
  1646  000406  EF07  F002         	goto	u3231
  1647  00040A  EF09  F002         	goto	u3230
  1648  00040E                     u3231:
  1649  00040E  EF15  F002         	goto	l4321
  1650  000412                     u3230:
  1651  000412                     
  1652                           ;serial.c: 38:             USART_TxS("WAITING FOR INSTRUCTION", sizeof ("WAITING FOR INS
      +                          TRUCTION"));
  1653  000412  0E3D               	movlw	low STR_3
  1654  000414  6E01               	movwf	USART_TxS@str^0,c
  1655  000416  0E7F               	movlw	high STR_3
  1656  000418  6E02               	movwf	(USART_TxS@str+1)^0,c
  1657  00041A  0E00               	movlw	0
  1658  00041C  6E04               	movwf	(USART_TxS@length+1)^0,c
  1659  00041E  0E18               	movlw	24
  1660  000420  6E03               	movwf	USART_TxS@length^0,c
  1661  000422  ECB4  F00A         	call	_USART_TxS	;wreg free
  1662  000426                     
  1663                           ;serial.c: 39:             instruction_counter = 1;
  1664  000426  0E01               	movlw	1
  1665  000428  6E3F               	movwf	main@instruction_counter^0,c
  1666  00042A                     l4321:
  1667                           
  1668                           ;serial.c: 41:         char Oupcode = USART_RxC();
  1669  00042A  EC9D  F00C         	call	_USART_RxC	;wreg free
  1670  00042E  6E40               	movwf	main@Oupcode^0,c
  1671                           
  1672                           ;serial.c: 42:         switch (Oupcode) {
  1673  000430  EF36  F003         	goto	l4391
  1674  000434                     l4323:
  1675                           
  1676                           ;serial.c: 44:                 USART_RxS(7, coordenada_array);
  1677  000434  0E81               	movlw	low _coordenada_array
  1678  000436  6E01               	movwf	USART_RxS@pointer^0,c
  1679  000438  0E00               	movlw	high _coordenada_array
  1680  00043A  6E02               	movwf	(USART_RxS@pointer+1)^0,c
  1681  00043C  0E07               	movlw	7
  1682  00043E  EC1B  F00B         	call	_USART_RxS
  1683  000442                     
  1684                           ;serial.c: 45:                 USART_TxS("WAIT UNTIL COMPLETE...", sizeof ("WAIT UNTIL C
      +                          OMPLETE..."));
  1685  000442  0E55               	movlw	low STR_4
  1686  000444  6E01               	movwf	USART_TxS@str^0,c
  1687  000446  0E7F               	movlw	high STR_4
  1688  000448  6E02               	movwf	(USART_TxS@str+1)^0,c
  1689  00044A  0E00               	movlw	0
  1690  00044C  6E04               	movwf	(USART_TxS@length+1)^0,c
  1691  00044E  0E17               	movlw	23
  1692  000450  6E03               	movwf	USART_TxS@length^0,c
  1693  000452  ECB4  F00A         	call	_USART_TxS	;wreg free
  1694  000456                     
  1695                           ;serial.c: 46:                 Serial_DecodificacionX(coordenada_array, &CoordenadaX);
  1696  000456  0E81               	movlw	low _coordenada_array
  1697  000458  6E17               	movwf	Serial_DecodificacionX@string_coordenada^0,c
  1698  00045A  0E00               	movlw	high _coordenada_array
  1699  00045C  6E18               	movwf	(Serial_DecodificacionX@string_coordenada+1)^0,c
  1700  00045E  0E5D               	movlw	low _CoordenadaX
  1701  000460  6E19               	movwf	Serial_DecodificacionX@pointerCX^0,c
  1702  000462  0E00               	movlw	high _CoordenadaX
  1703  000464  6E1A               	movwf	(Serial_DecodificacionX@pointerCX+1)^0,c
  1704  000466  ECEA  F00A         	call	_Serial_DecodificacionX	;wreg free
  1705  00046A                     
  1706                           ;serial.c: 47:                 Serial_DecodificacionY(coordenada_array, &CoordenadaY);
  1707  00046A  0E81               	movlw	low _coordenada_array
  1708  00046C  6E17               	movwf	Serial_DecodificacionY@string_coordenada^0,c
  1709  00046E  0E00               	movlw	high _coordenada_array
  1710  000470  6E18               	movwf	(Serial_DecodificacionY@string_coordenada+1)^0,c
  1711  000472  0E5B               	movlw	low _CoordenadaY
  1712  000474  6E19               	movwf	Serial_DecodificacionY@pointerCY^0,c
  1713  000476  0E00               	movlw	high _CoordenadaY
  1714  000478  6E1A               	movwf	(Serial_DecodificacionY@pointerCY+1)^0,c
  1715  00047A  EC7D  F00A         	call	_Serial_DecodificacionY	;wreg free
  1716  00047E                     
  1717                           ;serial.c: 48:                 Serial_RangosCoordenadas(CoordenadaX);
  1718  00047E  C05D  F009         	movff	_CoordenadaX,Serial_RangosCoordenadas@C
  1719  000482  C05E  F00A         	movff	_CoordenadaX+1,Serial_RangosCoordenadas@C+1
  1720  000486  EC6F  F00B         	call	_Serial_RangosCoordenadas	;wreg free
  1721  00048A                     
  1722                           ;serial.c: 49:                 Serial_RangosCoordenadas(CoordenadaY);
  1723  00048A  C05B  F009         	movff	_CoordenadaY,Serial_RangosCoordenadas@C
  1724  00048E  C05C  F00A         	movff	_CoordenadaY+1,Serial_RangosCoordenadas@C+1
  1725  000492  EC6F  F00B         	call	_Serial_RangosCoordenadas	;wreg free
  1726  000496                     
  1727                           ;serial.c: 50:                 if (Coordenadas_fuera == 1) {
  1728  000496  0453               	decf	_Coordenadas_fuera^0,w,c
  1729  000498  A4D8               	btfss	status,2,c
  1730  00049A  EF51  F002         	goto	u3241
  1731  00049E  EF53  F002         	goto	u3240
  1732  0004A2                     u3241:
  1733  0004A2  EF55  F002         	goto	l4339
  1734  0004A6                     u3240:
  1735  0004A6  EF01  F002         	goto	l4315
  1736  0004AA                     l4339:
  1737                           
  1738                           ;serial.c: 53:                     Motor_Movimiento(Oupcode, CoordenadaX, CoordenadaY);
  1739  0004AA  C05D  F038         	movff	_CoordenadaX,Motor_Movimiento@Motor_CoordenadaX
  1740  0004AE  C05E  F039         	movff	_CoordenadaX+1,Motor_Movimiento@Motor_CoordenadaX+1
  1741  0004B2  C05B  F03A         	movff	_CoordenadaY,Motor_Movimiento@Motor_CoordenadaY
  1742  0004B6  C05C  F03B         	movff	_CoordenadaY+1,Motor_Movimiento@Motor_CoordenadaY+1
  1743  0004BA  5040               	movf	main@Oupcode^0,w,c
  1744  0004BC  ECCD  F009         	call	_Motor_Movimiento
  1745  0004C0  EF01  F002         	goto	l4315
  1746  0004C4                     l4341:
  1747                           
  1748                           ;serial.c: 57:                 USART_RxS(7, coordenada_array);
  1749  0004C4  0E81               	movlw	low _coordenada_array
  1750  0004C6  6E01               	movwf	USART_RxS@pointer^0,c
  1751  0004C8  0E00               	movlw	high _coordenada_array
  1752  0004CA  6E02               	movwf	(USART_RxS@pointer+1)^0,c
  1753  0004CC  0E07               	movlw	7
  1754  0004CE  EC1B  F00B         	call	_USART_RxS
  1755  0004D2                     
  1756                           ;serial.c: 58:                 USART_TxS("WAIT UNTIL COMPLETE...", sizeof ("WAIT UNTIL C
      +                          OMPLETE..."));
  1757  0004D2  0E55               	movlw	low STR_4
  1758  0004D4  6E01               	movwf	USART_TxS@str^0,c
  1759  0004D6  0E7F               	movlw	high STR_4
  1760  0004D8  6E02               	movwf	(USART_TxS@str+1)^0,c
  1761  0004DA  0E00               	movlw	0
  1762  0004DC  6E04               	movwf	(USART_TxS@length+1)^0,c
  1763  0004DE  0E17               	movlw	23
  1764  0004E0  6E03               	movwf	USART_TxS@length^0,c
  1765  0004E2  ECB4  F00A         	call	_USART_TxS	;wreg free
  1766  0004E6                     
  1767                           ;serial.c: 59:                 Serial_DecodificacionX(coordenada_array, &CoordenadaX);
  1768  0004E6  0E81               	movlw	low _coordenada_array
  1769  0004E8  6E17               	movwf	Serial_DecodificacionX@string_coordenada^0,c
  1770  0004EA  0E00               	movlw	high _coordenada_array
  1771  0004EC  6E18               	movwf	(Serial_DecodificacionX@string_coordenada+1)^0,c
  1772  0004EE  0E5D               	movlw	low _CoordenadaX
  1773  0004F0  6E19               	movwf	Serial_DecodificacionX@pointerCX^0,c
  1774  0004F2  0E00               	movlw	high _CoordenadaX
  1775  0004F4  6E1A               	movwf	(Serial_DecodificacionX@pointerCX+1)^0,c
  1776  0004F6  ECEA  F00A         	call	_Serial_DecodificacionX	;wreg free
  1777  0004FA                     
  1778                           ;serial.c: 60:                 Serial_DecodificacionY(coordenada_array, &CoordenadaY);
  1779  0004FA  0E81               	movlw	low _coordenada_array
  1780  0004FC  6E17               	movwf	Serial_DecodificacionY@string_coordenada^0,c
  1781  0004FE  0E00               	movlw	high _coordenada_array
  1782  000500  6E18               	movwf	(Serial_DecodificacionY@string_coordenada+1)^0,c
  1783  000502  0E5B               	movlw	low _CoordenadaY
  1784  000504  6E19               	movwf	Serial_DecodificacionY@pointerCY^0,c
  1785  000506  0E00               	movlw	high _CoordenadaY
  1786  000508  6E1A               	movwf	(Serial_DecodificacionY@pointerCY+1)^0,c
  1787  00050A  EC7D  F00A         	call	_Serial_DecodificacionY	;wreg free
  1788  00050E                     
  1789                           ;serial.c: 61:                 Serial_RangosCoordenadas(CoordenadaX);
  1790  00050E  C05D  F009         	movff	_CoordenadaX,Serial_RangosCoordenadas@C
  1791  000512  C05E  F00A         	movff	_CoordenadaX+1,Serial_RangosCoordenadas@C+1
  1792  000516  EC6F  F00B         	call	_Serial_RangosCoordenadas	;wreg free
  1793  00051A                     
  1794                           ;serial.c: 62:                 Serial_RangosCoordenadas(CoordenadaY);
  1795  00051A  C05B  F009         	movff	_CoordenadaY,Serial_RangosCoordenadas@C
  1796  00051E  C05C  F00A         	movff	_CoordenadaY+1,Serial_RangosCoordenadas@C+1
  1797  000522  EC6F  F00B         	call	_Serial_RangosCoordenadas	;wreg free
  1798  000526                     
  1799                           ;serial.c: 63:                 if (Coordenadas_fuera == 1) {
  1800  000526  0453               	decf	_Coordenadas_fuera^0,w,c
  1801  000528  A4D8               	btfss	status,2,c
  1802  00052A  EF99  F002         	goto	u3251
  1803  00052E  EF9B  F002         	goto	u3250
  1804  000532                     u3251:
  1805  000532  EF9D  F002         	goto	l4357
  1806  000536                     u3250:
  1807  000536  EF01  F002         	goto	l4315
  1808  00053A                     l4357:
  1809                           
  1810                           ;serial.c: 66:                     Motor_Movimiento(Oupcode, CoordenadaX, CoordenadaY);
  1811  00053A  C05D  F038         	movff	_CoordenadaX,Motor_Movimiento@Motor_CoordenadaX
  1812  00053E  C05E  F039         	movff	_CoordenadaX+1,Motor_Movimiento@Motor_CoordenadaX+1
  1813  000542  C05B  F03A         	movff	_CoordenadaY,Motor_Movimiento@Motor_CoordenadaY
  1814  000546  C05C  F03B         	movff	_CoordenadaY+1,Motor_Movimiento@Motor_CoordenadaY+1
  1815  00054A  5040               	movf	main@Oupcode^0,w,c
  1816  00054C  ECCD  F009         	call	_Motor_Movimiento
  1817  000550  EF01  F002         	goto	l4315
  1818  000554                     l4359:
  1819                           
  1820                           ;serial.c: 70:                 USART_TxS("WAIT UNTIL COMPLETE...", sizeof ("WAIT UNTIL C
      +                          OMPLETE..."));
  1821  000554  0E55               	movlw	low STR_4
  1822  000556  6E01               	movwf	USART_TxS@str^0,c
  1823  000558  0E7F               	movlw	high STR_4
  1824  00055A  6E02               	movwf	(USART_TxS@str+1)^0,c
  1825  00055C  0E00               	movlw	0
  1826  00055E  6E04               	movwf	(USART_TxS@length+1)^0,c
  1827  000560  0E17               	movlw	23
  1828  000562  6E03               	movwf	USART_TxS@length^0,c
  1829  000564  ECB4  F00A         	call	_USART_TxS	;wreg free
  1830                           
  1831                           ;serial.c: 71:                 Actuator_Touch();
  1832  000568  ECC6  F00B         	call	_Actuator_Touch	;wreg free
  1833                           
  1834                           ;serial.c: 72:                 break;
  1835  00056C  EF01  F002         	goto	l4315
  1836  000570                     l4361:
  1837                           
  1838                           ;serial.c: 74:                 USART_TxS("WAIT UNTIL COMPLETE...", sizeof ("WAIT UNTIL C
      +                          OMPLETE..."));
  1839  000570  0E55               	movlw	low STR_4
  1840  000572  6E01               	movwf	USART_TxS@str^0,c
  1841  000574  0E7F               	movlw	high STR_4
  1842  000576  6E02               	movwf	(USART_TxS@str+1)^0,c
  1843  000578  0E00               	movlw	0
  1844  00057A  6E04               	movwf	(USART_TxS@length+1)^0,c
  1845  00057C  0E17               	movlw	23
  1846  00057E  6E03               	movwf	USART_TxS@length^0,c
  1847  000580  ECB4  F00A         	call	_USART_TxS	;wreg free
  1848                           
  1849                           ;serial.c: 75:                 Actuator_Hold();
  1850  000584  EC87  F00C         	call	_Actuator_Hold	;wreg free
  1851                           
  1852                           ;serial.c: 76:                 break;
  1853  000588  EF01  F002         	goto	l4315
  1854  00058C                     l4363:
  1855                           
  1856                           ;serial.c: 78:                 USART_TxS("WAIT UNTIL COMPLETE...", sizeof ("WAIT UNTIL C
      +                          OMPLETE..."));
  1857  00058C  0E55               	movlw	low STR_4
  1858  00058E  6E01               	movwf	USART_TxS@str^0,c
  1859  000590  0E7F               	movlw	high STR_4
  1860  000592  6E02               	movwf	(USART_TxS@str+1)^0,c
  1861  000594  0E00               	movlw	0
  1862  000596  6E04               	movwf	(USART_TxS@length+1)^0,c
  1863  000598  0E17               	movlw	23
  1864  00059A  6E03               	movwf	USART_TxS@length^0,c
  1865  00059C  ECB4  F00A         	call	_USART_TxS	;wreg free
  1866                           
  1867                           ;serial.c: 79:                 Actuator_Retract();
  1868  0005A0  EC7B  F00C         	call	_Actuator_Retract	;wreg free
  1869                           
  1870                           ;serial.c: 80:                 break;
  1871  0005A4  EF01  F002         	goto	l4315
  1872  0005A8                     l4365:
  1873                           
  1874                           ;serial.c: 82:                 USART_TxS("WAIT UNTIL COMPLETE...", sizeof ("WAIT UNTIL C
      +                          OMPLETE..."));
  1875  0005A8  0E55               	movlw	low STR_4
  1876  0005AA  6E01               	movwf	USART_TxS@str^0,c
  1877  0005AC  0E7F               	movlw	high STR_4
  1878  0005AE  6E02               	movwf	(USART_TxS@str+1)^0,c
  1879  0005B0  0E00               	movlw	0
  1880  0005B2  6E04               	movwf	(USART_TxS@length+1)^0,c
  1881  0005B4  0E17               	movlw	23
  1882  0005B6  6E03               	movwf	USART_TxS@length^0,c
  1883  0005B8  ECB4  F00A         	call	_USART_TxS	;wreg free
  1884  0005BC                     
  1885                           ;serial.c: 83:                 Direccion_Memoria = USART_RxC();
  1886  0005BC  EC9D  F00C         	call	_USART_RxC	;wreg free
  1887  0005C0  6E54               	movwf	_Direccion_Memoria^0,c
  1888  0005C2                     
  1889                           ;serial.c: 84:                 Direccion_Memoria = Seria_Decodificacion_Memoria(Direccio
      +                          n_Memoria);
  1890  0005C2  5054               	movf	_Direccion_Memoria^0,w,c
  1891  0005C4  EC61  F003         	call	_Seria_Decodificacion_Memoria
  1892  0005C8  6E54               	movwf	_Direccion_Memoria^0,c
  1893  0005CA                     
  1894                           ;serial.c: 85:                 Serial_Lectura_Memoria(Direccion_Memoria, &CoordenadaX, &
      +                          CoordenadaY, &CoordenadaZ);
  1895  0005CA  0E5D               	movlw	low _CoordenadaX
  1896  0005CC  6E17               	movwf	Serial_Lectura_Memoria@pointerCX^0,c
  1897  0005CE  0E00               	movlw	high _CoordenadaX
  1898  0005D0  6E18               	movwf	(Serial_Lectura_Memoria@pointerCX+1)^0,c
  1899  0005D2  0E5B               	movlw	low _CoordenadaY
  1900  0005D4  6E19               	movwf	Serial_Lectura_Memoria@pointerCY^0,c
  1901  0005D6  0E00               	movlw	high _CoordenadaY
  1902  0005D8  6E1A               	movwf	(Serial_Lectura_Memoria@pointerCY+1)^0,c
  1903  0005DA  0E59               	movlw	low _CoordenadaZ
  1904  0005DC  6E1B               	movwf	Serial_Lectura_Memoria@pointerCZ^0,c
  1905  0005DE  0E00               	movlw	high _CoordenadaZ
  1906  0005E0  6E1C               	movwf	(Serial_Lectura_Memoria@pointerCZ+1)^0,c
  1907  0005E2  5054               	movf	_Direccion_Memoria^0,w,c
  1908  0005E4  EC93  F004         	call	_Serial_Lectura_Memoria
  1909  0005E8                     
  1910                           ;serial.c: 86:                 if (Coordenadas_fuera == 1) {
  1911  0005E8  0453               	decf	_Coordenadas_fuera^0,w,c
  1912  0005EA  A4D8               	btfss	status,2,c
  1913  0005EC  EFFA  F002         	goto	u3261
  1914  0005F0  EFFC  F002         	goto	u3260
  1915  0005F4                     u3261:
  1916  0005F4  EF08  F003         	goto	l4377
  1917  0005F8                     u3260:
  1918  0005F8                     
  1919                           ;serial.c: 87:                     USART_TxS("PLEASE MODIFY THE SETPOINT AND TRY AGAIN",
      +                           sizeof ("PLEASE MODIFY THE SETPOINT AND TRY AGAIN"));
  1920  0005F8  0E4B               	movlw	low STR_10
  1921  0005FA  6E01               	movwf	USART_TxS@str^0,c
  1922  0005FC  0E7D               	movlw	high STR_10
  1923  0005FE  6E02               	movwf	(USART_TxS@str+1)^0,c
  1924  000600  0E00               	movlw	0
  1925  000602  6E04               	movwf	(USART_TxS@length+1)^0,c
  1926  000604  0E29               	movlw	41
  1927  000606  6E03               	movwf	USART_TxS@length^0,c
  1928  000608  ECB4  F00A         	call	_USART_TxS	;wreg free
  1929                           
  1930                           ;serial.c: 89:                 } else {
  1931  00060C  EF01  F002         	goto	l4315
  1932  000610                     l4377:
  1933                           
  1934                           ;serial.c: 91:                     Motor_Movimiento(Oupcode, CoordenadaX, CoordenadaY);
  1935  000610  C05D  F038         	movff	_CoordenadaX,Motor_Movimiento@Motor_CoordenadaX
  1936  000614  C05E  F039         	movff	_CoordenadaX+1,Motor_Movimiento@Motor_CoordenadaX+1
  1937  000618  C05B  F03A         	movff	_CoordenadaY,Motor_Movimiento@Motor_CoordenadaY
  1938  00061C  C05C  F03B         	movff	_CoordenadaY+1,Motor_Movimiento@Motor_CoordenadaY+1
  1939  000620  5040               	movf	main@Oupcode^0,w,c
  1940  000622  ECCD  F009         	call	_Motor_Movimiento
  1941  000626  EF01  F002         	goto	l4315
  1942  00062A                     l4379:
  1943                           
  1944                           ;serial.c: 95:                 Direccion_Memoria = USART_RxC();
  1945  00062A  EC9D  F00C         	call	_USART_RxC	;wreg free
  1946  00062E  6E54               	movwf	_Direccion_Memoria^0,c
  1947  000630                     
  1948                           ;serial.c: 96:                 USART_RxS(11, coordenada_setpoint);
  1949  000630  0E76               	movlw	low _coordenada_setpoint
  1950  000632  6E01               	movwf	USART_RxS@pointer^0,c
  1951  000634  0E00               	movlw	high _coordenada_setpoint
  1952  000636  6E02               	movwf	(USART_RxS@pointer+1)^0,c
  1953  000638  0E0B               	movlw	11
  1954  00063A  EC1B  F00B         	call	_USART_RxS
  1955  00063E                     
  1956                           ;serial.c: 97:                 USART_TxS("WAIT UNTIL COMPLETE...", sizeof ("WAIT UNTIL C
      +                          OMPLETE..."));
  1957  00063E  0E55               	movlw	low STR_4
  1958  000640  6E01               	movwf	USART_TxS@str^0,c
  1959  000642  0E7F               	movlw	high STR_4
  1960  000644  6E02               	movwf	(USART_TxS@str+1)^0,c
  1961  000646  0E00               	movlw	0
  1962  000648  6E04               	movwf	(USART_TxS@length+1)^0,c
  1963  00064A  0E17               	movlw	23
  1964  00064C  6E03               	movwf	USART_TxS@length^0,c
  1965  00064E  ECB4  F00A         	call	_USART_TxS	;wreg free
  1966  000652                     
  1967                           ;serial.c: 98:                 Direccion_Memoria = Seria_Decodificacion_Memoria(Direccio
      +                          n_Memoria);
  1968  000652  5054               	movf	_Direccion_Memoria^0,w,c
  1969  000654  EC61  F003         	call	_Seria_Decodificacion_Memoria
  1970  000658  6E54               	movwf	_Direccion_Memoria^0,c
  1971  00065A                     
  1972                           ;serial.c: 99:                 Serial_Escritura_Memoria(Direccion_Memoria, coordenada_se
      +                          tpoint);
  1973  00065A  0E76               	movlw	low _coordenada_setpoint
  1974  00065C  6E09               	movwf	Serial_Escritura_Memoria@string_setpoint^0,c
  1975  00065E  0E00               	movlw	high _coordenada_setpoint
  1976  000660  6E0A               	movwf	(Serial_Escritura_Memoria@string_setpoint+1)^0,c
  1977  000662  5054               	movf	_Direccion_Memoria^0,w,c
  1978  000664  EC1B  F007         	call	_Serial_Escritura_Memoria
  1979                           
  1980                           ;serial.c: 100:                 break;
  1981  000668  EF01  F002         	goto	l4315
  1982  00066C                     l4391:
  1983  00066C  5040               	movf	main@Oupcode^0,w,c
  1984  00066E  6E3D               	movwf	??_main^0,c
  1985  000670  6A3E               	clrf	(??_main+1)^0,c
  1986                           
  1987                           ; Switch on 2 bytes has been partitioned into a top level switch of size 1, and 1 sub-sw
      +                          itches
  1988                           ; Switch size 1, requested type "simple"
  1989                           ; Number of cases is 1, Range of values is 0 to 0
  1990                           ; switch strategies available:
  1991                           ; Name         Instructions Cycles
  1992                           ; simple_byte            4     3 (average)
  1993                           ;	Chosen strategy is simple_byte
  1994  000672  503E               	movf	(??_main+1)^0,w,c
  1995  000674  0A00               	xorlw	0	; case 0
  1996  000676  B4D8               	btfsc	status,2,c
  1997  000678  EF40  F003         	goto	l4645
  1998  00067C  EF01  F002         	goto	l4315
  1999  000680                     l4645:
  2000                           
  2001                           ; Switch size 1, requested type "simple"
  2002                           ; Number of cases is 7, Range of values is 70 to 84
  2003                           ; switch strategies available:
  2004                           ; Name         Instructions Cycles
  2005                           ; simple_byte           22    12 (average)
  2006                           ;	Chosen strategy is simple_byte
  2007  000680  503D               	movf	??_main^0,w,c
  2008  000682  0A46               	xorlw	70	; case 70
  2009  000684  B4D8               	btfsc	status,2,c
  2010  000686  EF1A  F002         	goto	l4323
  2011  00068A  0A0E               	xorlw	14	; case 72
  2012  00068C  B4D8               	btfsc	status,2,c
  2013  00068E  EFB8  F002         	goto	l4361
  2014  000692  0A05               	xorlw	5	; case 77
  2015  000694  B4D8               	btfsc	status,2,c
  2016  000696  EF15  F003         	goto	l4379
  2017  00069A  0A02               	xorlw	2	; case 79
  2018  00069C  B4D8               	btfsc	status,2,c
  2019  00069E  EFD4  F002         	goto	l4365
  2020  0006A2  0A1D               	xorlw	29	; case 82
  2021  0006A4  B4D8               	btfsc	status,2,c
  2022  0006A6  EFC6  F002         	goto	l4363
  2023  0006AA  0A01               	xorlw	1	; case 83
  2024  0006AC  B4D8               	btfsc	status,2,c
  2025  0006AE  EF62  F002         	goto	l4341
  2026  0006B2  0A07               	xorlw	7	; case 84
  2027  0006B4  B4D8               	btfsc	status,2,c
  2028  0006B6  EFAA  F002         	goto	l4359
  2029  0006BA  EF01  F002         	goto	l4315
  2030  0006BE  EF07  F000         	goto	start
  2031  0006C2                     __end_of_main:
  2032                           	opt callstack 0
  2033                           
  2034 ;; *************** function _USART_RxS *****************
  2035 ;; Defined at:
  2036 ;;		line 48 in file "UART.c"
  2037 ;; Parameters:    Size  Location     Type
  2038 ;;  length          1    wreg     unsigned char 
  2039 ;;  pointer         2    0[COMRAM] PTR unsigned char 
  2040 ;;		 -> coordenada_setpoint(11), coordenada_array(7), 
  2041 ;; Auto vars:     Size  Location     Type
  2042 ;;  length          1    5[COMRAM] unsigned char 
  2043 ;;  i               2    6[COMRAM] int 
  2044 ;; Return value:  Size  Location     Type
  2045 ;;                  1    wreg      void 
  2046 ;; Registers used:
  2047 ;;		wreg, fsr2l, fsr2h, status,2, status,0
  2048 ;; Tracked objects:
  2049 ;;		On entry : 0/0
  2050 ;;		On exit  : 0/0
  2051 ;;		Unchanged: 0/0
  2052 ;; Data sizes:     COMRAM   BANK0   BANK1   BANK2   BANK3   BANK4   BANK5   BANK6   BANK7
  2053 ;;      Params:         2       0       0       0       0       0       0       0       0
  2054 ;;      Locals:         3       0       0       0       0       0       0       0       0
  2055 ;;      Temps:          3       0       0       0       0       0       0       0       0
  2056 ;;      Totals:         8       0       0       0       0       0       0       0       0
  2057 ;;Total ram usage:        8 bytes
  2058 ;; Hardware stack levels used:    1
  2059 ;; Hardware stack levels required when called:    2
  2060 ;; This function calls:
  2061 ;;		Nothing
  2062 ;; This function is called by:
  2063 ;;		_main
  2064 ;; This function uses a non-reentrant model
  2065 ;;
  2066                           
  2067                           	psect	text1
  2068  001636                     __ptext1:
  2069                           	opt callstack 0
  2070  001636                     _USART_RxS:
  2071                           	opt callstack 28
  2072                           
  2073                           ;incstack = 0
  2074                           ;USART_RxS@length stored from wreg
  2075  001636  6E06               	movwf	USART_RxS@length^0,c
  2076  001638                     
  2077                           ;UART.c: 49:     for (int i = 0; i < length; i++)
  2078  001638  0E00               	movlw	0
  2079  00163A  6E08               	movwf	(USART_RxS@i+1)^0,c
  2080  00163C  0E00               	movlw	0
  2081  00163E  6E07               	movwf	USART_RxS@i^0,c
  2082  001640  EF33  F00B         	goto	l3185
  2083  001644                     l113:
  2084  001644  AA9E               	btfss	3998,5,c	;volatile
  2085  001646  EF27  F00B         	goto	u1881
  2086  00164A  EF29  F00B         	goto	u1880
  2087  00164E                     u1881:
  2088  00164E  EF22  F00B         	goto	l113
  2089  001652                     u1880:
  2090  001652                     
  2091                           ;UART.c: 52:             pointer[i] = RCREG;
  2092  001652  5007               	movf	USART_RxS@i^0,w,c
  2093  001654  2401               	addwf	USART_RxS@pointer^0,w,c
  2094  001656  6ED9               	movwf	fsr2l,c
  2095  001658  5008               	movf	(USART_RxS@i+1)^0,w,c
  2096  00165A  2002               	addwfc	(USART_RxS@pointer+1)^0,w,c
  2097  00165C  6EDA               	movwf	fsr2h,c
  2098  00165E  CFAE FFDF          	movff	4014,indf2	;volatile
  2099  001662                     
  2100                           ;UART.c: 53:         }
  2101  001662  4A07               	infsnz	USART_RxS@i^0,f,c
  2102  001664  2A08               	incf	(USART_RxS@i+1)^0,f,c
  2103  001666                     l3185:
  2104  001666  5006               	movf	USART_RxS@length^0,w,c
  2105  001668  6E03               	movwf	??_USART_RxS^0,c
  2106  00166A  6A04               	clrf	(??_USART_RxS+1)^0,c
  2107  00166C  5003               	movf	??_USART_RxS^0,w,c
  2108  00166E  5C07               	subwf	USART_RxS@i^0,w,c
  2109  001670  5008               	movf	(USART_RxS@i+1)^0,w,c
  2110  001672  0A80               	xorlw	128
  2111  001674  6E05               	movwf	(??_USART_RxS+2)^0,c
  2112  001676  5004               	movf	(??_USART_RxS+1)^0,w,c
  2113  001678  0A80               	xorlw	128
  2114  00167A  5805               	subwfb	(??_USART_RxS+2)^0,w,c
  2115  00167C  A0D8               	btfss	status,0,c
  2116  00167E  EF43  F00B         	goto	u1891
  2117  001682  EF45  F00B         	goto	u1890
  2118  001686                     u1891:
  2119  001686  EF22  F00B         	goto	l113
  2120  00168A                     u1890:
  2121  00168A  0012               	return		;funcret
  2122  00168C                     __end_of_USART_RxS:
  2123                           	opt callstack 0
  2124                           
  2125 ;; *************** function _USART_RxC *****************
  2126 ;; Defined at:
  2127 ;;		line 30 in file "UART.c"
  2128 ;; Parameters:    Size  Location     Type
  2129 ;;		None
  2130 ;; Auto vars:     Size  Location     Type
  2131 ;;		None
  2132 ;; Return value:  Size  Location     Type
  2133 ;;                  1    wreg      unsigned char 
  2134 ;; Registers used:
  2135 ;;		wreg, status,2
  2136 ;; Tracked objects:
  2137 ;;		On entry : 0/0
  2138 ;;		On exit  : 0/0
  2139 ;;		Unchanged: 0/0
  2140 ;; Data sizes:     COMRAM   BANK0   BANK1   BANK2   BANK3   BANK4   BANK5   BANK6   BANK7
  2141 ;;      Params:         0       0       0       0       0       0       0       0       0
  2142 ;;      Locals:         0       0       0       0       0       0       0       0       0
  2143 ;;      Temps:          0       0       0       0       0       0       0       0       0
  2144 ;;      Totals:         0       0       0       0       0       0       0       0       0
  2145 ;;Total ram usage:        0 bytes
  2146 ;; Hardware stack levels used:    1
  2147 ;; Hardware stack levels required when called:    2
  2148 ;; This function calls:
  2149 ;;		Nothing
  2150 ;; This function is called by:
  2151 ;;		_main
  2152 ;; This function uses a non-reentrant model
  2153 ;;
  2154                           
  2155                           	psect	text2
  2156  00193A                     __ptext2:
  2157                           	opt callstack 0
  2158  00193A                     _USART_RxC:
  2159                           	opt callstack 28
  2160  00193A                     l90:
  2161  00193A  AA9E               	btfss	158,5,c	;volatile
  2162  00193C  EFA2  F00C         	goto	u1871
  2163  001940  EFA4  F00C         	goto	u1870
  2164  001944                     u1871:
  2165  001944  EF9D  F00C         	goto	l90
  2166  001948                     u1870:
  2167  001948                     
  2168                           ;UART.c: 32:     return RCREG;
  2169  001948  50AE               	movf	174,w,c	;volatile
  2170  00194A  0012               	return		;funcret
  2171  00194C                     __end_of_USART_RxC:
  2172                           	opt callstack 0
  2173                           
  2174 ;; *************** function _USART_Init *****************
  2175 ;; Defined at:
  2176 ;;		line 6 in file "UART.c"
  2177 ;; Parameters:    Size  Location     Type
  2178 ;;  BAUD            4   14[COMRAM] long 
  2179 ;; Auto vars:     Size  Location     Type
  2180 ;;		None
  2181 ;; Return value:  Size  Location     Type
  2182 ;;                  1    wreg      void 
  2183 ;; Registers used:
  2184 ;;		wreg, status,2, status,0, cstack
  2185 ;; Tracked objects:
  2186 ;;		On entry : 0/0
  2187 ;;		On exit  : 0/0
  2188 ;;		Unchanged: 0/0
  2189 ;; Data sizes:     COMRAM   BANK0   BANK1   BANK2   BANK3   BANK4   BANK5   BANK6   BANK7
  2190 ;;      Params:         4       0       0       0       0       0       0       0       0
  2191 ;;      Locals:         4       0       0       0       0       0       0       0       0
  2192 ;;      Temps:          0       0       0       0       0       0       0       0       0
  2193 ;;      Totals:         8       0       0       0       0       0       0       0       0
  2194 ;;Total ram usage:        8 bytes
  2195 ;; Hardware stack levels used:    1
  2196 ;; Hardware stack levels required when called:    3
  2197 ;; This function calls:
  2198 ;;		___aldiv
  2199 ;; This function is called by:
  2200 ;;		_main
  2201 ;; This function uses a non-reentrant model
  2202 ;;
  2203                           
  2204                           	psect	text3
  2205  00148A                     __ptext3:
  2206                           	opt callstack 0
  2207  00148A                     _USART_Init:
  2208                           	opt callstack 27
  2209  00148A                     
  2210                           ;UART.c: 7:     TRISCbits.RC6 = 0;
  2211  00148A  9C94               	bcf	148,6,c	;volatile
  2212                           
  2213                           ;UART.c: 8:     TRISCbits.RC7 = 1;
  2214  00148C  8E94               	bsf	148,7,c	;volatile
  2215  00148E                     
  2216                           ;UART.c: 11:     SPBRG = (unsigned char)(((8000000/BAUD)/64)-1);
  2217  00148E  C00F  F005         	movff	USART_Init@BAUD,___aldiv@divisor
  2218  001492  C010  F006         	movff	USART_Init@BAUD+1,___aldiv@divisor+1
  2219  001496  C011  F007         	movff	USART_Init@BAUD+2,___aldiv@divisor+2
  2220  00149A  C012  F008         	movff	USART_Init@BAUD+3,___aldiv@divisor+3
  2221  00149E  0E00               	movlw	0
  2222  0014A0  6E01               	movwf	___aldiv@dividend^0,c
  2223  0014A2  0E12               	movlw	18
  2224  0014A4  6E02               	movwf	(___aldiv@dividend+1)^0,c
  2225  0014A6  0E7A               	movlw	122
  2226  0014A8  6E03               	movwf	(___aldiv@dividend+2)^0,c
  2227  0014AA  0E00               	movlw	0
  2228  0014AC  6E04               	movwf	(___aldiv@dividend+3)^0,c
  2229  0014AE  EC42  F008         	call	___aldiv	;wreg free
  2230  0014B2  C001  F013         	movff	?___aldiv,_USART_Init$2709
  2231  0014B6  C002  F014         	movff	?___aldiv+1,_USART_Init$2709+1
  2232  0014BA  C003  F015         	movff	?___aldiv+2,_USART_Init$2709+2
  2233  0014BE  C004  F016         	movff	?___aldiv+3,_USART_Init$2709+3
  2234                           
  2235                           ;UART.c: 11:     SPBRG = (unsigned char)(((8000000/BAUD)/64)-1);
  2236  0014C2  C013  F001         	movff	_USART_Init$2709,___aldiv@dividend
  2237  0014C6  C014  F002         	movff	_USART_Init$2709+1,___aldiv@dividend+1
  2238  0014CA  C015  F003         	movff	_USART_Init$2709+2,___aldiv@dividend+2
  2239  0014CE  C016  F004         	movff	_USART_Init$2709+3,___aldiv@dividend+3
  2240  0014D2  0E40               	movlw	64
  2241  0014D4  6E05               	movwf	___aldiv@divisor^0,c
  2242  0014D6  0E00               	movlw	0
  2243  0014D8  6E06               	movwf	(___aldiv@divisor+1)^0,c
  2244  0014DA  0E00               	movlw	0
  2245  0014DC  6E07               	movwf	(___aldiv@divisor+2)^0,c
  2246  0014DE  0E00               	movlw	0
  2247  0014E0  6E08               	movwf	(___aldiv@divisor+3)^0,c
  2248  0014E2  EC42  F008         	call	___aldiv	;wreg free
  2249  0014E6  0401               	decf	?___aldiv^0,w,c
  2250  0014E8  6EAF               	movwf	175,c	;volatile
  2251  0014EA                     
  2252                           ;UART.c: 13:     TXSTAbits.BRGH = 0;
  2253  0014EA  94AC               	bcf	172,2,c	;volatile
  2254  0014EC                     
  2255                           ;UART.c: 14:     TXSTAbits.SYNC = 0;
  2256  0014EC  98AC               	bcf	172,4,c	;volatile
  2257  0014EE                     
  2258                           ;UART.c: 15:     RCSTAbits.SPEN = 1;
  2259  0014EE  8EAB               	bsf	171,7,c	;volatile
  2260  0014F0                     
  2261                           ;UART.c: 17:     TXSTAbits.TX9 = 0;
  2262  0014F0  9CAC               	bcf	172,6,c	;volatile
  2263  0014F2                     
  2264                           ;UART.c: 18:     TXSTAbits.TXEN = 1;
  2265  0014F2  8AAC               	bsf	172,5,c	;volatile
  2266  0014F4                     
  2267                           ;UART.c: 21:     RCSTAbits.RC9 = 0;
  2268  0014F4  9CAB               	bcf	171,6,c	;volatile
  2269  0014F6                     
  2270                           ;UART.c: 22:     RCSTAbits.CREN = 1;
  2271  0014F6  88AB               	bsf	171,4,c	;volatile
  2272  0014F8  0012               	return		;funcret
  2273  0014FA                     __end_of_USART_Init:
  2274                           	opt callstack 0
  2275                           
  2276 ;; *************** function ___aldiv *****************
  2277 ;; Defined at:
  2278 ;;		line 7 in file "C:\Program Files (x86)\Microchip\xc8\v2.10\pic\sources\c99\common\aldiv.c"
  2279 ;; Parameters:    Size  Location     Type
  2280 ;;  dividend        4    0[COMRAM] long 
  2281 ;;  divisor         4    4[COMRAM] long 
  2282 ;; Auto vars:     Size  Location     Type
  2283 ;;  quotient        4   10[COMRAM] long 
  2284 ;;  sign            1    9[COMRAM] unsigned char 
  2285 ;;  counter         1    8[COMRAM] unsigned char 
  2286 ;; Return value:  Size  Location     Type
  2287 ;;                  4    0[COMRAM] long 
  2288 ;; Registers used:
  2289 ;;		wreg, status,2, status,0
  2290 ;; Tracked objects:
  2291 ;;		On entry : 0/0
  2292 ;;		On exit  : 0/0
  2293 ;;		Unchanged: 0/0
  2294 ;; Data sizes:     COMRAM   BANK0   BANK1   BANK2   BANK3   BANK4   BANK5   BANK6   BANK7
  2295 ;;      Params:         8       0       0       0       0       0       0       0       0
  2296 ;;      Locals:         6       0       0       0       0       0       0       0       0
  2297 ;;      Temps:          0       0       0       0       0       0       0       0       0
  2298 ;;      Totals:        14       0       0       0       0       0       0       0       0
  2299 ;;Total ram usage:       14 bytes
  2300 ;; Hardware stack levels used:    1
  2301 ;; Hardware stack levels required when called:    2
  2302 ;; This function calls:
  2303 ;;		Nothing
  2304 ;; This function is called by:
  2305 ;;		_USART_Init
  2306 ;;		_ADC_LecturaFiltro
  2307 ;; This function uses a non-reentrant model
  2308 ;;
  2309                           
  2310                           	psect	text4
  2311  001084                     __ptext4:
  2312                           	opt callstack 0
  2313  001084                     ___aldiv:
  2314                           	opt callstack 27
  2315  001084  0E00               	movlw	0
  2316  001086  6E0A               	movwf	___aldiv@sign^0,c
  2317  001088  BE08               	btfsc	(___aldiv@divisor+3)^0,7,c
  2318  00108A  EF4B  F008         	goto	u1810
  2319  00108E  EF49  F008         	goto	u1811
  2320  001092                     u1811:
  2321  001092  EF55  F008         	goto	l3119
  2322  001096                     u1810:
  2323  001096  1E08               	comf	(___aldiv@divisor+3)^0,f,c
  2324  001098  1E07               	comf	(___aldiv@divisor+2)^0,f,c
  2325  00109A  1E06               	comf	(___aldiv@divisor+1)^0,f,c
  2326  00109C  6C05               	negf	___aldiv@divisor^0,c
  2327  00109E  0E00               	movlw	0
  2328  0010A0  2206               	addwfc	(___aldiv@divisor+1)^0,f,c
  2329  0010A2  2207               	addwfc	(___aldiv@divisor+2)^0,f,c
  2330  0010A4  2208               	addwfc	(___aldiv@divisor+3)^0,f,c
  2331  0010A6  0E01               	movlw	1
  2332  0010A8  6E0A               	movwf	___aldiv@sign^0,c
  2333  0010AA                     l3119:
  2334  0010AA  BE04               	btfsc	(___aldiv@dividend+3)^0,7,c
  2335  0010AC  EF5C  F008         	goto	u1820
  2336  0010B0  EF5A  F008         	goto	u1821
  2337  0010B4                     u1821:
  2338  0010B4  EF66  F008         	goto	l3125
  2339  0010B8                     u1820:
  2340  0010B8  1E04               	comf	(___aldiv@dividend+3)^0,f,c
  2341  0010BA  1E03               	comf	(___aldiv@dividend+2)^0,f,c
  2342  0010BC  1E02               	comf	(___aldiv@dividend+1)^0,f,c
  2343  0010BE  6C01               	negf	___aldiv@dividend^0,c
  2344  0010C0  0E00               	movlw	0
  2345  0010C2  2202               	addwfc	(___aldiv@dividend+1)^0,f,c
  2346  0010C4  2203               	addwfc	(___aldiv@dividend+2)^0,f,c
  2347  0010C6  2204               	addwfc	(___aldiv@dividend+3)^0,f,c
  2348  0010C8  0E01               	movlw	1
  2349  0010CA  1A0A               	xorwf	___aldiv@sign^0,f,c
  2350  0010CC                     l3125:
  2351  0010CC  0E00               	movlw	0
  2352  0010CE  6E0B               	movwf	___aldiv@quotient^0,c
  2353  0010D0  0E00               	movlw	0
  2354  0010D2  6E0C               	movwf	(___aldiv@quotient+1)^0,c
  2355  0010D4  0E00               	movlw	0
  2356  0010D6  6E0D               	movwf	(___aldiv@quotient+2)^0,c
  2357  0010D8  0E00               	movlw	0
  2358  0010DA  6E0E               	movwf	(___aldiv@quotient+3)^0,c
  2359  0010DC  5005               	movf	___aldiv@divisor^0,w,c
  2360  0010DE  1006               	iorwf	(___aldiv@divisor+1)^0,w,c
  2361  0010E0  1007               	iorwf	(___aldiv@divisor+2)^0,w,c
  2362  0010E2  1008               	iorwf	(___aldiv@divisor+3)^0,w,c
  2363  0010E4  B4D8               	btfsc	status,2,c
  2364  0010E6  EF77  F008         	goto	u1831
  2365  0010EA  EF79  F008         	goto	u1830
  2366  0010EE                     u1831:
  2367  0010EE  EFAF  F008         	goto	l3147
  2368  0010F2                     u1830:
  2369  0010F2  0E01               	movlw	1
  2370  0010F4  6E09               	movwf	___aldiv@counter^0,c
  2371  0010F6  EF83  F008         	goto	l3133
  2372  0010FA                     l3131:
  2373  0010FA  90D8               	bcf	status,0,c
  2374  0010FC  3605               	rlcf	___aldiv@divisor^0,f,c
  2375  0010FE  3606               	rlcf	(___aldiv@divisor+1)^0,f,c
  2376  001100  3607               	rlcf	(___aldiv@divisor+2)^0,f,c
  2377  001102  3608               	rlcf	(___aldiv@divisor+3)^0,f,c
  2378  001104  2A09               	incf	___aldiv@counter^0,f,c
  2379  001106                     l3133:
  2380  001106  AE08               	btfss	(___aldiv@divisor+3)^0,7,c
  2381  001108  EF88  F008         	goto	u1841
  2382  00110C  EF8A  F008         	goto	u1840
  2383  001110                     u1841:
  2384  001110  EF7D  F008         	goto	l3131
  2385  001114                     u1840:
  2386  001114                     l3135:
  2387  001114  90D8               	bcf	status,0,c
  2388  001116  360B               	rlcf	___aldiv@quotient^0,f,c
  2389  001118  360C               	rlcf	(___aldiv@quotient+1)^0,f,c
  2390  00111A  360D               	rlcf	(___aldiv@quotient+2)^0,f,c
  2391  00111C  360E               	rlcf	(___aldiv@quotient+3)^0,f,c
  2392  00111E  5005               	movf	___aldiv@divisor^0,w,c
  2393  001120  5C01               	subwf	___aldiv@dividend^0,w,c
  2394  001122  5006               	movf	(___aldiv@divisor+1)^0,w,c
  2395  001124  5802               	subwfb	(___aldiv@dividend+1)^0,w,c
  2396  001126  5007               	movf	(___aldiv@divisor+2)^0,w,c
  2397  001128  5803               	subwfb	(___aldiv@dividend+2)^0,w,c
  2398  00112A  5008               	movf	(___aldiv@divisor+3)^0,w,c
  2399  00112C  5804               	subwfb	(___aldiv@dividend+3)^0,w,c
  2400  00112E  A0D8               	btfss	status,0,c
  2401  001130  EF9C  F008         	goto	u1851
  2402  001134  EF9E  F008         	goto	u1850
  2403  001138                     u1851:
  2404  001138  EFA7  F008         	goto	l3143
  2405  00113C                     u1850:
  2406  00113C  5005               	movf	___aldiv@divisor^0,w,c
  2407  00113E  5E01               	subwf	___aldiv@dividend^0,f,c
  2408  001140  5006               	movf	(___aldiv@divisor+1)^0,w,c
  2409  001142  5A02               	subwfb	(___aldiv@dividend+1)^0,f,c
  2410  001144  5007               	movf	(___aldiv@divisor+2)^0,w,c
  2411  001146  5A03               	subwfb	(___aldiv@dividend+2)^0,f,c
  2412  001148  5008               	movf	(___aldiv@divisor+3)^0,w,c
  2413  00114A  5A04               	subwfb	(___aldiv@dividend+3)^0,f,c
  2414  00114C  800B               	bsf	___aldiv@quotient^0,0,c
  2415  00114E                     l3143:
  2416  00114E  90D8               	bcf	status,0,c
  2417  001150  3208               	rrcf	(___aldiv@divisor+3)^0,f,c
  2418  001152  3207               	rrcf	(___aldiv@divisor+2)^0,f,c
  2419  001154  3206               	rrcf	(___aldiv@divisor+1)^0,f,c
  2420  001156  3205               	rrcf	___aldiv@divisor^0,f,c
  2421  001158  2E09               	decfsz	___aldiv@counter^0,f,c
  2422  00115A  EF8A  F008         	goto	l3135
  2423  00115E                     l3147:
  2424  00115E  500A               	movf	___aldiv@sign^0,w,c
  2425  001160  B4D8               	btfsc	status,2,c
  2426  001162  EFB5  F008         	goto	u1861
  2427  001166  EFB7  F008         	goto	u1860
  2428  00116A                     u1861:
  2429  00116A  EFBF  F008         	goto	l3151
  2430  00116E                     u1860:
  2431  00116E  1E0E               	comf	(___aldiv@quotient+3)^0,f,c
  2432  001170  1E0D               	comf	(___aldiv@quotient+2)^0,f,c
  2433  001172  1E0C               	comf	(___aldiv@quotient+1)^0,f,c
  2434  001174  6C0B               	negf	___aldiv@quotient^0,c
  2435  001176  0E00               	movlw	0
  2436  001178  220C               	addwfc	(___aldiv@quotient+1)^0,f,c
  2437  00117A  220D               	addwfc	(___aldiv@quotient+2)^0,f,c
  2438  00117C  220E               	addwfc	(___aldiv@quotient+3)^0,f,c
  2439  00117E                     l3151:
  2440  00117E  C00B  F001         	movff	___aldiv@quotient,?___aldiv
  2441  001182  C00C  F002         	movff	___aldiv@quotient+1,?___aldiv+1
  2442  001186  C00D  F003         	movff	___aldiv@quotient+2,?___aldiv+2
  2443  00118A  C00E  F004         	movff	___aldiv@quotient+3,?___aldiv+3
  2444  00118E  0012               	return		;funcret
  2445  001190                     __end_of___aldiv:
  2446                           	opt callstack 0
  2447                           
  2448 ;; *************** function _Serial_Lectura_Memoria *****************
  2449 ;; Defined at:
  2450 ;;		line 210 in file "serial.c"
  2451 ;; Parameters:    Size  Location     Type
  2452 ;;  direccion       1    wreg     unsigned char 
  2453 ;;  pointerCX       2   22[COMRAM] PTR int 
  2454 ;;		 -> CoordenadaX(2), 
  2455 ;;  pointerCY       2   24[COMRAM] PTR int 
  2456 ;;		 -> CoordenadaY(2), 
  2457 ;;  pointerCZ       2   26[COMRAM] PTR int 
  2458 ;;		 -> CoordenadaZ(2), 
  2459 ;; Auto vars:     Size  Location     Type
  2460 ;;  direccion       1   40[COMRAM] unsigned char 
  2461 ;;  i               2   45[COMRAM] int 
  2462 ;;  i               2   43[COMRAM] int 
  2463 ;;  i               2   41[COMRAM] int 
  2464 ;;  coordenadaX     3   37[COMRAM] unsigned char [3]
  2465 ;;  coordenadaZ     3   31[COMRAM] unsigned char [3]
  2466 ;;  coordenadaY     3   28[COMRAM] unsigned char [3]
  2467 ;;  direccionZ      1   36[COMRAM] unsigned char 
  2468 ;;  direccionY      1   35[COMRAM] unsigned char 
  2469 ;;  direccionX      1   34[COMRAM] unsigned char 
  2470 ;; Return value:  Size  Location     Type
  2471 ;;                  1    wreg      void 
  2472 ;; Registers used:
  2473 ;;		wreg, fsr0l, fsr0h, fsr2l, fsr2h, status,2, status,0, tblptrl, tblptrh, tblptru, prodl, prodh, cstack
  2474 ;; Tracked objects:
  2475 ;;		On entry : 0/0
  2476 ;;		On exit  : 0/0
  2477 ;;		Unchanged: 0/0
  2478 ;; Data sizes:     COMRAM   BANK0   BANK1   BANK2   BANK3   BANK4   BANK5   BANK6   BANK7
  2479 ;;      Params:         6       0       0       0       0       0       0       0       0
  2480 ;;      Locals:        19       0       0       0       0       0       0       0       0
  2481 ;;      Temps:          0       0       0       0       0       0       0       0       0
  2482 ;;      Totals:        25       0       0       0       0       0       0       0       0
  2483 ;;Total ram usage:       25 bytes
  2484 ;; Hardware stack levels used:    1
  2485 ;; Hardware stack levels required when called:    4
  2486 ;; This function calls:
  2487 ;;		_EEPROM_Rx
  2488 ;;		_Serial_RangosCoordenadas
  2489 ;;		_USART_TxS
  2490 ;;		_atoi
  2491 ;; This function is called by:
  2492 ;;		_main
  2493 ;; This function uses a non-reentrant model
  2494 ;;
  2495                           
  2496                           	psect	text5
  2497  000926                     __ptext5:
  2498                           	opt callstack 0
  2499  000926                     _Serial_Lectura_Memoria:
  2500                           	opt callstack 26
  2501                           
  2502                           ;incstack = 0
  2503                           ;Serial_Lectura_Memoria@direccion stored from wreg
  2504  000926  6E29               	movwf	Serial_Lectura_Memoria@direccion^0,c
  2505  000928                     
  2506                           ;serial.c: 211:     char coordenadaX[3];;serial.c: 212:     char coordenadaY[3];;serial.
      +                          c: 213:     char coordenadaZ[3];;serial.c: 214:     char direccionX;;serial.c: 215:     
      +                          char direccionY;;serial.c: 216:     char direccionZ;;serial.c: 217:     for (int i = 0; 
      +                          i < 3; i++) {
  2507  000928  0E00               	movlw	0
  2508  00092A  6E2B               	movwf	(Serial_Lectura_Memoria@i+1)^0,c
  2509  00092C  0E00               	movlw	0
  2510  00092E  6E2A               	movwf	Serial_Lectura_Memoria@i^0,c
  2511  000930                     l3331:
  2512                           
  2513                           ;serial.c: 218:         direccionX = direccion + i;
  2514  000930  5029               	movf	Serial_Lectura_Memoria@direccion^0,w,c
  2515  000932  242A               	addwf	Serial_Lectura_Memoria@i^0,w,c
  2516  000934  6E23               	movwf	Serial_Lectura_Memoria@direccionX^0,c
  2517  000936                     
  2518                           ;serial.c: 219:         coordenadaX[i] = EEPROM_Rx(direccionX);
  2519  000936  0E26               	movlw	low Serial_Lectura_Memoria@coordenadaX
  2520  000938  242A               	addwf	Serial_Lectura_Memoria@i^0,w,c
  2521  00093A  6ED9               	movwf	fsr2l,c
  2522  00093C  0E00               	movlw	high Serial_Lectura_Memoria@coordenadaX
  2523  00093E  202B               	addwfc	(Serial_Lectura_Memoria@i+1)^0,w,c
  2524  000940  6EDA               	movwf	fsr2h,c
  2525  000942  5023               	movf	Serial_Lectura_Memoria@direccionX^0,w,c
  2526  000944  EC93  F00C         	call	_EEPROM_Rx
  2527  000948  6EDF               	movwf	indf2,c
  2528  00094A                     
  2529                           ;serial.c: 220:     }
  2530  00094A  4A2A               	infsnz	Serial_Lectura_Memoria@i^0,f,c
  2531  00094C  2A2B               	incf	(Serial_Lectura_Memoria@i+1)^0,f,c
  2532  00094E  BE2B               	btfsc	(Serial_Lectura_Memoria@i+1)^0,7,c
  2533  000950  EFB3  F004         	goto	u1921
  2534  000954  502B               	movf	(Serial_Lectura_Memoria@i+1)^0,w,c
  2535  000956  E109               	bnz	u1920
  2536  000958  0E03               	movlw	3
  2537  00095A  5C2A               	subwf	Serial_Lectura_Memoria@i^0,w,c
  2538  00095C  A0D8               	btfss	status,0,c
  2539  00095E  EFB3  F004         	goto	u1921
  2540  000962  EFB5  F004         	goto	u1920
  2541  000966                     u1921:
  2542  000966  EF98  F004         	goto	l3331
  2543  00096A                     u1920:
  2544  00096A                     
  2545                           ;serial.c: 221:     for (int i = 0; i < 3; i++) {
  2546  00096A  0E00               	movlw	0
  2547  00096C  6E2D               	movwf	(Serial_Lectura_Memoria@i_1147+1)^0,c
  2548  00096E  0E00               	movlw	0
  2549  000970  6E2C               	movwf	Serial_Lectura_Memoria@i_1147^0,c
  2550  000972                     l3345:
  2551                           
  2552                           ;serial.c: 222:         direccionY = direccion + i + 3;
  2553  000972  5029               	movf	Serial_Lectura_Memoria@direccion^0,w,c
  2554  000974  242C               	addwf	Serial_Lectura_Memoria@i_1147^0,w,c
  2555  000976  0F03               	addlw	3
  2556  000978  6E24               	movwf	Serial_Lectura_Memoria@direccionY^0,c
  2557  00097A                     
  2558                           ;serial.c: 223:         coordenadaY[i] = EEPROM_Rx(direccionY);
  2559  00097A  0E1D               	movlw	low Serial_Lectura_Memoria@coordenadaY
  2560  00097C  242C               	addwf	Serial_Lectura_Memoria@i_1147^0,w,c
  2561  00097E  6ED9               	movwf	fsr2l,c
  2562  000980  0E00               	movlw	high Serial_Lectura_Memoria@coordenadaY
  2563  000982  202D               	addwfc	(Serial_Lectura_Memoria@i_1147+1)^0,w,c
  2564  000984  6EDA               	movwf	fsr2h,c
  2565  000986  5024               	movf	Serial_Lectura_Memoria@direccionY^0,w,c
  2566  000988  EC93  F00C         	call	_EEPROM_Rx
  2567  00098C  6EDF               	movwf	indf2,c
  2568  00098E                     
  2569                           ;serial.c: 224:     }
  2570  00098E  4A2C               	infsnz	Serial_Lectura_Memoria@i_1147^0,f,c
  2571  000990  2A2D               	incf	(Serial_Lectura_Memoria@i_1147+1)^0,f,c
  2572  000992  BE2D               	btfsc	(Serial_Lectura_Memoria@i_1147+1)^0,7,c
  2573  000994  EFD5  F004         	goto	u1931
  2574  000998  502D               	movf	(Serial_Lectura_Memoria@i_1147+1)^0,w,c
  2575  00099A  E109               	bnz	u1930
  2576  00099C  0E03               	movlw	3
  2577  00099E  5C2C               	subwf	Serial_Lectura_Memoria@i_1147^0,w,c
  2578  0009A0  A0D8               	btfss	status,0,c
  2579  0009A2  EFD5  F004         	goto	u1931
  2580  0009A6  EFD7  F004         	goto	u1930
  2581  0009AA                     u1931:
  2582  0009AA  EFB9  F004         	goto	l3345
  2583  0009AE                     u1930:
  2584  0009AE                     
  2585                           ;serial.c: 225:     for (int i = 0; i < 3; i++) {
  2586  0009AE  0E00               	movlw	0
  2587  0009B0  6E2F               	movwf	(Serial_Lectura_Memoria@i_1148+1)^0,c
  2588  0009B2  0E00               	movlw	0
  2589  0009B4  6E2E               	movwf	Serial_Lectura_Memoria@i_1148^0,c
  2590  0009B6                     l3359:
  2591                           
  2592                           ;serial.c: 226:         direccionZ = direccion + i + 6;
  2593  0009B6  5029               	movf	Serial_Lectura_Memoria@direccion^0,w,c
  2594  0009B8  242E               	addwf	Serial_Lectura_Memoria@i_1148^0,w,c
  2595  0009BA  0F06               	addlw	6
  2596  0009BC  6E25               	movwf	Serial_Lectura_Memoria@direccionZ^0,c
  2597  0009BE                     
  2598                           ;serial.c: 227:         coordenadaZ[i] = EEPROM_Rx(direccionZ);
  2599  0009BE  0E20               	movlw	low Serial_Lectura_Memoria@coordenadaZ
  2600  0009C0  242E               	addwf	Serial_Lectura_Memoria@i_1148^0,w,c
  2601  0009C2  6ED9               	movwf	fsr2l,c
  2602  0009C4  0E00               	movlw	high Serial_Lectura_Memoria@coordenadaZ
  2603  0009C6  202F               	addwfc	(Serial_Lectura_Memoria@i_1148+1)^0,w,c
  2604  0009C8  6EDA               	movwf	fsr2h,c
  2605  0009CA  5025               	movf	Serial_Lectura_Memoria@direccionZ^0,w,c
  2606  0009CC  EC93  F00C         	call	_EEPROM_Rx
  2607  0009D0  6EDF               	movwf	indf2,c
  2608  0009D2                     
  2609                           ;serial.c: 228:     }
  2610  0009D2  4A2E               	infsnz	Serial_Lectura_Memoria@i_1148^0,f,c
  2611  0009D4  2A2F               	incf	(Serial_Lectura_Memoria@i_1148+1)^0,f,c
  2612  0009D6  BE2F               	btfsc	(Serial_Lectura_Memoria@i_1148+1)^0,7,c
  2613  0009D8  EFF7  F004         	goto	u1941
  2614  0009DC  502F               	movf	(Serial_Lectura_Memoria@i_1148+1)^0,w,c
  2615  0009DE  E109               	bnz	u1940
  2616  0009E0  0E03               	movlw	3
  2617  0009E2  5C2E               	subwf	Serial_Lectura_Memoria@i_1148^0,w,c
  2618  0009E4  A0D8               	btfss	status,0,c
  2619  0009E6  EFF7  F004         	goto	u1941
  2620  0009EA  EFF9  F004         	goto	u1940
  2621  0009EE                     u1941:
  2622  0009EE  EFDB  F004         	goto	l3359
  2623  0009F2                     u1940:
  2624  0009F2                     
  2625                           ;serial.c: 230:     *pointerCX = atoi(coordenadaX);
  2626  0009F2  0E26               	movlw	low Serial_Lectura_Memoria@coordenadaX
  2627  0009F4  6E08               	movwf	atoi@s^0,c
  2628  0009F6  0E00               	movlw	high Serial_Lectura_Memoria@coordenadaX
  2629  0009F8  6E09               	movwf	(atoi@s+1)^0,c
  2630  0009FA  EC56  F006         	call	_atoi	;wreg free
  2631  0009FE  C017  FFD9         	movff	Serial_Lectura_Memoria@pointerCX,fsr2l
  2632  000A02  C018  FFDA         	movff	Serial_Lectura_Memoria@pointerCX+1,fsr2h
  2633  000A06  C008  FFDE         	movff	?_atoi,postinc2
  2634  000A0A  C009  FFDD         	movff	?_atoi+1,postdec2
  2635                           
  2636                           ;serial.c: 231:     *pointerCY = atoi(coordenadaY);
  2637  000A0E  0E1D               	movlw	low Serial_Lectura_Memoria@coordenadaY
  2638  000A10  6E08               	movwf	atoi@s^0,c
  2639  000A12  0E00               	movlw	high Serial_Lectura_Memoria@coordenadaY
  2640  000A14  6E09               	movwf	(atoi@s+1)^0,c
  2641  000A16  EC56  F006         	call	_atoi	;wreg free
  2642  000A1A  C019  FFD9         	movff	Serial_Lectura_Memoria@pointerCY,fsr2l
  2643  000A1E  C01A  FFDA         	movff	Serial_Lectura_Memoria@pointerCY+1,fsr2h
  2644  000A22  C008  FFDE         	movff	?_atoi,postinc2
  2645  000A26  C009  FFDD         	movff	?_atoi+1,postdec2
  2646                           
  2647                           ;serial.c: 232:     *pointerCZ = atoi(coordenadaZ);
  2648  000A2A  0E20               	movlw	low Serial_Lectura_Memoria@coordenadaZ
  2649  000A2C  6E08               	movwf	atoi@s^0,c
  2650  000A2E  0E00               	movlw	high Serial_Lectura_Memoria@coordenadaZ
  2651  000A30  6E09               	movwf	(atoi@s+1)^0,c
  2652  000A32  EC56  F006         	call	_atoi	;wreg free
  2653  000A36  C01B  FFD9         	movff	Serial_Lectura_Memoria@pointerCZ,fsr2l
  2654  000A3A  C01C  FFDA         	movff	Serial_Lectura_Memoria@pointerCZ+1,fsr2h
  2655  000A3E  C008  FFDE         	movff	?_atoi,postinc2
  2656  000A42  C009  FFDD         	movff	?_atoi+1,postdec2
  2657  000A46                     
  2658                           ;serial.c: 233:     USART_TxS("READ", sizeof ("READ"));
  2659  000A46  0EF9               	movlw	low STR_29
  2660  000A48  6E01               	movwf	USART_TxS@str^0,c
  2661  000A4A  0E7F               	movlw	high STR_29
  2662  000A4C  6E02               	movwf	(USART_TxS@str+1)^0,c
  2663  000A4E  0E00               	movlw	0
  2664  000A50  6E04               	movwf	(USART_TxS@length+1)^0,c
  2665  000A52  0E05               	movlw	5
  2666  000A54  6E03               	movwf	USART_TxS@length^0,c
  2667  000A56  ECB4  F00A         	call	_USART_TxS	;wreg free
  2668  000A5A                     
  2669                           ;serial.c: 234:     USART_TxS("COORDINATE X:", sizeof ("COORDINATE X:"));
  2670  000A5A  0EB6               	movlw	low STR_30
  2671  000A5C  6E01               	movwf	USART_TxS@str^0,c
  2672  000A5E  0E7F               	movlw	high STR_30
  2673  000A60  6E02               	movwf	(USART_TxS@str+1)^0,c
  2674  000A62  0E00               	movlw	0
  2675  000A64  6E04               	movwf	(USART_TxS@length+1)^0,c
  2676  000A66  0E0E               	movlw	14
  2677  000A68  6E03               	movwf	USART_TxS@length^0,c
  2678  000A6A  ECB4  F00A         	call	_USART_TxS	;wreg free
  2679  000A6E                     
  2680                           ;serial.c: 235:     USART_TxS(coordenadaX, sizeof (coordenadaX));
  2681  000A6E  0E26               	movlw	low Serial_Lectura_Memoria@coordenadaX
  2682  000A70  6E01               	movwf	USART_TxS@str^0,c
  2683  000A72  0E00               	movlw	high Serial_Lectura_Memoria@coordenadaX
  2684  000A74  6E02               	movwf	(USART_TxS@str+1)^0,c
  2685  000A76  0E00               	movlw	0
  2686  000A78  6E04               	movwf	(USART_TxS@length+1)^0,c
  2687  000A7A  0E03               	movlw	3
  2688  000A7C  6E03               	movwf	USART_TxS@length^0,c
  2689  000A7E  ECB4  F00A         	call	_USART_TxS	;wreg free
  2690  000A82                     
  2691                           ;serial.c: 236:     USART_TxS("COORDINATE Y:", sizeof ("COORDINATE Y:"));
  2692  000A82  0EC4               	movlw	low STR_31
  2693  000A84  6E01               	movwf	USART_TxS@str^0,c
  2694  000A86  0E7F               	movlw	high STR_31
  2695  000A88  6E02               	movwf	(USART_TxS@str+1)^0,c
  2696  000A8A  0E00               	movlw	0
  2697  000A8C  6E04               	movwf	(USART_TxS@length+1)^0,c
  2698  000A8E  0E0E               	movlw	14
  2699  000A90  6E03               	movwf	USART_TxS@length^0,c
  2700  000A92  ECB4  F00A         	call	_USART_TxS	;wreg free
  2701  000A96                     
  2702                           ;serial.c: 237:     USART_TxS(coordenadaX, sizeof (coordenadaY));
  2703  000A96  0E26               	movlw	low Serial_Lectura_Memoria@coordenadaX
  2704  000A98  6E01               	movwf	USART_TxS@str^0,c
  2705  000A9A  0E00               	movlw	high Serial_Lectura_Memoria@coordenadaX
  2706  000A9C  6E02               	movwf	(USART_TxS@str+1)^0,c
  2707  000A9E  0E00               	movlw	0
  2708  000AA0  6E04               	movwf	(USART_TxS@length+1)^0,c
  2709  000AA2  0E03               	movlw	3
  2710  000AA4  6E03               	movwf	USART_TxS@length^0,c
  2711  000AA6  ECB4  F00A         	call	_USART_TxS	;wreg free
  2712  000AAA                     
  2713                           ;serial.c: 238:     USART_TxS("COORDINATE Z:", sizeof ("COORDINATE Z:"));
  2714  000AAA  0ED2               	movlw	low STR_32
  2715  000AAC  6E01               	movwf	USART_TxS@str^0,c
  2716  000AAE  0E7F               	movlw	high STR_32
  2717  000AB0  6E02               	movwf	(USART_TxS@str+1)^0,c
  2718  000AB2  0E00               	movlw	0
  2719  000AB4  6E04               	movwf	(USART_TxS@length+1)^0,c
  2720  000AB6  0E0E               	movlw	14
  2721  000AB8  6E03               	movwf	USART_TxS@length^0,c
  2722  000ABA  ECB4  F00A         	call	_USART_TxS	;wreg free
  2723  000ABE                     
  2724                           ;serial.c: 239:     USART_TxS(coordenadaX, sizeof (coordenadaZ));
  2725  000ABE  0E26               	movlw	low Serial_Lectura_Memoria@coordenadaX
  2726  000AC0  6E01               	movwf	USART_TxS@str^0,c
  2727  000AC2  0E00               	movlw	high Serial_Lectura_Memoria@coordenadaX
  2728  000AC4  6E02               	movwf	(USART_TxS@str+1)^0,c
  2729  000AC6  0E00               	movlw	0
  2730  000AC8  6E04               	movwf	(USART_TxS@length+1)^0,c
  2731  000ACA  0E03               	movlw	3
  2732  000ACC  6E03               	movwf	USART_TxS@length^0,c
  2733  000ACE  ECB4  F00A         	call	_USART_TxS	;wreg free
  2734  000AD2                     
  2735                           ;serial.c: 240:     Serial_RangosCoordenadas(CoordenadaX);
  2736  000AD2  C05D  F009         	movff	_CoordenadaX,Serial_RangosCoordenadas@C
  2737  000AD6  C05E  F00A         	movff	_CoordenadaX+1,Serial_RangosCoordenadas@C+1
  2738  000ADA  EC6F  F00B         	call	_Serial_RangosCoordenadas	;wreg free
  2739  000ADE                     
  2740                           ;serial.c: 241:     Serial_RangosCoordenadas(CoordenadaY);
  2741  000ADE  C05B  F009         	movff	_CoordenadaY,Serial_RangosCoordenadas@C
  2742  000AE2  C05C  F00A         	movff	_CoordenadaY+1,Serial_RangosCoordenadas@C+1
  2743  000AE6  EC6F  F00B         	call	_Serial_RangosCoordenadas	;wreg free
  2744  000AEA                     
  2745                           ;serial.c: 242:     Serial_RangosCoordenadas(CoordenadaZ);
  2746  000AEA  C059  F009         	movff	_CoordenadaZ,Serial_RangosCoordenadas@C
  2747  000AEE  C05A  F00A         	movff	_CoordenadaZ+1,Serial_RangosCoordenadas@C+1
  2748  000AF2  EC6F  F00B         	call	_Serial_RangosCoordenadas	;wreg free
  2749  000AF6  0012               	return		;funcret
  2750  000AF8                     __end_of_Serial_Lectura_Memoria:
  2751                           	opt callstack 0
  2752                           
  2753 ;; *************** function _Serial_RangosCoordenadas *****************
  2754 ;; Defined at:
  2755 ;;		line 132 in file "serial.c"
  2756 ;; Parameters:    Size  Location     Type
  2757 ;;  C               2    8[COMRAM] int 
  2758 ;; Auto vars:     Size  Location     Type
  2759 ;;		None
  2760 ;; Return value:  Size  Location     Type
  2761 ;;                  1    wreg      void 
  2762 ;; Registers used:
  2763 ;;		wreg, fsr0l, fsr0h, status,2, status,0, tblptrl, tblptrh, tblptru, cstack
  2764 ;; Tracked objects:
  2765 ;;		On entry : 0/0
  2766 ;;		On exit  : 0/0
  2767 ;;		Unchanged: 0/0
  2768 ;; Data sizes:     COMRAM   BANK0   BANK1   BANK2   BANK3   BANK4   BANK5   BANK6   BANK7
  2769 ;;      Params:         2       0       0       0       0       0       0       0       0
  2770 ;;      Locals:         0       0       0       0       0       0       0       0       0
  2771 ;;      Temps:          0       0       0       0       0       0       0       0       0
  2772 ;;      Totals:         2       0       0       0       0       0       0       0       0
  2773 ;;Total ram usage:        2 bytes
  2774 ;; Hardware stack levels used:    1
  2775 ;; Hardware stack levels required when called:    3
  2776 ;; This function calls:
  2777 ;;		_USART_TxS
  2778 ;; This function is called by:
  2779 ;;		_main
  2780 ;;		_Serial_Lectura_Memoria
  2781 ;; This function uses a non-reentrant model
  2782 ;;
  2783                           
  2784                           	psect	text6
  2785  0016DE                     __ptext6:
  2786                           	opt callstack 0
  2787  0016DE                     _Serial_RangosCoordenadas:
  2788                           	opt callstack 27
  2789  0016DE                     
  2790                           ;serial.c: 133:     if (C > 300 | C < 0) {
  2791  0016DE  BE0A               	btfsc	(Serial_RangosCoordenadas@C+1)^0,7,c
  2792  0016E0  EF7D  F00B         	goto	u1650
  2793  0016E4  0E2D               	movlw	45
  2794  0016E6  5C09               	subwf	Serial_RangosCoordenadas@C^0,w,c
  2795  0016E8  0E01               	movlw	1
  2796  0016EA  580A               	subwfb	(Serial_RangosCoordenadas@C+1)^0,w,c
  2797  0016EC  B0D8               	btfsc	status,0,c
  2798  0016EE  EF7B  F00B         	goto	u1651
  2799  0016F2  EF7D  F00B         	goto	u1650
  2800  0016F6                     u1651:
  2801  0016F6  EF84  F00B         	goto	l2989
  2802  0016FA                     u1650:
  2803  0016FA  BE0A               	btfsc	(Serial_RangosCoordenadas@C+1)^0,7,c
  2804  0016FC  EF84  F00B         	goto	u1660
  2805  001700  EF82  F00B         	goto	u1661
  2806  001704                     u1661:
  2807  001704  EF90  F00B         	goto	l377
  2808  001708                     u1660:
  2809  001708                     l2989:
  2810                           
  2811                           ;serial.c: 134:         USART_TxS("ERROR CORDINATES OUTSIDE THE RANGE", sizeof ("ERROR C
      +                          ORDINATES OUTSIDE THE RANGE"));
  2812  001708  0E74               	movlw	low STR_12
  2813  00170A  6E01               	movwf	USART_TxS@str^0,c
  2814  00170C  0E7D               	movlw	high STR_12
  2815  00170E  6E02               	movwf	(USART_TxS@str+1)^0,c
  2816  001710  0E00               	movlw	0
  2817  001712  6E04               	movwf	(USART_TxS@length+1)^0,c
  2818  001714  0E23               	movlw	35
  2819  001716  6E03               	movwf	USART_TxS@length^0,c
  2820  001718  ECB4  F00A         	call	_USART_TxS	;wreg free
  2821  00171C                     
  2822                           ;serial.c: 135:         Coordenadas_fuera = 1;
  2823  00171C  0E01               	movlw	1
  2824  00171E  6E53               	movwf	_Coordenadas_fuera^0,c
  2825  001720                     l377:
  2826  001720  0012               	return		;funcret
  2827  001722                     __end_of_Serial_RangosCoordenadas:
  2828                           	opt callstack 0
  2829                           
  2830 ;; *************** function _EEPROM_Rx *****************
  2831 ;; Defined at:
  2832 ;;		line 16 in file "EEPROM.c"
  2833 ;; Parameters:    Size  Location     Type
  2834 ;;  direccion       1    wreg     unsigned char 
  2835 ;; Auto vars:     Size  Location     Type
  2836 ;;  direccion       1    0[COMRAM] unsigned char 
  2837 ;; Return value:  Size  Location     Type
  2838 ;;                  1    wreg      unsigned char 
  2839 ;; Registers used:
  2840 ;;		wreg, status,2
  2841 ;; Tracked objects:
  2842 ;;		On entry : 0/0
  2843 ;;		On exit  : 0/0
  2844 ;;		Unchanged: 0/0
  2845 ;; Data sizes:     COMRAM   BANK0   BANK1   BANK2   BANK3   BANK4   BANK5   BANK6   BANK7
  2846 ;;      Params:         0       0       0       0       0       0       0       0       0
  2847 ;;      Locals:         1       0       0       0       0       0       0       0       0
  2848 ;;      Temps:          0       0       0       0       0       0       0       0       0
  2849 ;;      Totals:         1       0       0       0       0       0       0       0       0
  2850 ;;Total ram usage:        1 bytes
  2851 ;; Hardware stack levels used:    1
  2852 ;; Hardware stack levels required when called:    2
  2853 ;; This function calls:
  2854 ;;		Nothing
  2855 ;; This function is called by:
  2856 ;;		_Serial_Lectura_Memoria
  2857 ;; This function uses a non-reentrant model
  2858 ;;
  2859                           
  2860                           	psect	text7
  2861  001926                     __ptext7:
  2862                           	opt callstack 0
  2863  001926                     _EEPROM_Rx:
  2864                           	opt callstack 27
  2865                           
  2866                           ;incstack = 0
  2867                           ;EEPROM_Rx@direccion stored from wreg
  2868  001926  6E01               	movwf	EEPROM_Rx@direccion^0,c
  2869  001928                     
  2870                           ;EEPROM.c: 17:     EEADR=direccion;
  2871  001928  C001  FFA9         	movff	EEPROM_Rx@direccion,4009	;volatile
  2872  00192C                     
  2873                           ;EEPROM.c: 18:     EECON1bits.EEPGD=0;
  2874  00192C  9EA6               	bcf	166,7,c	;volsfr
  2875  00192E                     
  2876                           ;EEPROM.c: 19:       EECON1bits.CFGS=0;
  2877  00192E  9CA6               	bcf	166,6,c	;volsfr
  2878  001930                     
  2879                           ;EEPROM.c: 20:       EECON1bits.RD=1;
  2880  001930  80A6               	bsf	166,0,c	;volsfr
  2881  001932                     
  2882                           ;EEPROM.c: 21:       data=EEDATA;
  2883  001932  CFA8 F052          	movff	4008,_data	;volatile
  2884  001936                     
  2885                           ;EEPROM.c: 22:       return data;
  2886  001936  5052               	movf	_data^0,w,c
  2887  001938  0012               	return		;funcret
  2888  00193A                     __end_of_EEPROM_Rx:
  2889                           	opt callstack 0
  2890                           
  2891 ;; *************** function _Serial_Escritura_Memoria *****************
  2892 ;; Defined at:
  2893 ;;		line 246 in file "serial.c"
  2894 ;; Parameters:    Size  Location     Type
  2895 ;;  direccion       1    wreg     unsigned char 
  2896 ;;  string_setpo    2    8[COMRAM] PTR unsigned char 
  2897 ;;		 -> coordenada_setpoint(11), 
  2898 ;; Auto vars:     Size  Location     Type
  2899 ;;  direccion       1   12[COMRAM] unsigned char 
  2900 ;;  i               2   18[COMRAM] int 
  2901 ;;  i               2   16[COMRAM] int 
  2902 ;;  i               2   14[COMRAM] int 
  2903 ;;  direccionFin    1   13[COMRAM] unsigned char 
  2904 ;; Return value:  Size  Location     Type
  2905 ;;                  1    wreg      void 
  2906 ;; Registers used:
  2907 ;;		wreg, fsr0l, fsr0h, fsr2l, fsr2h, status,2, status,0, tblptrl, tblptrh, tblptru, cstack
  2908 ;; Tracked objects:
  2909 ;;		On entry : 0/0
  2910 ;;		On exit  : 0/0
  2911 ;;		Unchanged: 0/0
  2912 ;; Data sizes:     COMRAM   BANK0   BANK1   BANK2   BANK3   BANK4   BANK5   BANK6   BANK7
  2913 ;;      Params:         2       0       0       0       0       0       0       0       0
  2914 ;;      Locals:         8       0       0       0       0       0       0       0       0
  2915 ;;      Temps:          2       0       0       0       0       0       0       0       0
  2916 ;;      Totals:        12       0       0       0       0       0       0       0       0
  2917 ;;Total ram usage:       12 bytes
  2918 ;; Hardware stack levels used:    1
  2919 ;; Hardware stack levels required when called:    3
  2920 ;; This function calls:
  2921 ;;		_EEPROM_Tx
  2922 ;;		_USART_TxS
  2923 ;; This function is called by:
  2924 ;;		_main
  2925 ;; This function uses a non-reentrant model
  2926 ;;
  2927                           
  2928                           	psect	text8
  2929  000E36                     __ptext8:
  2930                           	opt callstack 0
  2931  000E36                     _Serial_Escritura_Memoria:
  2932                           	opt callstack 27
  2933                           
  2934                           ;incstack = 0
  2935                           ;Serial_Escritura_Memoria@direccion stored from wreg
  2936  000E36  6E0D               	movwf	Serial_Escritura_Memoria@direccion^0,c
  2937  000E38                     
  2938                           ;serial.c: 247:     char direccionFinal;;serial.c: 248:     for (int i = 0; i < 3; i++) 
      +                          {
  2939  000E38  0E00               	movlw	0
  2940  000E3A  6E10               	movwf	(Serial_Escritura_Memoria@i+1)^0,c
  2941  000E3C  0E00               	movlw	0
  2942  000E3E  6E0F               	movwf	Serial_Escritura_Memoria@i^0,c
  2943  000E40                     l3397:
  2944                           
  2945                           ;serial.c: 249:         direccionFinal = direccion + i;
  2946  000E40  500D               	movf	Serial_Escritura_Memoria@direccion^0,w,c
  2947  000E42  240F               	addwf	Serial_Escritura_Memoria@i^0,w,c
  2948  000E44  6E0E               	movwf	Serial_Escritura_Memoria@direccionFinal^0,c
  2949  000E46                     
  2950                           ;serial.c: 250:         EEPROM_Tx(direccionFinal, string_setpoint[i]);
  2951  000E46  500F               	movf	Serial_Escritura_Memoria@i^0,w,c
  2952  000E48  2409               	addwf	Serial_Escritura_Memoria@string_setpoint^0,w,c
  2953  000E4A  6ED9               	movwf	fsr2l,c
  2954  000E4C  5010               	movf	(Serial_Escritura_Memoria@i+1)^0,w,c
  2955  000E4E  200A               	addwfc	(Serial_Escritura_Memoria@string_setpoint+1)^0,w,c
  2956  000E50  6EDA               	movwf	fsr2h,c
  2957  000E52  50DF               	movf	indf2,w,c
  2958  000E54  6E01               	movwf	EEPROM_Tx@dato^0,c
  2959  000E56  500E               	movf	Serial_Escritura_Memoria@direccionFinal^0,w,c
  2960  000E58  ECAD  F00B         	call	_EEPROM_Tx
  2961  000E5C                     
  2962                           ;serial.c: 251:     }
  2963  000E5C  4A0F               	infsnz	Serial_Escritura_Memoria@i^0,f,c
  2964  000E5E  2A10               	incf	(Serial_Escritura_Memoria@i+1)^0,f,c
  2965  000E60  BE10               	btfsc	(Serial_Escritura_Memoria@i+1)^0,7,c
  2966  000E62  EF3C  F007         	goto	u1951
  2967  000E66  5010               	movf	(Serial_Escritura_Memoria@i+1)^0,w,c
  2968  000E68  E109               	bnz	u1950
  2969  000E6A  0E03               	movlw	3
  2970  000E6C  5C0F               	subwf	Serial_Escritura_Memoria@i^0,w,c
  2971  000E6E  A0D8               	btfss	status,0,c
  2972  000E70  EF3C  F007         	goto	u1951
  2973  000E74  EF3E  F007         	goto	u1950
  2974  000E78                     u1951:
  2975  000E78  EF20  F007         	goto	l3397
  2976  000E7C                     u1950:
  2977  000E7C                     
  2978                           ;serial.c: 252:     USART_TxS("COORDINATE X SAVED", sizeof ("COORDINATE X SAVED"));
  2979  000E7C  0E6C               	movlw	low STR_33
  2980  000E7E  6E01               	movwf	USART_TxS@str^0,c
  2981  000E80  0E7F               	movlw	high STR_33
  2982  000E82  6E02               	movwf	(USART_TxS@str+1)^0,c
  2983  000E84  0E00               	movlw	0
  2984  000E86  6E04               	movwf	(USART_TxS@length+1)^0,c
  2985  000E88  0E13               	movlw	19
  2986  000E8A  6E03               	movwf	USART_TxS@length^0,c
  2987  000E8C  ECB4  F00A         	call	_USART_TxS	;wreg free
  2988  000E90                     
  2989                           ;serial.c: 253:     for (int i = 0; i < 3; i++) {
  2990  000E90  0E00               	movlw	0
  2991  000E92  6E12               	movwf	(Serial_Escritura_Memoria@i_1159+1)^0,c
  2992  000E94  0E00               	movlw	0
  2993  000E96  6E11               	movwf	Serial_Escritura_Memoria@i_1159^0,c
  2994  000E98                     l3413:
  2995                           
  2996                           ;serial.c: 254:         direccionFinal = direccion + i + 3;
  2997  000E98  500D               	movf	Serial_Escritura_Memoria@direccion^0,w,c
  2998  000E9A  2411               	addwf	Serial_Escritura_Memoria@i_1159^0,w,c
  2999  000E9C  0F03               	addlw	3
  3000  000E9E  6E0E               	movwf	Serial_Escritura_Memoria@direccionFinal^0,c
  3001  000EA0                     
  3002                           ;serial.c: 255:         EEPROM_Tx(direccionFinal, string_setpoint[i + 4]);
  3003  000EA0  5011               	movf	Serial_Escritura_Memoria@i_1159^0,w,c
  3004  000EA2  2409               	addwf	Serial_Escritura_Memoria@string_setpoint^0,w,c
  3005  000EA4  6E0B               	movwf	??_Serial_Escritura_Memoria^0,c
  3006  000EA6  5012               	movf	(Serial_Escritura_Memoria@i_1159+1)^0,w,c
  3007  000EA8  200A               	addwfc	(Serial_Escritura_Memoria@string_setpoint+1)^0,w,c
  3008  000EAA  6E0C               	movwf	(??_Serial_Escritura_Memoria+1)^0,c
  3009  000EAC  0E04               	movlw	4
  3010  000EAE  240B               	addwf	??_Serial_Escritura_Memoria^0,w,c
  3011  000EB0  6ED9               	movwf	fsr2l,c
  3012  000EB2  0E00               	movlw	0
  3013  000EB4  200C               	addwfc	(??_Serial_Escritura_Memoria+1)^0,w,c
  3014  000EB6  6EDA               	movwf	fsr2h,c
  3015  000EB8  50DF               	movf	indf2,w,c
  3016  000EBA  6E01               	movwf	EEPROM_Tx@dato^0,c
  3017  000EBC  500E               	movf	Serial_Escritura_Memoria@direccionFinal^0,w,c
  3018  000EBE  ECAD  F00B         	call	_EEPROM_Tx
  3019  000EC2                     
  3020                           ;serial.c: 256:     }
  3021  000EC2  4A11               	infsnz	Serial_Escritura_Memoria@i_1159^0,f,c
  3022  000EC4  2A12               	incf	(Serial_Escritura_Memoria@i_1159+1)^0,f,c
  3023  000EC6  BE12               	btfsc	(Serial_Escritura_Memoria@i_1159+1)^0,7,c
  3024  000EC8  EF6F  F007         	goto	u1961
  3025  000ECC  5012               	movf	(Serial_Escritura_Memoria@i_1159+1)^0,w,c
  3026  000ECE  E109               	bnz	u1960
  3027  000ED0  0E03               	movlw	3
  3028  000ED2  5C11               	subwf	Serial_Escritura_Memoria@i_1159^0,w,c
  3029  000ED4  A0D8               	btfss	status,0,c
  3030  000ED6  EF6F  F007         	goto	u1961
  3031  000EDA  EF71  F007         	goto	u1960
  3032  000EDE                     u1961:
  3033  000EDE  EF4C  F007         	goto	l3413
  3034  000EE2                     u1960:
  3035  000EE2                     
  3036                           ;serial.c: 257:     USART_TxS("COORDINATE Y SAVED", sizeof ("COORDINATE Y SAVED"));
  3037  000EE2  0E7F               	movlw	low STR_34
  3038  000EE4  6E01               	movwf	USART_TxS@str^0,c
  3039  000EE6  0E7F               	movlw	high STR_34
  3040  000EE8  6E02               	movwf	(USART_TxS@str+1)^0,c
  3041  000EEA  0E00               	movlw	0
  3042  000EEC  6E04               	movwf	(USART_TxS@length+1)^0,c
  3043  000EEE  0E13               	movlw	19
  3044  000EF0  6E03               	movwf	USART_TxS@length^0,c
  3045  000EF2  ECB4  F00A         	call	_USART_TxS	;wreg free
  3046  000EF6                     
  3047                           ;serial.c: 258:     for (int i = 0; i < 3; i++) {
  3048  000EF6  0E00               	movlw	0
  3049  000EF8  6E14               	movwf	(Serial_Escritura_Memoria@i_1161+1)^0,c
  3050  000EFA  0E00               	movlw	0
  3051  000EFC  6E13               	movwf	Serial_Escritura_Memoria@i_1161^0,c
  3052  000EFE                     l3429:
  3053                           
  3054                           ;serial.c: 259:         direccionFinal = direccion + i + 6;
  3055  000EFE  500D               	movf	Serial_Escritura_Memoria@direccion^0,w,c
  3056  000F00  2413               	addwf	Serial_Escritura_Memoria@i_1161^0,w,c
  3057  000F02  0F06               	addlw	6
  3058  000F04  6E0E               	movwf	Serial_Escritura_Memoria@direccionFinal^0,c
  3059  000F06                     
  3060                           ;serial.c: 260:         EEPROM_Tx(direccionFinal, string_setpoint[i + 8]);
  3061  000F06  5013               	movf	Serial_Escritura_Memoria@i_1161^0,w,c
  3062  000F08  2409               	addwf	Serial_Escritura_Memoria@string_setpoint^0,w,c
  3063  000F0A  6E0B               	movwf	??_Serial_Escritura_Memoria^0,c
  3064  000F0C  5014               	movf	(Serial_Escritura_Memoria@i_1161+1)^0,w,c
  3065  000F0E  200A               	addwfc	(Serial_Escritura_Memoria@string_setpoint+1)^0,w,c
  3066  000F10  6E0C               	movwf	(??_Serial_Escritura_Memoria+1)^0,c
  3067  000F12  0E08               	movlw	8
  3068  000F14  240B               	addwf	??_Serial_Escritura_Memoria^0,w,c
  3069  000F16  6ED9               	movwf	fsr2l,c
  3070  000F18  0E00               	movlw	0
  3071  000F1A  200C               	addwfc	(??_Serial_Escritura_Memoria+1)^0,w,c
  3072  000F1C  6EDA               	movwf	fsr2h,c
  3073  000F1E  50DF               	movf	indf2,w,c
  3074  000F20  6E01               	movwf	EEPROM_Tx@dato^0,c
  3075  000F22  500E               	movf	Serial_Escritura_Memoria@direccionFinal^0,w,c
  3076  000F24  ECAD  F00B         	call	_EEPROM_Tx
  3077  000F28                     
  3078                           ;serial.c: 261:     }
  3079  000F28  4A13               	infsnz	Serial_Escritura_Memoria@i_1161^0,f,c
  3080  000F2A  2A14               	incf	(Serial_Escritura_Memoria@i_1161+1)^0,f,c
  3081  000F2C  BE14               	btfsc	(Serial_Escritura_Memoria@i_1161+1)^0,7,c
  3082  000F2E  EFA2  F007         	goto	u1971
  3083  000F32  5014               	movf	(Serial_Escritura_Memoria@i_1161+1)^0,w,c
  3084  000F34  E109               	bnz	u1970
  3085  000F36  0E03               	movlw	3
  3086  000F38  5C13               	subwf	Serial_Escritura_Memoria@i_1161^0,w,c
  3087  000F3A  A0D8               	btfss	status,0,c
  3088  000F3C  EFA2  F007         	goto	u1971
  3089  000F40  EFA4  F007         	goto	u1970
  3090  000F44                     u1971:
  3091  000F44  EF7F  F007         	goto	l3429
  3092  000F48                     u1970:
  3093  000F48                     
  3094                           ;serial.c: 262:     USART_TxS("COORDINATE Z SAVED", sizeof ("COORDINATE Z SAVED"));
  3095  000F48  0E92               	movlw	low STR_35
  3096  000F4A  6E01               	movwf	USART_TxS@str^0,c
  3097  000F4C  0E7F               	movlw	high STR_35
  3098  000F4E  6E02               	movwf	(USART_TxS@str+1)^0,c
  3099  000F50  0E00               	movlw	0
  3100  000F52  6E04               	movwf	(USART_TxS@length+1)^0,c
  3101  000F54  0E13               	movlw	19
  3102  000F56  6E03               	movwf	USART_TxS@length^0,c
  3103  000F58  ECB4  F00A         	call	_USART_TxS	;wreg free
  3104  000F5C  0012               	return		;funcret
  3105  000F5E                     __end_of_Serial_Escritura_Memoria:
  3106                           	opt callstack 0
  3107                           
  3108 ;; *************** function _EEPROM_Tx *****************
  3109 ;; Defined at:
  3110 ;;		line 24 in file "EEPROM.c"
  3111 ;; Parameters:    Size  Location     Type
  3112 ;;  direccion       1    wreg     unsigned char 
  3113 ;;  dato            1    0[COMRAM] unsigned char 
  3114 ;; Auto vars:     Size  Location     Type
  3115 ;;  direccion       1    1[COMRAM] unsigned char 
  3116 ;; Return value:  Size  Location     Type
  3117 ;;                  1    wreg      void 
  3118 ;; Registers used:
  3119 ;;		wreg, status,2
  3120 ;; Tracked objects:
  3121 ;;		On entry : 0/0
  3122 ;;		On exit  : 0/0
  3123 ;;		Unchanged: 0/0
  3124 ;; Data sizes:     COMRAM   BANK0   BANK1   BANK2   BANK3   BANK4   BANK5   BANK6   BANK7
  3125 ;;      Params:         1       0       0       0       0       0       0       0       0
  3126 ;;      Locals:         1       0       0       0       0       0       0       0       0
  3127 ;;      Temps:          0       0       0       0       0       0       0       0       0
  3128 ;;      Totals:         2       0       0       0       0       0       0       0       0
  3129 ;;Total ram usage:        2 bytes
  3130 ;; Hardware stack levels used:    1
  3131 ;; Hardware stack levels required when called:    2
  3132 ;; This function calls:
  3133 ;;		Nothing
  3134 ;; This function is called by:
  3135 ;;		_Serial_Escritura_Memoria
  3136 ;; This function uses a non-reentrant model
  3137 ;;
  3138                           
  3139                           	psect	text9
  3140  00175A                     __ptext9:
  3141                           	opt callstack 0
  3142  00175A                     _EEPROM_Tx:
  3143                           	opt callstack 27
  3144                           
  3145                           ;incstack = 0
  3146                           ;EEPROM_Tx@direccion stored from wreg
  3147  00175A  6E02               	movwf	EEPROM_Tx@direccion^0,c
  3148  00175C                     
  3149                           ;EEPROM.c: 25:     EEADR=direccion;
  3150  00175C  C002  FFA9         	movff	EEPROM_Tx@direccion,4009	;volatile
  3151  001760                     
  3152                           ;EEPROM.c: 26:     EEDATA=dato;
  3153  001760  C001  FFA8         	movff	EEPROM_Tx@dato,4008	;volatile
  3154  001764                     
  3155                           ;EEPROM.c: 27:      EECON1bits.EEPGD=0;
  3156  001764  9EA6               	bcf	166,7,c	;volsfr
  3157  001766                     
  3158                           ;EEPROM.c: 28:       EECON1bits.CFGS=0;
  3159  001766  9CA6               	bcf	166,6,c	;volsfr
  3160  001768                     
  3161                           ;EEPROM.c: 29:       EECON1bits.WREN=1;
  3162  001768  84A6               	bsf	166,2,c	;volsfr
  3163  00176A                     
  3164                           ;EEPROM.c: 30:       INTCONbits.GIE=0;
  3165  00176A  9EF2               	bcf	242,7,c	;volatile
  3166  00176C                     
  3167                           ;EEPROM.c: 32:       EECON2=0x55;
  3168  00176C  0E55               	movlw	85
  3169  00176E  6EA7               	movwf	167,c	;volsfr
  3170  001770                     
  3171                           ;EEPROM.c: 33:       EECON2=0x0AA;
  3172  001770  0EAA               	movlw	170
  3173  001772  6EA7               	movwf	167,c	;volsfr
  3174  001774                     
  3175                           ;EEPROM.c: 34:       EECON1bits.WR=1;
  3176  001774  82A6               	bsf	166,1,c	;volsfr
  3177  001776                     
  3178                           ;EEPROM.c: 35:       INTCONbits.GIE=1;
  3179  001776  8EF2               	bsf	242,7,c	;volatile
  3180  001778                     l548:
  3181  001778  A8A1               	btfss	161,4,c	;volatile
  3182  00177A  EFC1  F00B         	goto	u1741
  3183  00177E  EFC3  F00B         	goto	u1740
  3184  001782                     u1741:
  3185  001782  EFBC  F00B         	goto	l548
  3186  001786                     u1740:
  3187  001786                     
  3188                           ;EEPROM.c: 37:       PIR2bits.EEIF=0;
  3189  001786  98A1               	bcf	161,4,c	;volatile
  3190                           
  3191                           ;EEPROM.c: 38:       EECON1bits.WREN=0 ;
  3192  001788  94A6               	bcf	166,2,c	;volsfr
  3193  00178A  0012               	return		;funcret
  3194  00178C                     __end_of_EEPROM_Tx:
  3195                           	opt callstack 0
  3196                           
  3197 ;; *************** function _Serial_DecodificacionY *****************
  3198 ;; Defined at:
  3199 ;;		line 114 in file "serial.c"
  3200 ;; Parameters:    Size  Location     Type
  3201 ;;  string_coord    2   22[COMRAM] PTR unsigned char 
  3202 ;;		 -> coordenada_array(7), 
  3203 ;;  pointerCY       2   24[COMRAM] PTR int 
  3204 ;;		 -> CoordenadaY(2), 
  3205 ;; Auto vars:     Size  Location     Type
  3206 ;;  i               2   31[COMRAM] int 
  3207 ;;  coordenadaY     3   28[COMRAM] unsigned char [3]
  3208 ;; Return value:  Size  Location     Type
  3209 ;;                  1    wreg      void 
  3210 ;; Registers used:
  3211 ;;		wreg, fsr1l, fsr1h, fsr2l, fsr2h, status,2, status,0, prodl, prodh, cstack
  3212 ;; Tracked objects:
  3213 ;;		On entry : 0/0
  3214 ;;		On exit  : 0/0
  3215 ;;		Unchanged: 0/0
  3216 ;; Data sizes:     COMRAM   BANK0   BANK1   BANK2   BANK3   BANK4   BANK5   BANK6   BANK7
  3217 ;;      Params:         4       0       0       0       0       0       0       0       0
  3218 ;;      Locals:         5       0       0       0       0       0       0       0       0
  3219 ;;      Temps:          2       0       0       0       0       0       0       0       0
  3220 ;;      Totals:        11       0       0       0       0       0       0       0       0
  3221 ;;Total ram usage:       11 bytes
  3222 ;; Hardware stack levels used:    1
  3223 ;; Hardware stack levels required when called:    4
  3224 ;; This function calls:
  3225 ;;		_atoi
  3226 ;; This function is called by:
  3227 ;;		_main
  3228 ;; This function uses a non-reentrant model
  3229 ;;
  3230                           
  3231                           	psect	text10
  3232  0014FA                     __ptext10:
  3233                           	opt callstack 0
  3234  0014FA                     _Serial_DecodificacionY:
  3235                           	opt callstack 26
  3236  0014FA                     
  3237                           ;serial.c: 115:     char coordenadaY[3];;serial.c: 116:     for (int i = 0; i < 3; i++) 
      +                          {
  3238  0014FA  0E00               	movlw	0
  3239  0014FC  6E21               	movwf	(Serial_DecodificacionY@i+1)^0,c
  3240  0014FE  0E00               	movlw	0
  3241  001500  6E20               	movwf	Serial_DecodificacionY@i^0,c
  3242  001502                     l3217:
  3243                           
  3244                           ;serial.c: 117:         coordenadaY[i] = string_coordenada[4 + i];
  3245  001502  5020               	movf	Serial_DecodificacionY@i^0,w,c
  3246  001504  2417               	addwf	Serial_DecodificacionY@string_coordenada^0,w,c
  3247  001506  6E1B               	movwf	??_Serial_DecodificacionY^0,c
  3248  001508  5021               	movf	(Serial_DecodificacionY@i+1)^0,w,c
  3249  00150A  2018               	addwfc	(Serial_DecodificacionY@string_coordenada+1)^0,w,c
  3250  00150C  6E1C               	movwf	(??_Serial_DecodificacionY+1)^0,c
  3251  00150E  0E04               	movlw	4
  3252  001510  241B               	addwf	??_Serial_DecodificacionY^0,w,c
  3253  001512  6ED9               	movwf	fsr2l,c
  3254  001514  0E00               	movlw	0
  3255  001516  201C               	addwfc	(??_Serial_DecodificacionY+1)^0,w,c
  3256  001518  6EDA               	movwf	fsr2h,c
  3257  00151A  0E1D               	movlw	low Serial_DecodificacionY@coordenadaY
  3258  00151C  2420               	addwf	Serial_DecodificacionY@i^0,w,c
  3259  00151E  6EE1               	movwf	fsr1l,c
  3260  001520  0E00               	movlw	high Serial_DecodificacionY@coordenadaY
  3261  001522  2021               	addwfc	(Serial_DecodificacionY@i+1)^0,w,c
  3262  001524  6EE2               	movwf	fsr1h,c
  3263  001526  CFDF FFE7          	movff	indf2,indf1
  3264  00152A                     
  3265                           ;serial.c: 118:     }
  3266  00152A  4A20               	infsnz	Serial_DecodificacionY@i^0,f,c
  3267  00152C  2A21               	incf	(Serial_DecodificacionY@i+1)^0,f,c
  3268  00152E  BE21               	btfsc	(Serial_DecodificacionY@i+1)^0,7,c
  3269  001530  EFA3  F00A         	goto	u1911
  3270  001534  5021               	movf	(Serial_DecodificacionY@i+1)^0,w,c
  3271  001536  E109               	bnz	u1910
  3272  001538  0E03               	movlw	3
  3273  00153A  5C20               	subwf	Serial_DecodificacionY@i^0,w,c
  3274  00153C  A0D8               	btfss	status,0,c
  3275  00153E  EFA3  F00A         	goto	u1911
  3276  001542  EFA5  F00A         	goto	u1910
  3277  001546                     u1911:
  3278  001546  EF81  F00A         	goto	l3217
  3279  00154A                     u1910:
  3280  00154A                     
  3281                           ;serial.c: 119:     *pointerCY = atoi(coordenadaY);
  3282  00154A  0E1D               	movlw	low Serial_DecodificacionY@coordenadaY
  3283  00154C  6E08               	movwf	atoi@s^0,c
  3284  00154E  0E00               	movlw	high Serial_DecodificacionY@coordenadaY
  3285  001550  6E09               	movwf	(atoi@s+1)^0,c
  3286  001552  EC56  F006         	call	_atoi	;wreg free
  3287  001556  C019  FFD9         	movff	Serial_DecodificacionY@pointerCY,fsr2l
  3288  00155A  C01A  FFDA         	movff	Serial_DecodificacionY@pointerCY+1,fsr2h
  3289  00155E  C008  FFDE         	movff	?_atoi,postinc2
  3290  001562  C009  FFDD         	movff	?_atoi+1,postdec2
  3291  001566  0012               	return		;funcret
  3292  001568                     __end_of_Serial_DecodificacionY:
  3293                           	opt callstack 0
  3294                           
  3295 ;; *************** function _Serial_DecodificacionX *****************
  3296 ;; Defined at:
  3297 ;;		line 105 in file "serial.c"
  3298 ;; Parameters:    Size  Location     Type
  3299 ;;  string_coord    2   22[COMRAM] PTR unsigned char 
  3300 ;;		 -> coordenada_array(7), 
  3301 ;;  pointerCX       2   24[COMRAM] PTR int 
  3302 ;;		 -> CoordenadaX(2), 
  3303 ;; Auto vars:     Size  Location     Type
  3304 ;;  i               2   29[COMRAM] int 
  3305 ;;  coordenadaX     3   26[COMRAM] unsigned char [3]
  3306 ;; Return value:  Size  Location     Type
  3307 ;;                  1    wreg      void 
  3308 ;; Registers used:
  3309 ;;		wreg, fsr1l, fsr1h, fsr2l, fsr2h, status,2, status,0, prodl, prodh, cstack
  3310 ;; Tracked objects:
  3311 ;;		On entry : 0/0
  3312 ;;		On exit  : 0/0
  3313 ;;		Unchanged: 0/0
  3314 ;; Data sizes:     COMRAM   BANK0   BANK1   BANK2   BANK3   BANK4   BANK5   BANK6   BANK7
  3315 ;;      Params:         4       0       0       0       0       0       0       0       0
  3316 ;;      Locals:         5       0       0       0       0       0       0       0       0
  3317 ;;      Temps:          0       0       0       0       0       0       0       0       0
  3318 ;;      Totals:         9       0       0       0       0       0       0       0       0
  3319 ;;Total ram usage:        9 bytes
  3320 ;; Hardware stack levels used:    1
  3321 ;; Hardware stack levels required when called:    4
  3322 ;; This function calls:
  3323 ;;		_atoi
  3324 ;; This function is called by:
  3325 ;;		_main
  3326 ;; This function uses a non-reentrant model
  3327 ;;
  3328                           
  3329                           	psect	text11
  3330  0015D4                     __ptext11:
  3331                           	opt callstack 0
  3332  0015D4                     _Serial_DecodificacionX:
  3333                           	opt callstack 26
  3334  0015D4                     
  3335                           ;serial.c: 106:     char coordenadaX[3];;serial.c: 107:     for (int i = 0; i < 3; i++) 
      +                          {
  3336  0015D4  0E00               	movlw	0
  3337  0015D6  6E1F               	movwf	(Serial_DecodificacionX@i+1)^0,c
  3338  0015D8  0E00               	movlw	0
  3339  0015DA  6E1E               	movwf	Serial_DecodificacionX@i^0,c
  3340  0015DC                     l3201:
  3341                           
  3342                           ;serial.c: 108:         coordenadaX[i] = string_coordenada[i];
  3343  0015DC  501E               	movf	Serial_DecodificacionX@i^0,w,c
  3344  0015DE  2417               	addwf	Serial_DecodificacionX@string_coordenada^0,w,c
  3345  0015E0  6ED9               	movwf	fsr2l,c
  3346  0015E2  501F               	movf	(Serial_DecodificacionX@i+1)^0,w,c
  3347  0015E4  2018               	addwfc	(Serial_DecodificacionX@string_coordenada+1)^0,w,c
  3348  0015E6  6EDA               	movwf	fsr2h,c
  3349  0015E8  0E1B               	movlw	low Serial_DecodificacionX@coordenadaX
  3350  0015EA  241E               	addwf	Serial_DecodificacionX@i^0,w,c
  3351  0015EC  6EE1               	movwf	fsr1l,c
  3352  0015EE  0E00               	movlw	high Serial_DecodificacionX@coordenadaX
  3353  0015F0  201F               	addwfc	(Serial_DecodificacionX@i+1)^0,w,c
  3354  0015F2  6EE2               	movwf	fsr1h,c
  3355  0015F4  CFDF FFE7          	movff	indf2,indf1
  3356  0015F8                     
  3357                           ;serial.c: 109:     }
  3358  0015F8  4A1E               	infsnz	Serial_DecodificacionX@i^0,f,c
  3359  0015FA  2A1F               	incf	(Serial_DecodificacionX@i+1)^0,f,c
  3360  0015FC  BE1F               	btfsc	(Serial_DecodificacionX@i+1)^0,7,c
  3361  0015FE  EF0A  F00B         	goto	u1901
  3362  001602  501F               	movf	(Serial_DecodificacionX@i+1)^0,w,c
  3363  001604  E109               	bnz	u1900
  3364  001606  0E03               	movlw	3
  3365  001608  5C1E               	subwf	Serial_DecodificacionX@i^0,w,c
  3366  00160A  A0D8               	btfss	status,0,c
  3367  00160C  EF0A  F00B         	goto	u1901
  3368  001610  EF0C  F00B         	goto	u1900
  3369  001614                     u1901:
  3370  001614  EFEE  F00A         	goto	l3201
  3371  001618                     u1900:
  3372  001618                     
  3373                           ;serial.c: 110:     *pointerCX = atoi(coordenadaX);
  3374  001618  0E1B               	movlw	low Serial_DecodificacionX@coordenadaX
  3375  00161A  6E08               	movwf	atoi@s^0,c
  3376  00161C  0E00               	movlw	high Serial_DecodificacionX@coordenadaX
  3377  00161E  6E09               	movwf	(atoi@s+1)^0,c
  3378  001620  EC56  F006         	call	_atoi	;wreg free
  3379  001624  C019  FFD9         	movff	Serial_DecodificacionX@pointerCX,fsr2l
  3380  001628  C01A  FFDA         	movff	Serial_DecodificacionX@pointerCX+1,fsr2h
  3381  00162C  C008  FFDE         	movff	?_atoi,postinc2
  3382  001630  C009  FFDD         	movff	?_atoi+1,postdec2
  3383  001634  0012               	return		;funcret
  3384  001636                     __end_of_Serial_DecodificacionX:
  3385                           	opt callstack 0
  3386                           
  3387 ;; *************** function _atoi *****************
  3388 ;; Defined at:
  3389 ;;		line 4 in file "C:\Program Files (x86)\Microchip\xc8\v2.10\pic\sources\c99\common\atoi.c"
  3390 ;; Parameters:    Size  Location     Type
  3391 ;;  s               2    7[COMRAM] PTR const unsigned char 
  3392 ;;		 -> Serial_Lectura_Memoria@coordenadaZ(3), Serial_Lectura_Memoria@coordenadaY(3), Serial_Lectura_Memoria@coordenadaX
      +(3), Serial_DecodificacionZ@coordenadaZ(3), 
  3393 ;;		 -> Serial_DecodificacionY@coordenadaY(3), Serial_DecodificacionX@coordenadaX(3), 
  3394 ;; Auto vars:     Size  Location     Type
  3395 ;;  n               2   20[COMRAM] int 
  3396 ;;  neg             2   13[COMRAM] int 
  3397 ;; Return value:  Size  Location     Type
  3398 ;;                  2    7[COMRAM] int 
  3399 ;; Registers used:
  3400 ;;		wreg, fsr2l, fsr2h, status,2, status,0, prodl, prodh, cstack
  3401 ;; Tracked objects:
  3402 ;;		On entry : 0/0
  3403 ;;		On exit  : 0/0
  3404 ;;		Unchanged: 0/0
  3405 ;; Data sizes:     COMRAM   BANK0   BANK1   BANK2   BANK3   BANK4   BANK5   BANK6   BANK7
  3406 ;;      Params:         2       0       0       0       0       0       0       0       0
  3407 ;;      Locals:         9       0       0       0       0       0       0       0       0
  3408 ;;      Temps:          4       0       0       0       0       0       0       0       0
  3409 ;;      Totals:        15       0       0       0       0       0       0       0       0
  3410 ;;Total ram usage:       15 bytes
  3411 ;; Hardware stack levels used:    1
  3412 ;; Hardware stack levels required when called:    3
  3413 ;; This function calls:
  3414 ;;		___wmul
  3415 ;;		_isdigit
  3416 ;;		_isspace
  3417 ;; This function is called by:
  3418 ;;		_Serial_DecodificacionX
  3419 ;;		_Serial_DecodificacionY
  3420 ;;		_Serial_Lectura_Memoria
  3421 ;;		_Serial_DecodificacionZ
  3422 ;; This function uses a non-reentrant model
  3423 ;;
  3424                           
  3425                           	psect	text12
  3426  000CAC                     __ptext12:
  3427                           	opt callstack 0
  3428  000CAC                     _atoi:
  3429                           	opt callstack 26
  3430  000CAC  0E00               	movlw	0
  3431  000CAE  6E16               	movwf	(atoi@n+1)^0,c
  3432  000CB0  0E00               	movlw	0
  3433  000CB2  6E15               	movwf	atoi@n^0,c
  3434  000CB4  0E00               	movlw	0
  3435  000CB6  6E0F               	movwf	(atoi@neg+1)^0,c
  3436  000CB8  0E00               	movlw	0
  3437  000CBA  6E0E               	movwf	atoi@neg^0,c
  3438  000CBC  EF62  F006         	goto	l2999
  3439  000CC0                     l2997:
  3440  000CC0  4A08               	infsnz	atoi@s^0,f,c
  3441  000CC2  2A09               	incf	(atoi@s+1)^0,f,c
  3442  000CC4                     l2999:
  3443  000CC4  0E01               	movlw	1
  3444  000CC6  6E14               	movwf	_atoi$2307^0,c
  3445  000CC8  C008  FFD9         	movff	atoi@s,fsr2l
  3446  000CCC  C009  FFDA         	movff	atoi@s+1,fsr2h
  3447  000CD0  0E20               	movlw	32
  3448  000CD2  18DE               	xorwf	postinc2,w,c
  3449  000CD4  B4D8               	btfsc	status,2,c
  3450  000CD6  EF6F  F006         	goto	u1671
  3451  000CDA  EF71  F006         	goto	u1670
  3452  000CDE                     u1671:
  3453  000CDE  EF8D  F006         	goto	l3007
  3454  000CE2                     u1670:
  3455  000CE2  0EF7               	movlw	247
  3456  000CE4  6E0A               	movwf	??_atoi^0,c
  3457  000CE6  0EFF               	movlw	255
  3458  000CE8  6E0B               	movwf	(??_atoi+1)^0,c
  3459  000CEA  C008  FFD9         	movff	atoi@s,fsr2l
  3460  000CEE  C009  FFDA         	movff	atoi@s+1,fsr2h
  3461  000CF2  50DF               	movf	indf2,w,c
  3462  000CF4  6E0C               	movwf	(??_atoi+2)^0,c
  3463  000CF6  6A0D               	clrf	(??_atoi+3)^0,c
  3464  000CF8  500A               	movf	??_atoi^0,w,c
  3465  000CFA  260C               	addwf	(??_atoi+2)^0,f,c
  3466  000CFC  500B               	movf	(??_atoi+1)^0,w,c
  3467  000CFE  220D               	addwfc	(??_atoi+3)^0,f,c
  3468  000D00  500D               	movf	(??_atoi+3)^0,w,c
  3469  000D02  E109               	bnz	u1680
  3470  000D04  0E05               	movlw	5
  3471  000D06  5C0C               	subwf	(??_atoi+2)^0,w,c
  3472  000D08  A0D8               	btfss	status,0,c
  3473  000D0A  EF89  F006         	goto	u1681
  3474  000D0E  EF8B  F006         	goto	u1680
  3475  000D12                     u1681:
  3476  000D12  EF8D  F006         	goto	l3007
  3477  000D16                     u1680:
  3478  000D16  0E00               	movlw	0
  3479  000D18  6E14               	movwf	_atoi$2307^0,c
  3480  000D1A                     l3007:
  3481  000D1A  C014  F010         	movff	_atoi$2307,_atoi$2306
  3482  000D1E  6A11               	clrf	(_atoi$2306+1)^0,c
  3483  000D20  5010               	movf	_atoi$2306^0,w,c
  3484  000D22  1011               	iorwf	(_atoi$2306+1)^0,w,c
  3485  000D24  A4D8               	btfss	status,2,c
  3486  000D26  EF97  F006         	goto	u1691
  3487  000D2A  EF99  F006         	goto	u1690
  3488  000D2E                     u1691:
  3489  000D2E  EF60  F006         	goto	l2997
  3490  000D32                     u1690:
  3491  000D32  EFA3  F006         	goto	l3017
  3492  000D36                     l3013:
  3493  000D36  0E00               	movlw	0
  3494  000D38  6E0F               	movwf	(atoi@neg+1)^0,c
  3495  000D3A  0E01               	movlw	1
  3496  000D3C  6E0E               	movwf	atoi@neg^0,c
  3497  000D3E                     l3015:
  3498  000D3E  4A08               	infsnz	atoi@s^0,f,c
  3499  000D40  2A09               	incf	(atoi@s+1)^0,f,c
  3500  000D42  EFD8  F006         	goto	l3023
  3501  000D46                     l3017:
  3502  000D46  C008  FFD9         	movff	atoi@s,fsr2l
  3503  000D4A  C009  FFDA         	movff	atoi@s+1,fsr2h
  3504  000D4E  50DF               	movf	indf2,w,c
  3505  000D50  6E0A               	movwf	??_atoi^0,c
  3506  000D52  6A0B               	clrf	(??_atoi+1)^0,c
  3507                           
  3508                           ; Switch on 2 bytes has been partitioned into a top level switch of size 1, and 1 sub-sw
      +                          itches
  3509                           ; Switch size 1, requested type "simple"
  3510                           ; Number of cases is 1, Range of values is 0 to 0
  3511                           ; switch strategies available:
  3512                           ; Name         Instructions Cycles
  3513                           ; simple_byte            4     3 (average)
  3514                           ;	Chosen strategy is simple_byte
  3515  000D54  500B               	movf	(??_atoi+1)^0,w,c
  3516  000D56  0A00               	xorlw	0	; case 0
  3517  000D58  B4D8               	btfsc	status,2,c
  3518  000D5A  EFB1  F006         	goto	l4647
  3519  000D5E  EFD8  F006         	goto	l3023
  3520  000D62                     l4647:
  3521                           
  3522                           ; Switch size 1, requested type "simple"
  3523                           ; Number of cases is 2, Range of values is 43 to 45
  3524                           ; switch strategies available:
  3525                           ; Name         Instructions Cycles
  3526                           ; simple_byte            7     4 (average)
  3527                           ;	Chosen strategy is simple_byte
  3528  000D62  500A               	movf	??_atoi^0,w,c
  3529  000D64  0A2B               	xorlw	43	; case 43
  3530  000D66  B4D8               	btfsc	status,2,c
  3531  000D68  EF9F  F006         	goto	l3015
  3532  000D6C  0A06               	xorlw	6	; case 45
  3533  000D6E  B4D8               	btfsc	status,2,c
  3534  000D70  EF9B  F006         	goto	l3013
  3535  000D74  EFD8  F006         	goto	l3023
  3536  000D78                     l3019:
  3537  000D78  C015  F001         	movff	atoi@n,___wmul@multiplier
  3538  000D7C  C016  F002         	movff	atoi@n+1,___wmul@multiplier+1
  3539  000D80  0E00               	movlw	0
  3540  000D82  6E04               	movwf	(___wmul@multiplicand+1)^0,c
  3541  000D84  0E0A               	movlw	10
  3542  000D86  6E03               	movwf	___wmul@multiplicand^0,c
  3543  000D88  EC37  F00C         	call	___wmul	;wreg free
  3544  000D8C  C008  FFD9         	movff	atoi@s,fsr2l
  3545  000D90  C009  FFDA         	movff	atoi@s+1,fsr2h
  3546  000D94  50DF               	movf	indf2,w,c
  3547  000D96  6E0A               	movwf	??_atoi^0,c
  3548  000D98  500A               	movf	??_atoi^0,w,c
  3549  000D9A  5E01               	subwf	?___wmul^0,f,c
  3550  000D9C  0E00               	movlw	0
  3551  000D9E  5A02               	subwfb	(?___wmul+1)^0,f,c
  3552  000DA0  0E30               	movlw	48
  3553  000DA2  2401               	addwf	?___wmul^0,w,c
  3554  000DA4  6E15               	movwf	atoi@n^0,c
  3555  000DA6  0E00               	movlw	0
  3556  000DA8  2002               	addwfc	(?___wmul+1)^0,w,c
  3557  000DAA  6E16               	movwf	(atoi@n+1)^0,c
  3558  000DAC  EF9F  F006         	goto	l3015
  3559  000DB0                     l3023:
  3560  000DB0  0ED0               	movlw	208
  3561  000DB2  6E0A               	movwf	??_atoi^0,c
  3562  000DB4  0EFF               	movlw	255
  3563  000DB6  6E0B               	movwf	(??_atoi+1)^0,c
  3564  000DB8  C008  FFD9         	movff	atoi@s,fsr2l
  3565  000DBC  C009  FFDA         	movff	atoi@s+1,fsr2h
  3566  000DC0  50DF               	movf	indf2,w,c
  3567  000DC2  6E0C               	movwf	(??_atoi+2)^0,c
  3568  000DC4  6A0D               	clrf	(??_atoi+3)^0,c
  3569  000DC6  500A               	movf	??_atoi^0,w,c
  3570  000DC8  260C               	addwf	(??_atoi+2)^0,f,c
  3571  000DCA  500B               	movf	(??_atoi+1)^0,w,c
  3572  000DCC  220D               	addwfc	(??_atoi+3)^0,f,c
  3573  000DCE  500D               	movf	(??_atoi+3)^0,w,c
  3574  000DD0  E10A               	bnz	u1700
  3575  000DD2  0E0A               	movlw	10
  3576  000DD4  5C0C               	subwf	(??_atoi+2)^0,w,c
  3577  000DD6  A0D8               	btfss	status,0,c
  3578  000DD8  EFF0  F006         	goto	u1701
  3579  000DDC  EFF3  F006         	goto	u1700
  3580  000DE0                     u1701:
  3581  000DE0  0E01               	movlw	1
  3582  000DE2  EFF4  F006         	goto	u1710
  3583  000DE6                     u1700:
  3584  000DE6  0E00               	movlw	0
  3585  000DE8                     u1710:
  3586  000DE8  6E12               	movwf	_atoi$2308^0,c
  3587  000DEA  6A13               	clrf	(_atoi$2308+1)^0,c
  3588  000DEC  5012               	movf	_atoi$2308^0,w,c
  3589  000DEE  1013               	iorwf	(_atoi$2308+1)^0,w,c
  3590  000DF0  A4D8               	btfss	status,2,c
  3591  000DF2  EFFD  F006         	goto	u1721
  3592  000DF6  EFFF  F006         	goto	u1720
  3593  000DFA                     u1721:
  3594  000DFA  EFBC  F006         	goto	l3019
  3595  000DFE                     u1720:
  3596  000DFE  500E               	movf	atoi@neg^0,w,c
  3597  000E00  100F               	iorwf	(atoi@neg+1)^0,w,c
  3598  000E02  A4D8               	btfss	status,2,c
  3599  000E04  EF06  F007         	goto	u1731
  3600  000E08  EF08  F007         	goto	u1730
  3601  000E0C                     u1731:
  3602  000E0C  EF16  F007         	goto	l1303
  3603  000E10                     u1730:
  3604  000E10  C015  F00A         	movff	atoi@n,??_atoi
  3605  000E14  C016  F00B         	movff	atoi@n+1,??_atoi+1
  3606  000E18  1E0A               	comf	??_atoi^0,f,c
  3607  000E1A  1E0B               	comf	(??_atoi+1)^0,f,c
  3608  000E1C  4A0A               	infsnz	??_atoi^0,f,c
  3609  000E1E  2A0B               	incf	(??_atoi+1)^0,f,c
  3610  000E20  C00A  F008         	movff	??_atoi,?_atoi
  3611  000E24  C00B  F009         	movff	??_atoi+1,?_atoi+1
  3612  000E28  EF1A  F007         	goto	l1306
  3613  000E2C                     l1303:
  3614  000E2C  C015  F008         	movff	atoi@n,?_atoi
  3615  000E30  C016  F009         	movff	atoi@n+1,?_atoi+1
  3616  000E34                     l1306:
  3617  000E34  0012               	return		;funcret
  3618  000E36                     __end_of_atoi:
  3619                           	opt callstack 0
  3620                           
  3621 ;; *************** function _isspace *****************
  3622 ;; Defined at:
  3623 ;;		line 5 in file "C:\Program Files (x86)\Microchip\xc8\v2.10\pic\sources\c99\common\isspace.c"
  3624 ;; Parameters:    Size  Location     Type
  3625 ;;  c               2    0[COMRAM] int 
  3626 ;; Auto vars:     Size  Location     Type
  3627 ;;		None
  3628 ;; Return value:  Size  Location     Type
  3629 ;;                  2    0[COMRAM] int 
  3630 ;; Registers used:
  3631 ;;		wreg, status,2, status,0
  3632 ;; Tracked objects:
  3633 ;;		On entry : 0/0
  3634 ;;		On exit  : 0/0
  3635 ;;		Unchanged: 0/0
  3636 ;; Data sizes:     COMRAM   BANK0   BANK1   BANK2   BANK3   BANK4   BANK5   BANK6   BANK7
  3637 ;;      Params:         2       0       0       0       0       0       0       0       0
  3638 ;;      Locals:         1       0       0       0       0       0       0       0       0
  3639 ;;      Temps:          4       0       0       0       0       0       0       0       0
  3640 ;;      Totals:         7       0       0       0       0       0       0       0       0
  3641 ;;Total ram usage:        7 bytes
  3642 ;; Hardware stack levels used:    1
  3643 ;; Hardware stack levels required when called:    2
  3644 ;; This function calls:
  3645 ;;		Nothing
  3646 ;; This function is called by:
  3647 ;;		_atoi
  3648 ;; This function uses a non-reentrant model
  3649 ;;
  3650                           
  3651                           	psect	text13
  3652  00168C                     __ptext13:
  3653                           	opt callstack 0
  3654  00168C                     _isspace:
  3655                           	opt callstack 26
  3656  00168C  0E01               	movlw	1
  3657  00168E  6E07               	movwf	_isspace$2324^0,c
  3658  001690  0E20               	movlw	32
  3659  001692  1801               	xorwf	isspace@c^0,w,c
  3660  001694  1002               	iorwf	(isspace@c+1)^0,w,c
  3661  001696  B4D8               	btfsc	status,2,c
  3662  001698  EF50  F00B         	goto	u1541
  3663  00169C  EF52  F00B         	goto	u1540
  3664  0016A0                     u1541:
  3665  0016A0  EF6B  F00B         	goto	l2935
  3666  0016A4                     u1540:
  3667  0016A4  0EF7               	movlw	247
  3668  0016A6  6E03               	movwf	??_isspace^0,c
  3669  0016A8  0EFF               	movlw	255
  3670  0016AA  6E04               	movwf	(??_isspace+1)^0,c
  3671  0016AC  C001  F005         	movff	isspace@c,??_isspace+2
  3672  0016B0  C002  F006         	movff	isspace@c+1,??_isspace+3
  3673  0016B4  5003               	movf	??_isspace^0,w,c
  3674  0016B6  2605               	addwf	(??_isspace+2)^0,f,c
  3675  0016B8  5004               	movf	(??_isspace+1)^0,w,c
  3676  0016BA  2206               	addwfc	(??_isspace+3)^0,f,c
  3677  0016BC  5006               	movf	(??_isspace+3)^0,w,c
  3678  0016BE  E109               	bnz	u1550
  3679  0016C0  0E05               	movlw	5
  3680  0016C2  5C05               	subwf	(??_isspace+2)^0,w,c
  3681  0016C4  A0D8               	btfss	status,0,c
  3682  0016C6  EF67  F00B         	goto	u1551
  3683  0016CA  EF69  F00B         	goto	u1550
  3684  0016CE                     u1551:
  3685  0016CE  EF6B  F00B         	goto	l2935
  3686  0016D2                     u1550:
  3687  0016D2  0E00               	movlw	0
  3688  0016D4  6E07               	movwf	_isspace$2324^0,c
  3689  0016D6                     l2935:
  3690  0016D6  C007  F001         	movff	_isspace$2324,?_isspace
  3691  0016DA  6A02               	clrf	(?_isspace+1)^0,c
  3692  0016DC  0012               	return		;funcret
  3693  0016DE                     __end_of_isspace:
  3694                           	opt callstack 0
  3695                           
  3696 ;; *************** function _isdigit *****************
  3697 ;; Defined at:
  3698 ;;		line 5 in file "C:\Program Files (x86)\Microchip\xc8\v2.10\pic\sources\c99\common\isdigit.c"
  3699 ;; Parameters:    Size  Location     Type
  3700 ;;  c               2    0[COMRAM] int 
  3701 ;; Auto vars:     Size  Location     Type
  3702 ;;		None
  3703 ;; Return value:  Size  Location     Type
  3704 ;;                  2    0[COMRAM] int 
  3705 ;; Registers used:
  3706 ;;		wreg, status,2, status,0
  3707 ;; Tracked objects:
  3708 ;;		On entry : 0/0
  3709 ;;		On exit  : 0/0
  3710 ;;		Unchanged: 0/0
  3711 ;; Data sizes:     COMRAM   BANK0   BANK1   BANK2   BANK3   BANK4   BANK5   BANK6   BANK7
  3712 ;;      Params:         2       0       0       0       0       0       0       0       0
  3713 ;;      Locals:         0       0       0       0       0       0       0       0       0
  3714 ;;      Temps:          4       0       0       0       0       0       0       0       0
  3715 ;;      Totals:         6       0       0       0       0       0       0       0       0
  3716 ;;Total ram usage:        6 bytes
  3717 ;; Hardware stack levels used:    1
  3718 ;; Hardware stack levels required when called:    2
  3719 ;; This function calls:
  3720 ;;		Nothing
  3721 ;; This function is called by:
  3722 ;;		_atoi
  3723 ;; This function uses a non-reentrant model
  3724 ;;
  3725                           
  3726                           	psect	text14
  3727  001722                     __ptext14:
  3728                           	opt callstack 0
  3729  001722                     _isdigit:
  3730                           	opt callstack 26
  3731  001722  0ED0               	movlw	208
  3732  001724  6E03               	movwf	??_isdigit^0,c
  3733  001726  0EFF               	movlw	255
  3734  001728  6E04               	movwf	(??_isdigit+1)^0,c
  3735  00172A  C001  F005         	movff	isdigit@c,??_isdigit+2
  3736  00172E  C002  F006         	movff	isdigit@c+1,??_isdigit+3
  3737  001732  5003               	movf	??_isdigit^0,w,c
  3738  001734  2605               	addwf	(??_isdigit+2)^0,f,c
  3739  001736  5004               	movf	(??_isdigit+1)^0,w,c
  3740  001738  2206               	addwfc	(??_isdigit+3)^0,f,c
  3741  00173A  5006               	movf	(??_isdigit+3)^0,w,c
  3742  00173C  E10A               	bnz	u1560
  3743  00173E  0E0A               	movlw	10
  3744  001740  5C05               	subwf	(??_isdigit+2)^0,w,c
  3745  001742  A0D8               	btfss	status,0,c
  3746  001744  EFA6  F00B         	goto	u1561
  3747  001748  EFA9  F00B         	goto	u1560
  3748  00174C                     u1561:
  3749  00174C  0E01               	movlw	1
  3750  00174E  EFAA  F00B         	goto	u1570
  3751  001752                     u1560:
  3752  001752  0E00               	movlw	0
  3753  001754                     u1570:
  3754  001754  6E01               	movwf	?_isdigit^0,c
  3755  001756  6A02               	clrf	(?_isdigit+1)^0,c
  3756  001758  0012               	return		;funcret
  3757  00175A                     __end_of_isdigit:
  3758                           	opt callstack 0
  3759                           
  3760 ;; *************** function ___wmul *****************
  3761 ;; Defined at:
  3762 ;;		line 15 in file "C:\Program Files (x86)\Microchip\xc8\v2.10\pic\sources\c99\common\Umul16.c"
  3763 ;; Parameters:    Size  Location     Type
  3764 ;;  multiplier      2    0[COMRAM] unsigned int 
  3765 ;;  multiplicand    2    2[COMRAM] unsigned int 
  3766 ;; Auto vars:     Size  Location     Type
  3767 ;;  product         2    4[COMRAM] unsigned int 
  3768 ;; Return value:  Size  Location     Type
  3769 ;;                  2    0[COMRAM] unsigned int 
  3770 ;; Registers used:
  3771 ;;		wreg, status,2, status,0, prodl, prodh
  3772 ;; Tracked objects:
  3773 ;;		On entry : 0/0
  3774 ;;		On exit  : 0/0
  3775 ;;		Unchanged: 0/0
  3776 ;; Data sizes:     COMRAM   BANK0   BANK1   BANK2   BANK3   BANK4   BANK5   BANK6   BANK7
  3777 ;;      Params:         4       0       0       0       0       0       0       0       0
  3778 ;;      Locals:         2       0       0       0       0       0       0       0       0
  3779 ;;      Temps:          0       0       0       0       0       0       0       0       0
  3780 ;;      Totals:         6       0       0       0       0       0       0       0       0
  3781 ;;Total ram usage:        6 bytes
  3782 ;; Hardware stack levels used:    1
  3783 ;; Hardware stack levels required when called:    2
  3784 ;; This function calls:
  3785 ;;		Nothing
  3786 ;; This function is called by:
  3787 ;;		_atoi
  3788 ;; This function uses a non-reentrant model
  3789 ;;
  3790                           
  3791                           	psect	text15
  3792  00186E                     __ptext15:
  3793                           	opt callstack 0
  3794  00186E                     ___wmul:
  3795                           	opt callstack 26
  3796  00186E  5001               	movf	___wmul@multiplier^0,w,c
  3797  001870  0203               	mulwf	___wmul@multiplicand^0,c
  3798  001872  CFF3 F005          	movff	prodl,___wmul@product
  3799  001876  CFF4 F006          	movff	prodh,___wmul@product+1
  3800  00187A  5001               	movf	___wmul@multiplier^0,w,c
  3801  00187C  0204               	mulwf	(___wmul@multiplicand+1)^0,c
  3802  00187E  50F3               	movf	243,w,c
  3803  001880  2606               	addwf	(___wmul@product+1)^0,f,c
  3804  001882  5002               	movf	(___wmul@multiplier+1)^0,w,c
  3805  001884  0203               	mulwf	___wmul@multiplicand^0,c
  3806  001886  50F3               	movf	243,w,c
  3807  001888  2606               	addwf	(___wmul@product+1)^0,f,c
  3808  00188A  C005  F001         	movff	___wmul@product,?___wmul
  3809  00188E  C006  F002         	movff	___wmul@product+1,?___wmul+1
  3810  001892  0012               	return		;funcret
  3811  001894                     __end_of___wmul:
  3812                           	opt callstack 0
  3813                           
  3814 ;; *************** function _Seria_Decodificacion_Memoria *****************
  3815 ;; Defined at:
  3816 ;;		line 140 in file "serial.c"
  3817 ;; Parameters:    Size  Location     Type
  3818 ;;  direccion       1    wreg     unsigned char 
  3819 ;; Auto vars:     Size  Location     Type
  3820 ;;  direccion       1   10[COMRAM] unsigned char 
  3821 ;; Return value:  Size  Location     Type
  3822 ;;                  1    wreg      unsigned char 
  3823 ;; Registers used:
  3824 ;;		wreg, fsr0l, fsr0h, status,2, status,0, tblptrl, tblptrh, tblptru, cstack
  3825 ;; Tracked objects:
  3826 ;;		On entry : 0/0
  3827 ;;		On exit  : 0/0
  3828 ;;		Unchanged: 0/0
  3829 ;; Data sizes:     COMRAM   BANK0   BANK1   BANK2   BANK3   BANK4   BANK5   BANK6   BANK7
  3830 ;;      Params:         0       0       0       0       0       0       0       0       0
  3831 ;;      Locals:         1       0       0       0       0       0       0       0       0
  3832 ;;      Temps:          2       0       0       0       0       0       0       0       0
  3833 ;;      Totals:         3       0       0       0       0       0       0       0       0
  3834 ;;Total ram usage:        3 bytes
  3835 ;; Hardware stack levels used:    1
  3836 ;; Hardware stack levels required when called:    3
  3837 ;; This function calls:
  3838 ;;		_USART_TxS
  3839 ;; This function is called by:
  3840 ;;		_main
  3841 ;; This function uses a non-reentrant model
  3842 ;;
  3843                           
  3844                           	psect	text16
  3845  0006C2                     __ptext16:
  3846                           	opt callstack 0
  3847  0006C2                     _Seria_Decodificacion_Memoria:
  3848                           	opt callstack 27
  3849                           
  3850                           ;incstack = 0
  3851                           ;Seria_Decodificacion_Memoria@direccion stored from wreg
  3852  0006C2  6E0B               	movwf	Seria_Decodificacion_Memoria@direccion^0,c
  3853  0006C4                     
  3854                           ;serial.c: 141:     switch (direccion) {
  3855  0006C4  EF44  F004         	goto	l3315
  3856  0006C8                     l3249:
  3857                           
  3858                           ;serial.c: 143:             direccion = 0x00;
  3859  0006C8  0E00               	movlw	0
  3860  0006CA  6E0B               	movwf	Seria_Decodificacion_Memoria@direccion^0,c
  3861  0006CC                     
  3862                           ;serial.c: 144:             USART_TxS("COORDINATE OF SETPOINT 0 ", sizeof ("COORDINATE O
      +                          F SETPOINT 0 "));
  3863  0006CC  0E39               	movlw	low STR_13
  3864  0006CE  6E01               	movwf	USART_TxS@str^0,c
  3865  0006D0  0E7E               	movlw	high STR_13
  3866  0006D2  6E02               	movwf	(USART_TxS@str+1)^0,c
  3867  0006D4  0E00               	movlw	0
  3868  0006D6  6E04               	movwf	(USART_TxS@length+1)^0,c
  3869  0006D8  0E1A               	movlw	26
  3870  0006DA  6E03               	movwf	USART_TxS@length^0,c
  3871  0006DC  ECB4  F00A         	call	_USART_TxS	;wreg free
  3872                           
  3873                           ;serial.c: 145:             break;
  3874  0006E0  EF91  F004         	goto	l3317
  3875  0006E4                     l3253:
  3876                           
  3877                           ;serial.c: 147:             direccion = 0x10;
  3878  0006E4  0E10               	movlw	16
  3879  0006E6  6E0B               	movwf	Seria_Decodificacion_Memoria@direccion^0,c
  3880  0006E8                     
  3881                           ;serial.c: 148:             USART_TxS("COORDINATE OF SETPOINT 1 ", sizeof ("COORDINATE O
      +                          F SETPOINT 1 "));
  3882  0006E8  0E53               	movlw	low STR_14
  3883  0006EA  6E01               	movwf	USART_TxS@str^0,c
  3884  0006EC  0E7E               	movlw	high STR_14
  3885  0006EE  6E02               	movwf	(USART_TxS@str+1)^0,c
  3886  0006F0  0E00               	movlw	0
  3887  0006F2  6E04               	movwf	(USART_TxS@length+1)^0,c
  3888  0006F4  0E1A               	movlw	26
  3889  0006F6  6E03               	movwf	USART_TxS@length^0,c
  3890  0006F8  ECB4  F00A         	call	_USART_TxS	;wreg free
  3891                           
  3892                           ;serial.c: 149:             break;
  3893  0006FC  EF91  F004         	goto	l3317
  3894  000700                     l3257:
  3895                           
  3896                           ;serial.c: 151:             direccion = 0x20;
  3897  000700  0E20               	movlw	32
  3898  000702  6E0B               	movwf	Seria_Decodificacion_Memoria@direccion^0,c
  3899  000704                     
  3900                           ;serial.c: 152:             USART_TxS("COORDINATE OF SETPOINT 2 ", sizeof ("COORDINATE O
      +                          F SETPOINT 2 "));
  3901  000704  0E6D               	movlw	low STR_15
  3902  000706  6E01               	movwf	USART_TxS@str^0,c
  3903  000708  0E7E               	movlw	high STR_15
  3904  00070A  6E02               	movwf	(USART_TxS@str+1)^0,c
  3905  00070C  0E00               	movlw	0
  3906  00070E  6E04               	movwf	(USART_TxS@length+1)^0,c
  3907  000710  0E1A               	movlw	26
  3908  000712  6E03               	movwf	USART_TxS@length^0,c
  3909  000714  ECB4  F00A         	call	_USART_TxS	;wreg free
  3910                           
  3911                           ;serial.c: 153:             break;
  3912  000718  EF91  F004         	goto	l3317
  3913  00071C                     l3261:
  3914                           
  3915                           ;serial.c: 155:             direccion = 0x30;
  3916  00071C  0E30               	movlw	48
  3917  00071E  6E0B               	movwf	Seria_Decodificacion_Memoria@direccion^0,c
  3918  000720                     
  3919                           ;serial.c: 156:             USART_TxS("COORDINATE OF SETPOINT 3 ", sizeof ("COORDINATE O
      +                          F SETPOINT 3 "));
  3920  000720  0E87               	movlw	low STR_16
  3921  000722  6E01               	movwf	USART_TxS@str^0,c
  3922  000724  0E7E               	movlw	high STR_16
  3923  000726  6E02               	movwf	(USART_TxS@str+1)^0,c
  3924  000728  0E00               	movlw	0
  3925  00072A  6E04               	movwf	(USART_TxS@length+1)^0,c
  3926  00072C  0E1A               	movlw	26
  3927  00072E  6E03               	movwf	USART_TxS@length^0,c
  3928  000730  ECB4  F00A         	call	_USART_TxS	;wreg free
  3929                           
  3930                           ;serial.c: 157:             break;
  3931  000734  EF91  F004         	goto	l3317
  3932  000738                     l3265:
  3933                           
  3934                           ;serial.c: 159:             direccion = 0x40;
  3935  000738  0E40               	movlw	64
  3936  00073A  6E0B               	movwf	Seria_Decodificacion_Memoria@direccion^0,c
  3937  00073C                     
  3938                           ;serial.c: 160:             USART_TxS("COORDINATE OF SETPOINT 4 ", sizeof ("COORDINATE O
      +                          F SETPOINT 4 "));
  3939  00073C  0EA1               	movlw	low STR_17
  3940  00073E  6E01               	movwf	USART_TxS@str^0,c
  3941  000740  0E7E               	movlw	high STR_17
  3942  000742  6E02               	movwf	(USART_TxS@str+1)^0,c
  3943  000744  0E00               	movlw	0
  3944  000746  6E04               	movwf	(USART_TxS@length+1)^0,c
  3945  000748  0E1A               	movlw	26
  3946  00074A  6E03               	movwf	USART_TxS@length^0,c
  3947  00074C  ECB4  F00A         	call	_USART_TxS	;wreg free
  3948                           
  3949                           ;serial.c: 161:             break;
  3950  000750  EF91  F004         	goto	l3317
  3951  000754                     l3269:
  3952                           
  3953                           ;serial.c: 163:             direccion = 0x50;
  3954  000754  0E50               	movlw	80
  3955  000756  6E0B               	movwf	Seria_Decodificacion_Memoria@direccion^0,c
  3956  000758                     
  3957                           ;serial.c: 164:             USART_TxS("COORDINATE OF SETPOINT 5 ", sizeof ("COORDINATE O
      +                          F SETPOINT 5 "));
  3958  000758  0EBB               	movlw	low STR_18
  3959  00075A  6E01               	movwf	USART_TxS@str^0,c
  3960  00075C  0E7E               	movlw	high STR_18
  3961  00075E  6E02               	movwf	(USART_TxS@str+1)^0,c
  3962  000760  0E00               	movlw	0
  3963  000762  6E04               	movwf	(USART_TxS@length+1)^0,c
  3964  000764  0E1A               	movlw	26
  3965  000766  6E03               	movwf	USART_TxS@length^0,c
  3966  000768  ECB4  F00A         	call	_USART_TxS	;wreg free
  3967                           
  3968                           ;serial.c: 165:             break;
  3969  00076C  EF91  F004         	goto	l3317
  3970  000770                     l3273:
  3971                           
  3972                           ;serial.c: 167:             direccion = 0x60;
  3973  000770  0E60               	movlw	96
  3974  000772  6E0B               	movwf	Seria_Decodificacion_Memoria@direccion^0,c
  3975  000774                     
  3976                           ;serial.c: 168:             USART_TxS("COORDINATE OF SETPOINT 6 ", sizeof ("COORDINATE O
      +                          F SETPOINT 6 "));
  3977  000774  0ED5               	movlw	low STR_19
  3978  000776  6E01               	movwf	USART_TxS@str^0,c
  3979  000778  0E7E               	movlw	high STR_19
  3980  00077A  6E02               	movwf	(USART_TxS@str+1)^0,c
  3981  00077C  0E00               	movlw	0
  3982  00077E  6E04               	movwf	(USART_TxS@length+1)^0,c
  3983  000780  0E1A               	movlw	26
  3984  000782  6E03               	movwf	USART_TxS@length^0,c
  3985  000784  ECB4  F00A         	call	_USART_TxS	;wreg free
  3986                           
  3987                           ;serial.c: 169:             break;
  3988  000788  EF91  F004         	goto	l3317
  3989  00078C                     l3277:
  3990                           
  3991                           ;serial.c: 171:             direccion = 0x70;
  3992  00078C  0E70               	movlw	112
  3993  00078E  6E0B               	movwf	Seria_Decodificacion_Memoria@direccion^0,c
  3994  000790                     
  3995                           ;serial.c: 172:             USART_TxS("COORDINATE OF SETPOINT 7 ", sizeof ("COORDINATE O
      +                          F SETPOINT 7 "));
  3996  000790  0EEF               	movlw	low STR_20
  3997  000792  6E01               	movwf	USART_TxS@str^0,c
  3998  000794  0E7E               	movlw	high STR_20
  3999  000796  6E02               	movwf	(USART_TxS@str+1)^0,c
  4000  000798  0E00               	movlw	0
  4001  00079A  6E04               	movwf	(USART_TxS@length+1)^0,c
  4002  00079C  0E1A               	movlw	26
  4003  00079E  6E03               	movwf	USART_TxS@length^0,c
  4004  0007A0  ECB4  F00A         	call	_USART_TxS	;wreg free
  4005                           
  4006                           ;serial.c: 173:             break;
  4007  0007A4  EF91  F004         	goto	l3317
  4008  0007A8                     l3281:
  4009                           
  4010                           ;serial.c: 175:             direccion = 0x80;
  4011  0007A8  0E80               	movlw	128
  4012  0007AA  6E0B               	movwf	Seria_Decodificacion_Memoria@direccion^0,c
  4013  0007AC                     
  4014                           ;serial.c: 176:             USART_TxS("COORDINATE OF SETPOINT 8 ", sizeof ("COORDINATE O
      +                          F SETPOINT 8 "));
  4015  0007AC  0E09               	movlw	low STR_21
  4016  0007AE  6E01               	movwf	USART_TxS@str^0,c
  4017  0007B0  0E7F               	movlw	high STR_21
  4018  0007B2  6E02               	movwf	(USART_TxS@str+1)^0,c
  4019  0007B4  0E00               	movlw	0
  4020  0007B6  6E04               	movwf	(USART_TxS@length+1)^0,c
  4021  0007B8  0E1A               	movlw	26
  4022  0007BA  6E03               	movwf	USART_TxS@length^0,c
  4023  0007BC  ECB4  F00A         	call	_USART_TxS	;wreg free
  4024                           
  4025                           ;serial.c: 177:             break;
  4026  0007C0  EF91  F004         	goto	l3317
  4027  0007C4                     l3285:
  4028                           
  4029                           ;serial.c: 179:             direccion = 0x90;
  4030  0007C4  0E90               	movlw	144
  4031  0007C6  6E0B               	movwf	Seria_Decodificacion_Memoria@direccion^0,c
  4032  0007C8                     
  4033                           ;serial.c: 180:             USART_TxS("COORDINATE OF SETPOINT 9 ", sizeof ("COORDINATE O
      +                          F SETPOINT 9 "));
  4034  0007C8  0E23               	movlw	low STR_22
  4035  0007CA  6E01               	movwf	USART_TxS@str^0,c
  4036  0007CC  0E7F               	movlw	high STR_22
  4037  0007CE  6E02               	movwf	(USART_TxS@str+1)^0,c
  4038  0007D0  0E00               	movlw	0
  4039  0007D2  6E04               	movwf	(USART_TxS@length+1)^0,c
  4040  0007D4  0E1A               	movlw	26
  4041  0007D6  6E03               	movwf	USART_TxS@length^0,c
  4042  0007D8  ECB4  F00A         	call	_USART_TxS	;wreg free
  4043                           
  4044                           ;serial.c: 181:             break;
  4045  0007DC  EF91  F004         	goto	l3317
  4046  0007E0                     l3289:
  4047                           
  4048                           ;serial.c: 183:             direccion = 0xA0;
  4049  0007E0  0EA0               	movlw	160
  4050  0007E2  6E0B               	movwf	Seria_Decodificacion_Memoria@direccion^0,c
  4051  0007E4                     
  4052                           ;serial.c: 184:             USART_TxS("COORDINATE OF SETPOINT 10 ", sizeof ("COORDINATE 
      +                          OF SETPOINT 10 "));
  4053  0007E4  0E97               	movlw	low STR_23
  4054  0007E6  6E01               	movwf	USART_TxS@str^0,c
  4055  0007E8  0E7D               	movlw	high STR_23
  4056  0007EA  6E02               	movwf	(USART_TxS@str+1)^0,c
  4057  0007EC  0E00               	movlw	0
  4058  0007EE  6E04               	movwf	(USART_TxS@length+1)^0,c
  4059  0007F0  0E1B               	movlw	27
  4060  0007F2  6E03               	movwf	USART_TxS@length^0,c
  4061  0007F4  ECB4  F00A         	call	_USART_TxS	;wreg free
  4062                           
  4063                           ;serial.c: 185:             break;
  4064  0007F8  EF91  F004         	goto	l3317
  4065  0007FC                     l3293:
  4066                           
  4067                           ;serial.c: 187:             direccion = 0xB0;
  4068  0007FC  0EB0               	movlw	176
  4069  0007FE  6E0B               	movwf	Seria_Decodificacion_Memoria@direccion^0,c
  4070  000800                     
  4071                           ;serial.c: 188:             USART_TxS("COORDINATE OF SETPOINT 11 ", sizeof ("COORDINATE 
      +                          OF SETPOINT 11 "));
  4072  000800  0EB2               	movlw	low STR_24
  4073  000802  6E01               	movwf	USART_TxS@str^0,c
  4074  000804  0E7D               	movlw	high STR_24
  4075  000806  6E02               	movwf	(USART_TxS@str+1)^0,c
  4076  000808  0E00               	movlw	0
  4077  00080A  6E04               	movwf	(USART_TxS@length+1)^0,c
  4078  00080C  0E1B               	movlw	27
  4079  00080E  6E03               	movwf	USART_TxS@length^0,c
  4080  000810  ECB4  F00A         	call	_USART_TxS	;wreg free
  4081                           
  4082                           ;serial.c: 189:             break;
  4083  000814  EF91  F004         	goto	l3317
  4084  000818                     l3297:
  4085                           
  4086                           ;serial.c: 191:             direccion = 0xC0;
  4087  000818  0EC0               	movlw	192
  4088  00081A  6E0B               	movwf	Seria_Decodificacion_Memoria@direccion^0,c
  4089  00081C                     
  4090                           ;serial.c: 192:             USART_TxS("COORDINATE OF SETPOINT 12 ", sizeof ("COORDINATE 
      +                          OF SETPOINT 12 "));
  4091  00081C  0ECD               	movlw	low STR_25
  4092  00081E  6E01               	movwf	USART_TxS@str^0,c
  4093  000820  0E7D               	movlw	high STR_25
  4094  000822  6E02               	movwf	(USART_TxS@str+1)^0,c
  4095  000824  0E00               	movlw	0
  4096  000826  6E04               	movwf	(USART_TxS@length+1)^0,c
  4097  000828  0E1B               	movlw	27
  4098  00082A  6E03               	movwf	USART_TxS@length^0,c
  4099  00082C  ECB4  F00A         	call	_USART_TxS	;wreg free
  4100                           
  4101                           ;serial.c: 193:             break;
  4102  000830  EF91  F004         	goto	l3317
  4103  000834                     l3301:
  4104                           
  4105                           ;serial.c: 195:             direccion = 0xD0;
  4106  000834  0ED0               	movlw	208
  4107  000836  6E0B               	movwf	Seria_Decodificacion_Memoria@direccion^0,c
  4108  000838                     
  4109                           ;serial.c: 196:             USART_TxS("COORDINATE OF SETPOINT 13 ", sizeof ("COORDINATE 
      +                          OF SETPOINT 13 "));
  4110  000838  0EE8               	movlw	low STR_26
  4111  00083A  6E01               	movwf	USART_TxS@str^0,c
  4112  00083C  0E7D               	movlw	high STR_26
  4113  00083E  6E02               	movwf	(USART_TxS@str+1)^0,c
  4114  000840  0E00               	movlw	0
  4115  000842  6E04               	movwf	(USART_TxS@length+1)^0,c
  4116  000844  0E1B               	movlw	27
  4117  000846  6E03               	movwf	USART_TxS@length^0,c
  4118  000848  ECB4  F00A         	call	_USART_TxS	;wreg free
  4119                           
  4120                           ;serial.c: 197:             break;
  4121  00084C  EF91  F004         	goto	l3317
  4122  000850                     l3305:
  4123                           
  4124                           ;serial.c: 199:             direccion = 0xE0;
  4125  000850  0EE0               	movlw	224
  4126  000852  6E0B               	movwf	Seria_Decodificacion_Memoria@direccion^0,c
  4127  000854                     
  4128                           ;serial.c: 200:             USART_TxS("COORDINATE OF SETPOINT 14 ", sizeof ("COORDINATE 
      +                          OF SETPOINT 14 "));
  4129  000854  0E03               	movlw	low STR_27
  4130  000856  6E01               	movwf	USART_TxS@str^0,c
  4131  000858  0E7E               	movlw	high STR_27
  4132  00085A  6E02               	movwf	(USART_TxS@str+1)^0,c
  4133  00085C  0E00               	movlw	0
  4134  00085E  6E04               	movwf	(USART_TxS@length+1)^0,c
  4135  000860  0E1B               	movlw	27
  4136  000862  6E03               	movwf	USART_TxS@length^0,c
  4137  000864  ECB4  F00A         	call	_USART_TxS	;wreg free
  4138                           
  4139                           ;serial.c: 201:             break;
  4140  000868  EF91  F004         	goto	l3317
  4141  00086C                     l3309:
  4142                           
  4143                           ;serial.c: 203:             direccion = 0xF0;
  4144  00086C  0EF0               	movlw	240
  4145  00086E  6E0B               	movwf	Seria_Decodificacion_Memoria@direccion^0,c
  4146  000870                     
  4147                           ;serial.c: 204:             USART_TxS("COORDINATE OF SETPOINT 15 ", sizeof ("COORDINATE 
      +                          OF SETPOINT 15 "));
  4148  000870  0E1E               	movlw	low STR_28
  4149  000872  6E01               	movwf	USART_TxS@str^0,c
  4150  000874  0E7E               	movlw	high STR_28
  4151  000876  6E02               	movwf	(USART_TxS@str+1)^0,c
  4152  000878  0E00               	movlw	0
  4153  00087A  6E04               	movwf	(USART_TxS@length+1)^0,c
  4154  00087C  0E1B               	movlw	27
  4155  00087E  6E03               	movwf	USART_TxS@length^0,c
  4156  000880  ECB4  F00A         	call	_USART_TxS	;wreg free
  4157                           
  4158                           ;serial.c: 205:             break;
  4159  000884  EF91  F004         	goto	l3317
  4160  000888                     l3315:
  4161  000888  500B               	movf	Seria_Decodificacion_Memoria@direccion^0,w,c
  4162  00088A  6E09               	movwf	??_Seria_Decodificacion_Memoria^0,c
  4163  00088C  6A0A               	clrf	(??_Seria_Decodificacion_Memoria+1)^0,c
  4164                           
  4165                           ; Switch on 2 bytes has been partitioned into a top level switch of size 1, and 1 sub-sw
      +                          itches
  4166                           ; Switch size 1, requested type "simple"
  4167                           ; Number of cases is 1, Range of values is 0 to 0
  4168                           ; switch strategies available:
  4169                           ; Name         Instructions Cycles
  4170                           ; simple_byte            4     3 (average)
  4171                           ;	Chosen strategy is simple_byte
  4172  00088E  500A               	movf	(??_Seria_Decodificacion_Memoria+1)^0,w,c
  4173  000890  0A00               	xorlw	0	; case 0
  4174  000892  B4D8               	btfsc	status,2,c
  4175  000894  EF4E  F004         	goto	l4649
  4176  000898  EF91  F004         	goto	l3317
  4177  00089C                     l4649:
  4178                           
  4179                           ; Switch size 1, requested type "simple"
  4180                           ; Number of cases is 16, Range of values is 48 to 70
  4181                           ; switch strategies available:
  4182                           ; Name         Instructions Cycles
  4183                           ; simple_byte           49    25 (average)
  4184                           ;	Chosen strategy is simple_byte
  4185  00089C  5009               	movf	??_Seria_Decodificacion_Memoria^0,w,c
  4186  00089E  0A30               	xorlw	48	; case 48
  4187  0008A0  B4D8               	btfsc	status,2,c
  4188  0008A2  EF64  F003         	goto	l3249
  4189  0008A6  0A01               	xorlw	1	; case 49
  4190  0008A8  B4D8               	btfsc	status,2,c
  4191  0008AA  EF72  F003         	goto	l3253
  4192  0008AE  0A03               	xorlw	3	; case 50
  4193  0008B0  B4D8               	btfsc	status,2,c
  4194  0008B2  EF80  F003         	goto	l3257
  4195  0008B6  0A01               	xorlw	1	; case 51
  4196  0008B8  B4D8               	btfsc	status,2,c
  4197  0008BA  EF8E  F003         	goto	l3261
  4198  0008BE  0A07               	xorlw	7	; case 52
  4199  0008C0  B4D8               	btfsc	status,2,c
  4200  0008C2  EF9C  F003         	goto	l3265
  4201  0008C6  0A01               	xorlw	1	; case 53
  4202  0008C8  B4D8               	btfsc	status,2,c
  4203  0008CA  EFAA  F003         	goto	l3269
  4204  0008CE  0A03               	xorlw	3	; case 54
  4205  0008D0  B4D8               	btfsc	status,2,c
  4206  0008D2  EFB8  F003         	goto	l3273
  4207  0008D6  0A01               	xorlw	1	; case 55
  4208  0008D8  B4D8               	btfsc	status,2,c
  4209  0008DA  EFC6  F003         	goto	l3277
  4210  0008DE  0A0F               	xorlw	15	; case 56
  4211  0008E0  B4D8               	btfsc	status,2,c
  4212  0008E2  EFD4  F003         	goto	l3281
  4213  0008E6  0A01               	xorlw	1	; case 57
  4214  0008E8  B4D8               	btfsc	status,2,c
  4215  0008EA  EFE2  F003         	goto	l3285
  4216  0008EE  0A78               	xorlw	120	; case 65
  4217  0008F0  B4D8               	btfsc	status,2,c
  4218  0008F2  EFF0  F003         	goto	l3289
  4219  0008F6  0A03               	xorlw	3	; case 66
  4220  0008F8  B4D8               	btfsc	status,2,c
  4221  0008FA  EFFE  F003         	goto	l3293
  4222  0008FE  0A01               	xorlw	1	; case 67
  4223  000900  B4D8               	btfsc	status,2,c
  4224  000902  EF0C  F004         	goto	l3297
  4225  000906  0A07               	xorlw	7	; case 68
  4226  000908  B4D8               	btfsc	status,2,c
  4227  00090A  EF1A  F004         	goto	l3301
  4228  00090E  0A01               	xorlw	1	; case 69
  4229  000910  B4D8               	btfsc	status,2,c
  4230  000912  EF28  F004         	goto	l3305
  4231  000916  0A03               	xorlw	3	; case 70
  4232  000918  B4D8               	btfsc	status,2,c
  4233  00091A  EF36  F004         	goto	l3309
  4234  00091E  EF91  F004         	goto	l3317
  4235  000922                     l3317:
  4236                           
  4237                           ;serial.c: 207:     return direccion;
  4238  000922  500B               	movf	Seria_Decodificacion_Memoria@direccion^0,w,c
  4239  000924  0012               	return		;funcret
  4240  000926                     __end_of_Seria_Decodificacion_Memoria:
  4241                           	opt callstack 0
  4242                           
  4243 ;; *************** function _Motor_Movimiento *****************
  4244 ;; Defined at:
  4245 ;;		line 24 in file "Motor.c"
  4246 ;; Parameters:    Size  Location     Type
  4247 ;;  Oupcode         1    wreg     unsigned char 
  4248 ;;  Motor_Coorde    2   55[COMRAM] int 
  4249 ;;  Motor_Coorde    2   57[COMRAM] int 
  4250 ;; Auto vars:     Size  Location     Type
  4251 ;;  Oupcode         1   59[COMRAM] unsigned char 
  4252 ;; Return value:  Size  Location     Type
  4253 ;;                  1    wreg      void 
  4254 ;; Registers used:
  4255 ;;		wreg, fsr0l, fsr0h, status,2, status,0, tblptrl, tblptrh, tblptru, cstack
  4256 ;; Tracked objects:
  4257 ;;		On entry : 0/0
  4258 ;;		On exit  : 0/0
  4259 ;;		Unchanged: 0/0
  4260 ;; Data sizes:     COMRAM   BANK0   BANK1   BANK2   BANK3   BANK4   BANK5   BANK6   BANK7
  4261 ;;      Params:         4       0       0       0       0       0       0       0       0
  4262 ;;      Locals:         1       0       0       0       0       0       0       0       0
  4263 ;;      Temps:          0       0       0       0       0       0       0       0       0
  4264 ;;      Totals:         5       0       0       0       0       0       0       0       0
  4265 ;;Total ram usage:        5 bytes
  4266 ;; Hardware stack levels used:    1
  4267 ;; Hardware stack levels required when called:    4
  4268 ;; This function calls:
  4269 ;;		_Motor_Calcular_PasosX
  4270 ;;		_Motor_Calcular_PasosY
  4271 ;;		_Motor_Conversion
  4272 ;;		_PWM_GeneratePulsos
  4273 ;;		_USART_TxS
  4274 ;; This function is called by:
  4275 ;;		_main
  4276 ;; This function uses a non-reentrant model
  4277 ;;
  4278                           
  4279                           	psect	text17
  4280  00139A                     __ptext17:
  4281                           	opt callstack 0
  4282  00139A                     _Motor_Movimiento:
  4283                           	opt callstack 26
  4284                           
  4285                           ;incstack = 0
  4286                           ;Motor_Movimiento@Oupcode stored from wreg
  4287  00139A  6E3C               	movwf	Motor_Movimiento@Oupcode^0,c
  4288  00139C                     
  4289                           ;Motor.c: 25:     Motor_Calcular_PasosX(Motor_CoordenadaX);
  4290  00139C  C038  F001         	movff	Motor_Movimiento@Motor_CoordenadaX,Motor_Calcular_PasosX@coordenada_actualX
  4291  0013A0  C039  F002         	movff	Motor_Movimiento@Motor_CoordenadaX+1,Motor_Calcular_PasosX@coordenada_actualX+1
  4292  0013A4  EC8C  F009         	call	_Motor_Calcular_PasosX	;wreg free
  4293                           
  4294                           ;Motor.c: 26:     Motor_Calcular_PasosY(Motor_CoordenadaY);
  4295  0013A8  C03A  F001         	movff	Motor_Movimiento@Motor_CoordenadaY,Motor_Calcular_PasosY@coordenada_actualY
  4296  0013AC  C03B  F002         	movff	Motor_Movimiento@Motor_CoordenadaY+1,Motor_Calcular_PasosY@coordenada_actualY+1
  4297  0013B0  EC4B  F009         	call	_Motor_Calcular_PasosY	;wreg free
  4298                           
  4299                           ;Motor.c: 27:     PasosX = Motor_Conversion(DeltaX);
  4300  0013B4  C047  F032         	movff	_DeltaX,Motor_Conversion@Coordenada
  4301  0013B8  C048  F033         	movff	_DeltaX+1,Motor_Conversion@Coordenada+1
  4302  0013BC  EC0C  F00A         	call	_Motor_Conversion	;wreg free
  4303  0013C0  C032  F04B         	movff	?_Motor_Conversion,_PasosX
  4304  0013C4  C033  F04C         	movff	?_Motor_Conversion+1,_PasosX+1
  4305                           
  4306                           ;Motor.c: 28:     PasosY = Motor_Conversion(DeltaY);
  4307  0013C8  C045  F032         	movff	_DeltaY,Motor_Conversion@Coordenada
  4308  0013CC  C046  F033         	movff	_DeltaY+1,Motor_Conversion@Coordenada+1
  4309  0013D0  EC0C  F00A         	call	_Motor_Conversion	;wreg free
  4310  0013D4  C032  F049         	movff	?_Motor_Conversion,_PasosY
  4311  0013D8  C033  F04A         	movff	?_Motor_Conversion+1,_PasosY+1
  4312  0013DC                     
  4313                           ;Motor.c: 29:     coordenada_anteriorX=Motor_CoordenadaX;
  4314  0013DC  C038  F043         	movff	Motor_Movimiento@Motor_CoordenadaX,_coordenada_anteriorX
  4315  0013E0  C039  F044         	movff	Motor_Movimiento@Motor_CoordenadaX+1,_coordenada_anteriorX+1
  4316  0013E4                     
  4317                           ;Motor.c: 30:     coordenada_anteriorY=Motor_CoordenadaY;
  4318  0013E4  C03A  F041         	movff	Motor_Movimiento@Motor_CoordenadaY,_coordenada_anteriorY
  4319  0013E8  C03B  F042         	movff	Motor_Movimiento@Motor_CoordenadaY+1,_coordenada_anteriorY+1
  4320                           
  4321                           ;Motor.c: 31:     PWM_GeneratePulsos(Oupcode, PasosX, PasosY);
  4322  0013EC  C04B  F003         	movff	_PasosX,PWM_GeneratePulsos@pulsosX
  4323  0013F0  C04C  F004         	movff	_PasosX+1,PWM_GeneratePulsos@pulsosX+1
  4324  0013F4  C049  F005         	movff	_PasosY,PWM_GeneratePulsos@pulsosY
  4325  0013F8  C04A  F006         	movff	_PasosY+1,PWM_GeneratePulsos@pulsosY+1
  4326  0013FC  503C               	movf	Motor_Movimiento@Oupcode^0,w,c
  4327  0013FE  ECAF  F007         	call	_PWM_GeneratePulsos
  4328  001402                     
  4329                           ;Motor.c: 32:     USART_TxS("COMPLETED",sizeof("COMPLETED"));
  4330  001402  0EE0               	movlw	low STR_36
  4331  001404  6E01               	movwf	USART_TxS@str^0,c
  4332  001406  0E7F               	movlw	high STR_36
  4333  001408  6E02               	movwf	(USART_TxS@str+1)^0,c
  4334  00140A  0E00               	movlw	0
  4335  00140C  6E04               	movwf	(USART_TxS@length+1)^0,c
  4336  00140E  0E0A               	movlw	10
  4337  001410  6E03               	movwf	USART_TxS@length^0,c
  4338  001412  ECB4  F00A         	call	_USART_TxS	;wreg free
  4339  001416  0012               	return		;funcret
  4340  001418                     __end_of_Motor_Movimiento:
  4341                           	opt callstack 0
  4342                           
  4343 ;; *************** function _PWM_GeneratePulsos *****************
  4344 ;; Defined at:
  4345 ;;		line 6 in file "PWM.c"
  4346 ;; Parameters:    Size  Location     Type
  4347 ;;  Oupcode         1    wreg     unsigned char 
  4348 ;;  pulsosX         2    2[COMRAM] int 
  4349 ;;  pulsosY         2    4[COMRAM] int 
  4350 ;; Auto vars:     Size  Location     Type
  4351 ;;  Oupcode         1    7[COMRAM] unsigned char 
  4352 ;;  countY          2   10[COMRAM] int 
  4353 ;;  countX          2    8[COMRAM] int 
  4354 ;; Return value:  Size  Location     Type
  4355 ;;                  1    wreg      void 
  4356 ;; Registers used:
  4357 ;;		wreg, status,2, status,0, cstack
  4358 ;; Tracked objects:
  4359 ;;		On entry : 0/0
  4360 ;;		On exit  : 0/0
  4361 ;;		Unchanged: 0/0
  4362 ;; Data sizes:     COMRAM   BANK0   BANK1   BANK2   BANK3   BANK4   BANK5   BANK6   BANK7
  4363 ;;      Params:         4       0       0       0       0       0       0       0       0
  4364 ;;      Locals:         5       0       0       0       0       0       0       0       0
  4365 ;;      Temps:          1       0       0       0       0       0       0       0       0
  4366 ;;      Totals:        10       0       0       0       0       0       0       0       0
  4367 ;;Total ram usage:       10 bytes
  4368 ;; Hardware stack levels used:    1
  4369 ;; Hardware stack levels required when called:    3
  4370 ;; This function calls:
  4371 ;;		_PWM_InitF
  4372 ;;		_PWM_InitS
  4373 ;;		_PWM_OneshotX
  4374 ;;		_PWM_OneshotY
  4375 ;; This function is called by:
  4376 ;;		_Motor_Movimiento
  4377 ;; This function uses a non-reentrant model
  4378 ;;
  4379                           
  4380                           	psect	text18
  4381  000F5E                     __ptext18:
  4382                           	opt callstack 0
  4383  000F5E                     _PWM_GeneratePulsos:
  4384                           	opt callstack 26
  4385                           
  4386                           ;incstack = 0
  4387                           ;PWM_GeneratePulsos@Oupcode stored from wreg
  4388  000F5E  6E08               	movwf	PWM_GeneratePulsos@Oupcode^0,c
  4389  000F60                     
  4390                           ;PWM.c: 7:     if (Oupcode == 'S') {
  4391  000F60  0E53               	movlw	83
  4392  000F62  1808               	xorwf	PWM_GeneratePulsos@Oupcode^0,w,c
  4393  000F64  A4D8               	btfss	status,2,c
  4394  000F66  EFB7  F007         	goto	u1581
  4395  000F6A  EFB9  F007         	goto	u1580
  4396  000F6E                     u1581:
  4397  000F6E  EFBD  F007         	goto	l2947
  4398  000F72                     u1580:
  4399  000F72                     
  4400                           ;PWM.c: 8:         PWM_InitS();
  4401  000F72  EC6C  F00C         	call	_PWM_InitS	;wreg free
  4402                           
  4403                           ;PWM.c: 9:     } else {
  4404  000F76  EFBF  F007         	goto	l2949
  4405  000F7A                     l2947:
  4406                           
  4407                           ;PWM.c: 10:         PWM_InitF();
  4408  000F7A  EC5C  F00C         	call	_PWM_InitF	;wreg free
  4409  000F7E                     l2949:
  4410                           
  4411                           ;PWM.c: 12:     PORTDbits.RD0 = 0;
  4412  000F7E  9083               	bcf	131,0,c	;volatile
  4413  000F80                     
  4414                           ;PWM.c: 13:     PORTDbits.RD2 = 0;
  4415  000F80  9483               	bcf	131,2,c	;volatile
  4416  000F82                     
  4417                           ;PWM.c: 14:     int countX = 0;
  4418  000F82  0E00               	movlw	0
  4419  000F84  6E0A               	movwf	(PWM_GeneratePulsos@countX+1)^0,c
  4420  000F86  0E00               	movlw	0
  4421  000F88  6E09               	movwf	PWM_GeneratePulsos@countX^0,c
  4422  000F8A                     
  4423                           ;PWM.c: 15:     int countY = 0;
  4424  000F8A  0E00               	movlw	0
  4425  000F8C  6E0C               	movwf	(PWM_GeneratePulsos@countY+1)^0,c
  4426  000F8E  0E00               	movlw	0
  4427  000F90  6E0B               	movwf	PWM_GeneratePulsos@countY^0,c
  4428  000F92                     
  4429                           ;PWM.c: 16:     T2CONbits.TMR2ON = 1;
  4430  000F92  84CA               	bsf	202,2,c	;volatile
  4431                           
  4432                           ;PWM.c: 17:     while ((countX < pulsosX) || (countY < pulsosY)) {
  4433  000F94  EF1A  F008         	goto	l2975
  4434  000F98                     l2959:
  4435                           
  4436                           ;PWM.c: 18:         if (countX < pulsosX) {
  4437  000F98  5003               	movf	PWM_GeneratePulsos@pulsosX^0,w,c
  4438  000F9A  5C09               	subwf	PWM_GeneratePulsos@countX^0,w,c
  4439  000F9C  500A               	movf	(PWM_GeneratePulsos@countX+1)^0,w,c
  4440  000F9E  0A80               	xorlw	128
  4441  000FA0  6E07               	movwf	??_PWM_GeneratePulsos^0,c
  4442  000FA2  5004               	movf	(PWM_GeneratePulsos@pulsosX+1)^0,w,c
  4443  000FA4  0A80               	xorlw	128
  4444  000FA6  5807               	subwfb	??_PWM_GeneratePulsos^0,w,c
  4445  000FA8  B0D8               	btfsc	status,0,c
  4446  000FAA  EFD9  F007         	goto	u1591
  4447  000FAE  EFDB  F007         	goto	u1590
  4448  000FB2                     u1591:
  4449  000FB2  EFF2  F007         	goto	l39
  4450  000FB6                     u1590:
  4451  000FB6                     
  4452                           ;PWM.c: 19:             if (PORTCbits.RC2 == 1) {
  4453  000FB6  A482               	btfss	130,2,c	;volatile
  4454  000FB8  EFE0  F007         	goto	u1601
  4455  000FBC  EFE2  F007         	goto	u1600
  4456  000FC0                     u1601:
  4457  000FC0  EFEE  F007         	goto	l2965
  4458  000FC4                     u1600:
  4459  000FC4                     
  4460                           ;PWM.c: 20:                 countX = PWM_OneshotX(countX);
  4461  000FC4  C009  F001         	movff	PWM_GeneratePulsos@countX,PWM_OneshotX@countX
  4462  000FC8  C00A  F002         	movff	PWM_GeneratePulsos@countX+1,PWM_OneshotX@countX+1
  4463  000FCC  ECF7  F00B         	call	_PWM_OneshotX	;wreg free
  4464  000FD0  C001  F009         	movff	?_PWM_OneshotX,PWM_GeneratePulsos@countX
  4465  000FD4  C002  F00A         	movff	?_PWM_OneshotX+1,PWM_GeneratePulsos@countX+1
  4466                           
  4467                           ;PWM.c: 21:             } else {
  4468  000FD8  EFF3  F007         	goto	l2967
  4469  000FDC                     l2965:
  4470                           
  4471                           ;PWM.c: 22:                 oneshotX = 0;
  4472  000FDC  0E00               	movlw	0
  4473  000FDE  6E58               	movwf	_oneshotX^0,c
  4474  000FE0  EFF3  F007         	goto	l2967
  4475  000FE4                     l39:
  4476                           
  4477                           ;PWM.c: 25:             PORTDbits.RD0 = 1;
  4478  000FE4  8083               	bsf	131,0,c	;volatile
  4479  000FE6                     l2967:
  4480                           
  4481                           ;PWM.c: 27:         if (countY < pulsosY) {
  4482  000FE6  5005               	movf	PWM_GeneratePulsos@pulsosY^0,w,c
  4483  000FE8  5C0B               	subwf	PWM_GeneratePulsos@countY^0,w,c
  4484  000FEA  500C               	movf	(PWM_GeneratePulsos@countY+1)^0,w,c
  4485  000FEC  0A80               	xorlw	128
  4486  000FEE  6E07               	movwf	??_PWM_GeneratePulsos^0,c
  4487  000FF0  5006               	movf	(PWM_GeneratePulsos@pulsosY+1)^0,w,c
  4488  000FF2  0A80               	xorlw	128
  4489  000FF4  5807               	subwfb	??_PWM_GeneratePulsos^0,w,c
  4490  000FF6  B0D8               	btfsc	status,0,c
  4491  000FF8  EF00  F008         	goto	u1611
  4492  000FFC  EF02  F008         	goto	u1610
  4493  001000                     u1611:
  4494  001000  EF19  F008         	goto	l43
  4495  001004                     u1610:
  4496  001004                     
  4497                           ;PWM.c: 28:             if (PORTCbits.RC1 == 1) {
  4498  001004  A282               	btfss	130,1,c	;volatile
  4499  001006  EF07  F008         	goto	u1621
  4500  00100A  EF09  F008         	goto	u1620
  4501  00100E                     u1621:
  4502  00100E  EF15  F008         	goto	l2973
  4503  001012                     u1620:
  4504  001012                     
  4505                           ;PWM.c: 29:                 countY = PWM_OneshotY(countY);
  4506  001012  C00B  F001         	movff	PWM_GeneratePulsos@countY,PWM_OneshotY@countY
  4507  001016  C00C  F002         	movff	PWM_GeneratePulsos@countY+1,PWM_OneshotY@countY+1
  4508  00101A  ECDF  F00B         	call	_PWM_OneshotY	;wreg free
  4509  00101E  C001  F00B         	movff	?_PWM_OneshotY,PWM_GeneratePulsos@countY
  4510  001022  C002  F00C         	movff	?_PWM_OneshotY+1,PWM_GeneratePulsos@countY+1
  4511                           
  4512                           ;PWM.c: 30:             } else {
  4513  001026  EF1A  F008         	goto	l2975
  4514  00102A                     l2973:
  4515                           
  4516                           ;PWM.c: 31:                 oneshotY = 0;
  4517  00102A  0E00               	movlw	0
  4518  00102C  6E57               	movwf	_oneshotY^0,c
  4519  00102E  EF1A  F008         	goto	l2975
  4520  001032                     l43:
  4521                           
  4522                           ;PWM.c: 34:             PORTDbits.RD2 = 1;
  4523  001032  8483               	bsf	131,2,c	;volatile
  4524  001034                     l2975:
  4525                           
  4526                           ;PWM.c: 17:     while ((countX < pulsosX) || (countY < pulsosY)) {
  4527  001034  5003               	movf	PWM_GeneratePulsos@pulsosX^0,w,c
  4528  001036  5C09               	subwf	PWM_GeneratePulsos@countX^0,w,c
  4529  001038  500A               	movf	(PWM_GeneratePulsos@countX+1)^0,w,c
  4530  00103A  0A80               	xorlw	128
  4531  00103C  6E07               	movwf	??_PWM_GeneratePulsos^0,c
  4532  00103E  5004               	movf	(PWM_GeneratePulsos@pulsosX+1)^0,w,c
  4533  001040  0A80               	xorlw	128
  4534  001042  5807               	subwfb	??_PWM_GeneratePulsos^0,w,c
  4535  001044  A0D8               	btfss	status,0,c
  4536  001046  EF27  F008         	goto	u1631
  4537  00104A  EF29  F008         	goto	u1630
  4538  00104E                     u1631:
  4539  00104E  EFCC  F007         	goto	l2959
  4540  001052                     u1630:
  4541  001052  5005               	movf	PWM_GeneratePulsos@pulsosY^0,w,c
  4542  001054  5C0B               	subwf	PWM_GeneratePulsos@countY^0,w,c
  4543  001056  500C               	movf	(PWM_GeneratePulsos@countY+1)^0,w,c
  4544  001058  0A80               	xorlw	128
  4545  00105A  6E07               	movwf	??_PWM_GeneratePulsos^0,c
  4546  00105C  5006               	movf	(PWM_GeneratePulsos@pulsosY+1)^0,w,c
  4547  00105E  0A80               	xorlw	128
  4548  001060  5807               	subwfb	??_PWM_GeneratePulsos^0,w,c
  4549  001062  A0D8               	btfss	status,0,c
  4550  001064  EF36  F008         	goto	u1641
  4551  001068  EF38  F008         	goto	u1640
  4552  00106C                     u1641:
  4553  00106C  EFCC  F007         	goto	l2959
  4554  001070                     u1640:
  4555  001070                     
  4556                           ;PWM.c: 38:     oneshotX = 0;
  4557  001070  0E00               	movlw	0
  4558  001072  6E58               	movwf	_oneshotX^0,c
  4559                           
  4560                           ;PWM.c: 39:     countY = 0;
  4561  001074  0E00               	movlw	0
  4562  001076  6E0C               	movwf	(PWM_GeneratePulsos@countY+1)^0,c
  4563  001078  0E00               	movlw	0
  4564  00107A  6E0B               	movwf	PWM_GeneratePulsos@countY^0,c
  4565                           
  4566                           ;PWM.c: 40:     oneshotY = 0;
  4567  00107C  0E00               	movlw	0
  4568  00107E  6E57               	movwf	_oneshotY^0,c
  4569  001080                     
  4570                           ;PWM.c: 41:     T2CONbits.TMR2ON = 0;
  4571  001080  94CA               	bcf	202,2,c	;volatile
  4572  001082  0012               	return		;funcret
  4573  001084                     __end_of_PWM_GeneratePulsos:
  4574                           	opt callstack 0
  4575                           
  4576 ;; *************** function _PWM_OneshotY *****************
  4577 ;; Defined at:
  4578 ;;		line 81 in file "PWM.c"
  4579 ;; Parameters:    Size  Location     Type
  4580 ;;  countY          2    0[COMRAM] int 
  4581 ;; Auto vars:     Size  Location     Type
  4582 ;;		None
  4583 ;; Return value:  Size  Location     Type
  4584 ;;                  2    0[COMRAM] int 
  4585 ;; Registers used:
  4586 ;;		wreg, status,2, status,0
  4587 ;; Tracked objects:
  4588 ;;		On entry : 0/0
  4589 ;;		On exit  : 0/0
  4590 ;;		Unchanged: 0/0
  4591 ;; Data sizes:     COMRAM   BANK0   BANK1   BANK2   BANK3   BANK4   BANK5   BANK6   BANK7
  4592 ;;      Params:         2       0       0       0       0       0       0       0       0
  4593 ;;      Locals:         0       0       0       0       0       0       0       0       0
  4594 ;;      Temps:          0       0       0       0       0       0       0       0       0
  4595 ;;      Totals:         2       0       0       0       0       0       0       0       0
  4596 ;;Total ram usage:        2 bytes
  4597 ;; Hardware stack levels used:    1
  4598 ;; Hardware stack levels required when called:    2
  4599 ;; This function calls:
  4600 ;;		Nothing
  4601 ;; This function is called by:
  4602 ;;		_PWM_GeneratePulsos
  4603 ;; This function uses a non-reentrant model
  4604 ;;
  4605                           
  4606                           	psect	text19
  4607  0017BE                     __ptext19:
  4608                           	opt callstack 0
  4609  0017BE                     _PWM_OneshotY:
  4610                           	opt callstack 26
  4611  0017BE                     
  4612                           ;PWM.c: 82:     if (PORTCbits.RC1 == 1 & oneshotY == 0) {
  4613  0017BE  A282               	btfss	130,1,c	;volatile
  4614  0017C0  EFE4  F00B         	goto	u1091
  4615  0017C4  EFE6  F00B         	goto	u1090
  4616  0017C8                     u1091:
  4617  0017C8  EFF2  F00B         	goto	l2681
  4618  0017CC                     u1090:
  4619  0017CC  5057               	movf	_oneshotY^0,w,c
  4620  0017CE  A4D8               	btfss	status,2,c
  4621  0017D0  EFEC  F00B         	goto	u1101
  4622  0017D4  EFEE  F00B         	goto	u1100
  4623  0017D8                     u1101:
  4624  0017D8  EFF2  F00B         	goto	l2681
  4625  0017DC                     u1100:
  4626  0017DC                     
  4627                           ;PWM.c: 83:         countY++;
  4628  0017DC  4A01               	infsnz	PWM_OneshotY@countY^0,f,c
  4629  0017DE  2A02               	incf	(PWM_OneshotY@countY+1)^0,f,c
  4630  0017E0                     
  4631                           ;PWM.c: 84:         oneshotY = 1;
  4632  0017E0  0E01               	movlw	1
  4633  0017E2  6E57               	movwf	_oneshotY^0,c
  4634  0017E4                     l2681:
  4635                           
  4636                           ;PWM.c: 86:     return countY;
  4637  0017E4  C001  F001         	movff	PWM_OneshotY@countY,?_PWM_OneshotY
  4638  0017E8  C002  F002         	movff	PWM_OneshotY@countY+1,?_PWM_OneshotY+1
  4639  0017EC  0012               	return		;funcret
  4640  0017EE                     __end_of_PWM_OneshotY:
  4641                           	opt callstack 0
  4642                           
  4643 ;; *************** function _PWM_OneshotX *****************
  4644 ;; Defined at:
  4645 ;;		line 73 in file "PWM.c"
  4646 ;; Parameters:    Size  Location     Type
  4647 ;;  countX          2    0[COMRAM] int 
  4648 ;; Auto vars:     Size  Location     Type
  4649 ;;		None
  4650 ;; Return value:  Size  Location     Type
  4651 ;;                  2    0[COMRAM] int 
  4652 ;; Registers used:
  4653 ;;		wreg, status,2, status,0
  4654 ;; Tracked objects:
  4655 ;;		On entry : 0/0
  4656 ;;		On exit  : 0/0
  4657 ;;		Unchanged: 0/0
  4658 ;; Data sizes:     COMRAM   BANK0   BANK1   BANK2   BANK3   BANK4   BANK5   BANK6   BANK7
  4659 ;;      Params:         2       0       0       0       0       0       0       0       0
  4660 ;;      Locals:         0       0       0       0       0       0       0       0       0
  4661 ;;      Temps:          0       0       0       0       0       0       0       0       0
  4662 ;;      Totals:         2       0       0       0       0       0       0       0       0
  4663 ;;Total ram usage:        2 bytes
  4664 ;; Hardware stack levels used:    1
  4665 ;; Hardware stack levels required when called:    2
  4666 ;; This function calls:
  4667 ;;		Nothing
  4668 ;; This function is called by:
  4669 ;;		_PWM_GeneratePulsos
  4670 ;; This function uses a non-reentrant model
  4671 ;;
  4672                           
  4673                           	psect	text20
  4674  0017EE                     __ptext20:
  4675                           	opt callstack 0
  4676  0017EE                     _PWM_OneshotX:
  4677                           	opt callstack 26
  4678  0017EE                     
  4679                           ;PWM.c: 74:     if (PORTCbits.RC2 == 1 & oneshotX == 0) {
  4680  0017EE  A482               	btfss	130,2,c	;volatile
  4681  0017F0  EFFC  F00B         	goto	u1071
  4682  0017F4  EFFE  F00B         	goto	u1070
  4683  0017F8                     u1071:
  4684  0017F8  EF0A  F00C         	goto	l2669
  4685  0017FC                     u1070:
  4686  0017FC  5058               	movf	_oneshotX^0,w,c
  4687  0017FE  A4D8               	btfss	status,2,c
  4688  001800  EF04  F00C         	goto	u1081
  4689  001804  EF06  F00C         	goto	u1080
  4690  001808                     u1081:
  4691  001808  EF0A  F00C         	goto	l2669
  4692  00180C                     u1080:
  4693  00180C                     
  4694                           ;PWM.c: 75:         countX++;
  4695  00180C  4A01               	infsnz	PWM_OneshotX@countX^0,f,c
  4696  00180E  2A02               	incf	(PWM_OneshotX@countX+1)^0,f,c
  4697  001810                     
  4698                           ;PWM.c: 76:         oneshotX = 1;
  4699  001810  0E01               	movlw	1
  4700  001812  6E58               	movwf	_oneshotX^0,c
  4701  001814                     l2669:
  4702                           
  4703                           ;PWM.c: 78:     return countX;
  4704  001814  C001  F001         	movff	PWM_OneshotX@countX,?_PWM_OneshotX
  4705  001818  C002  F002         	movff	PWM_OneshotX@countX+1,?_PWM_OneshotX+1
  4706  00181C  0012               	return		;funcret
  4707  00181E                     __end_of_PWM_OneshotX:
  4708                           	opt callstack 0
  4709                           
  4710 ;; *************** function _PWM_InitS *****************
  4711 ;; Defined at:
  4712 ;;		line 59 in file "PWM.c"
  4713 ;; Parameters:    Size  Location     Type
  4714 ;;		None
  4715 ;; Auto vars:     Size  Location     Type
  4716 ;;		None
  4717 ;; Return value:  Size  Location     Type
  4718 ;;                  1    wreg      void 
  4719 ;; Registers used:
  4720 ;;		wreg, status,2
  4721 ;; Tracked objects:
  4722 ;;		On entry : 0/0
  4723 ;;		On exit  : 0/0
  4724 ;;		Unchanged: 0/0
  4725 ;; Data sizes:     COMRAM   BANK0   BANK1   BANK2   BANK3   BANK4   BANK5   BANK6   BANK7
  4726 ;;      Params:         0       0       0       0       0       0       0       0       0
  4727 ;;      Locals:         0       0       0       0       0       0       0       0       0
  4728 ;;      Temps:          0       0       0       0       0       0       0       0       0
  4729 ;;      Totals:         0       0       0       0       0       0       0       0       0
  4730 ;;Total ram usage:        0 bytes
  4731 ;; Hardware stack levels used:    1
  4732 ;; Hardware stack levels required when called:    2
  4733 ;; This function calls:
  4734 ;;		Nothing
  4735 ;; This function is called by:
  4736 ;;		_PWM_GeneratePulsos
  4737 ;; This function uses a non-reentrant model
  4738 ;;
  4739                           
  4740                           	psect	text21
  4741  0018D8                     __ptext21:
  4742                           	opt callstack 0
  4743  0018D8                     _PWM_InitS:
  4744                           	opt callstack 26
  4745  0018D8                     
  4746                           ;PWM.c: 61:     PR2 = 0XFF;
  4747  0018D8  68CB               	setf	203,c	;volatile
  4748  0018DA                     
  4749                           ;PWM.c: 62:     CCPR1L = 0X3E;
  4750  0018DA  0E3E               	movlw	62
  4751  0018DC  6EBE               	movwf	190,c	;volatile
  4752                           
  4753                           ;PWM.c: 63:     CCPR2L = 0X3E;
  4754  0018DE  0E3E               	movlw	62
  4755  0018E0  6EBB               	movwf	187,c	;volatile
  4756  0018E2                     
  4757                           ;PWM.c: 64:     TRISCbits.RC1 = 0;
  4758  0018E2  9294               	bcf	148,1,c	;volatile
  4759  0018E4                     
  4760                           ;PWM.c: 65:     TRISCbits.RC2 = 0;
  4761  0018E4  9494               	bcf	148,2,c	;volatile
  4762                           
  4763                           ;PWM.c: 66:     T2CON = 0X03;
  4764  0018E6  0E03               	movlw	3
  4765  0018E8  6ECA               	movwf	202,c	;volatile
  4766                           
  4767                           ;PWM.c: 67:     CCP1CON = 0X0C;
  4768  0018EA  0E0C               	movlw	12
  4769  0018EC  6EBD               	movwf	189,c	;volatile
  4770                           
  4771                           ;PWM.c: 68:     CCP2CON = 0X0C;
  4772  0018EE  0E0C               	movlw	12
  4773  0018F0  6EBA               	movwf	186,c	;volatile
  4774  0018F2                     
  4775                           ;PWM.c: 69:     T2CONbits.TMR2ON = 0;
  4776  0018F2  94CA               	bcf	202,2,c	;volatile
  4777  0018F4  0012               	return		;funcret
  4778  0018F6                     __end_of_PWM_InitS:
  4779                           	opt callstack 0
  4780                           
  4781 ;; *************** function _PWM_InitF *****************
  4782 ;; Defined at:
  4783 ;;		line 45 in file "PWM.c"
  4784 ;; Parameters:    Size  Location     Type
  4785 ;;		None
  4786 ;; Auto vars:     Size  Location     Type
  4787 ;;		None
  4788 ;; Return value:  Size  Location     Type
  4789 ;;                  1    wreg      void 
  4790 ;; Registers used:
  4791 ;;		wreg, status,2
  4792 ;; Tracked objects:
  4793 ;;		On entry : 0/0
  4794 ;;		On exit  : 0/0
  4795 ;;		Unchanged: 0/0
  4796 ;; Data sizes:     COMRAM   BANK0   BANK1   BANK2   BANK3   BANK4   BANK5   BANK6   BANK7
  4797 ;;      Params:         0       0       0       0       0       0       0       0       0
  4798 ;;      Locals:         0       0       0       0       0       0       0       0       0
  4799 ;;      Temps:          0       0       0       0       0       0       0       0       0
  4800 ;;      Totals:         0       0       0       0       0       0       0       0       0
  4801 ;;Total ram usage:        0 bytes
  4802 ;; Hardware stack levels used:    1
  4803 ;; Hardware stack levels required when called:    2
  4804 ;; This function calls:
  4805 ;;		Nothing
  4806 ;; This function is called by:
  4807 ;;		_PWM_GeneratePulsos
  4808 ;; This function uses a non-reentrant model
  4809 ;;
  4810                           
  4811                           	psect	text22
  4812  0018B8                     __ptext22:
  4813                           	opt callstack 0
  4814  0018B8                     _PWM_InitF:
  4815                           	opt callstack 26
  4816  0018B8                     
  4817                           ;PWM.c: 47:     PR2 = 0X7C;
  4818  0018B8  0E7C               	movlw	124
  4819  0018BA  6ECB               	movwf	203,c	;volatile
  4820                           
  4821                           ;PWM.c: 48:     CCPR1L = 0X3E;
  4822  0018BC  0E3E               	movlw	62
  4823  0018BE  6EBE               	movwf	190,c	;volatile
  4824                           
  4825                           ;PWM.c: 49:     CCPR2L = 0X3E;
  4826  0018C0  0E3E               	movlw	62
  4827  0018C2  6EBB               	movwf	187,c	;volatile
  4828  0018C4                     
  4829                           ;PWM.c: 50:     TRISCbits.RC1 = 0;
  4830  0018C4  9294               	bcf	148,1,c	;volatile
  4831  0018C6                     
  4832                           ;PWM.c: 51:     TRISCbits.RC2 = 0;
  4833  0018C6  9494               	bcf	148,2,c	;volatile
  4834                           
  4835                           ;PWM.c: 52:     T2CON = 0X03;
  4836  0018C8  0E03               	movlw	3
  4837  0018CA  6ECA               	movwf	202,c	;volatile
  4838                           
  4839                           ;PWM.c: 53:     CCP1CON = 0X0C;
  4840  0018CC  0E0C               	movlw	12
  4841  0018CE  6EBD               	movwf	189,c	;volatile
  4842                           
  4843                           ;PWM.c: 54:     CCP2CON = 0X0C;
  4844  0018D0  0E0C               	movlw	12
  4845  0018D2  6EBA               	movwf	186,c	;volatile
  4846  0018D4                     
  4847                           ;PWM.c: 55:     T2CONbits.TMR2ON = 0;
  4848  0018D4  94CA               	bcf	202,2,c	;volatile
  4849  0018D6  0012               	return		;funcret
  4850  0018D8                     __end_of_PWM_InitF:
  4851                           	opt callstack 0
  4852                           
  4853 ;; *************** function _Motor_Conversion *****************
  4854 ;; Defined at:
  4855 ;;		line 18 in file "Motor.c"
  4856 ;; Parameters:    Size  Location     Type
  4857 ;;  Coordenada      2   49[COMRAM] int 
  4858 ;; Auto vars:     Size  Location     Type
  4859 ;;  conversion      4   51[COMRAM] float 
  4860 ;; Return value:  Size  Location     Type
  4861 ;;                  2   49[COMRAM] int 
  4862 ;; Registers used:
  4863 ;;		wreg, status,2, status,0, cstack
  4864 ;; Tracked objects:
  4865 ;;		On entry : 0/0
  4866 ;;		On exit  : 0/0
  4867 ;;		Unchanged: 0/0
  4868 ;; Data sizes:     COMRAM   BANK0   BANK1   BANK2   BANK3   BANK4   BANK5   BANK6   BANK7
  4869 ;;      Params:         2       0       0       0       0       0       0       0       0
  4870 ;;      Locals:         4       0       0       0       0       0       0       0       0
  4871 ;;      Temps:          0       0       0       0       0       0       0       0       0
  4872 ;;      Totals:         6       0       0       0       0       0       0       0       0
  4873 ;;Total ram usage:        6 bytes
  4874 ;; Hardware stack levels used:    1
  4875 ;; Hardware stack levels required when called:    3
  4876 ;; This function calls:
  4877 ;;		___fldiv
  4878 ;;		___fltol
  4879 ;;		___xxtofl
  4880 ;; This function is called by:
  4881 ;;		_Motor_Movimiento
  4882 ;; This function uses a non-reentrant model
  4883 ;;
  4884                           
  4885                           	psect	text23
  4886  001418                     __ptext23:
  4887                           	opt callstack 0
  4888  001418                     _Motor_Conversion:
  4889                           	opt callstack 26
  4890  001418                     
  4891                           ;Motor.c: 19:     float conversion = 0.2;
  4892  001418  0ECD               	movlw	205
  4893  00141A  6E34               	movwf	Motor_Conversion@conversion^0,c
  4894  00141C  0ECC               	movlw	204
  4895  00141E  6E35               	movwf	(Motor_Conversion@conversion+1)^0,c
  4896  001420  0E4C               	movlw	76
  4897  001422  6E36               	movwf	(Motor_Conversion@conversion+2)^0,c
  4898  001424  0E3E               	movlw	62
  4899  001426  6E37               	movwf	(Motor_Conversion@conversion+3)^0,c
  4900  001428                     
  4901                           ;Motor.c: 20:     pasos_convertidos = Coordenada / conversion;
  4902  001428  C034  F013         	movff	Motor_Conversion@conversion,___fldiv@a
  4903  00142C  C035  F014         	movff	Motor_Conversion@conversion+1,___fldiv@a+1
  4904  001430  C036  F015         	movff	Motor_Conversion@conversion+2,___fldiv@a+2
  4905  001434  C037  F016         	movff	Motor_Conversion@conversion+3,___fldiv@a+3
  4906  001438  C032  F001         	movff	Motor_Conversion@Coordenada,___xxtofl@val
  4907  00143C  C033  F002         	movff	Motor_Conversion@Coordenada+1,___xxtofl@val+1
  4908  001440  0E00               	movlw	0
  4909  001442  BE02               	btfsc	(___xxtofl@val+1)^0,7,c
  4910  001444  0EFF               	movlw	-1
  4911  001446  6E03               	movwf	(___xxtofl@val+2)^0,c
  4912  001448  6E04               	movwf	(___xxtofl@val+3)^0,c
  4913  00144A  0E01               	movlw	1
  4914  00144C  EC7C  F005         	call	___xxtofl
  4915  001450  C001  F00F         	movff	?___xxtofl,___fldiv@b
  4916  001454  C002  F010         	movff	?___xxtofl+1,___fldiv@b+1
  4917  001458  C003  F011         	movff	?___xxtofl+2,___fldiv@b+2
  4918  00145C  C004  F012         	movff	?___xxtofl+3,___fldiv@b+3
  4919  001460  EC09  F000         	call	___fldiv	;wreg free
  4920  001464  C00F  F028         	movff	?___fldiv,___fltol@f1
  4921  001468  C010  F029         	movff	?___fldiv+1,___fltol@f1+1
  4922  00146C  C011  F02A         	movff	?___fldiv+2,___fltol@f1+2
  4923  001470  C012  F02B         	movff	?___fldiv+3,___fltol@f1+3
  4924  001474  ECC8  F008         	call	___fltol	;wreg free
  4925  001478  C028  F04D         	movff	?___fltol,_pasos_convertidos
  4926  00147C  C029  F04E         	movff	?___fltol+1,_pasos_convertidos+1
  4927  001480                     
  4928                           ;Motor.c: 21:     return pasos_convertidos;
  4929  001480  C04D  F032         	movff	_pasos_convertidos,?_Motor_Conversion
  4930  001484  C04E  F033         	movff	_pasos_convertidos+1,?_Motor_Conversion+1
  4931  001488  0012               	return		;funcret
  4932  00148A                     __end_of_Motor_Conversion:
  4933                           	opt callstack 0
  4934                           
  4935 ;; *************** function ___xxtofl *****************
  4936 ;; Defined at:
  4937 ;;		line 10 in file "C:\Program Files (x86)\Microchip\xc8\v2.10\pic\sources\c99\common\xxtofl.c"
  4938 ;; Parameters:    Size  Location     Type
  4939 ;;  sign            1    wreg     unsigned char 
  4940 ;;  val             4    0[COMRAM] long 
  4941 ;; Auto vars:     Size  Location     Type
  4942 ;;  sign            1    8[COMRAM] unsigned char 
  4943 ;;  arg             4   10[COMRAM] unsigned long 
  4944 ;;  exp             1    9[COMRAM] unsigned char 
  4945 ;; Return value:  Size  Location     Type
  4946 ;;                  4    0[COMRAM] unsigned char 
  4947 ;; Registers used:
  4948 ;;		wreg, status,2, status,0
  4949 ;; Tracked objects:
  4950 ;;		On entry : 0/0
  4951 ;;		On exit  : 0/0
  4952 ;;		Unchanged: 0/0
  4953 ;; Data sizes:     COMRAM   BANK0   BANK1   BANK2   BANK3   BANK4   BANK5   BANK6   BANK7
  4954 ;;      Params:         4       0       0       0       0       0       0       0       0
  4955 ;;      Locals:         6       0       0       0       0       0       0       0       0
  4956 ;;      Temps:          4       0       0       0       0       0       0       0       0
  4957 ;;      Totals:        14       0       0       0       0       0       0       0       0
  4958 ;;Total ram usage:       14 bytes
  4959 ;; Hardware stack levels used:    1
  4960 ;; Hardware stack levels required when called:    2
  4961 ;; This function calls:
  4962 ;;		Nothing
  4963 ;; This function is called by:
  4964 ;;		_Motor_Conversion
  4965 ;;		_ADC_ConvertirDistancia
  4966 ;;		_powf
  4967 ;; This function uses a non-reentrant model
  4968 ;;
  4969                           
  4970                           	psect	text24
  4971  000AF8                     __ptext24:
  4972                           	opt callstack 0
  4973  000AF8                     ___xxtofl:
  4974                           	opt callstack 26
  4975                           
  4976                           ;incstack = 0
  4977                           ;___xxtofl@sign stored from wreg
  4978  000AF8  6E09               	movwf	___xxtofl@sign^0,c
  4979  000AFA  5009               	movf	___xxtofl@sign^0,w,c
  4980  000AFC  B4D8               	btfsc	status,2,c
  4981  000AFE  EF83  F005         	goto	u1441
  4982  000B02  EF85  F005         	goto	u1440
  4983  000B06                     u1441:
  4984  000B06  EFA7  F005         	goto	l1259
  4985  000B0A                     u1440:
  4986  000B0A  BE04               	btfsc	(___xxtofl@val+3)^0,7,c
  4987  000B0C  EF8C  F005         	goto	u1450
  4988  000B10  EF8A  F005         	goto	u1451
  4989  000B14                     u1451:
  4990  000B14  EFA7  F005         	goto	l1259
  4991  000B18                     u1450:
  4992  000B18  C001  F005         	movff	___xxtofl@val,??___xxtofl
  4993  000B1C  C002  F006         	movff	___xxtofl@val+1,??___xxtofl+1
  4994  000B20  C003  F007         	movff	___xxtofl@val+2,??___xxtofl+2
  4995  000B24  C004  F008         	movff	___xxtofl@val+3,??___xxtofl+3
  4996  000B28  1E05               	comf	??___xxtofl^0,f,c
  4997  000B2A  1E06               	comf	(??___xxtofl+1)^0,f,c
  4998  000B2C  1E07               	comf	(??___xxtofl+2)^0,f,c
  4999  000B2E  1E08               	comf	(??___xxtofl+3)^0,f,c
  5000  000B30  2A05               	incf	??___xxtofl^0,f,c
  5001  000B32  0E00               	movlw	0
  5002  000B34  2206               	addwfc	(??___xxtofl+1)^0,f,c
  5003  000B36  2207               	addwfc	(??___xxtofl+2)^0,f,c
  5004  000B38  2208               	addwfc	(??___xxtofl+3)^0,f,c
  5005  000B3A  C005  F00B         	movff	??___xxtofl,___xxtofl@arg
  5006  000B3E  C006  F00C         	movff	??___xxtofl+1,___xxtofl@arg+1
  5007  000B42  C007  F00D         	movff	??___xxtofl+2,___xxtofl@arg+2
  5008  000B46  C008  F00E         	movff	??___xxtofl+3,___xxtofl@arg+3
  5009  000B4A  EFAF  F005         	goto	l2887
  5010  000B4E                     l1259:
  5011  000B4E  C001  F00B         	movff	___xxtofl@val,___xxtofl@arg
  5012  000B52  C002  F00C         	movff	___xxtofl@val+1,___xxtofl@arg+1
  5013  000B56  C003  F00D         	movff	___xxtofl@val+2,___xxtofl@arg+2
  5014  000B5A  C004  F00E         	movff	___xxtofl@val+3,___xxtofl@arg+3
  5015  000B5E                     l2887:
  5016  000B5E  5001               	movf	___xxtofl@val^0,w,c
  5017  000B60  1002               	iorwf	(___xxtofl@val+1)^0,w,c
  5018  000B62  1003               	iorwf	(___xxtofl@val+2)^0,w,c
  5019  000B64  1004               	iorwf	(___xxtofl@val+3)^0,w,c
  5020  000B66  A4D8               	btfss	status,2,c
  5021  000B68  EFB8  F005         	goto	u1461
  5022  000B6C  EFBA  F005         	goto	u1460
  5023  000B70                     u1461:
  5024  000B70  EFC4  F005         	goto	l2893
  5025  000B74                     u1460:
  5026  000B74  0E00               	movlw	0
  5027  000B76  6E01               	movwf	?___xxtofl^0,c
  5028  000B78  0E00               	movlw	0
  5029  000B7A  6E02               	movwf	(?___xxtofl+1)^0,c
  5030  000B7C  0E00               	movlw	0
  5031  000B7E  6E03               	movwf	(?___xxtofl+2)^0,c
  5032  000B80  0E00               	movlw	0
  5033  000B82  6E04               	movwf	(?___xxtofl+3)^0,c
  5034  000B84  EF55  F006         	goto	l1262
  5035  000B88                     l2893:
  5036  000B88  0E96               	movlw	150
  5037  000B8A  6E0A               	movwf	___xxtofl@exp^0,c
  5038  000B8C  EFCE  F005         	goto	l2897
  5039  000B90                     l2895:
  5040  000B90  2A0A               	incf	___xxtofl@exp^0,f,c
  5041  000B92  90D8               	bcf	status,0,c
  5042  000B94  320E               	rrcf	(___xxtofl@arg+3)^0,f,c
  5043  000B96  320D               	rrcf	(___xxtofl@arg+2)^0,f,c
  5044  000B98  320C               	rrcf	(___xxtofl@arg+1)^0,f,c
  5045  000B9A  320B               	rrcf	___xxtofl@arg^0,f,c
  5046  000B9C                     l2897:
  5047  000B9C  0E00               	movlw	0
  5048  000B9E  140B               	andwf	___xxtofl@arg^0,w,c
  5049  000BA0  6E05               	movwf	??___xxtofl^0,c
  5050  000BA2  0E00               	movlw	0
  5051  000BA4  140C               	andwf	(___xxtofl@arg+1)^0,w,c
  5052  000BA6  6E06               	movwf	(??___xxtofl+1)^0,c
  5053  000BA8  0E00               	movlw	0
  5054  000BAA  140D               	andwf	(___xxtofl@arg+2)^0,w,c
  5055  000BAC  6E07               	movwf	(??___xxtofl+2)^0,c
  5056  000BAE  0EFE               	movlw	254
  5057  000BB0  140E               	andwf	(___xxtofl@arg+3)^0,w,c
  5058  000BB2  6E08               	movwf	(??___xxtofl+3)^0,c
  5059  000BB4  5005               	movf	??___xxtofl^0,w,c
  5060  000BB6  1006               	iorwf	(??___xxtofl+1)^0,w,c
  5061  000BB8  1007               	iorwf	(??___xxtofl+2)^0,w,c
  5062  000BBA  1008               	iorwf	(??___xxtofl+3)^0,w,c
  5063  000BBC  A4D8               	btfss	status,2,c
  5064  000BBE  EFE3  F005         	goto	u1471
  5065  000BC2  EFE5  F005         	goto	u1470
  5066  000BC6                     u1471:
  5067  000BC6  EFC8  F005         	goto	l2895
  5068  000BCA                     u1470:
  5069  000BCA  EFF3  F005         	goto	l1266
  5070  000BCE                     l2899:
  5071  000BCE  2A0A               	incf	___xxtofl@exp^0,f,c
  5072  000BD0  0E01               	movlw	1
  5073  000BD2  260B               	addwf	___xxtofl@arg^0,f,c
  5074  000BD4  0E00               	movlw	0
  5075  000BD6  220C               	addwfc	(___xxtofl@arg+1)^0,f,c
  5076  000BD8  220D               	addwfc	(___xxtofl@arg+2)^0,f,c
  5077  000BDA  220E               	addwfc	(___xxtofl@arg+3)^0,f,c
  5078  000BDC  90D8               	bcf	status,0,c
  5079  000BDE  320E               	rrcf	(___xxtofl@arg+3)^0,f,c
  5080  000BE0  320D               	rrcf	(___xxtofl@arg+2)^0,f,c
  5081  000BE2  320C               	rrcf	(___xxtofl@arg+1)^0,f,c
  5082  000BE4  320B               	rrcf	___xxtofl@arg^0,f,c
  5083  000BE6                     l1266:
  5084  000BE6  0E00               	movlw	0
  5085  000BE8  140B               	andwf	___xxtofl@arg^0,w,c
  5086  000BEA  6E05               	movwf	??___xxtofl^0,c
  5087  000BEC  0E00               	movlw	0
  5088  000BEE  140C               	andwf	(___xxtofl@arg+1)^0,w,c
  5089  000BF0  6E06               	movwf	(??___xxtofl+1)^0,c
  5090  000BF2  0E00               	movlw	0
  5091  000BF4  140D               	andwf	(___xxtofl@arg+2)^0,w,c
  5092  000BF6  6E07               	movwf	(??___xxtofl+2)^0,c
  5093  000BF8  0EFF               	movlw	255
  5094  000BFA  140E               	andwf	(___xxtofl@arg+3)^0,w,c
  5095  000BFC  6E08               	movwf	(??___xxtofl+3)^0,c
  5096  000BFE  5005               	movf	??___xxtofl^0,w,c
  5097  000C00  1006               	iorwf	(??___xxtofl+1)^0,w,c
  5098  000C02  1007               	iorwf	(??___xxtofl+2)^0,w,c
  5099  000C04  1008               	iorwf	(??___xxtofl+3)^0,w,c
  5100  000C06  A4D8               	btfss	status,2,c
  5101  000C08  EF08  F006         	goto	u1481
  5102  000C0C  EF0A  F006         	goto	u1480
  5103  000C10                     u1481:
  5104  000C10  EFE7  F005         	goto	l2899
  5105  000C14                     u1480:
  5106  000C14  EF12  F006         	goto	l2907
  5107  000C18                     l2905:
  5108  000C18  060A               	decf	___xxtofl@exp^0,f,c
  5109  000C1A  90D8               	bcf	status,0,c
  5110  000C1C  360B               	rlcf	___xxtofl@arg^0,f,c
  5111  000C1E  360C               	rlcf	(___xxtofl@arg+1)^0,f,c
  5112  000C20  360D               	rlcf	(___xxtofl@arg+2)^0,f,c
  5113  000C22  360E               	rlcf	(___xxtofl@arg+3)^0,f,c
  5114  000C24                     l2907:
  5115  000C24  BE0D               	btfsc	(___xxtofl@arg+2)^0,7,c
  5116  000C26  EF17  F006         	goto	u1491
  5117  000C2A  EF19  F006         	goto	u1490
  5118  000C2E                     u1491:
  5119  000C2E  EF21  F006         	goto	l1273
  5120  000C32                     u1490:
  5121  000C32  0E02               	movlw	2
  5122  000C34  600A               	cpfslt	___xxtofl@exp^0,c
  5123  000C36  EF1F  F006         	goto	u1501
  5124  000C3A  EF21  F006         	goto	u1500
  5125  000C3E                     u1501:
  5126  000C3E  EF0C  F006         	goto	l2905
  5127  000C42                     u1500:
  5128  000C42                     l1273:
  5129  000C42  B00A               	btfsc	___xxtofl@exp^0,0,c
  5130  000C44  EF26  F006         	goto	u1511
  5131  000C48  EF28  F006         	goto	u1510
  5132  000C4C                     u1511:
  5133  000C4C  EF29  F006         	goto	l2913
  5134  000C50                     u1510:
  5135  000C50  9E0D               	bcf	(___xxtofl@arg+2)^0,7,c
  5136  000C52                     l2913:
  5137  000C52  90D8               	bcf	status,0,c
  5138  000C54  320A               	rrcf	___xxtofl@exp^0,f,c
  5139  000C56  C00A  F005         	movff	___xxtofl@exp,??___xxtofl
  5140  000C5A  6A06               	clrf	(??___xxtofl+1)^0,c
  5141  000C5C  6A07               	clrf	(??___xxtofl+2)^0,c
  5142  000C5E  6A08               	clrf	(??___xxtofl+3)^0,c
  5143  000C60  C005  F008         	movff	??___xxtofl,??___xxtofl+3
  5144  000C64  6A07               	clrf	(??___xxtofl+2)^0,c
  5145  000C66  6A06               	clrf	(??___xxtofl+1)^0,c
  5146  000C68  6A05               	clrf	??___xxtofl^0,c
  5147  000C6A  5005               	movf	??___xxtofl^0,w,c
  5148  000C6C  120B               	iorwf	___xxtofl@arg^0,f,c
  5149  000C6E  5006               	movf	(??___xxtofl+1)^0,w,c
  5150  000C70  120C               	iorwf	(___xxtofl@arg+1)^0,f,c
  5151  000C72  5007               	movf	(??___xxtofl+2)^0,w,c
  5152  000C74  120D               	iorwf	(___xxtofl@arg+2)^0,f,c
  5153  000C76  5008               	movf	(??___xxtofl+3)^0,w,c
  5154  000C78  120E               	iorwf	(___xxtofl@arg+3)^0,f,c
  5155  000C7A  5009               	movf	___xxtofl@sign^0,w,c
  5156  000C7C  B4D8               	btfsc	status,2,c
  5157  000C7E  EF43  F006         	goto	u1521
  5158  000C82  EF45  F006         	goto	u1520
  5159  000C86                     u1521:
  5160  000C86  EF4D  F006         	goto	l2923
  5161  000C8A                     u1520:
  5162  000C8A  BE04               	btfsc	(___xxtofl@val+3)^0,7,c
  5163  000C8C  EF4C  F006         	goto	u1530
  5164  000C90  EF4A  F006         	goto	u1531
  5165  000C94                     u1531:
  5166  000C94  EF4D  F006         	goto	l2923
  5167  000C98                     u1530:
  5168  000C98  8E0E               	bsf	(___xxtofl@arg+3)^0,7,c
  5169  000C9A                     l2923:
  5170  000C9A  C00B  F001         	movff	___xxtofl@arg,?___xxtofl
  5171  000C9E  C00C  F002         	movff	___xxtofl@arg+1,?___xxtofl+1
  5172  000CA2  C00D  F003         	movff	___xxtofl@arg+2,?___xxtofl+2
  5173  000CA6  C00E  F004         	movff	___xxtofl@arg+3,?___xxtofl+3
  5174  000CAA                     l1262:
  5175  000CAA  0012               	return		;funcret
  5176  000CAC                     __end_of___xxtofl:
  5177                           	opt callstack 0
  5178                           
  5179 ;; *************** function ___fltol *****************
  5180 ;; Defined at:
  5181 ;;		line 43 in file "C:\Program Files (x86)\Microchip\xc8\v2.10\pic\sources\c99\common\fltol.c"
  5182 ;; Parameters:    Size  Location     Type
  5183 ;;  f1              4   39[COMRAM] unsigned char 
  5184 ;; Auto vars:     Size  Location     Type
  5185 ;;  exp1            1   48[COMRAM] unsigned char 
  5186 ;;  sign1           1   47[COMRAM] unsigned char 
  5187 ;; Return value:  Size  Location     Type
  5188 ;;                  4   39[COMRAM] long 
  5189 ;; Registers used:
  5190 ;;		wreg, status,2, status,0
  5191 ;; Tracked objects:
  5192 ;;		On entry : 0/0
  5193 ;;		On exit  : 0/0
  5194 ;;		Unchanged: 0/0
  5195 ;; Data sizes:     COMRAM   BANK0   BANK1   BANK2   BANK3   BANK4   BANK5   BANK6   BANK7
  5196 ;;      Params:         4       0       0       0       0       0       0       0       0
  5197 ;;      Locals:         2       0       0       0       0       0       0       0       0
  5198 ;;      Temps:          4       0       0       0       0       0       0       0       0
  5199 ;;      Totals:        10       0       0       0       0       0       0       0       0
  5200 ;;Total ram usage:       10 bytes
  5201 ;; Hardware stack levels used:    1
  5202 ;; Hardware stack levels required when called:    2
  5203 ;; This function calls:
  5204 ;;		Nothing
  5205 ;; This function is called by:
  5206 ;;		_Motor_Conversion
  5207 ;; This function uses a non-reentrant model
  5208 ;;
  5209                           
  5210                           	psect	text25
  5211  001190                     __ptext25:
  5212                           	opt callstack 0
  5213  001190                     ___fltol:
  5214                           	opt callstack 26
  5215  001190  342A               	rlcf	(___fltol@f1+2)^0,w,c
  5216  001192  342B               	rlcf	(___fltol@f1+3)^0,w,c
  5217  001194  6E31               	movwf	___fltol@exp1^0,c
  5218  001196  5031               	movf	___fltol@exp1^0,w,c
  5219  001198  A4D8               	btfss	status,2,c
  5220  00119A  EFD1  F008         	goto	u1371
  5221  00119E  EFD3  F008         	goto	u1370
  5222  0011A2                     u1371:
  5223  0011A2  EFDD  F008         	goto	l2843
  5224  0011A6                     u1370:
  5225  0011A6                     l2839:
  5226  0011A6  0E00               	movlw	0
  5227  0011A8  6E28               	movwf	?___fltol^0,c
  5228  0011AA  0E00               	movlw	0
  5229  0011AC  6E29               	movwf	(?___fltol+1)^0,c
  5230  0011AE  0E00               	movlw	0
  5231  0011B0  6E2A               	movwf	(?___fltol+2)^0,c
  5232  0011B2  0E00               	movlw	0
  5233  0011B4  6E2B               	movwf	(?___fltol+3)^0,c
  5234  0011B6  EF4A  F009         	goto	l901
  5235  0011BA                     l2843:
  5236  0011BA  C028  F02C         	movff	___fltol@f1,??___fltol
  5237  0011BE  C029  F02D         	movff	___fltol@f1+1,??___fltol+1
  5238  0011C2  C02A  F02E         	movff	___fltol@f1+2,??___fltol+2
  5239  0011C6  C02B  F02F         	movff	___fltol@f1+3,??___fltol+3
  5240  0011CA  0E20               	movlw	32
  5241  0011CC  EFED  F008         	goto	u1380
  5242  0011D0                     u1385:
  5243  0011D0  90D8               	bcf	status,0,c
  5244  0011D2  322F               	rrcf	(??___fltol+3)^0,f,c
  5245  0011D4  322E               	rrcf	(??___fltol+2)^0,f,c
  5246  0011D6  322D               	rrcf	(??___fltol+1)^0,f,c
  5247  0011D8  322C               	rrcf	??___fltol^0,f,c
  5248  0011DA                     u1380:
  5249  0011DA  2EE8               	decfsz	wreg,f,c
  5250  0011DC  EFE8  F008         	goto	u1385
  5251  0011E0  502C               	movf	??___fltol^0,w,c
  5252  0011E2  6E30               	movwf	___fltol@sign1^0,c
  5253  0011E4  8E2A               	bsf	(___fltol@f1+2)^0,7,c
  5254  0011E6  0EFF               	movlw	255
  5255  0011E8  1628               	andwf	___fltol@f1^0,f,c
  5256  0011EA  0EFF               	movlw	255
  5257  0011EC  1629               	andwf	(___fltol@f1+1)^0,f,c
  5258  0011EE  0EFF               	movlw	255
  5259  0011F0  162A               	andwf	(___fltol@f1+2)^0,f,c
  5260  0011F2  0E00               	movlw	0
  5261  0011F4  162B               	andwf	(___fltol@f1+3)^0,f,c
  5262  0011F6  0E96               	movlw	150
  5263  0011F8  5E31               	subwf	___fltol@exp1^0,f,c
  5264  0011FA  BE31               	btfsc	___fltol@exp1^0,7,c
  5265  0011FC  EF04  F009         	goto	u1390
  5266  001200  EF02  F009         	goto	u1391
  5267  001204                     u1391:
  5268  001204  EF1A  F009         	goto	l2863
  5269  001208                     u1390:
  5270  001208  5031               	movf	___fltol@exp1^0,w,c
  5271  00120A  0A80               	xorlw	128
  5272  00120C  0F97               	addlw	151
  5273  00120E  B0D8               	btfsc	status,0,c
  5274  001210  EF0C  F009         	goto	u1401
  5275  001214  EF0E  F009         	goto	u1400
  5276  001218                     u1401:
  5277  001218  EF10  F009         	goto	l2859
  5278  00121C                     u1400:
  5279  00121C  EFD3  F008         	goto	l2839
  5280  001220                     l2859:
  5281  001220  90D8               	bcf	status,0,c
  5282  001222  322B               	rrcf	(___fltol@f1+3)^0,f,c
  5283  001224  322A               	rrcf	(___fltol@f1+2)^0,f,c
  5284  001226  3229               	rrcf	(___fltol@f1+1)^0,f,c
  5285  001228  3228               	rrcf	___fltol@f1^0,f,c
  5286  00122A  3E31               	incfsz	___fltol@exp1^0,f,c
  5287  00122C  EF10  F009         	goto	l2859
  5288  001230  EF32  F009         	goto	l2873
  5289  001234                     l2863:
  5290  001234  0E1F               	movlw	31
  5291  001236  6431               	cpfsgt	___fltol@exp1^0,c
  5292  001238  EF20  F009         	goto	u1411
  5293  00123C  EF22  F009         	goto	u1410
  5294  001240                     u1411:
  5295  001240  EF2A  F009         	goto	l2871
  5296  001244                     u1410:
  5297  001244  EFD3  F008         	goto	l2839
  5298  001248                     l2869:
  5299  001248  90D8               	bcf	status,0,c
  5300  00124A  3628               	rlcf	___fltol@f1^0,f,c
  5301  00124C  3629               	rlcf	(___fltol@f1+1)^0,f,c
  5302  00124E  362A               	rlcf	(___fltol@f1+2)^0,f,c
  5303  001250  362B               	rlcf	(___fltol@f1+3)^0,f,c
  5304  001252  0631               	decf	___fltol@exp1^0,f,c
  5305  001254                     l2871:
  5306  001254  5031               	movf	___fltol@exp1^0,w,c
  5307  001256  A4D8               	btfss	status,2,c
  5308  001258  EF30  F009         	goto	u1421
  5309  00125C  EF32  F009         	goto	u1420
  5310  001260                     u1421:
  5311  001260  EF24  F009         	goto	l2869
  5312  001264                     u1420:
  5313  001264                     l2873:
  5314  001264  5030               	movf	___fltol@sign1^0,w,c
  5315  001266  B4D8               	btfsc	status,2,c
  5316  001268  EF38  F009         	goto	u1431
  5317  00126C  EF3A  F009         	goto	u1430
  5318  001270                     u1431:
  5319  001270  EF42  F009         	goto	l2877
  5320  001274                     u1430:
  5321  001274  1E2B               	comf	(___fltol@f1+3)^0,f,c
  5322  001276  1E2A               	comf	(___fltol@f1+2)^0,f,c
  5323  001278  1E29               	comf	(___fltol@f1+1)^0,f,c
  5324  00127A  6C28               	negf	___fltol@f1^0,c
  5325  00127C  0E00               	movlw	0
  5326  00127E  2229               	addwfc	(___fltol@f1+1)^0,f,c
  5327  001280  222A               	addwfc	(___fltol@f1+2)^0,f,c
  5328  001282  222B               	addwfc	(___fltol@f1+3)^0,f,c
  5329  001284                     l2877:
  5330  001284  C028  F028         	movff	___fltol@f1,?___fltol
  5331  001288  C029  F029         	movff	___fltol@f1+1,?___fltol+1
  5332  00128C  C02A  F02A         	movff	___fltol@f1+2,?___fltol+2
  5333  001290  C02B  F02B         	movff	___fltol@f1+3,?___fltol+3
  5334  001294                     l901:
  5335  001294  0012               	return		;funcret
  5336  001296                     __end_of___fltol:
  5337                           	opt callstack 0
  5338                           
  5339 ;; *************** function ___fldiv *****************
  5340 ;; Defined at:
  5341 ;;		line 11 in file "C:\Program Files (x86)\Microchip\xc8\v2.10\pic\sources\c99\common\sprcdiv.c"
  5342 ;; Parameters:    Size  Location     Type
  5343 ;;  b               4   14[COMRAM] long 
  5344 ;;  a               4   18[COMRAM] long 
  5345 ;; Auto vars:     Size  Location     Type
  5346 ;;  grs             4   33[COMRAM] unsigned long 
  5347 ;;  rem             4   26[COMRAM] unsigned long 
  5348 ;;  new_exp         2   31[COMRAM] short 
  5349 ;;  aexp            1   38[COMRAM] unsigned char 
  5350 ;;  bexp            1   37[COMRAM] unsigned char 
  5351 ;;  sign            1   30[COMRAM] unsigned char 
  5352 ;; Return value:  Size  Location     Type
  5353 ;;                  4   14[COMRAM] unsigned char 
  5354 ;; Registers used:
  5355 ;;		wreg, status,2, status,0
  5356 ;; Tracked objects:
  5357 ;;		On entry : 0/0
  5358 ;;		On exit  : 0/0
  5359 ;;		Unchanged: 0/0
  5360 ;; Data sizes:     COMRAM   BANK0   BANK1   BANK2   BANK3   BANK4   BANK5   BANK6   BANK7
  5361 ;;      Params:         8       0       0       0       0       0       0       0       0
  5362 ;;      Locals:        13       0       0       0       0       0       0       0       0
  5363 ;;      Temps:          4       0       0       0       0       0       0       0       0
  5364 ;;      Totals:        25       0       0       0       0       0       0       0       0
  5365 ;;Total ram usage:       25 bytes
  5366 ;; Hardware stack levels used:    1
  5367 ;; Hardware stack levels required when called:    2
  5368 ;; This function calls:
  5369 ;;		Nothing
  5370 ;; This function is called by:
  5371 ;;		_Motor_Conversion
  5372 ;;		_powf
  5373 ;; This function uses a non-reentrant model
  5374 ;;
  5375                           
  5376                           	psect	text26
  5377  000012                     __ptext26:
  5378                           	opt callstack 0
  5379  000012                     ___fldiv:
  5380                           	opt callstack 26
  5381  000012  5012               	movf	(___fldiv@b+3)^0,w,c
  5382  000014  0B80               	andlw	128
  5383  000016  6E1F               	movwf	___fldiv@sign^0,c
  5384  000018  5012               	movf	(___fldiv@b+3)^0,w,c
  5385  00001A  2412               	addwf	(___fldiv@b+3)^0,w,c
  5386  00001C  6E26               	movwf	___fldiv@bexp^0,c
  5387  00001E  AE11               	btfss	(___fldiv@b+2)^0,7,c
  5388  000020  EF14  F000         	goto	u1141
  5389  000024  EF16  F000         	goto	u1140
  5390  000028                     u1141:
  5391  000028  EF17  F000         	goto	l2705
  5392  00002C                     u1140:
  5393  00002C  8026               	bsf	___fldiv@bexp^0,0,c
  5394  00002E                     l2705:
  5395  00002E  5026               	movf	___fldiv@bexp^0,w,c
  5396  000030  B4D8               	btfsc	status,2,c
  5397  000032  EF1D  F000         	goto	u1151
  5398  000036  EF1F  F000         	goto	u1150
  5399  00003A                     u1151:
  5400  00003A  EF34  F000         	goto	l2715
  5401  00003E                     u1150:
  5402  00003E  2826               	incf	___fldiv@bexp^0,w,c
  5403  000040  A4D8               	btfss	status,2,c
  5404  000042  EF25  F000         	goto	u1161
  5405  000046  EF27  F000         	goto	u1160
  5406  00004A                     u1161:
  5407  00004A  EF2F  F000         	goto	l2711
  5408  00004E                     u1160:
  5409  00004E  0E00               	movlw	0
  5410  000050  6E0F               	movwf	___fldiv@b^0,c
  5411  000052  0E00               	movlw	0
  5412  000054  6E10               	movwf	(___fldiv@b+1)^0,c
  5413  000056  0E00               	movlw	0
  5414  000058  6E11               	movwf	(___fldiv@b+2)^0,c
  5415  00005A  0E00               	movlw	0
  5416  00005C  6E12               	movwf	(___fldiv@b+3)^0,c
  5417  00005E                     l2711:
  5418  00005E  8E11               	bsf	(___fldiv@b+2)^0,7,c
  5419  000060  0E00               	movlw	0
  5420  000062  6E12               	movwf	(___fldiv@b+3)^0,c
  5421  000064  EF3C  F000         	goto	l2717
  5422  000068                     l2715:
  5423  000068  0E00               	movlw	0
  5424  00006A  6E0F               	movwf	___fldiv@b^0,c
  5425  00006C  0E00               	movlw	0
  5426  00006E  6E10               	movwf	(___fldiv@b+1)^0,c
  5427  000070  0E00               	movlw	0
  5428  000072  6E11               	movwf	(___fldiv@b+2)^0,c
  5429  000074  0E00               	movlw	0
  5430  000076  6E12               	movwf	(___fldiv@b+3)^0,c
  5431  000078                     l2717:
  5432  000078  5016               	movf	(___fldiv@a+3)^0,w,c
  5433  00007A  0B80               	andlw	128
  5434  00007C  1A1F               	xorwf	___fldiv@sign^0,f,c
  5435  00007E  5016               	movf	(___fldiv@a+3)^0,w,c
  5436  000080  2416               	addwf	(___fldiv@a+3)^0,w,c
  5437  000082  6E27               	movwf	___fldiv@aexp^0,c
  5438  000084  AE15               	btfss	(___fldiv@a+2)^0,7,c
  5439  000086  EF47  F000         	goto	u1171
  5440  00008A  EF49  F000         	goto	u1170
  5441  00008E                     u1171:
  5442  00008E  EF4A  F000         	goto	l2725
  5443  000092                     u1170:
  5444  000092  8027               	bsf	___fldiv@aexp^0,0,c
  5445  000094                     l2725:
  5446  000094  5027               	movf	___fldiv@aexp^0,w,c
  5447  000096  B4D8               	btfsc	status,2,c
  5448  000098  EF50  F000         	goto	u1181
  5449  00009C  EF52  F000         	goto	u1180
  5450  0000A0                     u1181:
  5451  0000A0  EF67  F000         	goto	l2735
  5452  0000A4                     u1180:
  5453  0000A4  2827               	incf	___fldiv@aexp^0,w,c
  5454  0000A6  A4D8               	btfss	status,2,c
  5455  0000A8  EF58  F000         	goto	u1191
  5456  0000AC  EF5A  F000         	goto	u1190
  5457  0000B0                     u1191:
  5458  0000B0  EF62  F000         	goto	l2731
  5459  0000B4                     u1190:
  5460  0000B4  0E00               	movlw	0
  5461  0000B6  6E13               	movwf	___fldiv@a^0,c
  5462  0000B8  0E00               	movlw	0
  5463  0000BA  6E14               	movwf	(___fldiv@a+1)^0,c
  5464  0000BC  0E00               	movlw	0
  5465  0000BE  6E15               	movwf	(___fldiv@a+2)^0,c
  5466  0000C0  0E00               	movlw	0
  5467  0000C2  6E16               	movwf	(___fldiv@a+3)^0,c
  5468  0000C4                     l2731:
  5469  0000C4  8E15               	bsf	(___fldiv@a+2)^0,7,c
  5470  0000C6  0E00               	movlw	0
  5471  0000C8  6E16               	movwf	(___fldiv@a+3)^0,c
  5472  0000CA  EF6F  F000         	goto	l2737
  5473  0000CE                     l2735:
  5474  0000CE  0E00               	movlw	0
  5475  0000D0  6E13               	movwf	___fldiv@a^0,c
  5476  0000D2  0E00               	movlw	0
  5477  0000D4  6E14               	movwf	(___fldiv@a+1)^0,c
  5478  0000D6  0E00               	movlw	0
  5479  0000D8  6E15               	movwf	(___fldiv@a+2)^0,c
  5480  0000DA  0E00               	movlw	0
  5481  0000DC  6E16               	movwf	(___fldiv@a+3)^0,c
  5482  0000DE                     l2737:
  5483  0000DE  5013               	movf	___fldiv@a^0,w,c
  5484  0000E0  1014               	iorwf	(___fldiv@a+1)^0,w,c
  5485  0000E2  1015               	iorwf	(___fldiv@a+2)^0,w,c
  5486  0000E4  1016               	iorwf	(___fldiv@a+3)^0,w,c
  5487  0000E6  A4D8               	btfss	status,2,c
  5488  0000E8  EF78  F000         	goto	u1201
  5489  0000EC  EF7A  F000         	goto	u1200
  5490  0000F0                     u1201:
  5491  0000F0  EF92  F000         	goto	l2749
  5492  0000F4                     u1200:
  5493  0000F4  0E00               	movlw	0
  5494  0000F6  6E0F               	movwf	___fldiv@b^0,c
  5495  0000F8  0E00               	movlw	0
  5496  0000FA  6E10               	movwf	(___fldiv@b+1)^0,c
  5497  0000FC  0E00               	movlw	0
  5498  0000FE  6E11               	movwf	(___fldiv@b+2)^0,c
  5499  000100  0E00               	movlw	0
  5500  000102  6E12               	movwf	(___fldiv@b+3)^0,c
  5501  000104  0E80               	movlw	128
  5502  000106  1211               	iorwf	(___fldiv@b+2)^0,f,c
  5503  000108  0E7F               	movlw	127
  5504  00010A  1212               	iorwf	(___fldiv@b+3)^0,f,c
  5505  00010C                     l2743:
  5506  00010C  501F               	movf	___fldiv@sign^0,w,c
  5507  00010E  1212               	iorwf	(___fldiv@b+3)^0,f,c
  5508  000110  C00F  F00F         	movff	___fldiv@b,?___fldiv
  5509  000114  C010  F010         	movff	___fldiv@b+1,?___fldiv+1
  5510  000118  C011  F011         	movff	___fldiv@b+2,?___fldiv+2
  5511  00011C  C012  F012         	movff	___fldiv@b+3,?___fldiv+3
  5512  000120  EFD5  F001         	goto	l1186
  5513  000124                     l2749:
  5514  000124  5026               	movf	___fldiv@bexp^0,w,c
  5515  000126  A4D8               	btfss	status,2,c
  5516  000128  EF98  F000         	goto	u1211
  5517  00012C  EF9A  F000         	goto	u1210
  5518  000130                     u1211:
  5519  000130  EFA4  F000         	goto	l2757
  5520  000134                     u1210:
  5521  000134  0E00               	movlw	0
  5522  000136  6E0F               	movwf	?___fldiv^0,c
  5523  000138  0E00               	movlw	0
  5524  00013A  6E10               	movwf	(?___fldiv+1)^0,c
  5525  00013C  0E00               	movlw	0
  5526  00013E  6E11               	movwf	(?___fldiv+2)^0,c
  5527  000140  0E00               	movlw	0
  5528  000142  6E12               	movwf	(?___fldiv+3)^0,c
  5529  000144  EFD5  F001         	goto	l1186
  5530  000148                     l2757:
  5531  000148  5027               	movf	___fldiv@aexp^0,w,c
  5532  00014A  C026  F017         	movff	___fldiv@bexp,??___fldiv
  5533  00014E  6A18               	clrf	(??___fldiv+1)^0,c
  5534  000150  5E17               	subwf	??___fldiv^0,f,c
  5535  000152  0E00               	movlw	0
  5536  000154  5A18               	subwfb	(??___fldiv+1)^0,f,c
  5537  000156  0E7F               	movlw	127
  5538  000158  2417               	addwf	??___fldiv^0,w,c
  5539  00015A  6E20               	movwf	___fldiv@new_exp^0,c
  5540  00015C  0E00               	movlw	0
  5541  00015E  2018               	addwfc	(??___fldiv+1)^0,w,c
  5542  000160  6E21               	movwf	(___fldiv@new_exp+1)^0,c
  5543  000162  C00F  F01B         	movff	___fldiv@b,___fldiv@rem
  5544  000166  C010  F01C         	movff	___fldiv@b+1,___fldiv@rem+1
  5545  00016A  C011  F01D         	movff	___fldiv@b+2,___fldiv@rem+2
  5546  00016E  C012  F01E         	movff	___fldiv@b+3,___fldiv@rem+3
  5547  000172  0E00               	movlw	0
  5548  000174  6E0F               	movwf	___fldiv@b^0,c
  5549  000176  0E00               	movlw	0
  5550  000178  6E10               	movwf	(___fldiv@b+1)^0,c
  5551  00017A  0E00               	movlw	0
  5552  00017C  6E11               	movwf	(___fldiv@b+2)^0,c
  5553  00017E  0E00               	movlw	0
  5554  000180  6E12               	movwf	(___fldiv@b+3)^0,c
  5555  000182  0E00               	movlw	0
  5556  000184  6E22               	movwf	___fldiv@grs^0,c
  5557  000186  0E00               	movlw	0
  5558  000188  6E23               	movwf	(___fldiv@grs+1)^0,c
  5559  00018A  0E00               	movlw	0
  5560  00018C  6E24               	movwf	(___fldiv@grs+2)^0,c
  5561  00018E  0E00               	movlw	0
  5562  000190  6E25               	movwf	(___fldiv@grs+3)^0,c
  5563  000192  0E00               	movlw	0
  5564  000194  6E27               	movwf	___fldiv@aexp^0,c
  5565  000196  EF05  F001         	goto	l1188
  5566  00019A                     l2767:
  5567  00019A  5027               	movf	___fldiv@aexp^0,w,c
  5568  00019C  B4D8               	btfsc	status,2,c
  5569  00019E  EFD3  F000         	goto	u1221
  5570  0001A2  EFD5  F000         	goto	u1220
  5571  0001A6                     u1221:
  5572  0001A6  EFEC  F000         	goto	l2775
  5573  0001AA                     u1220:
  5574  0001AA  90D8               	bcf	status,0,c
  5575  0001AC  361B               	rlcf	___fldiv@rem^0,f,c
  5576  0001AE  361C               	rlcf	(___fldiv@rem+1)^0,f,c
  5577  0001B0  361D               	rlcf	(___fldiv@rem+2)^0,f,c
  5578  0001B2  361E               	rlcf	(___fldiv@rem+3)^0,f,c
  5579  0001B4  90D8               	bcf	status,0,c
  5580  0001B6  360F               	rlcf	___fldiv@b^0,f,c
  5581  0001B8  3610               	rlcf	(___fldiv@b+1)^0,f,c
  5582  0001BA  3611               	rlcf	(___fldiv@b+2)^0,f,c
  5583  0001BC  3612               	rlcf	(___fldiv@b+3)^0,f,c
  5584  0001BE  AE25               	btfss	(___fldiv@grs+3)^0,7,c
  5585  0001C0  EFE4  F000         	goto	u1231
  5586  0001C4  EFE6  F000         	goto	u1230
  5587  0001C8                     u1231:
  5588  0001C8  EFE7  F000         	goto	l1191
  5589  0001CC                     u1230:
  5590  0001CC  800F               	bsf	___fldiv@b^0,0,c
  5591  0001CE                     l1191:
  5592  0001CE  90D8               	bcf	status,0,c
  5593  0001D0  3622               	rlcf	___fldiv@grs^0,f,c
  5594  0001D2  3623               	rlcf	(___fldiv@grs+1)^0,f,c
  5595  0001D4  3624               	rlcf	(___fldiv@grs+2)^0,f,c
  5596  0001D6  3625               	rlcf	(___fldiv@grs+3)^0,f,c
  5597  0001D8                     l2775:
  5598  0001D8  5013               	movf	___fldiv@a^0,w,c
  5599  0001DA  5C1B               	subwf	___fldiv@rem^0,w,c
  5600  0001DC  5014               	movf	(___fldiv@a+1)^0,w,c
  5601  0001DE  581C               	subwfb	(___fldiv@rem+1)^0,w,c
  5602  0001E0  5015               	movf	(___fldiv@a+2)^0,w,c
  5603  0001E2  581D               	subwfb	(___fldiv@rem+2)^0,w,c
  5604  0001E4  5016               	movf	(___fldiv@a+3)^0,w,c
  5605  0001E6  581E               	subwfb	(___fldiv@rem+3)^0,w,c
  5606  0001E8  A0D8               	btfss	status,0,c
  5607  0001EA  EFF9  F000         	goto	u1241
  5608  0001EE  EFFB  F000         	goto	u1240
  5609  0001F2                     u1241:
  5610  0001F2  EF04  F001         	goto	l2781
  5611  0001F6                     u1240:
  5612  0001F6  8C25               	bsf	(___fldiv@grs+3)^0,6,c
  5613  0001F8  5013               	movf	___fldiv@a^0,w,c
  5614  0001FA  5E1B               	subwf	___fldiv@rem^0,f,c
  5615  0001FC  5014               	movf	(___fldiv@a+1)^0,w,c
  5616  0001FE  5A1C               	subwfb	(___fldiv@rem+1)^0,f,c
  5617  000200  5015               	movf	(___fldiv@a+2)^0,w,c
  5618  000202  5A1D               	subwfb	(___fldiv@rem+2)^0,f,c
  5619  000204  5016               	movf	(___fldiv@a+3)^0,w,c
  5620  000206  5A1E               	subwfb	(___fldiv@rem+3)^0,f,c
  5621  000208                     l2781:
  5622  000208  2A27               	incf	___fldiv@aexp^0,f,c
  5623  00020A                     l1188:
  5624  00020A  0E19               	movlw	25
  5625  00020C  6427               	cpfsgt	___fldiv@aexp^0,c
  5626  00020E  EF0B  F001         	goto	u1251
  5627  000212  EF0D  F001         	goto	u1250
  5628  000216                     u1251:
  5629  000216  EFCD  F000         	goto	l2767
  5630  00021A                     u1250:
  5631  00021A  501B               	movf	___fldiv@rem^0,w,c
  5632  00021C  101C               	iorwf	(___fldiv@rem+1)^0,w,c
  5633  00021E  101D               	iorwf	(___fldiv@rem+2)^0,w,c
  5634  000220  101E               	iorwf	(___fldiv@rem+3)^0,w,c
  5635  000222  B4D8               	btfsc	status,2,c
  5636  000224  EF16  F001         	goto	u1261
  5637  000228  EF18  F001         	goto	u1260
  5638  00022C                     u1261:
  5639  00022C  EF30  F001         	goto	l2793
  5640  000230                     u1260:
  5641  000230  8022               	bsf	___fldiv@grs^0,0,c
  5642  000232  EF30  F001         	goto	l2793
  5643  000236                     l2787:
  5644  000236  90D8               	bcf	status,0,c
  5645  000238  360F               	rlcf	___fldiv@b^0,f,c
  5646  00023A  3610               	rlcf	(___fldiv@b+1)^0,f,c
  5647  00023C  3611               	rlcf	(___fldiv@b+2)^0,f,c
  5648  00023E  3612               	rlcf	(___fldiv@b+3)^0,f,c
  5649  000240  AE25               	btfss	(___fldiv@grs+3)^0,7,c
  5650  000242  EF25  F001         	goto	u1271
  5651  000246  EF27  F001         	goto	u1270
  5652  00024A                     u1271:
  5653  00024A  EF28  F001         	goto	l1197
  5654  00024E                     u1270:
  5655  00024E  800F               	bsf	___fldiv@b^0,0,c
  5656  000250                     l1197:
  5657  000250  90D8               	bcf	status,0,c
  5658  000252  3622               	rlcf	___fldiv@grs^0,f,c
  5659  000254  3623               	rlcf	(___fldiv@grs+1)^0,f,c
  5660  000256  3624               	rlcf	(___fldiv@grs+2)^0,f,c
  5661  000258  3625               	rlcf	(___fldiv@grs+3)^0,f,c
  5662  00025A  0620               	decf	___fldiv@new_exp^0,f,c
  5663  00025C  A0D8               	btfss	status,0,c
  5664  00025E  0621               	decf	(___fldiv@new_exp+1)^0,f,c
  5665  000260                     l2793:
  5666  000260  AE11               	btfss	(___fldiv@b+2)^0,7,c
  5667  000262  EF35  F001         	goto	u1281
  5668  000266  EF37  F001         	goto	u1280
  5669  00026A                     u1281:
  5670  00026A  EF1B  F001         	goto	l2787
  5671  00026E                     u1280:
  5672  00026E  0E00               	movlw	0
  5673  000270  6E27               	movwf	___fldiv@aexp^0,c
  5674  000272  AE25               	btfss	(___fldiv@grs+3)^0,7,c
  5675  000274  EF3E  F001         	goto	u1291
  5676  000278  EF40  F001         	goto	u1290
  5677  00027C                     u1291:
  5678  00027C  EF64  F001         	goto	l1199
  5679  000280                     u1290:
  5680  000280  0EFF               	movlw	255
  5681  000282  1422               	andwf	___fldiv@grs^0,w,c
  5682  000284  6E17               	movwf	??___fldiv^0,c
  5683  000286  0EFF               	movlw	255
  5684  000288  1423               	andwf	(___fldiv@grs+1)^0,w,c
  5685  00028A  6E18               	movwf	(??___fldiv+1)^0,c
  5686  00028C  0EFF               	movlw	255
  5687  00028E  1424               	andwf	(___fldiv@grs+2)^0,w,c
  5688  000290  6E19               	movwf	(??___fldiv+2)^0,c
  5689  000292  0E7F               	movlw	127
  5690  000294  1425               	andwf	(___fldiv@grs+3)^0,w,c
  5691  000296  6E1A               	movwf	(??___fldiv+3)^0,c
  5692  000298  5017               	movf	??___fldiv^0,w,c
  5693  00029A  1018               	iorwf	(??___fldiv+1)^0,w,c
  5694  00029C  1019               	iorwf	(??___fldiv+2)^0,w,c
  5695  00029E  101A               	iorwf	(??___fldiv+3)^0,w,c
  5696  0002A0  B4D8               	btfsc	status,2,c
  5697  0002A2  EF55  F001         	goto	u1301
  5698  0002A6  EF57  F001         	goto	u1300
  5699  0002AA                     u1301:
  5700  0002AA  EF5B  F001         	goto	l1200
  5701  0002AE                     u1300:
  5702  0002AE                     l2801:
  5703  0002AE  0E01               	movlw	1
  5704  0002B0  6E27               	movwf	___fldiv@aexp^0,c
  5705  0002B2  EF64  F001         	goto	l1199
  5706  0002B6                     l1200:
  5707  0002B6  A00F               	btfss	___fldiv@b^0,0,c
  5708  0002B8  EF60  F001         	goto	u1311
  5709  0002BC  EF62  F001         	goto	u1310
  5710  0002C0                     u1311:
  5711  0002C0  EF64  F001         	goto	l1199
  5712  0002C4                     u1310:
  5713  0002C4  EF57  F001         	goto	l2801
  5714  0002C8                     l1199:
  5715  0002C8  5027               	movf	___fldiv@aexp^0,w,c
  5716  0002CA  B4D8               	btfsc	status,2,c
  5717  0002CC  EF6A  F001         	goto	u1321
  5718  0002D0  EF6C  F001         	goto	u1320
  5719  0002D4                     u1321:
  5720  0002D4  EF90  F001         	goto	l2813
  5721  0002D8                     u1320:
  5722  0002D8  0E01               	movlw	1
  5723  0002DA  260F               	addwf	___fldiv@b^0,f,c
  5724  0002DC  0E00               	movlw	0
  5725  0002DE  2210               	addwfc	(___fldiv@b+1)^0,f,c
  5726  0002E0  2211               	addwfc	(___fldiv@b+2)^0,f,c
  5727  0002E2  2212               	addwfc	(___fldiv@b+3)^0,f,c
  5728  0002E4  A012               	btfss	(___fldiv@b+3)^0,0,c
  5729  0002E6  EF77  F001         	goto	u1331
  5730  0002EA  EF79  F001         	goto	u1330
  5731  0002EE                     u1331:
  5732  0002EE  EF90  F001         	goto	l2813
  5733  0002F2                     u1330:
  5734  0002F2  C00F  F017         	movff	___fldiv@b,??___fldiv
  5735  0002F6  C010  F018         	movff	___fldiv@b+1,??___fldiv+1
  5736  0002FA  C011  F019         	movff	___fldiv@b+2,??___fldiv+2
  5737  0002FE  C012  F01A         	movff	___fldiv@b+3,??___fldiv+3
  5738  000302  341A               	rlcf	(??___fldiv+3)^0,w,c
  5739  000304  321A               	rrcf	(??___fldiv+3)^0,f,c
  5740  000306  3219               	rrcf	(??___fldiv+2)^0,f,c
  5741  000308  3218               	rrcf	(??___fldiv+1)^0,f,c
  5742  00030A  3217               	rrcf	??___fldiv^0,f,c
  5743  00030C  C017  F00F         	movff	??___fldiv,___fldiv@b
  5744  000310  C018  F010         	movff	??___fldiv+1,___fldiv@b+1
  5745  000314  C019  F011         	movff	??___fldiv+2,___fldiv@b+2
  5746  000318  C01A  F012         	movff	??___fldiv+3,___fldiv@b+3
  5747  00031C  4A20               	infsnz	___fldiv@new_exp^0,f,c
  5748  00031E  2A21               	incf	(___fldiv@new_exp+1)^0,f,c
  5749  000320                     l2813:
  5750  000320  BE21               	btfsc	(___fldiv@new_exp+1)^0,7,c
  5751  000322  EF9B  F001         	goto	u1341
  5752  000326  5021               	movf	(___fldiv@new_exp+1)^0,w,c
  5753  000328  E108               	bnz	u1340
  5754  00032A  2820               	incf	___fldiv@new_exp^0,w,c
  5755  00032C  A0D8               	btfss	status,0,c
  5756  00032E  EF9B  F001         	goto	u1341
  5757  000332  EF9D  F001         	goto	u1340
  5758  000336                     u1341:
  5759  000336  EFA8  F001         	goto	l2817
  5760  00033A                     u1340:
  5761  00033A  0E00               	movlw	0
  5762  00033C  6E21               	movwf	(___fldiv@new_exp+1)^0,c
  5763  00033E  6820               	setf	___fldiv@new_exp^0,c
  5764  000340  0E00               	movlw	0
  5765  000342  6E0F               	movwf	___fldiv@b^0,c
  5766  000344  0E00               	movlw	0
  5767  000346  6E10               	movwf	(___fldiv@b+1)^0,c
  5768  000348  0E00               	movlw	0
  5769  00034A  6E11               	movwf	(___fldiv@b+2)^0,c
  5770  00034C  0E00               	movlw	0
  5771  00034E  6E12               	movwf	(___fldiv@b+3)^0,c
  5772  000350                     l2817:
  5773  000350  BE21               	btfsc	(___fldiv@new_exp+1)^0,7,c
  5774  000352  EFB5  F001         	goto	u1350
  5775  000356  5021               	movf	(___fldiv@new_exp+1)^0,w,c
  5776  000358  E106               	bnz	u1351
  5777  00035A  0420               	decf	___fldiv@new_exp^0,w,c
  5778  00035C  B0D8               	btfsc	status,0,c
  5779  00035E  EFB3  F001         	goto	u1351
  5780  000362  EFB5  F001         	goto	u1350
  5781  000366                     u1351:
  5782  000366  EFC3  F001         	goto	l2821
  5783  00036A                     u1350:
  5784  00036A  0E00               	movlw	0
  5785  00036C  6E21               	movwf	(___fldiv@new_exp+1)^0,c
  5786  00036E  0E00               	movlw	0
  5787  000370  6E20               	movwf	___fldiv@new_exp^0,c
  5788  000372  0E00               	movlw	0
  5789  000374  6E0F               	movwf	___fldiv@b^0,c
  5790  000376  0E00               	movlw	0
  5791  000378  6E10               	movwf	(___fldiv@b+1)^0,c
  5792  00037A  0E00               	movlw	0
  5793  00037C  6E11               	movwf	(___fldiv@b+2)^0,c
  5794  00037E  0E00               	movlw	0
  5795  000380  6E12               	movwf	(___fldiv@b+3)^0,c
  5796  000382  0E00               	movlw	0
  5797  000384  6E1F               	movwf	___fldiv@sign^0,c
  5798  000386                     l2821:
  5799  000386  C020  F026         	movff	___fldiv@new_exp,___fldiv@bexp
  5800  00038A  A026               	btfss	___fldiv@bexp^0,0,c
  5801  00038C  EFCA  F001         	goto	u1361
  5802  000390  EFCC  F001         	goto	u1360
  5803  000394                     u1361:
  5804  000394  EFCF  F001         	goto	l2827
  5805  000398                     u1360:
  5806  000398  8E11               	bsf	(___fldiv@b+2)^0,7,c
  5807  00039A  EFD0  F001         	goto	l2829
  5808  00039E                     l2827:
  5809  00039E  9E11               	bcf	(___fldiv@b+2)^0,7,c
  5810  0003A0                     l2829:
  5811  0003A0  90D8               	bcf	status,0,c
  5812  0003A2  3026               	rrcf	___fldiv@bexp^0,w,c
  5813  0003A4  6E12               	movwf	(___fldiv@b+3)^0,c
  5814  0003A6  EF86  F000         	goto	l2743
  5815  0003AA                     l1186:
  5816  0003AA  0012               	return		;funcret
  5817  0003AC                     __end_of___fldiv:
  5818                           	opt callstack 0
  5819                           
  5820 ;; *************** function _Motor_Calcular_PasosY *****************
  5821 ;; Defined at:
  5822 ;;		line 50 in file "Motor.c"
  5823 ;; Parameters:    Size  Location     Type
  5824 ;;  coordenada_a    2    0[COMRAM] int 
  5825 ;; Auto vars:     Size  Location     Type
  5826 ;;		None
  5827 ;; Return value:  Size  Location     Type
  5828 ;;                  1    wreg      void 
  5829 ;; Registers used:
  5830 ;;		wreg, status,2, status,0
  5831 ;; Tracked objects:
  5832 ;;		On entry : 0/0
  5833 ;;		On exit  : 0/0
  5834 ;;		Unchanged: 0/0
  5835 ;; Data sizes:     COMRAM   BANK0   BANK1   BANK2   BANK3   BANK4   BANK5   BANK6   BANK7
  5836 ;;      Params:         2       0       0       0       0       0       0       0       0
  5837 ;;      Locals:         0       0       0       0       0       0       0       0       0
  5838 ;;      Temps:          1       0       0       0       0       0       0       0       0
  5839 ;;      Totals:         3       0       0       0       0       0       0       0       0
  5840 ;;Total ram usage:        3 bytes
  5841 ;; Hardware stack levels used:    1
  5842 ;; Hardware stack levels required when called:    2
  5843 ;; This function calls:
  5844 ;;		Nothing
  5845 ;; This function is called by:
  5846 ;;		_Motor_Movimiento
  5847 ;; This function uses a non-reentrant model
  5848 ;;
  5849                           
  5850                           	psect	text27
  5851  001296                     __ptext27:
  5852                           	opt callstack 0
  5853  001296                     _Motor_Calcular_PasosY:
  5854                           	opt callstack 27
  5855  001296                     
  5856                           ;Motor.c: 51:     if (coordenada_actualY < coordenada_anteriorY) {
  5857  001296  5041               	movf	_coordenada_anteriorY^0,w,c
  5858  001298  5C01               	subwf	Motor_Calcular_PasosY@coordenada_actualY^0,w,c
  5859  00129A  5002               	movf	(Motor_Calcular_PasosY@coordenada_actualY+1)^0,w,c
  5860  00129C  0A80               	xorlw	128
  5861  00129E  6E03               	movwf	??_Motor_Calcular_PasosY^0,c
  5862  0012A0  5042               	movf	(_coordenada_anteriorY+1)^0,w,c
  5863  0012A2  0A80               	xorlw	128
  5864  0012A4  5803               	subwfb	??_Motor_Calcular_PasosY^0,w,c
  5865  0012A6  B0D8               	btfsc	status,0,c
  5866  0012A8  EF58  F009         	goto	u1781
  5867  0012AC  EF5A  F009         	goto	u1780
  5868  0012B0                     u1781:
  5869  0012B0  EF63  F009         	goto	l3101
  5870  0012B4                     u1780:
  5871  0012B4                     
  5872                           ;Motor.c: 53:         PORTDbits.RD3 = 0;
  5873  0012B4  9683               	bcf	131,3,c	;volatile
  5874  0012B6                     
  5875                           ;Motor.c: 54:         DeltaY = coordenada_anteriorY - coordenada_actualY;
  5876  0012B6  5001               	movf	Motor_Calcular_PasosY@coordenada_actualY^0,w,c
  5877  0012B8  5C41               	subwf	_coordenada_anteriorY^0,w,c
  5878  0012BA  6E45               	movwf	_DeltaY^0,c
  5879  0012BC  5002               	movf	(Motor_Calcular_PasosY@coordenada_actualY+1)^0,w,c
  5880  0012BE  5842               	subwfb	(_coordenada_anteriorY+1)^0,w,c
  5881  0012C0  6E46               	movwf	(_DeltaY+1)^0,c
  5882                           
  5883                           ;Motor.c: 55:     } else if (coordenada_actualY > coordenada_anteriorY) {
  5884  0012C2  EF8B  F009         	goto	l474
  5885  0012C6                     l3101:
  5886  0012C6  5001               	movf	Motor_Calcular_PasosY@coordenada_actualY^0,w,c
  5887  0012C8  5C41               	subwf	_coordenada_anteriorY^0,w,c
  5888  0012CA  5042               	movf	(_coordenada_anteriorY+1)^0,w,c
  5889  0012CC  0A80               	xorlw	128
  5890  0012CE  6E03               	movwf	??_Motor_Calcular_PasosY^0,c
  5891  0012D0  5002               	movf	(Motor_Calcular_PasosY@coordenada_actualY+1)^0,w,c
  5892  0012D2  0A80               	xorlw	128
  5893  0012D4  5803               	subwfb	??_Motor_Calcular_PasosY^0,w,c
  5894  0012D6  B0D8               	btfsc	status,0,c
  5895  0012D8  EF70  F009         	goto	u1791
  5896  0012DC  EF72  F009         	goto	u1790
  5897  0012E0                     u1791:
  5898  0012E0  EF7B  F009         	goto	l3107
  5899  0012E4                     u1790:
  5900  0012E4                     
  5901                           ;Motor.c: 57:         PORTDbits.RD3 = 1;
  5902  0012E4  8683               	bsf	131,3,c	;volatile
  5903  0012E6                     
  5904                           ;Motor.c: 58:         DeltaY = coordenada_actualY - coordenada_anteriorY;
  5905  0012E6  5041               	movf	_coordenada_anteriorY^0,w,c
  5906  0012E8  5C01               	subwf	Motor_Calcular_PasosY@coordenada_actualY^0,w,c
  5907  0012EA  6E45               	movwf	_DeltaY^0,c
  5908  0012EC  5042               	movf	(_coordenada_anteriorY+1)^0,w,c
  5909  0012EE  5802               	subwfb	(Motor_Calcular_PasosY@coordenada_actualY+1)^0,w,c
  5910  0012F0  6E46               	movwf	(_DeltaY+1)^0,c
  5911                           
  5912                           ;Motor.c: 59:     } else if (coordenada_actualY == coordenada_anteriorY) {
  5913  0012F2  EF8B  F009         	goto	l474
  5914  0012F6                     l3107:
  5915  0012F6  5041               	movf	_coordenada_anteriorY^0,w,c
  5916  0012F8  1801               	xorwf	Motor_Calcular_PasosY@coordenada_actualY^0,w,c
  5917  0012FA  E107               	bnz	u1801
  5918  0012FC  5042               	movf	(_coordenada_anteriorY+1)^0,w,c
  5919  0012FE  1802               	xorwf	(Motor_Calcular_PasosY@coordenada_actualY+1)^0,w,c
  5920  001300  A4D8               	btfss	status,2,c
  5921  001302  EF85  F009         	goto	u1801
  5922  001306  EF87  F009         	goto	u1800
  5923  00130A                     u1801:
  5924  00130A  EF8B  F009         	goto	l474
  5925  00130E                     u1800:
  5926  00130E                     
  5927                           ;Motor.c: 60:         DeltaY=0;
  5928  00130E  0E00               	movlw	0
  5929  001310  6E46               	movwf	(_DeltaY+1)^0,c
  5930  001312  0E00               	movlw	0
  5931  001314  6E45               	movwf	_DeltaY^0,c
  5932  001316                     l474:
  5933  001316  0012               	return		;funcret
  5934  001318                     __end_of_Motor_Calcular_PasosY:
  5935                           	opt callstack 0
  5936                           
  5937 ;; *************** function _Motor_Calcular_PasosX *****************
  5938 ;; Defined at:
  5939 ;;		line 36 in file "Motor.c"
  5940 ;; Parameters:    Size  Location     Type
  5941 ;;  coordenada_a    2    0[COMRAM] int 
  5942 ;; Auto vars:     Size  Location     Type
  5943 ;;		None
  5944 ;; Return value:  Size  Location     Type
  5945 ;;                  1    wreg      void 
  5946 ;; Registers used:
  5947 ;;		wreg, status,2, status,0
  5948 ;; Tracked objects:
  5949 ;;		On entry : 0/0
  5950 ;;		On exit  : 0/0
  5951 ;;		Unchanged: 0/0
  5952 ;; Data sizes:     COMRAM   BANK0   BANK1   BANK2   BANK3   BANK4   BANK5   BANK6   BANK7
  5953 ;;      Params:         2       0       0       0       0       0       0       0       0
  5954 ;;      Locals:         0       0       0       0       0       0       0       0       0
  5955 ;;      Temps:          1       0       0       0       0       0       0       0       0
  5956 ;;      Totals:         3       0       0       0       0       0       0       0       0
  5957 ;;Total ram usage:        3 bytes
  5958 ;; Hardware stack levels used:    1
  5959 ;; Hardware stack levels required when called:    2
  5960 ;; This function calls:
  5961 ;;		Nothing
  5962 ;; This function is called by:
  5963 ;;		_Motor_Movimiento
  5964 ;; This function uses a non-reentrant model
  5965 ;;
  5966                           
  5967                           	psect	text28
  5968  001318                     __ptext28:
  5969                           	opt callstack 0
  5970  001318                     _Motor_Calcular_PasosX:
  5971                           	opt callstack 27
  5972  001318                     
  5973                           ;Motor.c: 37:     if (coordenada_actualX < coordenada_anteriorX) {
  5974  001318  5043               	movf	_coordenada_anteriorX^0,w,c
  5975  00131A  5C01               	subwf	Motor_Calcular_PasosX@coordenada_actualX^0,w,c
  5976  00131C  5002               	movf	(Motor_Calcular_PasosX@coordenada_actualX+1)^0,w,c
  5977  00131E  0A80               	xorlw	128
  5978  001320  6E03               	movwf	??_Motor_Calcular_PasosX^0,c
  5979  001322  5044               	movf	(_coordenada_anteriorX+1)^0,w,c
  5980  001324  0A80               	xorlw	128
  5981  001326  5803               	subwfb	??_Motor_Calcular_PasosX^0,w,c
  5982  001328  B0D8               	btfsc	status,0,c
  5983  00132A  EF99  F009         	goto	u1751
  5984  00132E  EF9B  F009         	goto	u1750
  5985  001332                     u1751:
  5986  001332  EFA4  F009         	goto	l3085
  5987  001336                     u1750:
  5988  001336                     
  5989                           ;Motor.c: 39:         PORTDbits.RD1 = 0;
  5990  001336  9283               	bcf	131,1,c	;volatile
  5991  001338                     
  5992                           ;Motor.c: 40:         DeltaX = coordenada_anteriorX - coordenada_actualX;
  5993  001338  5001               	movf	Motor_Calcular_PasosX@coordenada_actualX^0,w,c
  5994  00133A  5C43               	subwf	_coordenada_anteriorX^0,w,c
  5995  00133C  6E47               	movwf	_DeltaX^0,c
  5996  00133E  5002               	movf	(Motor_Calcular_PasosX@coordenada_actualX+1)^0,w,c
  5997  001340  5844               	subwfb	(_coordenada_anteriorX+1)^0,w,c
  5998  001342  6E48               	movwf	(_DeltaX+1)^0,c
  5999                           
  6000                           ;Motor.c: 41:     } else if (coordenada_actualX > coordenada_anteriorX) {
  6001  001344  EFCC  F009         	goto	l466
  6002  001348                     l3085:
  6003  001348  5001               	movf	Motor_Calcular_PasosX@coordenada_actualX^0,w,c
  6004  00134A  5C43               	subwf	_coordenada_anteriorX^0,w,c
  6005  00134C  5044               	movf	(_coordenada_anteriorX+1)^0,w,c
  6006  00134E  0A80               	xorlw	128
  6007  001350  6E03               	movwf	??_Motor_Calcular_PasosX^0,c
  6008  001352  5002               	movf	(Motor_Calcular_PasosX@coordenada_actualX+1)^0,w,c
  6009  001354  0A80               	xorlw	128
  6010  001356  5803               	subwfb	??_Motor_Calcular_PasosX^0,w,c
  6011  001358  B0D8               	btfsc	status,0,c
  6012  00135A  EFB1  F009         	goto	u1761
  6013  00135E  EFB3  F009         	goto	u1760
  6014  001362                     u1761:
  6015  001362  EFBC  F009         	goto	l3091
  6016  001366                     u1760:
  6017  001366                     
  6018                           ;Motor.c: 43:         PORTDbits.RD1 = 1;
  6019  001366  8283               	bsf	131,1,c	;volatile
  6020  001368                     
  6021                           ;Motor.c: 44:         DeltaX = coordenada_actualX - coordenada_anteriorX;
  6022  001368  5043               	movf	_coordenada_anteriorX^0,w,c
  6023  00136A  5C01               	subwf	Motor_Calcular_PasosX@coordenada_actualX^0,w,c
  6024  00136C  6E47               	movwf	_DeltaX^0,c
  6025  00136E  5044               	movf	(_coordenada_anteriorX+1)^0,w,c
  6026  001370  5802               	subwfb	(Motor_Calcular_PasosX@coordenada_actualX+1)^0,w,c
  6027  001372  6E48               	movwf	(_DeltaX+1)^0,c
  6028                           
  6029                           ;Motor.c: 45:     } else if (coordenada_actualX == coordenada_anteriorX) {
  6030  001374  EFCC  F009         	goto	l466
  6031  001378                     l3091:
  6032  001378  5043               	movf	_coordenada_anteriorX^0,w,c
  6033  00137A  1801               	xorwf	Motor_Calcular_PasosX@coordenada_actualX^0,w,c
  6034  00137C  E107               	bnz	u1771
  6035  00137E  5044               	movf	(_coordenada_anteriorX+1)^0,w,c
  6036  001380  1802               	xorwf	(Motor_Calcular_PasosX@coordenada_actualX+1)^0,w,c
  6037  001382  A4D8               	btfss	status,2,c
  6038  001384  EFC6  F009         	goto	u1771
  6039  001388  EFC8  F009         	goto	u1770
  6040  00138C                     u1771:
  6041  00138C  EFCC  F009         	goto	l466
  6042  001390                     u1770:
  6043  001390                     
  6044                           ;Motor.c: 46:         DeltaX = 0;
  6045  001390  0E00               	movlw	0
  6046  001392  6E48               	movwf	(_DeltaX+1)^0,c
  6047  001394  0E00               	movlw	0
  6048  001396  6E47               	movwf	_DeltaX^0,c
  6049  001398                     l466:
  6050  001398  0012               	return		;funcret
  6051  00139A                     __end_of_Motor_Calcular_PasosX:
  6052                           	opt callstack 0
  6053                           
  6054 ;; *************** function _Actuator_Touch *****************
  6055 ;; Defined at:
  6056 ;;		line 20 in file "Actuator.c"
  6057 ;; Parameters:    Size  Location     Type
  6058 ;;		None
  6059 ;; Auto vars:     Size  Location     Type
  6060 ;;		None
  6061 ;; Return value:  Size  Location     Type
  6062 ;;                  1    wreg      void 
  6063 ;; Registers used:
  6064 ;;		wreg, fsr0l, fsr0h, status,2, status,0, tblptrl, tblptrh, tblptru, cstack
  6065 ;; Tracked objects:
  6066 ;;		On entry : 0/0
  6067 ;;		On exit  : 0/0
  6068 ;;		Unchanged: 0/0
  6069 ;; Data sizes:     COMRAM   BANK0   BANK1   BANK2   BANK3   BANK4   BANK5   BANK6   BANK7
  6070 ;;      Params:         0       0       0       0       0       0       0       0       0
  6071 ;;      Locals:         0       0       0       0       0       0       0       0       0
  6072 ;;      Temps:          2       0       0       0       0       0       0       0       0
  6073 ;;      Totals:         2       0       0       0       0       0       0       0       0
  6074 ;;Total ram usage:        2 bytes
  6075 ;; Hardware stack levels used:    1
  6076 ;; Hardware stack levels required when called:    3
  6077 ;; This function calls:
  6078 ;;		_USART_TxS
  6079 ;; This function is called by:
  6080 ;;		_main
  6081 ;; This function uses a non-reentrant model
  6082 ;;
  6083                           
  6084                           	psect	text29
  6085  00178C                     __ptext29:
  6086                           	opt callstack 0
  6087  00178C                     _Actuator_Touch:
  6088                           	opt callstack 27
  6089  00178C  808B               	bsf	139,0,c	;volatile
  6090  00178E                     
  6091                           ;Actuator.c: 22:     _delay((unsigned long)((100)*(8000000/4000.0)));
  6092  00178E  0E02               	movlw	2
  6093  001790  6E0A               	movwf	(??_Actuator_Touch+1)^0,c
  6094  001792  0E04               	movlw	4
  6095  001794  6E09               	movwf	??_Actuator_Touch^0,c
  6096  001796  0EBA               	movlw	186
  6097  001798                     u3517:
  6098  001798  2EE8               	decfsz	wreg,f,c
  6099  00179A  D7FE               	bra	u3517
  6100  00179C  2E09               	decfsz	??_Actuator_Touch^0,f,c
  6101  00179E  D7FC               	bra	u3517
  6102  0017A0  2E0A               	decfsz	(??_Actuator_Touch+1)^0,f,c
  6103  0017A2  D7FA               	bra	u3517
  6104  0017A4  D000               	nop2	
  6105  0017A6  908B               	bcf	139,0,c	;volatile
  6106  0017A8                     
  6107                           ;Actuator.c: 24:     USART_TxS("TOUCH",sizeof("TOUCH"));
  6108  0017A8  0EF3               	movlw	low STR_37
  6109  0017AA  6E01               	movwf	USART_TxS@str^0,c
  6110  0017AC  0E7F               	movlw	high STR_37
  6111  0017AE  6E02               	movwf	(USART_TxS@str+1)^0,c
  6112  0017B0  0E00               	movlw	0
  6113  0017B2  6E04               	movwf	(USART_TxS@length+1)^0,c
  6114  0017B4  0E06               	movlw	6
  6115  0017B6  6E03               	movwf	USART_TxS@length^0,c
  6116  0017B8  ECB4  F00A         	call	_USART_TxS	;wreg free
  6117  0017BC  0012               	return		;funcret
  6118  0017BE                     __end_of_Actuator_Touch:
  6119                           	opt callstack 0
  6120                           
  6121 ;; *************** function _Actuator_Retract *****************
  6122 ;; Defined at:
  6123 ;;		line 30 in file "Actuator.c"
  6124 ;; Parameters:    Size  Location     Type
  6125 ;;		None
  6126 ;; Auto vars:     Size  Location     Type
  6127 ;;		None
  6128 ;; Return value:  Size  Location     Type
  6129 ;;                  1    wreg      void 
  6130 ;; Registers used:
  6131 ;;		wreg, fsr0l, fsr0h, status,2, status,0, tblptrl, tblptrh, tblptru, cstack
  6132 ;; Tracked objects:
  6133 ;;		On entry : 0/0
  6134 ;;		On exit  : 0/0
  6135 ;;		Unchanged: 0/0
  6136 ;; Data sizes:     COMRAM   BANK0   BANK1   BANK2   BANK3   BANK4   BANK5   BANK6   BANK7
  6137 ;;      Params:         0       0       0       0       0       0       0       0       0
  6138 ;;      Locals:         0       0       0       0       0       0       0       0       0
  6139 ;;      Temps:          0       0       0       0       0       0       0       0       0
  6140 ;;      Totals:         0       0       0       0       0       0       0       0       0
  6141 ;;Total ram usage:        0 bytes
  6142 ;; Hardware stack levels used:    1
  6143 ;; Hardware stack levels required when called:    3
  6144 ;; This function calls:
  6145 ;;		_USART_TxS
  6146 ;; This function is called by:
  6147 ;;		_main
  6148 ;; This function uses a non-reentrant model
  6149 ;;
  6150                           
  6151                           	psect	text30
  6152  0018F6                     __ptext30:
  6153                           	opt callstack 0
  6154  0018F6                     _Actuator_Retract:
  6155                           	opt callstack 27
  6156  0018F6  908B               	bcf	139,0,c	;volatile
  6157  0018F8                     
  6158                           ;Actuator.c: 32:      USART_TxS("COMPLETE",sizeof("COMPLETE"));
  6159  0018F8  0EEA               	movlw	low STR_38
  6160  0018FA  6E01               	movwf	USART_TxS@str^0,c
  6161  0018FC  0E7F               	movlw	high STR_38
  6162  0018FE  6E02               	movwf	(USART_TxS@str+1)^0,c
  6163  001900  0E00               	movlw	0
  6164  001902  6E04               	movwf	(USART_TxS@length+1)^0,c
  6165  001904  0E09               	movlw	9
  6166  001906  6E03               	movwf	USART_TxS@length^0,c
  6167  001908  ECB4  F00A         	call	_USART_TxS	;wreg free
  6168  00190C  0012               	return		;funcret
  6169  00190E                     __end_of_Actuator_Retract:
  6170                           	opt callstack 0
  6171                           
  6172 ;; *************** function _Actuator_Hold *****************
  6173 ;; Defined at:
  6174 ;;		line 26 in file "Actuator.c"
  6175 ;; Parameters:    Size  Location     Type
  6176 ;;		None
  6177 ;; Auto vars:     Size  Location     Type
  6178 ;;		None
  6179 ;; Return value:  Size  Location     Type
  6180 ;;                  1    wreg      void 
  6181 ;; Registers used:
  6182 ;;		wreg, fsr0l, fsr0h, status,2, status,0, tblptrl, tblptrh, tblptru, cstack
  6183 ;; Tracked objects:
  6184 ;;		On entry : 0/0
  6185 ;;		On exit  : 0/0
  6186 ;;		Unchanged: 0/0
  6187 ;; Data sizes:     COMRAM   BANK0   BANK1   BANK2   BANK3   BANK4   BANK5   BANK6   BANK7
  6188 ;;      Params:         0       0       0       0       0       0       0       0       0
  6189 ;;      Locals:         0       0       0       0       0       0       0       0       0
  6190 ;;      Temps:          0       0       0       0       0       0       0       0       0
  6191 ;;      Totals:         0       0       0       0       0       0       0       0       0
  6192 ;;Total ram usage:        0 bytes
  6193 ;; Hardware stack levels used:    1
  6194 ;; Hardware stack levels required when called:    3
  6195 ;; This function calls:
  6196 ;;		_USART_TxS
  6197 ;; This function is called by:
  6198 ;;		_main
  6199 ;; This function uses a non-reentrant model
  6200 ;;
  6201                           
  6202                           	psect	text31
  6203  00190E                     __ptext31:
  6204                           	opt callstack 0
  6205  00190E                     _Actuator_Hold:
  6206                           	opt callstack 27
  6207  00190E  808B               	bsf	139,0,c	;volatile
  6208  001910                     
  6209                           ;Actuator.c: 28:     USART_TxS("COMPLETE",sizeof("COMPLETE"));
  6210  001910  0EEA               	movlw	low STR_38
  6211  001912  6E01               	movwf	USART_TxS@str^0,c
  6212  001914  0E7F               	movlw	high STR_38
  6213  001916  6E02               	movwf	(USART_TxS@str+1)^0,c
  6214  001918  0E00               	movlw	0
  6215  00191A  6E04               	movwf	(USART_TxS@length+1)^0,c
  6216  00191C  0E09               	movlw	9
  6217  00191E  6E03               	movwf	USART_TxS@length^0,c
  6218  001920  ECB4  F00A         	call	_USART_TxS	;wreg free
  6219  001924  0012               	return		;funcret
  6220  001926                     __end_of_Actuator_Hold:
  6221                           	opt callstack 0
  6222                           
  6223 ;; *************** function _USART_TxS *****************
  6224 ;; Defined at:
  6225 ;;		line 34 in file "UART.c"
  6226 ;; Parameters:    Size  Location     Type
  6227 ;;  str             2    0[COMRAM] PTR unsigned char 
  6228 ;;		 -> STR_39(9), STR_38(9), STR_37(6), STR_36(10), 
  6229 ;;		 -> STR_35(19), STR_34(19), STR_33(19), STR_32(14), 
  6230 ;;		 -> STR_31(14), STR_30(14), STR_29(5), Serial_Lectura_Memoria@coordenadaX(3), 
  6231 ;;		 -> STR_28(27), STR_27(27), STR_26(27), STR_25(27), 
  6232 ;;		 -> STR_24(27), STR_23(27), STR_22(26), STR_21(26), 
  6233 ;;		 -> STR_20(26), STR_19(26), STR_18(26), STR_17(26), 
  6234 ;;		 -> STR_16(26), STR_15(26), STR_14(26), STR_13(26), 
  6235 ;;		 -> STR_12(35), STR_11(23), STR_10(41), STR_9(23), 
  6236 ;;		 -> STR_8(23), STR_7(23), STR_6(23), STR_5(23), 
  6237 ;;		 -> STR_4(23), STR_3(24), STR_2(42), STR_1(17), 
  6238 ;;  length          2    2[COMRAM] int 
  6239 ;; Auto vars:     Size  Location     Type
  6240 ;;  i               2    6[COMRAM] int 
  6241 ;; Return value:  Size  Location     Type
  6242 ;;                  1    wreg      unsigned char 
  6243 ;; Registers used:
  6244 ;;		wreg, fsr0l, fsr0h, status,2, status,0, tblptrl, tblptrh, tblptru
  6245 ;; Tracked objects:
  6246 ;;		On entry : 0/0
  6247 ;;		On exit  : 0/0
  6248 ;;		Unchanged: 0/0
  6249 ;; Data sizes:     COMRAM   BANK0   BANK1   BANK2   BANK3   BANK4   BANK5   BANK6   BANK7
  6250 ;;      Params:         4       0       0       0       0       0       0       0       0
  6251 ;;      Locals:         2       0       0       0       0       0       0       0       0
  6252 ;;      Temps:          2       0       0       0       0       0       0       0       0
  6253 ;;      Totals:         8       0       0       0       0       0       0       0       0
  6254 ;;Total ram usage:        8 bytes
  6255 ;; Hardware stack levels used:    1
  6256 ;; Hardware stack levels required when called:    2
  6257 ;; This function calls:
  6258 ;;		Nothing
  6259 ;; This function is called by:
  6260 ;;		_main
  6261 ;;		_Serial_RangosCoordenadas
  6262 ;;		_Seria_Decodificacion_Memoria
  6263 ;;		_Serial_Lectura_Memoria
  6264 ;;		_Serial_Escritura_Memoria
  6265 ;;		_Motor_Movimiento
  6266 ;;		_Actuator_Touch
  6267 ;;		_Actuator_Hold
  6268 ;;		_Actuator_Retract
  6269 ;; This function uses a non-reentrant model
  6270 ;;
  6271                           
  6272                           	psect	text32
  6273  001568                     __ptext32:
  6274                           	opt callstack 0
  6275  001568                     _USART_TxS:
  6276                           	opt callstack 28
  6277  001568                     
  6278                           ;UART.c: 35:     for (int i=0;i<length;i++){
  6279  001568  0E00               	movlw	0
  6280  00156A  6E08               	movwf	(USART_TxS@i+1)^0,c
  6281  00156C  0E00               	movlw	0
  6282  00156E  6E07               	movwf	USART_TxS@i^0,c
  6283  001570  EFDA  F00A         	goto	l2691
  6284  001574                     l98:
  6285  001574  A89E               	btfss	158,4,c	;volatile
  6286  001576  EFBF  F00A         	goto	u1111
  6287  00157A  EFC1  F00A         	goto	u1110
  6288  00157E                     u1111:
  6289  00157E  EFBA  F00A         	goto	l98
  6290  001582                     u1110:
  6291  001582                     
  6292                           ;UART.c: 37:     TXREG = str[i];
  6293  001582  5007               	movf	USART_TxS@i^0,w,c
  6294  001584  2401               	addwf	USART_TxS@str^0,w,c
  6295  001586  6E05               	movwf	??_USART_TxS^0,c
  6296  001588  5008               	movf	(USART_TxS@i+1)^0,w,c
  6297  00158A  2002               	addwfc	(USART_TxS@str+1)^0,w,c
  6298  00158C  6E06               	movwf	(??_USART_TxS+1)^0,c
  6299  00158E  C005  FFF6         	movff	??_USART_TxS,tblptrl
  6300  001592  C006  FFF7         	movff	??_USART_TxS+1,tblptrh
  6301  001596  6AF8               	clrf	tblptru,c
  6302  001598  0E07               	movlw	(high __ramtop+-1)
  6303  00159A  64F7               	cpfsgt	tblptrh,c
  6304  00159C  D003               	bra	u1127
  6305  00159E  0008               	tblrd		*
  6306  0015A0  50F5               	movf	tablat,w,c
  6307  0015A2  D005               	bra	u1120
  6308  0015A4                     u1127:
  6309  0015A4  CFF6 FFE9          	movff	tblptrl,fsr0l
  6310  0015A8  CFF7 FFEA          	movff	tblptrh,fsr0h
  6311  0015AC  50EF               	movf	indf0,w,c
  6312  0015AE                     u1120:
  6313  0015AE  6EAD               	movwf	173,c	;volatile
  6314  0015B0                     
  6315                           ;UART.c: 38:     }
  6316  0015B0  4A07               	infsnz	USART_TxS@i^0,f,c
  6317  0015B2  2A08               	incf	(USART_TxS@i+1)^0,f,c
  6318  0015B4                     l2691:
  6319  0015B4  5003               	movf	USART_TxS@length^0,w,c
  6320  0015B6  5C07               	subwf	USART_TxS@i^0,w,c
  6321  0015B8  5008               	movf	(USART_TxS@i+1)^0,w,c
  6322  0015BA  0A80               	xorlw	128
  6323  0015BC  6E05               	movwf	??_USART_TxS^0,c
  6324  0015BE  5004               	movf	(USART_TxS@length+1)^0,w,c
  6325  0015C0  0A80               	xorlw	128
  6326  0015C2  5805               	subwfb	??_USART_TxS^0,w,c
  6327  0015C4  A0D8               	btfss	status,0,c
  6328  0015C6  EFE7  F00A         	goto	u1131
  6329  0015CA  EFE9  F00A         	goto	u1130
  6330  0015CE                     u1131:
  6331  0015CE  EFBA  F00A         	goto	l98
  6332  0015D2                     u1130:
  6333  0015D2  0012               	return		;funcret
  6334  0015D4                     __end_of_USART_TxS:
  6335                           	opt callstack 0
  6336                           
  6337 ;; *************** function _INT_isr *****************
  6338 ;; Defined at:
  6339 ;;		line 36 in file "main.c"
  6340 ;; Parameters:    Size  Location     Type
  6341 ;;		None
  6342 ;; Auto vars:     Size  Location     Type
  6343 ;;		None
  6344 ;; Return value:  Size  Location     Type
  6345 ;;                  1    wreg      void 
  6346 ;; Registers used:
  6347 ;;		wreg, status,2, status,0, cstack
  6348 ;; Tracked objects:
  6349 ;;		On entry : 0/0
  6350 ;;		On exit  : 0/0
  6351 ;;		Unchanged: 0/0
  6352 ;; Data sizes:     COMRAM   BANK0   BANK1   BANK2   BANK3   BANK4   BANK5   BANK6   BANK7
  6353 ;;      Params:         0       0       0       0       0       0       0       0       0
  6354 ;;      Locals:         0       0       0       0       0       0       0       0       0
  6355 ;;      Temps:          0       0       0       0       0       0       0       0       0
  6356 ;;      Totals:         0       0       0       0       0       0       0       0       0
  6357 ;;Total ram usage:        0 bytes
  6358 ;; Hardware stack levels used:    1
  6359 ;; Hardware stack levels required when called:    1
  6360 ;; This function calls:
  6361 ;;		_Oneshot
  6362 ;; This function is called by:
  6363 ;;		Interrupt level 2
  6364 ;; This function uses a non-reentrant model
  6365 ;;
  6366                           
  6367                           	psect	intcode
  6368  000008                     __pintcode:
  6369                           	opt callstack 0
  6370  000008                     _INT_isr:
  6371                           	opt callstack 26
  6372                           
  6373                           ;incstack = 0
  6374  000008  825F               	bsf	int$flags,1,c	;set compiler interrupt flag (level 2)
  6375  00000A  ED4A  F00C         	call	int_func,f	;refresh shadow registers
  6376                           
  6377                           	psect	intcode_body
  6378  001894                     __pintcode_body:
  6379                           	opt callstack 26
  6380  001894                     int_func:
  6381                           	opt callstack 26
  6382  001894  0006               	pop		; remove dummy address from shadow register refresh
  6383  001896                     
  6384                           ;main.c: 37:     PORTDbits.RD1=1;
  6385  001896  8283               	bsf	131,1,c	;volatile
  6386                           
  6387                           ;main.c: 38:     if (PORTBbits.RB2==0){
  6388  001898  B481               	btfsc	129,2,c	;volatile
  6389  00189A  EF51  F00C         	goto	i2u329_41
  6390  00189E  EF53  F00C         	goto	i2u329_40
  6391  0018A2                     i2u329_41:
  6392  0018A2  EF56  F00C         	goto	i2l4445
  6393  0018A6                     i2u329_40:
  6394  0018A6                     
  6395                           ;main.c: 39:             Oneshot();
  6396  0018A6  EC0F  F00C         	call	_Oneshot	;wreg free
  6397  0018AA                     
  6398                           ;main.c: 40:         INTCON3bits.INT2IF=0;
  6399  0018AA  92F0               	bcf	240,1,c	;volatile
  6400  0018AC                     i2l4445:
  6401                           
  6402                           ;main.c: 42:     oneshot=0;
  6403  0018AC  0E00               	movlw	0
  6404  0018AE  6E51               	movwf	_oneshot^0,c
  6405  0018B0                     
  6406                           ;main.c: 43:     PORTDbits.RD1=0;
  6407  0018B0  9283               	bcf	131,1,c	;volatile
  6408  0018B2                     
  6409                           ;main.c: 44:     INTCON3bits.INT2IF=0;
  6410  0018B2  92F0               	bcf	240,1,c	;volatile
  6411  0018B4  925F               	bcf	int$flags,1,c	;clear compiler interrupt flag (level 2)
  6412  0018B6  0011               	retfie		f
  6413  0018B8                     __end_of_INT_isr:
  6414                           	opt callstack 0
  6415                           
  6416 ;; *************** function _Oneshot *****************
  6417 ;; Defined at:
  6418 ;;		line 48 in file "main.c"
  6419 ;; Parameters:    Size  Location     Type
  6420 ;;		None
  6421 ;; Auto vars:     Size  Location     Type
  6422 ;;		None
  6423 ;; Return value:  Size  Location     Type
  6424 ;;                  1    wreg      void 
  6425 ;; Registers used:
  6426 ;;		wreg, status,2, status,0
  6427 ;; Tracked objects:
  6428 ;;		On entry : 0/0
  6429 ;;		On exit  : 0/0
  6430 ;;		Unchanged: 0/0
  6431 ;; Data sizes:     COMRAM   BANK0   BANK1   BANK2   BANK3   BANK4   BANK5   BANK6   BANK7
  6432 ;;      Params:         0       0       0       0       0       0       0       0       0
  6433 ;;      Locals:         0       0       0       0       0       0       0       0       0
  6434 ;;      Temps:          0       0       0       0       0       0       0       0       0
  6435 ;;      Totals:         0       0       0       0       0       0       0       0       0
  6436 ;;Total ram usage:        0 bytes
  6437 ;; Hardware stack levels used:    1
  6438 ;; This function calls:
  6439 ;;		Nothing
  6440 ;; This function is called by:
  6441 ;;		_INT_isr
  6442 ;; This function uses a non-reentrant model
  6443 ;;
  6444                           
  6445                           	psect	text34
  6446  00181E                     __ptext34:
  6447                           	opt callstack 0
  6448  00181E                     _Oneshot:
  6449                           	opt callstack 26
  6450  00181E                     
  6451                           ;main.c: 49:     if (PORTBbits.RB2 == 0 & oneshot == 0) {
  6452  00181E  B481               	btfsc	129,2,c	;volatile
  6453  001820  EF14  F00C         	goto	i2u198_41
  6454  001824  EF16  F00C         	goto	i2u198_40
  6455  001828                     i2u198_41:
  6456  001828  EF23  F00C         	goto	i2l601
  6457  00182C                     i2u198_40:
  6458  00182C  5051               	movf	_oneshot^0,w,c
  6459  00182E  A4D8               	btfss	status,2,c
  6460  001830  EF1C  F00C         	goto	i2u199_41
  6461  001834  EF1E  F00C         	goto	i2u199_40
  6462  001838                     i2u199_41:
  6463  001838  EF23  F00C         	goto	i2l601
  6464  00183C                     i2u199_40:
  6465  00183C                     
  6466                           ;main.c: 50:         cont++;
  6467  00183C  0100               	movlb	0	; () banked
  6468  00183E  4B6E               	infsnz	_cont& (0+255),f,b
  6469  001840  2B6F               	incf	(_cont+1)& (0+255),f,b
  6470  001842                     
  6471                           ; BSR set to: 0
  6472                           ;main.c: 51:         oneshot = 1;
  6473  001842  0E01               	movlw	1
  6474  001844  6E51               	movwf	_oneshot^0,c
  6475  001846                     i2l601:
  6476  001846  0012               	return		;funcret
  6477  001848                     __end_of_Oneshot:
  6478                           	opt callstack 0
  6479                           
  6480                           	psect	rparam
  6481  0000                     
  6482                           	psect	temp
  6483  00005F                     btemp:
  6484                           	opt callstack 0
  6485  00005F                     	ds	1
  6486  0000                     int$flags	set	btemp
  6487  0000                     wtemp8	set	btemp+1
  6488  0000                     ttemp5	set	btemp+1
  6489  0000                     ttemp6	set	btemp+4
  6490  0000                     ttemp7	set	btemp+8
  6491                           tosu	equ	0xFFF
  6492                           tosh	equ	0xFFE
  6493                           tosl	equ	0xFFD
  6494                           stkptr	equ	0xFFC
  6495                           pclatu	equ	0xFFB
  6496                           pclath	equ	0xFFA
  6497                           pcl	equ	0xFF9
  6498                           tblptru	equ	0xFF8
  6499                           tblptrh	equ	0xFF7
  6500                           tblptrl	equ	0xFF6
  6501                           tablat	equ	0xFF5
  6502                           prodh	equ	0xFF4
  6503                           prodl	equ	0xFF3
  6504                           indf0	equ	0xFEF
  6505                           postinc0	equ	0xFEE
  6506                           postdec0	equ	0xFED
  6507                           preinc0	equ	0xFEC
  6508                           plusw0	equ	0xFEB
  6509                           fsr0h	equ	0xFEA
  6510                           fsr0l	equ	0xFE9
  6511                           wreg	equ	0xFE8
  6512                           indf1	equ	0xFE7
  6513                           postinc1	equ	0xFE6
  6514                           postdec1	equ	0xFE5
  6515                           preinc1	equ	0xFE4
  6516                           plusw1	equ	0xFE3
  6517                           fsr1h	equ	0xFE2
  6518                           fsr1l	equ	0xFE1
  6519                           bsr	equ	0xFE0
  6520                           indf2	equ	0xFDF
  6521                           postinc2	equ	0xFDE
  6522                           postdec2	equ	0xFDD
  6523                           preinc2	equ	0xFDC
  6524                           plusw2	equ	0xFDB
  6525                           fsr2h	equ	0xFDA
  6526                           fsr2l	equ	0xFD9
  6527                           status	equ	0xFD8


Data Sizes:
    Strings     733
    Constant    124
    Data        0
    BSS         70
    Persistent  0
    Stack       0

Auto Spaces:
    Space          Size  Autos    Used
    COMRAM           94     64      94
    BANK0           160      0      40
    BANK1           256      0       0
    BANK2           256      0       0
    BANK3           256      0       0
    BANK4           256      0       0
    BANK5           256      0       0
    BANK6           256      0       0
    BANK7           256      0       0

Pointer List with Targets:

    atoi@s	PTR const unsigned char  size(2) Largest target is 3
		 -> Serial_Lectura_Memoria@coordenadaZ(COMRAM[3]), Serial_Lectura_Memoria@coordenadaY(COMRAM[3]), Serial_Lectura_Memoria@coordenadaX(COMRAM[3]), Serial_DecodificacionZ@coordenadaZ(COMRAM[3]), 
		 -> Serial_DecodificacionY@coordenadaY(COMRAM[3]), Serial_DecodificacionX@coordenadaX(COMRAM[3]), 

    Serial_Escritura_Memoria@string_setpoint	PTR unsigned char  size(2) Largest target is 11
		 -> coordenada_setpoint(BANK0[11]), 

    Serial_Lectura_Memoria@pointerCZ	PTR int  size(2) Largest target is 2
		 -> CoordenadaZ(COMRAM[2]), 

    Serial_Lectura_Memoria@pointerCY	PTR int  size(2) Largest target is 2
		 -> CoordenadaY(COMRAM[2]), 

    Serial_Lectura_Memoria@pointerCX	PTR int  size(2) Largest target is 2
		 -> CoordenadaX(COMRAM[2]), 

    Serial_DecodificacionY@pointerCY	PTR int  size(2) Largest target is 2
		 -> CoordenadaY(COMRAM[2]), 

    Serial_DecodificacionY@string_coordenada	PTR unsigned char  size(2) Largest target is 7
		 -> coordenada_array(BANK0[7]), 

    Serial_DecodificacionX@pointerCX	PTR int  size(2) Largest target is 2
		 -> CoordenadaX(COMRAM[2]), 

    Serial_DecodificacionX@string_coordenada	PTR unsigned char  size(2) Largest target is 7
		 -> coordenada_array(BANK0[7]), 

    USART_RxS@pointer	PTR unsigned char  size(2) Largest target is 11
		 -> coordenada_setpoint(BANK0[11]), coordenada_array(BANK0[7]), 

    USART_TxS@str	PTR unsigned char  size(2) Largest target is 42
		 -> STR_39(CODE[9]), STR_38(CODE[9]), STR_37(CODE[6]), STR_36(CODE[10]), 
		 -> STR_35(CODE[19]), STR_34(CODE[19]), STR_33(CODE[19]), STR_32(CODE[14]), 
		 -> STR_31(CODE[14]), STR_30(CODE[14]), STR_29(CODE[5]), Serial_Lectura_Memoria@coordenadaX(COMRAM[3]), 
		 -> STR_28(CODE[27]), STR_27(CODE[27]), STR_26(CODE[27]), STR_25(CODE[27]), 
		 -> STR_24(CODE[27]), STR_23(CODE[27]), STR_22(CODE[26]), STR_21(CODE[26]), 
		 -> STR_20(CODE[26]), STR_19(CODE[26]), STR_18(CODE[26]), STR_17(CODE[26]), 
		 -> STR_16(CODE[26]), STR_15(CODE[26]), STR_14(CODE[26]), STR_13(CODE[26]), 
		 -> STR_12(CODE[35]), STR_11(CODE[23]), STR_10(CODE[41]), STR_9(CODE[23]), 
		 -> STR_8(CODE[23]), STR_7(CODE[23]), STR_6(CODE[23]), STR_5(CODE[23]), 
		 -> STR_4(CODE[23]), STR_3(CODE[24]), STR_2(CODE[42]), STR_1(CODE[17]), 


Critical Paths under _main in COMRAM

    _main->_Motor_Movimiento
    _USART_Init->___aldiv
    _Serial_Lectura_Memoria->_atoi
    _Serial_RangosCoordenadas->_USART_TxS
    _Serial_Escritura_Memoria->_USART_TxS
    _Serial_DecodificacionY->_atoi
    _Serial_DecodificacionX->_atoi
    _atoi->_isspace
    _Seria_Decodificacion_Memoria->_USART_TxS
    _Motor_Movimiento->_Motor_Conversion
    _PWM_GeneratePulsos->_PWM_OneshotX
    _PWM_GeneratePulsos->_PWM_OneshotY
    _Motor_Conversion->___fltol
    ___fltol->___fldiv
    ___fldiv->___xxtofl
    _Actuator_Touch->_USART_TxS
    _Actuator_Retract->_USART_TxS
    _Actuator_Hold->_USART_TxS

Critical Paths under _INT_isr in COMRAM

    None.

Critical Paths under _main in BANK0

    None.

Critical Paths under _INT_isr in BANK0

    None.

Critical Paths under _main in BANK1

    None.

Critical Paths under _INT_isr in BANK1

    None.

Critical Paths under _main in BANK2

    None.

Critical Paths under _INT_isr in BANK2

    None.

Critical Paths under _main in BANK3

    None.

Critical Paths under _INT_isr in BANK3

    None.

Critical Paths under _main in BANK4

    None.

Critical Paths under _INT_isr in BANK4

    None.

Critical Paths under _main in BANK5

    None.

Critical Paths under _INT_isr in BANK5

    None.

Critical Paths under _main in BANK6

    None.

Critical Paths under _INT_isr in BANK6

    None.

Critical Paths under _main in BANK7

    None.

Critical Paths under _INT_isr in BANK7

    None.

Call Graph Tables:

 ---------------------------------------------------------------------------------
 (Depth) Function   	        Calls       Base Space   Used Autos Params    Refs
 ---------------------------------------------------------------------------------
 (0) _main                                                 4     4      0   79119
                                             60 COMRAM     4     4      0
                      _Actuator_Hold
                   _Actuator_Retract
                     _Actuator_Touch
                   _Motor_Movimiento
       _Seria_Decodificacion_Memoria
             _Serial_DecodificacionX
             _Serial_DecodificacionY
           _Serial_Escritura_Memoria
             _Serial_Lectura_Memoria
           _Serial_RangosCoordenadas
                         _USART_Init
                          _USART_RxC
                          _USART_RxS
                          _USART_TxS
 ---------------------------------------------------------------------------------
 (1) _USART_RxS                                            8     6      2     318
                                              0 COMRAM     8     6      2
 ---------------------------------------------------------------------------------
 (1) _USART_RxC                                            0     0      0       0
 ---------------------------------------------------------------------------------
 (1) _USART_Init                                           8     4      4     877
                                             14 COMRAM     8     4      4
                            ___aldiv
 ---------------------------------------------------------------------------------
 (2) ___aldiv                                             14     6      8     756
                                              0 COMRAM    14     6      8
 ---------------------------------------------------------------------------------
 (1) _Serial_Lectura_Memoria                              25    19      6   15927
                                             22 COMRAM    25    19      6
                          _EEPROM_Rx
           _Serial_RangosCoordenadas
                          _USART_TxS
                               _atoi
 ---------------------------------------------------------------------------------
 (1) _Serial_RangosCoordenadas                             2     0      2    7050
                                              8 COMRAM     2     0      2
                          _USART_TxS
 ---------------------------------------------------------------------------------
 (2) _EEPROM_Rx                                            1     1      0      22
                                              0 COMRAM     1     1      0
 ---------------------------------------------------------------------------------
 (1) _Serial_Escritura_Memoria                            12    10      2    7293
                                              8 COMRAM    12    10      2
                          _EEPROM_Tx
                          _USART_TxS
 ---------------------------------------------------------------------------------
 (2) _EEPROM_Tx                                            2     1      1     272
                                              0 COMRAM     2     1      1
 ---------------------------------------------------------------------------------
 (1) _Serial_DecodificacionY                              11     7      4    1947
                                             22 COMRAM    11     7      4
                               _atoi
 ---------------------------------------------------------------------------------
 (1) _Serial_DecodificacionX                               9     5      4    1947
                                             22 COMRAM     9     5      4
                               _atoi
 ---------------------------------------------------------------------------------
 (2) _atoi                                                15    13      2    1456
                                              7 COMRAM    15    13      2
                             ___wmul
                            _isdigit
                            _isspace
 ---------------------------------------------------------------------------------
 (3) _isspace                                              7     5      2     207
                                              0 COMRAM     7     5      2
 ---------------------------------------------------------------------------------
 (3) _isdigit                                              6     4      2     161
                                              0 COMRAM     6     4      2
 ---------------------------------------------------------------------------------
 (3) ___wmul                                               6     2      4     311
                                              0 COMRAM     6     2      4
 ---------------------------------------------------------------------------------
 (1) _Seria_Decodificacion_Memoria                         3     3      0    6534
                                              8 COMRAM     3     3      0
                          _USART_TxS
 ---------------------------------------------------------------------------------
 (1) _Motor_Movimiento                                     5     1      4   11217
                                             55 COMRAM     5     1      4
              _Motor_Calcular_PasosX
              _Motor_Calcular_PasosY
                   _Motor_Conversion
                 _PWM_GeneratePulsos
                          _USART_TxS
 ---------------------------------------------------------------------------------
 (2) _PWM_GeneratePulsos                                  10     6      4     598
                                              2 COMRAM    10     6      4
                          _PWM_InitF
                          _PWM_InitS
                       _PWM_OneshotX
                       _PWM_OneshotY
 ---------------------------------------------------------------------------------
 (3) _PWM_OneshotY                                         2     0      2      99
                                              0 COMRAM     2     0      2
 ---------------------------------------------------------------------------------
 (3) _PWM_OneshotX                                         2     0      2      99
                                              0 COMRAM     2     0      2
 ---------------------------------------------------------------------------------
 (3) _PWM_InitS                                            0     0      0       0
 ---------------------------------------------------------------------------------
 (3) _PWM_InitF                                            0     0      0       0
 ---------------------------------------------------------------------------------
 (2) _Motor_Conversion                                     6     4      2    3207
                                             49 COMRAM     6     4      2
                            ___fldiv
                            ___fltol
                           ___xxtofl
 ---------------------------------------------------------------------------------
 (3) ___xxtofl                                            14    10      4     538
                                              0 COMRAM    14    10      4
 ---------------------------------------------------------------------------------
 (3) ___fltol                                             10     6      4     305
                                             39 COMRAM    10     6      4
                            ___fldiv (ARG)
                           ___xxtofl (ARG)
 ---------------------------------------------------------------------------------
 (3) ___fldiv                                             25    17      8    2167
                                             14 COMRAM    25    17      8
                           ___xxtofl (ARG)
 ---------------------------------------------------------------------------------
 (2) _Motor_Calcular_PasosY                                3     1      2     186
                                              0 COMRAM     3     1      2
 ---------------------------------------------------------------------------------
 (2) _Motor_Calcular_PasosX                                3     1      2     186
                                              0 COMRAM     3     1      2
 ---------------------------------------------------------------------------------
 (1) _Actuator_Touch                                       2     2      0    6474
                                              8 COMRAM     2     2      0
                          _USART_TxS
 ---------------------------------------------------------------------------------
 (1) _Actuator_Retract                                     0     0      0    6474
                          _USART_TxS
 ---------------------------------------------------------------------------------
 (1) _Actuator_Hold                                        0     0      0    6474
                          _USART_TxS
 ---------------------------------------------------------------------------------
 (1) _USART_TxS                                            8     4      4    6474
                                              0 COMRAM     8     4      4
 ---------------------------------------------------------------------------------
 Estimated maximum stack depth 3
 ---------------------------------------------------------------------------------
 (Depth) Function   	        Calls       Base Space   Used Autos Params    Refs
 ---------------------------------------------------------------------------------
 (4) _INT_isr                                              0     0      0       0
                            _Oneshot
 ---------------------------------------------------------------------------------
 (5) _Oneshot                                              0     0      0       0
 ---------------------------------------------------------------------------------
 Estimated maximum stack depth 5
 ---------------------------------------------------------------------------------

 Call Graph Graphs:

 _main (ROOT)
   _Actuator_Hold
     _USART_TxS
   _Actuator_Retract
     _USART_TxS
   _Actuator_Touch
     _USART_TxS
   _Motor_Movimiento
     _Motor_Calcular_PasosX
     _Motor_Calcular_PasosY
     _Motor_Conversion
       ___fldiv
         ___xxtofl (ARG)
       ___fltol
         ___fldiv (ARG)
           ___xxtofl (ARG)
         ___xxtofl (ARG)
       ___xxtofl
     _PWM_GeneratePulsos
       _PWM_InitF
       _PWM_InitS
       _PWM_OneshotX
       _PWM_OneshotY
     _USART_TxS
   _Seria_Decodificacion_Memoria
     _USART_TxS
   _Serial_DecodificacionX
     _atoi
       ___wmul
       _isdigit
       _isspace
   _Serial_DecodificacionY
     _atoi
       ___wmul
       _isdigit
       _isspace
   _Serial_Escritura_Memoria
     _EEPROM_Tx
     _USART_TxS
   _Serial_Lectura_Memoria
     _EEPROM_Rx
     _Serial_RangosCoordenadas
       _USART_TxS
     _USART_TxS
     _atoi
       ___wmul
       _isdigit
       _isspace
   _Serial_RangosCoordenadas
     _USART_TxS
   _USART_Init
     ___aldiv
   _USART_RxC
   _USART_RxS
   _USART_TxS

 _INT_isr (ROOT)
   _Oneshot

 Address spaces:
Name               Size   Autos  Total    Cost      Usage
BIGRAM             7FF      0       0      21        0.0%
EEDATA             100      0       0       0        0.0%
BITBANK7           100      0       0      18        0.0%
BANK7              100      0       0      19        0.0%
BITBANK6           100      0       0      16        0.0%
BANK6              100      0       0      17        0.0%
BITBANK5           100      0       0      14        0.0%
BANK5              100      0       0      15        0.0%
BITBANK4           100      0       0      12        0.0%
BANK4              100      0       0      13        0.0%
BITBANK3           100      0       0      10        0.0%
BANK3              100      0       0      11        0.0%
BITBANK2           100      0       0       8        0.0%
BANK2              100      0       0       9        0.0%
BITBANK1           100      0       0       6        0.0%
BANK1              100      0       0       7        0.0%
BITBANK0            A0      0       0       4        0.0%
BANK0               A0      0      28       5       25.0%
BITCOMRAM           5E      0       0       0        0.0%
COMRAM              5E     40      5E       1      100.0%
BITSFR               0      0       0     200        0.0%
SFR                  0      0       0     200        0.0%
STACK                0      0       0       2        0.0%
NULL                 0      0       0       0        0.0%
ABS                  0      0      86      20        0.0%
DATA                 0      0      86       3        0.0%
CODE                 0      0       0       0        0.0%


Microchip Technology PIC18 Macro Assembler V2.10 build 88905656 
Symbol Table                                                                                   Wed Nov 27 21:54:24 2019

              PWM_GeneratePulsos@Oupcode 0008                    _Motor_Calcular_PasosX 1318  
                  _Motor_Calcular_PasosY 1296                             ___fldiv@aexp 0027  
                           ___fldiv@bexp 0026                             ___fldiv@sign 001F  
                                     _L1 7CFD                                       _L2 7CF9  
                                     _L3 7CF5                                       _L4 7CF1  
                                     _L5 7CED                                       _L6 7CE9  
                                     l51 18D6                                       l43 1032  
                                     _P1 7CE5                                       l54 18F4  
                                     l62 17EC                                       _P2 7CE1  
                                     l39 0FE4                                       _P3 7CDD  
                                     l48 1082                                       _P4 7CD9  
                                     l81 14F8                                       _P5 7CD5  
                                     l58 181C                                       l90 193A  
                                     l93 194A                                       l98 1574  
                            __CFG_BOR$ON 000000                                       _bp 7D0D  
                                     _cp 7CC1                    __size_of_PWM_OneshotX 0030  
                  __size_of_PWM_OneshotY 0030                      ___wmul@multiplicand 0003  
                            __CFG_BORV$3 000000                             __CFG_CP0$OFF 000000  
                           __CFG_CP1$OFF 000000                             __CFG_CP2$OFF 000000  
                           __CFG_CP3$OFF 000000                            _LecturaFiltro 0074  
             ??_Serial_Escritura_Memoria 000B                                      l102 15D2  
                                    l113 1644                                      l117 168A  
                                    l511 178C                                      l407 0AF6  
                                    l520 1924                                      l416 0F5C  
                                    l361 1634                                      l523 18F6  
                                    l515 17BC                                      l604 1892  
                                    l525 190C                                      l518 190E  
                                    l366 1566                                      l550 1786  
                                    l455 1488                                      l551 178A  
                                    l545 1938                                      l377 1720  
                                    l466 1398                                      l474 1316  
                                    l458 1416                                      l548 1778  
                                    l901 1294                                      l398 0924  
                                    l683 118E                             __CFG_CPB$OFF 000000  
          ?_Seria_Decodificacion_Memoria 0001                                      _PR2 000FCB  
                           __CFG_CPD$OFF 000000                              main@Oupcode 0040  
                                    _lg2 7CD1                                      _ovt 7CC5  
                                    wreg 000FE8                       __size_of_EEPROM_Rx 0014  
                     __size_of_EEPROM_Tx 0032                          ?_Actuator_Touch 0001  
              PWM_GeneratePulsos@pulsosX 0003                PWM_GeneratePulsos@pulsosY 0005  
                           __CFG_LVP$OFF 000000                             ___fltol@exp1 0031  
                           __CFG_WDT$OFF 000000                                     l1200 02B6  
                                   l1303 0E2C                                     l3001 0CC8  
                                   l1306 0E34                                     l3011 0D20  
                                   l3003 0CE2                                     l3101 12C6  
                                   l1309 1758                                     l1317 16DC  
                                   l3013 0D36                                     l3005 0D16  
                                   l1262 0CAA                                     l3103 12E4  
                                   l1191 01CE                                     l3031 0E10  
                                   l3023 0DB0                                     l3015 0D3E  
                                   l3007 0D1A                                     l3111 1084  
                                   l3105 12E6                                     l1273 0C42  
                                   l3017 0D46                                     l3201 15DC  
                                   l3041 192E                                     l3121 10B8  
                                   l3113 1088                                     l1186 03AA  
                                   l1266 0BE6                                     l3107 12F6  
                                   l1259 0B4E                                     l3027 0DEC  
                                   l3019 0D78                                     l3203 15F8  
                                   l3211 14FA                                     l3051 175C  
                                   l3043 1930                                     l3131 10FA  
                                   l3123 10C8                                     l3115 1096  
                                   l1188 020A                                     l3109 130E  
                                   l1197 0250                                     l3301 0834  
                                   l3029 0DFE                                     l3205 15FC  
                                   l3221 152E                                     l3061 176A  
                                   l3053 1760                                     l3045 1932  
                                   l3037 1928                                     l3141 114C  
                                   l3133 1106                                     l3125 10CC  
                                   l3117 10A6                                     l1199 02C8  
                                   l3071 1418                                     l3231 13E4  
                                   l3311 0870                                     l3303 0838  
                                   l3207 1618                                     l3223 154A  
                                   l3063 176C                                     l3055 1764  
                                   l3047 1936                                     l3039 192C  
                                   l3151 117E                                     l3143 114E  
                                   l3135 1114                                     l3127 10DC  
                                   l3119 10AA                                     l3241 17A8  
                                   l3081 1336                                     l3073 1428  
                                   l3233 1402                                     l3305 0850  
                                   l3217 1502                                     l3065 1770  
                                   l3057 1766                                     l3401 0E5C  
                                   l3145 1158                                     l3137 111E  
                                   l3129 10F2                                     l3161 14EC  
                                   l3243 1910                                     l3091 1378  
                                   l3083 1338                                     l3075 1480  
                                   l3227 139C                                     l3307 0854  
                                   l3251 06CC                                     l3315 0888  
                                   l3219 152A                                     l3067 1774  
                                   l3059 1768                                     l3403 0E60  
                                   l3331 0930                                     l3139 113C  
                                   l3147 115E                                     l3171 14F6  
                                   l3163 14EE                                     l3155 148A  
                                   l3245 18F8                                     l3237 178E  
                                   l3093 1390                                     l3085 1348  
                                   l2701 001E                                     l3229 13DC  
                                   l3309 086C                                     l3261 071C  
                                   l3253 06E4                                     l3317 0922  
                                   l3069 1776                                     l3421 0EE2  
                                   l3413 0E98                                     l3405 0E7C  
                                   l3333 0936                                     l3325 0928  
                                   l3149 116E                                     l3165 14F0  
                                   l3157 148E                                     l3173 193A  
                                   l3181 1652                                     l4301 03CE  
                                   l3239 17A6                                     l3087 1366  
                                   l3079 1318                                     l3095 1296  
                                   l2711 005E                                     l2703 002C  
                                   l3271 0758                                     l3263 0720  
                                   l3255 06E8                                     l3247 06C4  
                                   l3431 0F06                                     l3423 0EF6  
                                   l3415 0EA0                                     l3407 0E90  
                                   l3351 0992                                     l3335 094A  
                                   l3167 14F2                                     l3159 14EA  
                                   l3175 1948                                     l3183 1662  
                                   l4311 03DA                                     l4303 03D0  
                                   l3089 1368                                     l3097 12B4  
                                   l2801 02AE                                     l2721 0084  
                                   l2713 0060                                     l2705 002E  
                                   l2641 18DA                                     l3281 07A8  
                                   l3273 0770                                     l3265 0738  
                                   l3257 0700                                     l3249 06C8  
                                   l3433 0F28                                     l3417 0EC2  
                                   l3361 09BE                                     l3353 09AE  
                                   l3345 0972                                     l3337 094E  
                                   l3169 14F4                                     l3185 1666  
                                   l4321 042A                                     l4313 03EE  
                                   l4305 03D2                                     l3099 12B6  
                                   l2811 031C                                     l2731 00C4  
                                   l2723 0092                                     l2707 003E  
                                   l2715 0068                                     l2651 18B8  
                                   l2643 18E2                                     l3291 07E4  
                                   l3283 07AC                                     l3275 0774  
                                   l3267 073C                                     l3259 0704  
                                   l3195 15D4                                     l3435 0F2C  
                                   l3419 0EC6                                     l3371 0A5A  
                                   l3363 09D2                                     l3347 097A  
                                   l3339 096A                                     l3179 1638  
                                   l4331 047E                                     l4323 0434  
                                   l4315 0402                                     l4307 03D4  
                                   l2821 0386                                     l2805 02D8  
                                   l2813 0320                                     l2741 0104  
                                   l2733 00C6                                     l2725 0094  
                                   l2717 0078                                     l2709 004E  
                                   l2901 0BD0                                     l2653 18C4  
                                   l2645 18E4                                     l2661 17EE  
                                   l3293 07FC                                     l3285 07C4  
                                   l3277 078C                                     l3269 0754  
                                   l3437 0F48                                     l3429 0EFE  
                                   l3381 0ABE                                     l3373 0A6E  
                                   l3365 09D6                                     l3349 098E  
                                   l4341 04C4                                     l4333 048A  
                                   l4325 0442                                     l4317 0412  
                                   l4309 03D6                                     l2823 038A  
                                   l2815 033A                                     l2807 02E4  
                                   l2751 0134                                     l2743 010C  
                                   l2727 00A4                                     l2735 00CE  
                                   l2719 007E                                     l2911 0C50  
                                   l2903 0BDC                                     l2655 18C6  
                                   l2647 18F2                                     l2639 18D8  
                                   l2663 17FC                                     l3295 0800  
                                   l3287 07C8                                     l3279 0790  
                                   l3391 0E38                                     l3383 0AD2  
                                   l3375 0A82                                     l3367 09F2  
                                   l3359 09B6                                     l4351 051A  
                                   l4343 04D2                                     l4335 0496  
                                   l4327 0456                                     l4319 0426  
                                   l2825 0398                                     l2817 0350  
                                   l2809 02F2                                     l2761 0172  
                                   l2753 0134                                     l2745 0110  
                                   l2737 00DE                                     l2729 00B4  
                                   l2921 0C98                                     l2913 0C52  
                                   l2905 0C18                                     l2657 18D4  
                                   l2665 180C                                     l2681 17E4  
                                   l2673 17BE                                     l3297 0818  
                                   l3289 07E0                                     l3385 0ADE  
                                   l3377 0A96                                     l3369 0A46  
                                   l4361 0570                                     l4353 0526  
                                   l4345 04E6                                     l4329 046A  
                                   l2691 15B4                                     l2827 039E  
                                   l2819 036A                                     l2771 01BE  
                                   l2763 0182                                     l2739 00F4  
                                   l2851 11FA                                     l2843 11BA  
                                   l2923 0C9A                                     l2915 0C56  
                                   l2907 0C24                                     l2667 1810  
                                   l2675 17CC                                     l3299 081C  
                                   l2931 16A4                                     l3387 0AEA  
                                   l3379 0AAA                                     l4371 05CA  
                                   l4363 058C                                     l4347 04FA  
                                   l4339 04AA                                     l4291 03C4  
                                   l2685 1568                                     l2829 03A0  
                                   l2781 0208                                     l2773 01CC  
                                   l2765 0192                                     l2757 0148  
                                   l2749 0124                                     l2861 122A  
                                   l2853 1208                                     l2845 11E4  
                                   l2837 1190                                     l2917 0C7A  
                                   l2909 0C32                                     l2669 1814  
                                   l2677 17DC                                     l2693 186E  
                                   l2933 16D2                                     l3397 0E40  
                                   l4381 0630                                     l4373 05E8  
                                   l4365 05A8                                     l4357 053A  
                                   l4349 050E                                     l4293 03C6  
                                   l2687 1582                                     l2791 024E  
                                   l2783 021A                                     l2775 01D8  
                                   l2767 019A                                     l2759 0162  
                                   l2871 1254                                     l2863 1234  
                                   l2847 11E6                                     l2839 11A6  
                                   l2919 0C8A                                     l2679 17E0  
                                   l2951 0F80                                     l2943 0F60  
                                   l2695 188A                                     l2935 16D6  
                                   l2927 168C                                     l3399 0E46  
                                   l4383 063E                                     l4375 05F8  
                                   l4367 05BC                                     l4359 0554  
                                   l4391 066C                                     l4295 03C8  
                                   l4287 03AC                                     l2689 15B0  
                                   l2785 0230                                     l2793 0260  
                                   l2777 01F6                                     l2769 01AA  
                                   l2873 1264                                     l2849 11F6  
                                   l2881 0AFA                                     l2961 0FB6  
                                   l2953 0F82                                     l2945 0F72  
                                   l2929 1690                                     l4385 0652  
                                   l4377 0610                                     l4369 05C2  
                                   l4297 03CA                                     l4289 03B0  
                                   l2795 026E                                     l2787 0236  
                                   l2779 01F8                                     l2699 0012  
                                   l2875 1274                                     l2859 1220  
                                   l2883 0B0A                                     l2971 1012  
                                   l2963 0FC4                                     l2955 0F8A  
                                   l2947 0F7A                                     l2939 1722  
                                   l4387 065A                                     l4379 062A  
                                   l4299 03CC                                     l2797 0272  
                                   l2789 0240                                     l2877 1284  
                                   l2869 1248                                     l2893 0B88  
                                   l2885 0B18                                     l2981 1080  
                                   l2973 102A                                     l2965 0FDC  
                                   l2957 0F92                                     l2949 0F7E  
                                   l4645 0680                                     l2799 0280  
                                   l2895 0B90                                     l2887 0B5E  
                                   l2967 0FE6                                     l2959 0F98  
                                   l2975 1034                                     l4647 0D62  
                                   l2991 171C                                     l2897 0B9C  
                                   l2889 0B74                                     l2977 1052  
                                   l2969 1004                                     l4649 089C  
                                   l2985 16DE                                     l2899 0BCE  
                                   l2979 1070                                     l2995 0CAC  
                                   l2987 16FA                                     l2997 0CC0  
                                   l2989 1708                                     l2999 0CC4  
                                   STR_1 7FA5                                     STR_2 7D21  
                                   STR_3 7F3D                                     STR_4 7F55  
                                   STR_5 7F55                                     STR_6 7F55  
                                   STR_7 7F55                                     STR_8 7F55  
                                   STR_9 7F55                                     u1100 17DC  
                                   u1101 17D8                                     u1110 1582  
                                   u1111 157E                                     u1120 15AE  
                                   u1200 00F4                                     u1201 00F0  
                                   u1130 15D2                                     u1210 0134  
                                   u1131 15CE                                     u1211 0130  
                                   u1300 02AE                                     u1220 01AA  
                                   u1140 002C                                     u1301 02AA  
                                   u1221 01A6                                     u1141 0028  
                                   u1310 02C4                                     u1230 01CC  
                                   u1150 003E                                     u1070 17FC  
                                   u1127 15A4                                     u1311 02C0  
                                   u1231 01C8                                     u1151 003A  
                                   u1071 17F8                                     u1320 02D8  
                                   u1240 01F6                                     u1160 004E  
                                   u1400 121C                                     u1080 180C  
                                   u1321 02D4                                     u1241 01F2  
                                   u1161 004A                                     u1401 1218  
                                   u1081 1808                                     u1330 02F2  
                                   u1250 021A                                     u1170 0092  
                                   u1410 1244                                     u1090 17CC  
                                   u1331 02EE                                     u1251 0216  
                                   u1171 008E                                     u1411 1240  
                                   u1091 17C8                                     u1340 033A  
                                   u1260 0230                                     u1180 00A4  
                                   u1420 1264                                     u1500 0C42  
                                   u1341 0336                                     u1261 022C  
                                   u1181 00A0                                     u1421 1260  
                                   u1501 0C3E                                     _LATA 000F89  
                                   u1350 036A                                     u1270 024E  
                                   u1190 00B4                                     u1430 1274  
                                   u1510 0C50                                     _LATB 000F8A  
                                   u1351 0366                                     u1271 024A  
                                   u1191 00B0                                     u1431 1270  
                                   u1511 0C4C                                     _LATC 000F8B  
                                   u1360 0398                                     u1280 026E  
                                   u1520 0C8A                                     u1440 0B0A  
                                   u1600 0FC4                                     _LATD 000F8C  
                                   u1361 0394                                     u1281 026A  
                                   u1521 0C86                                     u1441 0B06  
                                   u1601 0FC0                                     _LATE 000F8D  
                                   u1290 0280                                     u1370 11A6  
                                   u1530 0C98                                     u1450 0B18  
                                   u1610 1004                                     u1291 027C  
                                   u1371 11A2                                     u1531 0C94  
                                   u1451 0B14                                     u1611 1000  
                                   u1380 11DA                                     u1460 0B74  
                                   u1620 1012                                     u1540 16A4  
                                   u1700 0DE6                                     u1461 0B70  
                                   u1621 100E                                     u1541 16A0  
                                   u1701 0DE0                                     u1390 1208  
                                   u1470 0BCA                                     u1630 1052  
                                   u1550 16D2                                     u1710 0DE8  
                                   u3230 0412                                     u1391 1204  
                                   u1471 0BC6                                     u1631 104E  
                                   u1551 16CE                                     u3231 040E  
                                   u1800 130E                                     u1480 0C14  
                                   u1640 1070                                     u1560 1752  
                                   u1720 0DFE                                     u3240 04A6  
                                   u1801 130A                                     u1385 11D0  
                                   u1481 0C10                                     u1641 106C  
                                   u1561 174C                                     u1721 0DFA  
                                   u3241 04A2                                     u1490 0C32  
                                   u1570 1754                                     u1730 0E10  
                                   u1650 16FA                                     u1810 1096  
                                   u3250 0536                                     u1491 0C2E  
                                   u1731 0E0C                                     u1651 16F6  
                                   u1811 1092                                     u3251 0532  
                                   u1580 0F72                                     u1900 1618  
                                   u1740 1786                                     u1660 1708  
                                   u1820 10B8                                     u3260 05F8  
                                   u1581 0F6E                                     u1901 1614  
                                   u1741 1782                                     u1661 1704  
                                   u1821 10B4                                     u3261 05F4  
                                   u1750 1336                                     u1590 0FB6  
                                   u1670 0CE2                                     u1910 154A  
                                   u1830 10F2                                     u1751 1332  
                                   u1591 0FB2                                     u1671 0CDE  
                                   u1911 1546                                     u1831 10EE  
                                   u1760 1366                                     u1680 0D16  
                                   u1920 096A                                     u1840 1114  
                                   u1761 1362                                     u1681 0D12  
                                   u1921 0966                                     u1841 1110  
                                   u1770 1390                                     u1690 0D32  
                                   u1930 09AE                                     u1850 113C  
                                   u1771 138C                                     u1691 0D2E  
                                   u1931 09AA                                     u1851 1138  
                                   u1780 12B4                                     u1940 09F2  
                                   u1860 116E                                     u3517 1798  
                                   u1781 12B0                                     u1941 09EE  
                                   u1861 116A                                     u1790 12E4  
                                   u1950 0E7C                                     u1870 1948  
                                   u1791 12E0                                     u1951 0E78  
                                   u1871 1944                                     u1960 0EE2  
                                   u1880 1652                                     u1961 0EDE  
                                   u1881 164E                                     u1970 0F48  
                                   u1890 168A                                     u1971 0F44  
                                   u1891 1686                                     _RCIF 007CF5  
                        __end_of_INT_isr 18B8                                     _Suma 0068  
                                   _data 0052                                     _cp_h 7D1D  
                                   _cp_l 7D19                                     _dp_h 7CAD  
                                   _dp_l 7CA5                                     _atoi 0CAC  
                                   _cont 006E                                     _main 03AC  
                                   _huge 7D05                                     fsr0h 000FEA  
                                   _tiny 7D01                                     indf0 000FEF  
                                   fsr2h 000FDA                                     fsr0l 000FE9  
                                   indf1 000FE7                                     indf2 000FDF  
                                   fsr1l 000FE1                                     fsr2l 000FD9  
                                   btemp 005F                                     prodh 000FF4  
                                   prodl 000FF3                                     start 000E  
                          __CFG_IESO$OFF 000000                          ___fldiv@new_exp 0020  
                           _PWM_OneshotX 17EE                             _PWM_OneshotY 17BE  
                          __CFG_MCLRE$ON 000000                             ___param_bank 000000  
 Serial_Escritura_Memoria@direccionFinal 000E         __end_of_Serial_RangosCoordenadas 1722  
                     EEPROM_Rx@direccion 0001                          __end_of_Oneshot 1848  
                          __CFG_PLLDIV$1 000000                 ??_Serial_Lectura_Memoria 001D  
                         __CFG_CCP2MX$ON 000000                            ___fltol@sign1 0030  
                        __end_of___aldiv 1190                                    ?_atoi 0008  
                                  ?_main 0001                          __end_of___fldiv 03AC  
                                  _EEADR 000FA9                                    STR_10 7D4B  
                                  STR_11 7F55                                    STR_20 7EEF  
                                  STR_12 7D74                                    STR_21 7F09  
                                  STR_13 7E39                                    STR_30 7FB6  
                                  STR_22 7F23                                    STR_14 7E53  
                                  STR_31 7FC4                                    STR_15 7E6D  
                                  STR_23 7D97                                    STR_32 7FD2  
                                  STR_16 7E87                                    STR_24 7DB2  
                                  STR_33 7F6C                                    STR_17 7EA1  
                                  STR_25 7DCD                                    STR_34 7F7F  
                                  STR_18 7EBB                                    STR_26 7DE8  
                                  STR_35 7F92                                    STR_19 7ED5  
                                  STR_27 7E03                                    STR_36 7FE0  
                                  STR_28 7E1E                                    STR_29 7FF9  
                                  STR_37 7FF3                                    STR_38 7FEA  
                                  STR_39 7FEA                          __end_of___fltol 1296  
                                  _CMCON 000FB4                                    _T2CON 000FCA  
                                  i2l601 1846                                    i2l597 18B4  
                                  _RCREG 000FAE                                    _SPBRG 000FAF  
                                  _PORTA 000F80                                    _PORTB 000F81  
                                  _PORTC 000F82                                    _PORTD 000F83  
                                  _PORTE 000F84                            __CFG_USBDIV$1 000000  
                                  _TRISD 000F95                                    _TXREG 000FAD  
                          __CFG_PWRT$OFF 000000                            __CFG_WRT0$OFF 000000  
                          __CFG_WRT1$OFF 000000                            __CFG_WRT2$OFF 000000  
                          __CFG_WRT3$OFF 000000                           __CFG_EBTR0$OFF 000000  
                         __CFG_FCMEN$OFF 000000                           __CFG_EBTR1$OFF 000000  
                         __CFG_EBTR2$OFF 000000                           __CFG_EBTR3$OFF 000000  
                          __CFG_WRTB$OFF 000000                            __CFG_WRTC$OFF 000000  
                          __CFG_WRTD$OFF 000000                                    _lg2_h 7CCD  
                                  _lg2_l 7CC9                           __CFG_EBTRB$OFF 000000  
                                  _errno 006C                                    _ivln2 7CBD  
                        __end_of_isdigit 175A                          __end_of_ivln2_h 7D19  
                        __end_of_ivln2_l 7CBD                                    _two24 7D09  
                                  atoi@n 0015                                    atoi@s 0008  
                        __end_of_isspace 16DE                                    tablat 000FF5  
                           USART_TxS@str 0001                       __size_of_USART_RxC 0012  
                     __size_of_USART_RxS 0056                       __size_of_USART_TxS 006C  
                                  ttemp5 0060                                    ttemp6 0063  
                                  ttemp7 0067                                    status 000FD8  
                                  wtemp8 0060                           __CFG_ICPRT$OFF 000000  
                     __size_of_PWM_InitF 0020                       __size_of_PWM_InitS 001E  
               __end_of_Motor_Conversion 148A                              ?_USART_Init 000F  
                        __initialization 1848                   ?_Motor_Calcular_PasosX 0001  
                 ?_Motor_Calcular_PasosY 0001               __end_of_PWM_GeneratePulsos 1084  
      Serial_DecodificacionX@coordenadaX 001B                        __end_of_EEPROM_Rx 193A  
                      __end_of_EEPROM_Tx 178C                             __end_of_cp_h 7D21  
                           __end_of_cp_l 7D1D                             __end_of_dp_h 7CB5  
                           __end_of_dp_l 7CAD                             __end_of_atoi 0E36  
                           __end_of_main 06C2                             __end_of_huge 7D09  
                           __end_of_tiny 7D05                       EEPROM_Tx@direccion 0002  
                      ?_Actuator_Retract 0001                                   ??_atoi 000A  
                                 ??_main 003D                       ??_Actuator_Retract 0009  
                          __activetblptr 000002                                ??_INT_isr 0001  
         ??_Seria_Decodificacion_Memoria 0009                                   _ADCON1 000FC1  
                                 _ADRESH 000FC4                                   _ADRESL 000FC3  
                                 _EEDATA 000FA8                                   _CCPR1L 000FBE  
                                 _CCPR2L 000FBB                                   _EECON2 000FA7  
                                 i2l3441 181E                                   i2l3443 182C  
                                 i2l3445 183C                                   i2l3447 1842  
                                 i2l4441 18A6                                   i2l4443 18AA  
                                 i2l4445 18AC                                   i2l4447 18B0  
                                 i2l4439 1896                                   i2l4449 18B2  
                                 _OSCCON 000FD3                         __end_of___xxtofl 0CAC  
                                 _DeltaX 0047                                   _DeltaY 0045  
                         __CFG_XINST$OFF 000000                                   _PasosX 004B  
                                 _PasosY 0049                                ??_Oneshot 0001  
      Serial_DecodificacionY@coordenadaY 001D                                ??___aldiv 0009  
                                 ___wmul 186E                                ??___fldiv 0017  
                         __CFG_STVREN$ON 000000                                ??___fltol 002C  
                                 clear_0 184E                                   clear_1 185A  
               __end_of_Motor_Movimiento 1418                              _CoordenadaX 005D  
                            _CoordenadaY 005B                              _CoordenadaZ 0059  
                       _coordenada_array 0081          __size_of_Serial_Lectura_Memoria 01D2  
                      __end_of_USART_RxC 194C                        __end_of_USART_RxS 168C  
                      __end_of_USART_TxS 15D4                 _Serial_RangosCoordenadas 16DE  
                      __end_of_PWM_InitF 18D8                        __end_of_PWM_InitS 18F6  
                              ??_isdigit 0003                             __mediumconst 7CA4  
                              ??_isspace 0003                                   tblptrh 000FF7  
                                 tblptrl 000FF6                                   tblptru 000FF8  
                    __size_of_USART_Init 0070                             ___xxtofl@arg 000B  
                           ___xxtofl@exp 000A                             ___xxtofl@val 0001  
                             __accesstop 0060                  __end_of__initialization 1860  
                        __CFG_PBADEN$OFF 000000               Motor_Conversion@conversion 0034  
                          ___rparam_used 000001                  Serial_DecodificacionX@i 001E  
                Serial_DecodificacionY@i 0020                               ___fltol@f1 0028  
                         __pcstackCOMRAM 0001                            __end_of_lg2_h 7CD1  
                          __end_of_lg2_l 7CCD                            __end_of_ivln2 7CC1  
                          __end_of_two24 7D0D                               __end_of_L1 7D01  
                             __end_of_L2 7CFD                               __end_of_L3 7CF9  
                             __end_of_L4 7CF5                               __end_of_L5 7CF1  
                             __end_of_L6 7CED                               __end_of_P1 7CE9  
                             __end_of_P2 7CE5                               __end_of_P3 7CE1  
                             __end_of_P4 7CDD                               __end_of_P5 7CD9  
                             __end_of_bp 7D15                               __end_of_cp 7CC5  
        Serial_DecodificacionX@pointerCX 0019                         ??_Actuator_Touch 0009  
        Serial_DecodificacionY@pointerCY 0019        Motor_Movimiento@Motor_CoordenadaX 0038  
      Motor_Movimiento@Motor_CoordenadaY 003A                               __pbssBANK0 0060  
                 _Serial_Lectura_Memoria 0926  Motor_Calcular_PasosY@coordenada_actualY 0001  
         Serial_Escritura_Memoria@i_1161 0013           Serial_Escritura_Memoria@i_1159 0011  
                                ?___wmul 0001                                  _CCP1CON 000FBD  
                                _CCP2CON 000FBA                               _bites_masS 0055  
                 __size_of_Actuator_Hold 0018        Serial_Escritura_Memoria@direccion 000D  
                              ?___xxtofl 0001                                  _INT_isr 0008  
                        __CFG_VREGEN$OFF 000000        __size_of_Serial_Escritura_Memoria 0128  
              ?_Serial_Escritura_Memoria 0009                  ??_Motor_Calcular_PasosX 0003  
                ??_Motor_Calcular_PasosY 0003                                  _Lectura 004F  
                           _bites_menosS 0056                             ??_USART_Init 0013  
                      ?_Motor_Conversion 0032                                  __Hparam 0000  
                                __Lparam 0000                                  _Oneshot 181E  
                     ??_Motor_Conversion 0034                                  ___aldiv 1084  
                                ___fldiv 0012                                  ___fltol 1190  
                        __size_of___wmul 0026                                _EEPROM_Rx 1926  
                              _EEPROM_Tx 175A                           USART_Init@BAUD 000F  
                                __pcinit 1848                                  __ramtop 0800  
                                __ptext0 03AC                                  __ptext1 1636  
                                __ptext2 193A                                  __ptext3 148A  
                                __ptext4 1084                                  __ptext5 0926  
                                __ptext6 16DE                                  __ptext7 1926  
                                __ptext8 0E36                                  __ptext9 175A  
  Seria_Decodificacion_Memoria@direccion 000B                                _T2CONbits 000FCA  
                     _PWM_GeneratePulsos 0F5E                                  _isdigit 1722  
                                _ivln2_h 7D15                                  _ivln2_l 7CB9  
                             ??___xxtofl 0005                             _CoordenadaXX 0072  
                           _CoordenadaYY 0070                         ___aldiv@dividend 0001  
                                _isspace 168C                                  _oneshot 0051  
                                atoi@neg 000E                       __end_of_USART_Init 14FA  
               ??_Serial_DecodificacionX 001B                 ??_Serial_DecodificacionY 001B  
                         __pintcode_body 1894                      ?_PWM_GeneratePulsos 0003  
              __size_of_Actuator_Retract 0018                     end_of_initialization 1860  
                          __Lmediumconst 7CA4                                  int_func 1894  
                          _Actuator_Hold 190E                        _pasos_convertidos 004D  
                   _coordenada_anteriorX 0043                     _coordenada_anteriorY 0041  
             ??_Serial_RangosCoordenadas 000B                                _RCSTAbits 000FAB  
                       ___aldiv@quotient 000B                                  postdec2 000FDD  
                                postinc0 000FEE                                  postinc2 000FDE  
                   ??_PWM_GeneratePulsos 0007                  Motor_Movimiento@Oupcode 003C  
                             ?_EEPROM_Rx 0001                               ?_EEPROM_Tx 0001  
                      ?_Motor_Movimiento 0038                                _PORTBbits 000F81  
                              _PORTCbits 000F82                                _PORTDbits 000F83  
                     ??_Motor_Movimiento 003C                            ___xxtofl@sign 0009  
                              _USART_RxC 193A                                _TRISAbits 000F92  
                              _USART_RxS 1636                                _USART_TxS 1568  
                              _TRISBbits 000F93                                _TRISCbits 000F94  
                              _TRISDbits 000F95                                _TRISEbits 000F96  
                            ___fldiv@grs 0022                              ___fldiv@rem 001B  
                          EEPROM_Tx@dato 0001                                _PWM_InitF 18B8  
                              _PWM_InitS 18D8                           ?_Actuator_Hold 0001  
                              _TXSTAbits 000FAC                           __end_of___wmul 1894  
                              _Distancia 0064                      start_initialization 1848  
                             ?_USART_RxC 0001                               ?_USART_RxS 0001  
                             ?_USART_TxS 0001                              __end_of_lg2 7CD5  
                      _Direccion_Memoria 0054                              __end_of_ovt 7CC9  
                ?_Serial_Lectura_Memoria 0017                               ?_PWM_InitF 0001  
                             ?_PWM_InitS 0001          __size_of_Serial_DecodificacionX 0062  
        __size_of_Serial_DecodificacionY 006E  Serial_DecodificacionX@string_coordenada 0017  
                          ?_PWM_OneshotX 0001                            ?_PWM_OneshotY 0001  
                               ??___wmul 0005                         __CFG_LPT1OSC$OFF 000000  
                            ??_EEPROM_Rx 0001                              ??_EEPROM_Tx 0002  
Serial_Escritura_Memoria@string_setpoint 0009                                ___fldiv@a 0013  
                              ___fldiv@b 000F         __end_of_Serial_Escritura_Memoria 0F5E  
                            __pbssCOMRAM 0041           __end_of_Serial_Lectura_Memoria 0AF8  
                               ?_INT_isr 0001                        __end_ofsqrtf@tiny 7CB9  
                      __size_of___xxtofl 01B4                       PWM_OneshotX@countX 0001  
                       _Actuator_Retract 18F6                          ??_Actuator_Hold 0009  
                     PWM_OneshotY@countY 0001                                _atoi$2306 0010  
                              _atoi$2307 0014                                _atoi$2308 0012  
                         ??_PWM_OneshotX 0003                           ??_PWM_OneshotY 0003  
Motor_Calcular_PasosX@coordenada_actualX 0001           __size_of_Motor_Calcular_PasosX 0082  
         __size_of_Motor_Calcular_PasosY 0082            __end_of_Motor_Calcular_PasosX 139A  
          __end_of_Motor_Calcular_PasosY 1318                                 ?_Oneshot 0001  
                              __pintcode 0008                            __pmediumconst 7CA4  
                               ?___aldiv 0001                                 ?___fldiv 000F  
                 _Serial_DecodificacionX 15D4                   _Serial_DecodificacionY 14FA  
                               ?___fltol 0028          Serial_Lectura_Memoria@direccion 0029  
                              fabsf@F463 0060                __size_of_Motor_Conversion 0072  
                               ?_isdigit 0001                                 ?_isspace 0001  
                            ??_USART_RxC 0001                              ??_USART_RxS 0003  
                            ??_USART_TxS 0005             Serial_Lectura_Memoria@i_1147 002C  
           Serial_Lectura_Memoria@i_1148 002E                              ??_PWM_InitF 0001  
                            ??_PWM_InitS 0001                  __size_of_Actuator_Touch 0032  
               PWM_GeneratePulsos@countX 0009                 PWM_GeneratePulsos@countY 000B  
                        ___aldiv@divisor 0005                          ___aldiv@counter 0009  
              Serial_RangosCoordenadas@C 0009                           ___wmul@product 0005  
                               _LATCbits 000F8B                                 _LATDbits 000F8C  
                               i2u329_40 18A6                                 i2u329_41 18A2  
                               _PIR1bits 000F9E                                 _PIR2bits 000FA1  
                               i2u198_40 182C                                 i2u198_41 1828  
                               i2u199_40 183C                                 i2u199_41 1838  
                               _RCONbits 000FD0                         __CFG_WDTPS$32768 000000  
        Serial_Lectura_Memoria@pointerCX 0017          Serial_Lectura_Memoria@pointerCY 0019  
        Serial_Lectura_Memoria@pointerCZ 001B                               _ADCON0bits 000FC2  
                             _ADCON1bits 000FC1                               _ADCON2bits 000FC0  
                      ___wmul@multiplier 0001                      _coordenada_setpoint 0076  
                           _isspace$2324 0007                         __size_of_INT_isr 18B0  
                            _INTCON2bits 000FF1                              _INTCON3bits 000FF0  
               _Serial_Escritura_Memoria 0E36                               USART_RxS@i 0007  
                             USART_TxS@i 0007                __size_of_Motor_Movimiento 007E  
                      _Coordenadas_fuera 0053                         USART_RxS@pointer 0001  
                             _EECON1bits 000FA6                                 __Hrparam 0000  
                               __Lrparam 0000                         __size_of_Oneshot 002A  
            __size_of_PWM_GeneratePulsos 0126                         __size_of___aldiv 010C  
                       __size_of___fldiv 039A                         __size_of___fltol 0106  
                Serial_Lectura_Memoria@i 002A                    __CFG_FOSC$INTOSCIO_EC 000000  
                   __end_of_PWM_OneshotX 181E                     __end_of_PWM_OneshotY 17EE  
                               ___xxtofl 0AF8        __size_of_Serial_RangosCoordenadas 0044  
                       __size_of_isdigit 0038                ?_Serial_RangosCoordenadas 0009  
                       __size_of_isspace 0052                                 __ptext10 14FA  
                               __ptext11 15D4                                 __ptext20 17EE  
                               __ptext12 0CAC                                 __ptext21 18D8  
                               __ptext13 168C                                 __ptext30 18F6  
                               __ptext22 18B8                                 __ptext14 1722  
                               __ptext31 190E                                 __ptext23 1418  
                               __ptext15 186E                                 __ptext32 1568  
                               __ptext24 0AF8                                 __ptext16 06C2  
                               __ptext25 1190                                 __ptext17 139A  
                               __ptext34 181E                                 __ptext26 0012  
                               __ptext18 0F5E                                 __ptext27 1296  
                               __ptext19 17BE                                 __ptext28 1318  
                               __ptext29 178C                            __size_of_atoi 018A  
                          __size_of_main 0316                          _USART_Init$2709 0013  
                               _oneshotX 0058                                 _oneshotY 0057  
                               int$flags 005F                 __end_of_Actuator_Retract 190E  
                main@instruction_counter 003F                          USART_RxS@length 0006  
                  __CFG_CPUDIV$OSC1_PLL2 000000                         _Motor_Conversion 1418  
                             _INTCONbits 000FF2                                 isdigit@c 0001  
                        USART_TxS@length 0003                                 intlevel2 0000  
                         _Actuator_Touch 178C  Serial_DecodificacionY@string_coordenada 0017  
                              sqrtf@tiny 7CB5                                 isspace@c 0001  
                ?_Serial_DecodificacionX 0017                  ?_Serial_DecodificacionY 0017  
              Serial_Escritura_Memoria@i 000F        Serial_Lectura_Memoria@coordenadaX 0026  
      Serial_Lectura_Memoria@coordenadaY 001D        Serial_Lectura_Memoria@coordenadaZ 0020  
       Serial_Lectura_Memoria@direccionX 0023         Serial_Lectura_Memoria@direccionY 0024  
       Serial_Lectura_Memoria@direccionZ 0025     __end_of_Seria_Decodificacion_Memoria 0926  
  __size_of_Seria_Decodificacion_Memoria 0264             _Seria_Decodificacion_Memoria 06C2  
                           ___aldiv@sign 000A                   __end_of_Actuator_Touch 17BE  
             Motor_Conversion@Coordenada 0032                         _Motor_Movimiento 139A  
                  __end_of_Actuator_Hold 1926           __end_of_Serial_DecodificacionX 1636  
         __end_of_Serial_DecodificacionY 1568                               _USART_Init 148A  
