

Microchip MPLAB XC8 Assembler V2.10 build 88905656 
                                                                                               Sun Nov 24 17:53:11 2019

Microchip MPLAB XC8 C Compiler v2.10 (Free license) build 20190730164152 Og1 
     1                           	processor	18F4550
     2                           	fnconf	rparam,??,?,0
     3                           	opt	pw 120
     4                           	opt	flic
     5                           	psect	cinit,global,reloc=2,class=CODE,delta=1
     6                           	psect	bssCOMRAM,global,class=COMRAM,space=1,delta=1,noexec
     7                           	psect	bssBANK0,global,class=BANK0,space=1,delta=1,lowdata,noexec
     8                           	psect	cstackCOMRAM,global,class=COMRAM,space=1,delta=1,noexec
     9                           	psect	text0,global,reloc=2,class=CODE,delta=1
    10                           	psect	text1,global,reloc=2,class=CODE,delta=1
    11                           	psect	text2,global,reloc=2,class=CODE,delta=1
    12                           	psect	text3,global,reloc=2,class=CODE,delta=1
    13                           	psect	text4,global,reloc=2,class=CODE,delta=1,group=1
    14                           	psect	text5,global,reloc=2,class=CODE,delta=1
    15                           	psect	text6,global,reloc=2,class=CODE,delta=1
    16                           	psect	text7,global,reloc=2,class=CODE,delta=1
    17                           	psect	text8,global,reloc=2,class=CODE,delta=1
    18                           	psect	text9,global,reloc=2,class=CODE,delta=1
    19                           	psect	text10,global,reloc=2,class=CODE,delta=1
    20                           	psect	text11,global,reloc=2,class=CODE,delta=1,group=2
    21                           	psect	text12,global,reloc=2,class=CODE,delta=1,group=2
    22                           	psect	text13,global,reloc=2,class=CODE,delta=1,group=2
    23                           	psect	text14,global,reloc=2,class=CODE,delta=1,group=1
    24                           	psect	text15,global,reloc=2,class=CODE,delta=1
    25                           	psect	text16,global,reloc=2,class=CODE,delta=1
    26                           	psect	text17,global,reloc=2,class=CODE,delta=1
    27                           	psect	text18,global,reloc=2,class=CODE,delta=1
    28                           	psect	text19,global,reloc=2,class=CODE,delta=1
    29                           	psect	text20,global,reloc=2,class=CODE,delta=1
    30                           	psect	text21,global,reloc=2,class=CODE,delta=1
    31                           	psect	text22,global,reloc=2,class=CODE,delta=1
    32                           	psect	text23,global,reloc=2,class=CODE,delta=1
    33                           	psect	text24,global,reloc=2,class=CODE,delta=1,group=1
    34                           	psect	text25,global,reloc=2,class=CODE,delta=1,group=1
    35                           	psect	text26,global,reloc=2,class=CODE,delta=1,group=1
    36                           	psect	text27,global,reloc=2,class=CODE,delta=1
    37                           	psect	text28,global,reloc=2,class=CODE,delta=1
    38                           	psect	text29,global,reloc=2,class=CODE,delta=1
    39                           	psect	text30,global,reloc=2,class=CODE,delta=1
    40                           	psect	text31,global,reloc=2,class=CODE,delta=1
    41                           	psect	intsave_regs,global,class=BIGRAM,space=1,delta=1,noexec
    42                           	psect	rparam,global,class=COMRAM,space=1,delta=1,noexec
    43  0000                     
    44                           ; Version 2.10
    45                           ; Generated 31/07/2019 GMT
    46                           ; 
    47                           ; Copyright © 2019, Microchip Technology Inc. and its subsidiaries ("Microchip")
    48                           ; All rights reserved.
    49                           ; 
    50                           ; This software is developed by Microchip Technology Inc. and its subsidiaries ("Microch
      +                          ip").
    51                           ; 
    52                           ; Redistribution and use in source and binary forms, with or without modification, are
    53                           ; permitted provided that the following conditions are met:
    54                           ; 
    55                           ;     1. Redistributions of source code must retain the above copyright notice, this lis
      +                          t of
    56                           ;        conditions and the following disclaimer.
    57                           ; 
    58                           ;     2. Redistributions in binary form must reproduce the above copyright notice, this 
      +                          list
    59                           ;        of conditions and the following disclaimer in the documentation and/or other
    60                           ;        materials provided with the distribution.
    61                           ; 
    62                           ;     3. Microchip's name may not be used to endorse or promote products derived from th
      +                          is
    63                           ;        software without specific prior written permission.
    64                           ; 
    65                           ; THIS SOFTWARE IS PROVIDED BY MICROCHIP "AS IS" AND ANY EXPRESS OR IMPLIED WARRANTIES,
    66                           ; INCLUDING, BUT NOT LIMITED TO, THE IMPLIED WARRANTIES OF MERCHANTABILITY AND FITNESS F
      +                          OR
    67                           ; PURPOSE ARE DISCLAIMED.  IN NO EVENT SHALL MICROCHIP BE LIABLE FOR ANY DIRECT, INDIREC
      +                          T,
    68                           ; INCIDENTAL, SPECIAL, EXEMPLARY, OR CONSEQUENTIAL DAMAGES (INCLUDING BUT NOT LIMITED TO
    69                           ; PROCUREMENT OF SUBSTITUTE GOODS OR SERVICES; LOSS OF USE, DATA OR PROFITS; OR BUSINESS
    70                           ; INTERRUPTION) HOWSOEVER CAUSED AND ON ANY THEORY OF LIABILITY, WHETHER IN CONTRACT, ST
      +                          RICT
    71                           ; LIABILITY, OR TORT (INCLUDING NEGLIGENCE OR OTHERWISE) ARISING IN ANY WAY OUT OF THE U
      +                          SE OF
    72                           ; THIS SOFTWARE, EVEN IF ADVISED OF THE POSSIBILITY OF SUCH DAMAGE.
    73                           ; 
    74                           ; 
    75                           ; Code-generator required, PIC18F4550 Definitions
    76                           ; 
    77                           ; SFR Addresses
    78  0000                     _EECON2	set	4007
    79  0000                     _INTCONbits	set	4082
    80  0000                     _EEDATA	set	4008
    81  0000                     _EEADR	set	4009
    82  0000                     _EECON1bits	set	4006
    83  0000                     _LATCbits	set	3979
    84  0000                     _LATDbits	set	3980
    85  0000                     _PORTDbits	set	3971
    86  0000                     _ADCON0bits	set	4034
    87  0000                     _ADCON2bits	set	4032
    88  0000                     _ADCON0	set	4034
    89  0000                     _ADCON1bits	set	4033
    90  0000                     _TRISAbits	set	3986
    91  0000                     _TRISDbits	set	3989
    92  0000                     _LATD	set	3980
    93  0000                     _PORTD	set	3971
    94  0000                     _LATC	set	3979
    95  0000                     _PORTC	set	3970
    96  0000                     _TRISBbits	set	3987
    97  0000                     _ADCON1	set	4033
    98  0000                     _LATB	set	3978
    99  0000                     _PORTB	set	3969
   100  0000                     _RCREG	set	4014
   101  0000                     _TXREG	set	4013
   102  0000                     _PIR1bits	set	3998
   103  0000                     _RCSTAbits	set	4011
   104  0000                     _TXSTAbits	set	4012
   105  0000                     _SPBRG	set	4015
   106  0000                     _OSCCON	set	4051
   107  0000                     _CCP2CON	set	4026
   108  0000                     _CCP1CON	set	4029
   109  0000                     _T2CON	set	4042
   110  0000                     _TRISCbits	set	3988
   111  0000                     _CCPR2L	set	4027
   112  0000                     _CCPR1L	set	4030
   113  0000                     _PR2	set	4043
   114  0000                     _T2CONbits	set	4042
   115  0000                     _PORTCbits	set	3970
   116  0000                     _RCIF	set	31989
   117                           
   118                           ; #config settings
   119  0000                     
   120                           	psect	cinit
   121  006CC6                     __pcinit:
   122                           	opt callstack 0
   123  006CC6                     start_initialization:
   124                           	opt callstack 0
   125  006CC6                     __initialization:
   126                           	opt callstack 0
   127                           
   128                           ; Clear objects allocated to BANK0 (11 bytes)
   129  006CC6  EE00  F060         	lfsr	0,__pbssBANK0
   130  006CCA  0E0B               	movlw	11
   131  006CCC                     clear_0:
   132  006CCC  6AEE               	clrf	postinc0,c
   133  006CCE  06E8               	decf	wreg,f,c
   134  006CD0  E1FD               	bnz	clear_0
   135                           
   136                           ; Clear objects allocated to COMRAM (27 bytes)
   137  006CD2  EE00  F040         	lfsr	0,__pbssCOMRAM
   138  006CD6  0E1B               	movlw	27
   139  006CD8                     clear_1:
   140  006CD8  6AEE               	clrf	postinc0,c
   141  006CDA  06E8               	decf	wreg,f,c
   142  006CDC  E1FD               	bnz	clear_1
   143  006CDE                     end_of_initialization:
   144                           	opt callstack 0
   145  006CDE                     __end_of__initialization:
   146                           	opt callstack 0
   147  006CDE  0E00               	movlw	low (__Lmediumconst shr (0+16))
   148  006CE0  6EF8               	movwf	tblptru,c
   149  006CE2  0100               	movlb	0
   150  006CE4  EF89  F03C         	goto	_main	;jump to C main() function
   151                           
   152                           	psect	bssCOMRAM
   153  000040                     __pbssCOMRAM:
   154                           	opt callstack 0
   155  000040                     _pulsY:
   156                           	opt callstack 0
   157  000040                     	ds	2
   158  000042                     _pulsX:
   159                           	opt callstack 0
   160  000042                     	ds	2
   161  000044                     _pasosY:
   162                           	opt callstack 0
   163  000044                     	ds	2
   164  000046                     _pasosX:
   165                           	opt callstack 0
   166  000046                     	ds	2
   167  000048                     _pasos_convertidos:
   168                           	opt callstack 0
   169  000048                     	ds	2
   170  00004A                     _data:
   171                           	opt callstack 0
   172  00004A                     	ds	1
   173  00004B                     _Direccion_Memoria:
   174                           	opt callstack 0
   175  00004B                     	ds	1
   176  00004C                     _oneshotY:
   177                           	opt callstack 0
   178  00004C                     	ds	1
   179  00004D                     _oneshotX:
   180                           	opt callstack 0
   181  00004D                     	ds	1
   182  00004E                     _coordenada_array:
   183                           	opt callstack 0
   184  00004E                     	ds	7
   185  000055                     _CZ:
   186                           	opt callstack 0
   187  000055                     	ds	2
   188  000057                     _CY:
   189                           	opt callstack 0
   190  000057                     	ds	2
   191  000059                     _CX:
   192                           	opt callstack 0
   193  000059                     	ds	2
   194                           
   195                           	psect	bssBANK0
   196  000060                     __pbssBANK0:
   197                           	opt callstack 0
   198  000060                     _coordenada_setpoint:
   199                           	opt callstack 0
   200  000060                     	ds	11
   201                           
   202                           	psect	cstackCOMRAM
   203  000001                     __pcstackCOMRAM:
   204                           	opt callstack 0
   205  000001                     ??_Actuator_Touch:
   206  000001                     ??_Seria_Decodificacion_Memoria:
   207  000001                     ?_PWM_OneshotX:
   208                           	opt callstack 0
   209  000001                     ?_PWM_OneshotY:
   210                           	opt callstack 0
   211  000001                     ?_Motor_Calcular_PasosX:
   212                           	opt callstack 0
   213  000001                     ?_Motor_Calcular_PasosY:
   214                           	opt callstack 0
   215  000001                     ?_isspace:
   216                           	opt callstack 0
   217  000001                     ?_isdigit:
   218                           	opt callstack 0
   219  000001                     ?___wmul:
   220                           	opt callstack 0
   221  000001                     ?___aldiv:
   222                           	opt callstack 0
   223  000001                     ?___xxtofl:
   224                           	opt callstack 0
   225  000001                     USART_Tx@data:
   226                           	opt callstack 0
   227  000001                     EEPROM_Rx@direccion:
   228                           	opt callstack 0
   229  000001                     EEPROM_Tx@dato:
   230                           	opt callstack 0
   231  000001                     PWM_OneshotX@countX:
   232                           	opt callstack 0
   233  000001                     PWM_OneshotY@countY:
   234                           	opt callstack 0
   235  000001                     USART_RxS@pointer:
   236                           	opt callstack 0
   237  000001                     Motor_Calcular_PasosX@pasos_converX:
   238                           	opt callstack 0
   239  000001                     Motor_Calcular_PasosY@pasos_converY:
   240                           	opt callstack 0
   241  000001                     ___wmul@multiplier:
   242                           	opt callstack 0
   243  000001                     isdigit@c:
   244                           	opt callstack 0
   245  000001                     isspace@c:
   246                           	opt callstack 0
   247  000001                     ___aldiv@dividend:
   248                           	opt callstack 0
   249  000001                     ___xxtofl@val:
   250                           	opt callstack 0
   251                           
   252                           ; 4 bytes @ 0x0
   253  000001                     	ds	1
   254  000002                     EEPROM_Tx@direccion:
   255                           	opt callstack 0
   256                           
   257                           ; 1 bytes @ 0x1
   258  000002                     	ds	1
   259  000003                     ??_Motor_Calcular_PasosX:
   260  000003                     ??_Motor_Calcular_PasosY:
   261  000003                     ??_isspace:
   262  000003                     ??_isdigit:
   263  000003                     ??_USART_RxS:
   264  000003                     Seria_Decodificacion_Memoria@direccion:
   265                           	opt callstack 0
   266  000003                     PWM_GeneratePulsos@pulsosX:
   267                           	opt callstack 0
   268  000003                     Serial_Escritura_Memoria@string_setpoint:
   269                           	opt callstack 0
   270  000003                     ___wmul@multiplicand:
   271                           	opt callstack 0
   272                           
   273                           ; 2 bytes @ 0x2
   274  000003                     	ds	2
   275  000005                     ??_Serial_Escritura_Memoria:
   276  000005                     ??___xxtofl:
   277  000005                     PWM_GeneratePulsos@pulsosY:
   278                           	opt callstack 0
   279  000005                     ___wmul@product:
   280                           	opt callstack 0
   281  000005                     ___aldiv@divisor:
   282                           	opt callstack 0
   283                           
   284                           ; 4 bytes @ 0x4
   285  000005                     	ds	1
   286  000006                     USART_RxS@lenght:
   287                           	opt callstack 0
   288                           
   289                           ; 1 bytes @ 0x5
   290  000006                     	ds	1
   291  000007                     ??_PWM_GeneratePulsos:
   292  000007                     Serial_Escritura_Memoria@direccion:
   293                           	opt callstack 0
   294  000007                     _isspace$1671:
   295                           	opt callstack 0
   296  000007                     USART_RxS@i:
   297                           	opt callstack 0
   298                           
   299                           ; 2 bytes @ 0x6
   300  000007                     	ds	1
   301  000008                     ?_atoi:
   302                           	opt callstack 0
   303  000008                     PWM_GeneratePulsos@Oupcode:
   304                           	opt callstack 0
   305  000008                     Serial_Escritura_Memoria@direccionFinal:
   306                           	opt callstack 0
   307  000008                     atoi@s:
   308                           	opt callstack 0
   309                           
   310                           ; 2 bytes @ 0x7
   311  000008                     	ds	1
   312  000009                     ___aldiv@counter:
   313                           	opt callstack 0
   314  000009                     ___xxtofl@sign:
   315                           	opt callstack 0
   316  000009                     PWM_GeneratePulsos@countX:
   317                           	opt callstack 0
   318  000009                     Serial_Escritura_Memoria@i:
   319                           	opt callstack 0
   320                           
   321                           ; 2 bytes @ 0x8
   322  000009                     	ds	1
   323  00000A                     ??_atoi:
   324  00000A                     ___aldiv@sign:
   325                           	opt callstack 0
   326  00000A                     ___xxtofl@exp:
   327                           	opt callstack 0
   328                           
   329                           ; 1 bytes @ 0x9
   330  00000A                     	ds	1
   331  00000B                     PWM_GeneratePulsos@countY:
   332                           	opt callstack 0
   333  00000B                     Serial_Escritura_Memoria@i_870:
   334                           	opt callstack 0
   335  00000B                     ___aldiv@quotient:
   336                           	opt callstack 0
   337  00000B                     ___xxtofl@arg:
   338                           	opt callstack 0
   339                           
   340                           ; 4 bytes @ 0xA
   341  00000B                     	ds	2
   342  00000D                     Serial_Escritura_Memoria@i_871:
   343                           	opt callstack 0
   344                           
   345                           ; 2 bytes @ 0xC
   346  00000D                     	ds	1
   347  00000E                     atoi@neg:
   348                           	opt callstack 0
   349                           
   350                           ; 2 bytes @ 0xD
   351  00000E                     	ds	1
   352  00000F                     ?___fldiv:
   353                           	opt callstack 0
   354  00000F                     USART_Init@BAUD:
   355                           	opt callstack 0
   356  00000F                     ___fldiv@b:
   357                           	opt callstack 0
   358                           
   359                           ; 4 bytes @ 0xE
   360  00000F                     	ds	1
   361  000010                     _atoi$1653:
   362                           	opt callstack 0
   363                           
   364                           ; 2 bytes @ 0xF
   365  000010                     	ds	2
   366  000012                     _atoi$1655:
   367                           	opt callstack 0
   368                           
   369                           ; 2 bytes @ 0x11
   370  000012                     	ds	1
   371  000013                     ___fldiv@a:
   372                           	opt callstack 0
   373  000013                     _USART_Init$1901:
   374                           	opt callstack 0
   375                           
   376                           ; 4 bytes @ 0x12
   377  000013                     	ds	1
   378  000014                     _atoi$1654:
   379                           	opt callstack 0
   380                           
   381                           ; 1 bytes @ 0x13
   382  000014                     	ds	1
   383  000015                     atoi@n:
   384                           	opt callstack 0
   385                           
   386                           ; 2 bytes @ 0x14
   387  000015                     	ds	2
   388  000017                     ??___fldiv:
   389  000017                     Serial_DecodificacionX@string_coordenada:
   390                           	opt callstack 0
   391  000017                     Serial_DecodificacionY@string_coordenada:
   392                           	opt callstack 0
   393  000017                     Serial_Lectura_Memoria@pointerCX:
   394                           	opt callstack 0
   395                           
   396                           ; 2 bytes @ 0x16
   397  000017                     	ds	2
   398  000019                     Serial_DecodificacionX@pointerCX:
   399                           	opt callstack 0
   400  000019                     Serial_DecodificacionY@pointerCY:
   401                           	opt callstack 0
   402  000019                     Serial_Lectura_Memoria@pointerCY:
   403                           	opt callstack 0
   404                           
   405                           ; 2 bytes @ 0x18
   406  000019                     	ds	2
   407  00001B                     ??_Serial_DecodificacionY:
   408  00001B                     Serial_Lectura_Memoria@pointerCZ:
   409                           	opt callstack 0
   410  00001B                     Serial_DecodificacionX@coordenadaX:
   411                           	opt callstack 0
   412  00001B                     ___fldiv@rem:
   413                           	opt callstack 0
   414                           
   415                           ; 4 bytes @ 0x1A
   416  00001B                     	ds	2
   417  00001D                     Serial_DecodificacionY@coordenadaY:
   418                           	opt callstack 0
   419  00001D                     Serial_Lectura_Memoria@coordenadaX:
   420                           	opt callstack 0
   421                           
   422                           ; 3 bytes @ 0x1C
   423  00001D                     	ds	1
   424  00001E                     Serial_DecodificacionX@i:
   425                           	opt callstack 0
   426                           
   427                           ; 2 bytes @ 0x1D
   428  00001E                     	ds	1
   429  00001F                     ___fldiv@sign:
   430                           	opt callstack 0
   431                           
   432                           ; 1 bytes @ 0x1E
   433  00001F                     	ds	1
   434  000020                     Serial_DecodificacionY@i:
   435                           	opt callstack 0
   436  000020                     ___fldiv@new_exp:
   437                           	opt callstack 0
   438  000020                     Serial_Lectura_Memoria@coordenadaY:
   439                           	opt callstack 0
   440                           
   441                           ; 3 bytes @ 0x1F
   442  000020                     	ds	2
   443  000022                     ___fldiv@grs:
   444                           	opt callstack 0
   445                           
   446                           ; 4 bytes @ 0x21
   447  000022                     	ds	1
   448  000023                     Serial_Lectura_Memoria@coordenadaZ:
   449                           	opt callstack 0
   450                           
   451                           ; 3 bytes @ 0x22
   452  000023                     	ds	3
   453  000026                     Serial_Lectura_Memoria@direccionX:
   454                           	opt callstack 0
   455  000026                     ___fldiv@bexp:
   456                           	opt callstack 0
   457                           
   458                           ; 1 bytes @ 0x25
   459  000026                     	ds	1
   460  000027                     Serial_Lectura_Memoria@direccionY:
   461                           	opt callstack 0
   462  000027                     ___fldiv@aexp:
   463                           	opt callstack 0
   464                           
   465                           ; 1 bytes @ 0x26
   466  000027                     	ds	1
   467  000028                     ?___fltol:
   468                           	opt callstack 0
   469  000028                     Serial_Lectura_Memoria@direccionZ:
   470                           	opt callstack 0
   471  000028                     ___fltol@f1:
   472                           	opt callstack 0
   473                           
   474                           ; 4 bytes @ 0x27
   475  000028                     	ds	1
   476  000029                     Serial_Lectura_Memoria@direccion:
   477                           	opt callstack 0
   478                           
   479                           ; 1 bytes @ 0x28
   480  000029                     	ds	1
   481  00002A                     Serial_Lectura_Memoria@i:
   482                           	opt callstack 0
   483                           
   484                           ; 1 bytes @ 0x29
   485  00002A                     	ds	1
   486  00002B                     Serial_Lectura_Memoria@i_863:
   487                           	opt callstack 0
   488                           
   489                           ; 1 bytes @ 0x2A
   490  00002B                     	ds	1
   491  00002C                     ??___fltol:
   492  00002C                     Serial_Lectura_Memoria@i_864:
   493                           	opt callstack 0
   494                           
   495                           ; 1 bytes @ 0x2B
   496  00002C                     	ds	4
   497  000030                     ___fltol@sign1:
   498                           	opt callstack 0
   499                           
   500                           ; 1 bytes @ 0x2F
   501  000030                     	ds	1
   502  000031                     ___fltol@exp1:
   503                           	opt callstack 0
   504                           
   505                           ; 1 bytes @ 0x30
   506  000031                     	ds	1
   507  000032                     ?_Motor_Conversion:
   508                           	opt callstack 0
   509  000032                     Motor_Conversion@Coordenada:
   510                           	opt callstack 0
   511                           
   512                           ; 2 bytes @ 0x31
   513  000032                     	ds	2
   514  000034                     Motor_Conversion@conversion:
   515                           	opt callstack 0
   516                           
   517                           ; 4 bytes @ 0x33
   518  000034                     	ds	4
   519  000038                     Motor_Movimiento@CoordenadaX:
   520                           	opt callstack 0
   521                           
   522                           ; 2 bytes @ 0x37
   523  000038                     	ds	2
   524  00003A                     Motor_Movimiento@CoordenadaY:
   525                           	opt callstack 0
   526                           
   527                           ; 2 bytes @ 0x39
   528  00003A                     	ds	2
   529  00003C                     Motor_Movimiento@Oupcode:
   530                           	opt callstack 0
   531                           
   532                           ; 1 bytes @ 0x3B
   533  00003C                     	ds	1
   534  00003D                     ??_main:
   535                           
   536                           ; 1 bytes @ 0x3C
   537  00003D                     	ds	2
   538  00003F                     main@Oupcode:
   539                           	opt callstack 0
   540                           
   541                           ; 1 bytes @ 0x3E
   542  00003F                     	ds	1
   543                           
   544 ;;
   545 ;;Main: autosize = 0, tempsize = 2, incstack = 0, save=0
   546 ;;
   547 ;; *************** function _main *****************
   548 ;; Defined at:
   549 ;;		line 20 in file "serial.c"
   550 ;; Parameters:    Size  Location     Type
   551 ;;		None
   552 ;; Auto vars:     Size  Location     Type
   553 ;;  Oupcode         1   62[COMRAM] unsigned char 
   554 ;; Return value:  Size  Location     Type
   555 ;;                  1    wreg      void 
   556 ;; Registers used:
   557 ;;		wreg, fsr1l, fsr1h, fsr2l, fsr2h, status,2, status,0, prodl, prodh, cstack
   558 ;; Tracked objects:
   559 ;;		On entry : 0/0
   560 ;;		On exit  : 0/0
   561 ;;		Unchanged: 0/0
   562 ;; Data sizes:     COMRAM   BANK0   BANK1   BANK2   BANK3   BANK4   BANK5   BANK6   BANK7
   563 ;;      Params:         0       0       0       0       0       0       0       0       0
   564 ;;      Locals:         1       0       0       0       0       0       0       0       0
   565 ;;      Temps:          2       0       0       0       0       0       0       0       0
   566 ;;      Totals:         3       0       0       0       0       0       0       0       0
   567 ;;Total ram usage:        3 bytes
   568 ;; Hardware stack levels required when called:    3
   569 ;; This function calls:
   570 ;;		_Actuator_Hold
   571 ;;		_Actuator_Retrain
   572 ;;		_Actuator_Touch
   573 ;;		_Motor_Movimiento
   574 ;;		_Seria_Decodificacion_Memoria
   575 ;;		_Serial_DecodificacionX
   576 ;;		_Serial_DecodificacionY
   577 ;;		_Serial_Escritura_Memoria
   578 ;;		_Serial_Lectura_Memoria
   579 ;;		_USART_Init
   580 ;;		_USART_Rx
   581 ;;		_USART_RxS
   582 ;; This function is called by:
   583 ;;		Startup code after reset
   584 ;; This function uses a non-reentrant model
   585 ;;
   586                           
   587                           	psect	text0
   588  007912                     __ptext0:
   589                           	opt callstack 0
   590  007912                     _main:
   591                           	opt callstack 28
   592  007912                     
   593                           ;serial.c: 21:     USART_Init(9600);
   594  007912  0E80               	movlw	128
   595  007914  6E0F               	movwf	USART_Init@BAUD^0,c
   596  007916  0E25               	movlw	37
   597  007918  6E10               	movwf	(USART_Init@BAUD+1)^0,c
   598  00791A  0E00               	movlw	0
   599  00791C  6E11               	movwf	(USART_Init@BAUD+2)^0,c
   600  00791E  0E00               	movlw	0
   601  007920  6E12               	movwf	(USART_Init@BAUD+3)^0,c
   602  007922  EC70  F038         	call	_USART_Init	;wreg free
   603  007926                     l2756:
   604                           
   605                           ;serial.c: 23:         char Oupcode = USART_Rx();
   606  007926  EC25  F036         	call	_USART_Rx	;wreg free
   607  00792A  6E3F               	movwf	main@Oupcode^0,c
   608                           
   609                           ;serial.c: 24:         switch (Oupcode) {
   610  00792C  EF2E  F03D         	goto	l2798
   611  007930                     l2758:
   612                           
   613                           ;serial.c: 26:                 USART_RxS(7, coordenada_array);
   614  007930  0E4E               	movlw	low _coordenada_array
   615  007932  6E01               	movwf	USART_RxS@pointer^0,c
   616  007934  0E00               	movlw	high _coordenada_array
   617  007936  6E02               	movwf	(USART_RxS@pointer+1)^0,c
   618  007938  0E07               	movlw	7
   619  00793A  EC69  F037         	call	_USART_RxS
   620  00793E                     
   621                           ;serial.c: 27:                 Serial_DecodificacionX(coordenada_array, &CX);
   622  00793E  0E4E               	movlw	low _coordenada_array
   623  007940  6E17               	movwf	Serial_DecodificacionX@string_coordenada^0,c
   624  007942  0E00               	movlw	high _coordenada_array
   625  007944  6E18               	movwf	(Serial_DecodificacionX@string_coordenada+1)^0,c
   626  007946  0E59               	movlw	low _CX
   627  007948  6E19               	movwf	Serial_DecodificacionX@pointerCX^0,c
   628  00794A  0E00               	movlw	high _CX
   629  00794C  6E1A               	movwf	(Serial_DecodificacionX@pointerCX+1)^0,c
   630  00794E  EC94  F037         	call	_Serial_DecodificacionX	;wreg free
   631  007952                     
   632                           ;serial.c: 28:                 Serial_DecodificacionY(coordenada_array, &CY);
   633  007952  0E4E               	movlw	low _coordenada_array
   634  007954  6E17               	movwf	Serial_DecodificacionY@string_coordenada^0,c
   635  007956  0E00               	movlw	high _coordenada_array
   636  007958  6E18               	movwf	(Serial_DecodificacionY@string_coordenada+1)^0,c
   637  00795A  0E57               	movlw	low _CY
   638  00795C  6E19               	movwf	Serial_DecodificacionY@pointerCY^0,c
   639  00795E  0E00               	movlw	high _CY
   640  007960  6E1A               	movwf	(Serial_DecodificacionY@pointerCY+1)^0,c
   641  007962  EC36  F038         	call	_Serial_DecodificacionY	;wreg free
   642  007966                     
   643                           ;serial.c: 29:                 Motor_Movimiento(Oupcode, CX, CY);
   644  007966  C059  F038         	movff	_CX,Motor_Movimiento@CoordenadaX
   645  00796A  C05A  F039         	movff	_CX+1,Motor_Movimiento@CoordenadaX+1
   646  00796E  C057  F03A         	movff	_CY,Motor_Movimiento@CoordenadaY
   647  007972  C058  F03B         	movff	_CY+1,Motor_Movimiento@CoordenadaY+1
   648  007976  503F               	movf	main@Oupcode^0,w,c
   649  007978  ECC8  F037         	call	_Motor_Movimiento
   650                           
   651                           ;serial.c: 30:                 break;
   652  00797C  EF93  F03C         	goto	l2756
   653  007980                     l2766:
   654                           
   655                           ;serial.c: 32:                 USART_RxS(7, coordenada_array);
   656  007980  0E4E               	movlw	low _coordenada_array
   657  007982  6E01               	movwf	USART_RxS@pointer^0,c
   658  007984  0E00               	movlw	high _coordenada_array
   659  007986  6E02               	movwf	(USART_RxS@pointer+1)^0,c
   660  007988  0E07               	movlw	7
   661  00798A  EC69  F037         	call	_USART_RxS
   662  00798E                     
   663                           ;serial.c: 33:                 Serial_DecodificacionX(coordenada_array, &CX);
   664  00798E  0E4E               	movlw	low _coordenada_array
   665  007990  6E17               	movwf	Serial_DecodificacionX@string_coordenada^0,c
   666  007992  0E00               	movlw	high _coordenada_array
   667  007994  6E18               	movwf	(Serial_DecodificacionX@string_coordenada+1)^0,c
   668  007996  0E59               	movlw	low _CX
   669  007998  6E19               	movwf	Serial_DecodificacionX@pointerCX^0,c
   670  00799A  0E00               	movlw	high _CX
   671  00799C  6E1A               	movwf	(Serial_DecodificacionX@pointerCX+1)^0,c
   672  00799E  EC94  F037         	call	_Serial_DecodificacionX	;wreg free
   673  0079A2                     
   674                           ;serial.c: 34:                 Serial_DecodificacionY(coordenada_array, &CY);
   675  0079A2  0E4E               	movlw	low _coordenada_array
   676  0079A4  6E17               	movwf	Serial_DecodificacionY@string_coordenada^0,c
   677  0079A6  0E00               	movlw	high _coordenada_array
   678  0079A8  6E18               	movwf	(Serial_DecodificacionY@string_coordenada+1)^0,c
   679  0079AA  0E57               	movlw	low _CY
   680  0079AC  6E19               	movwf	Serial_DecodificacionY@pointerCY^0,c
   681  0079AE  0E00               	movlw	high _CY
   682  0079B0  6E1A               	movwf	(Serial_DecodificacionY@pointerCY+1)^0,c
   683  0079B2  EC36  F038         	call	_Serial_DecodificacionY	;wreg free
   684  0079B6                     
   685                           ;serial.c: 35:                 Motor_Movimiento(Oupcode, CX, CY);
   686  0079B6  C059  F038         	movff	_CX,Motor_Movimiento@CoordenadaX
   687  0079BA  C05A  F039         	movff	_CX+1,Motor_Movimiento@CoordenadaX+1
   688  0079BE  C057  F03A         	movff	_CY,Motor_Movimiento@CoordenadaY
   689  0079C2  C058  F03B         	movff	_CY+1,Motor_Movimiento@CoordenadaY+1
   690  0079C6  503F               	movf	main@Oupcode^0,w,c
   691  0079C8  ECC8  F037         	call	_Motor_Movimiento
   692                           
   693                           ;serial.c: 36:                 break;
   694  0079CC  EF93  F03C         	goto	l2756
   695  0079D0                     l2774:
   696                           
   697                           ;serial.c: 38:                 Actuator_Touch();
   698  0079D0  EC43  F036         	call	_Actuator_Touch	;wreg free
   699                           
   700                           ;serial.c: 39:                 break;
   701  0079D4  EF93  F03C         	goto	l2756
   702  0079D8                     l2776:
   703                           
   704                           ;serial.c: 41:                 Actuator_Hold();
   705  0079D8  EC21  F036         	call	_Actuator_Hold	;wreg free
   706                           
   707                           ;serial.c: 42:                 break;
   708  0079DC  EF93  F03C         	goto	l2756
   709  0079E0                     l2778:
   710                           
   711                           ;serial.c: 44:                 Actuator_Retrain();
   712  0079E0  EC23  F036         	call	_Actuator_Retrain	;wreg free
   713                           
   714                           ;serial.c: 45:                 break;
   715  0079E4  EF93  F03C         	goto	l2756
   716  0079E8                     l2780:
   717                           
   718                           ;serial.c: 47:                 Direccion_Memoria = USART_Rx();
   719  0079E8  EC25  F036         	call	_USART_Rx	;wreg free
   720  0079EC  6E4B               	movwf	_Direccion_Memoria^0,c
   721  0079EE                     
   722                           ;serial.c: 48:                 Direccion_Memoria = Seria_Decodificacion_Memoria(Direccio
      +                          n_Memoria);
   723  0079EE  504B               	movf	_Direccion_Memoria^0,w,c
   724  0079F0  EC9F  F03A         	call	_Seria_Decodificacion_Memoria
   725  0079F4  6E4B               	movwf	_Direccion_Memoria^0,c
   726  0079F6                     
   727                           ;serial.c: 49:                 Serial_Lectura_Memoria(Direccion_Memoria, &CX, &CY, &CZ);
   728  0079F6  0E59               	movlw	low _CX
   729  0079F8  6E17               	movwf	Serial_Lectura_Memoria@pointerCX^0,c
   730  0079FA  0E00               	movlw	high _CX
   731  0079FC  6E18               	movwf	(Serial_Lectura_Memoria@pointerCX+1)^0,c
   732  0079FE  0E57               	movlw	low _CY
   733  007A00  6E19               	movwf	Serial_Lectura_Memoria@pointerCY^0,c
   734  007A02  0E00               	movlw	high _CY
   735  007A04  6E1A               	movwf	(Serial_Lectura_Memoria@pointerCY+1)^0,c
   736  007A06  0E55               	movlw	low _CZ
   737  007A08  6E1B               	movwf	Serial_Lectura_Memoria@pointerCZ^0,c
   738  007A0A  0E00               	movlw	high _CZ
   739  007A0C  6E1C               	movwf	(Serial_Lectura_Memoria@pointerCZ+1)^0,c
   740  007A0E  504B               	movf	_Direccion_Memoria^0,w,c
   741  007A10  EC20  F039         	call	_Serial_Lectura_Memoria
   742  007A14                     
   743                           ;serial.c: 51:                 Motor_Movimiento(Oupcode, CX, CY);
   744  007A14  C059  F038         	movff	_CX,Motor_Movimiento@CoordenadaX
   745  007A18  C05A  F039         	movff	_CX+1,Motor_Movimiento@CoordenadaX+1
   746  007A1C  C057  F03A         	movff	_CY,Motor_Movimiento@CoordenadaY
   747  007A20  C058  F03B         	movff	_CY+1,Motor_Movimiento@CoordenadaY+1
   748  007A24  503F               	movf	main@Oupcode^0,w,c
   749  007A26  ECC8  F037         	call	_Motor_Movimiento
   750                           
   751                           ;serial.c: 52:                 break;
   752  007A2A  EF93  F03C         	goto	l2756
   753  007A2E                     l2788:
   754                           
   755                           ;serial.c: 54:                 Direccion_Memoria = USART_Rx();
   756  007A2E  EC25  F036         	call	_USART_Rx	;wreg free
   757  007A32  6E4B               	movwf	_Direccion_Memoria^0,c
   758  007A34                     
   759                           ;serial.c: 55:                 USART_RxS(11, coordenada_setpoint);
   760  007A34  0E60               	movlw	low _coordenada_setpoint
   761  007A36  6E01               	movwf	USART_RxS@pointer^0,c
   762  007A38  0E00               	movlw	high _coordenada_setpoint
   763  007A3A  6E02               	movwf	(USART_RxS@pointer+1)^0,c
   764  007A3C  0E0B               	movlw	11
   765  007A3E  EC69  F037         	call	_USART_RxS
   766  007A42                     
   767                           ;serial.c: 56:                 Direccion_Memoria = Seria_Decodificacion_Memoria(Direccio
      +                          n_Memoria);
   768  007A42  504B               	movf	_Direccion_Memoria^0,w,c
   769  007A44  EC9F  F03A         	call	_Seria_Decodificacion_Memoria
   770  007A48  6E4B               	movwf	_Direccion_Memoria^0,c
   771  007A4A                     
   772                           ;serial.c: 57:                 Serial_Escritura_Memoria(Direccion_Memoria,coordenada_set
      +                          point);
   773  007A4A  0E60               	movlw	low _coordenada_setpoint
   774  007A4C  6E03               	movwf	Serial_Escritura_Memoria@string_setpoint^0,c
   775  007A4E  0E00               	movlw	high _coordenada_setpoint
   776  007A50  6E04               	movwf	(Serial_Escritura_Memoria@string_setpoint+1)^0,c
   777  007A52  504B               	movf	_Direccion_Memoria^0,w,c
   778  007A54  ECAA  F038         	call	_Serial_Escritura_Memoria
   779                           
   780                           ;serial.c: 58:                 break;
   781  007A58  EF93  F03C         	goto	l2756
   782  007A5C                     l2798:
   783  007A5C  503F               	movf	main@Oupcode^0,w,c
   784  007A5E  6E3D               	movwf	??_main^0,c
   785  007A60  6A3E               	clrf	(??_main+1)^0,c
   786                           
   787                           ; Switch on 2 bytes has been partitioned into a top level switch of size 1, and 1 sub-sw
      +                          itches
   788                           ; Switch size 1, requested type "simple"
   789                           ; Number of cases is 1, Range of values is 0 to 0
   790                           ; switch strategies available:
   791                           ; Name         Instructions Cycles
   792                           ; simple_byte            4     3 (average)
   793                           ;	Chosen strategy is simple_byte
   794  007A62  503E               	movf	(??_main+1)^0,w,c
   795  007A64  0A00               	xorlw	0	; case 0
   796  007A66  B4D8               	btfsc	status,2,c
   797  007A68  EF38  F03D         	goto	l2830
   798  007A6C  EF93  F03C         	goto	l2756
   799  007A70                     l2830:
   800                           
   801                           ; Switch size 1, requested type "simple"
   802                           ; Number of cases is 7, Range of values is 70 to 84
   803                           ; switch strategies available:
   804                           ; Name         Instructions Cycles
   805                           ; simple_byte           22    12 (average)
   806                           ;	Chosen strategy is simple_byte
   807  007A70  503D               	movf	??_main^0,w,c
   808  007A72  0A46               	xorlw	70	; case 70
   809  007A74  B4D8               	btfsc	status,2,c
   810  007A76  EF98  F03C         	goto	l2758
   811  007A7A  0A0E               	xorlw	14	; case 72
   812  007A7C  B4D8               	btfsc	status,2,c
   813  007A7E  EFEC  F03C         	goto	l2776
   814  007A82  0A05               	xorlw	5	; case 77
   815  007A84  B4D8               	btfsc	status,2,c
   816  007A86  EF17  F03D         	goto	l2788
   817  007A8A  0A02               	xorlw	2	; case 79
   818  007A8C  B4D8               	btfsc	status,2,c
   819  007A8E  EFF4  F03C         	goto	l2780
   820  007A92  0A1D               	xorlw	29	; case 82
   821  007A94  B4D8               	btfsc	status,2,c
   822  007A96  EFF0  F03C         	goto	l2778
   823  007A9A  0A01               	xorlw	1	; case 83
   824  007A9C  B4D8               	btfsc	status,2,c
   825  007A9E  EFC0  F03C         	goto	l2766
   826  007AA2  0A07               	xorlw	7	; case 84
   827  007AA4  B4D8               	btfsc	status,2,c
   828  007AA6  EFE8  F03C         	goto	l2774
   829  007AAA  EF93  F03C         	goto	l2756
   830  007AAE  EF00  F000         	goto	start
   831  007AB2                     __end_of_main:
   832                           	opt callstack 0
   833                           
   834 ;; *************** function _USART_RxS *****************
   835 ;; Defined at:
   836 ;;		line 48 in file "UART.c"
   837 ;; Parameters:    Size  Location     Type
   838 ;;  lenght          1    wreg     unsigned char 
   839 ;;  pointer         2    0[COMRAM] PTR unsigned char 
   840 ;;		 -> coordenada_setpoint(11), coordenada_array(7), 
   841 ;; Auto vars:     Size  Location     Type
   842 ;;  lenght          1    5[COMRAM] unsigned char 
   843 ;;  i               2    6[COMRAM] int 
   844 ;; Return value:  Size  Location     Type
   845 ;;                  1    wreg      void 
   846 ;; Registers used:
   847 ;;		wreg, fsr2l, fsr2h, status,2, status,0
   848 ;; Tracked objects:
   849 ;;		On entry : 0/0
   850 ;;		On exit  : 0/0
   851 ;;		Unchanged: 0/0
   852 ;; Data sizes:     COMRAM   BANK0   BANK1   BANK2   BANK3   BANK4   BANK5   BANK6   BANK7
   853 ;;      Params:         2       0       0       0       0       0       0       0       0
   854 ;;      Locals:         3       0       0       0       0       0       0       0       0
   855 ;;      Temps:          3       0       0       0       0       0       0       0       0
   856 ;;      Totals:         8       0       0       0       0       0       0       0       0
   857 ;;Total ram usage:        8 bytes
   858 ;; Hardware stack levels used:    1
   859 ;; This function calls:
   860 ;;		Nothing
   861 ;; This function is called by:
   862 ;;		_main
   863 ;; This function uses a non-reentrant model
   864 ;;
   865                           
   866                           	psect	text1
   867  006ED2                     __ptext1:
   868                           	opt callstack 0
   869  006ED2                     _USART_RxS:
   870                           	opt callstack 30
   871                           
   872                           ;incstack = 0
   873                           ;USART_RxS@lenght stored from wreg
   874  006ED2  6E06               	movwf	USART_RxS@lenght^0,c
   875  006ED4                     
   876                           ;UART.c: 49:     for (int i = 0; i < lenght; i++)
   877  006ED4  0E00               	movlw	0
   878  006ED6  6E08               	movwf	(USART_RxS@i+1)^0,c
   879  006ED8  0E00               	movlw	0
   880  006EDA  6E07               	movwf	USART_RxS@i^0,c
   881  006EDC  EF81  F037         	goto	l2574
   882  006EE0                     l114:
   883  006EE0  AA9E               	btfss	3998,5,c	;volatile
   884  006EE2  EF75  F037         	goto	u1621
   885  006EE6  EF77  F037         	goto	u1620
   886  006EEA                     u1621:
   887  006EEA  EF70  F037         	goto	l114
   888  006EEE                     u1620:
   889  006EEE                     
   890                           ;UART.c: 52:             pointer[i] = RCREG;
   891  006EEE  5007               	movf	USART_RxS@i^0,w,c
   892  006EF0  2401               	addwf	USART_RxS@pointer^0,w,c
   893  006EF2  6ED9               	movwf	fsr2l,c
   894  006EF4  5008               	movf	(USART_RxS@i+1)^0,w,c
   895  006EF6  2002               	addwfc	(USART_RxS@pointer+1)^0,w,c
   896  006EF8  6EDA               	movwf	fsr2h,c
   897  006EFA  CFAE FFDF          	movff	4014,indf2	;volatile
   898  006EFE                     
   899                           ;UART.c: 53:         }
   900  006EFE  4A07               	infsnz	USART_RxS@i^0,f,c
   901  006F00  2A08               	incf	(USART_RxS@i+1)^0,f,c
   902  006F02                     l2574:
   903  006F02  5006               	movf	USART_RxS@lenght^0,w,c
   904  006F04  6E03               	movwf	??_USART_RxS^0,c
   905  006F06  6A04               	clrf	(??_USART_RxS+1)^0,c
   906  006F08  5003               	movf	??_USART_RxS^0,w,c
   907  006F0A  5C07               	subwf	USART_RxS@i^0,w,c
   908  006F0C  5008               	movf	(USART_RxS@i+1)^0,w,c
   909  006F0E  0A80               	xorlw	128
   910  006F10  6E05               	movwf	(??_USART_RxS+2)^0,c
   911  006F12  5004               	movf	(??_USART_RxS+1)^0,w,c
   912  006F14  0A80               	xorlw	128
   913  006F16  5805               	subwfb	(??_USART_RxS+2)^0,w,c
   914  006F18  A0D8               	btfss	status,0,c
   915  006F1A  EF91  F037         	goto	u1631
   916  006F1E  EF93  F037         	goto	u1630
   917  006F22                     u1631:
   918  006F22  EF70  F037         	goto	l114
   919  006F26                     u1630:
   920  006F26  0012               	return		;funcret
   921  006F28                     __end_of_USART_RxS:
   922                           	opt callstack 0
   923                           
   924 ;; *************** function _USART_Rx *****************
   925 ;; Defined at:
   926 ;;		line 30 in file "UART.c"
   927 ;; Parameters:    Size  Location     Type
   928 ;;		None
   929 ;; Auto vars:     Size  Location     Type
   930 ;;		None
   931 ;; Return value:  Size  Location     Type
   932 ;;                  1    wreg      unsigned char 
   933 ;; Registers used:
   934 ;;		wreg, status,2
   935 ;; Tracked objects:
   936 ;;		On entry : 0/0
   937 ;;		On exit  : 0/0
   938 ;;		Unchanged: 0/0
   939 ;; Data sizes:     COMRAM   BANK0   BANK1   BANK2   BANK3   BANK4   BANK5   BANK6   BANK7
   940 ;;      Params:         0       0       0       0       0       0       0       0       0
   941 ;;      Locals:         0       0       0       0       0       0       0       0       0
   942 ;;      Temps:          0       0       0       0       0       0       0       0       0
   943 ;;      Totals:         0       0       0       0       0       0       0       0       0
   944 ;;Total ram usage:        0 bytes
   945 ;; Hardware stack levels used:    1
   946 ;; This function calls:
   947 ;;		Nothing
   948 ;; This function is called by:
   949 ;;		_main
   950 ;; This function uses a non-reentrant model
   951 ;;
   952                           
   953                           	psect	text2
   954  006C4A                     __ptext2:
   955                           	opt callstack 0
   956  006C4A                     _USART_Rx:
   957                           	opt callstack 30
   958  006C4A                     l92:
   959  006C4A  AA9E               	btfss	158,5,c	;volatile
   960  006C4C  EF2A  F036         	goto	u1611
   961  006C50  EF2C  F036         	goto	u1610
   962  006C54                     u1611:
   963  006C54  EF25  F036         	goto	l92
   964  006C58                     u1610:
   965  006C58                     
   966                           ;UART.c: 32:     return RCREG;
   967  006C58  50AE               	movf	174,w,c	;volatile
   968  006C5A  0012               	return		;funcret
   969  006C5C                     __end_of_USART_Rx:
   970                           	opt callstack 0
   971                           
   972 ;; *************** function _USART_Init *****************
   973 ;; Defined at:
   974 ;;		line 6 in file "UART.c"
   975 ;; Parameters:    Size  Location     Type
   976 ;;  BAUD            4   14[COMRAM] long 
   977 ;; Auto vars:     Size  Location     Type
   978 ;;		None
   979 ;; Return value:  Size  Location     Type
   980 ;;                  1    wreg      void 
   981 ;; Registers used:
   982 ;;		wreg, status,2, status,0, cstack
   983 ;; Tracked objects:
   984 ;;		On entry : 0/0
   985 ;;		On exit  : 0/0
   986 ;;		Unchanged: 0/0
   987 ;; Data sizes:     COMRAM   BANK0   BANK1   BANK2   BANK3   BANK4   BANK5   BANK6   BANK7
   988 ;;      Params:         4       0       0       0       0       0       0       0       0
   989 ;;      Locals:         4       0       0       0       0       0       0       0       0
   990 ;;      Temps:          0       0       0       0       0       0       0       0       0
   991 ;;      Totals:         8       0       0       0       0       0       0       0       0
   992 ;;Total ram usage:        8 bytes
   993 ;; Hardware stack levels used:    1
   994 ;; Hardware stack levels required when called:    1
   995 ;; This function calls:
   996 ;;		___aldiv
   997 ;; This function is called by:
   998 ;;		_main
   999 ;; This function uses a non-reentrant model
  1000 ;;
  1001                           
  1002                           	psect	text3
  1003  0070E0                     __ptext3:
  1004                           	opt callstack 0
  1005  0070E0                     _USART_Init:
  1006                           	opt callstack 29
  1007  0070E0                     
  1008                           ;UART.c: 7:     OSCCON= 0x72;
  1009  0070E0  0E72               	movlw	114
  1010  0070E2  6ED3               	movwf	211,c	;volatile
  1011  0070E4                     
  1012                           ;UART.c: 8:     TRISCbits.RC6 = 0;
  1013  0070E4  9C94               	bcf	148,6,c	;volatile
  1014  0070E6                     
  1015                           ;UART.c: 9:     TRISCbits.RC7 = 1;
  1016  0070E6  8E94               	bsf	148,7,c	;volatile
  1017  0070E8                     
  1018                           ;UART.c: 12:     SPBRG = (unsigned char)(((8000000/BAUD)/64)-1);
  1019  0070E8  C00F  F005         	movff	USART_Init@BAUD,___aldiv@divisor
  1020  0070EC  C010  F006         	movff	USART_Init@BAUD+1,___aldiv@divisor+1
  1021  0070F0  C011  F007         	movff	USART_Init@BAUD+2,___aldiv@divisor+2
  1022  0070F4  C012  F008         	movff	USART_Init@BAUD+3,___aldiv@divisor+3
  1023  0070F8  0E00               	movlw	0
  1024  0070FA  6E01               	movwf	___aldiv@dividend^0,c
  1025  0070FC  0E12               	movlw	18
  1026  0070FE  6E02               	movwf	(___aldiv@dividend+1)^0,c
  1027  007100  0E7A               	movlw	122
  1028  007102  6E03               	movwf	(___aldiv@dividend+2)^0,c
  1029  007104  0E00               	movlw	0
  1030  007106  6E04               	movwf	(___aldiv@dividend+3)^0,c
  1031  007108  EC19  F03A         	call	___aldiv	;wreg free
  1032  00710C  C001  F013         	movff	?___aldiv,_USART_Init$1901
  1033  007110  C002  F014         	movff	?___aldiv+1,_USART_Init$1901+1
  1034  007114  C003  F015         	movff	?___aldiv+2,_USART_Init$1901+2
  1035  007118  C004  F016         	movff	?___aldiv+3,_USART_Init$1901+3
  1036  00711C                     
  1037                           ;UART.c: 12:     SPBRG = (unsigned char)(((8000000/BAUD)/64)-1);
  1038  00711C  C013  F001         	movff	_USART_Init$1901,___aldiv@dividend
  1039  007120  C014  F002         	movff	_USART_Init$1901+1,___aldiv@dividend+1
  1040  007124  C015  F003         	movff	_USART_Init$1901+2,___aldiv@dividend+2
  1041  007128  C016  F004         	movff	_USART_Init$1901+3,___aldiv@dividend+3
  1042  00712C  0E40               	movlw	64
  1043  00712E  6E05               	movwf	___aldiv@divisor^0,c
  1044  007130  0E00               	movlw	0
  1045  007132  6E06               	movwf	(___aldiv@divisor+1)^0,c
  1046  007134  0E00               	movlw	0
  1047  007136  6E07               	movwf	(___aldiv@divisor+2)^0,c
  1048  007138  0E00               	movlw	0
  1049  00713A  6E08               	movwf	(___aldiv@divisor+3)^0,c
  1050  00713C  EC19  F03A         	call	___aldiv	;wreg free
  1051  007140  0401               	decf	?___aldiv^0,w,c
  1052  007142  6EAF               	movwf	175,c	;volatile
  1053  007144                     
  1054                           ;UART.c: 14:     TXSTAbits.BRGH = 0;
  1055  007144  94AC               	bcf	172,2,c	;volatile
  1056  007146                     
  1057                           ;UART.c: 15:     TXSTAbits.SYNC = 0;
  1058  007146  98AC               	bcf	172,4,c	;volatile
  1059  007148                     
  1060                           ;UART.c: 16:     RCSTAbits.SPEN = 1;
  1061  007148  8EAB               	bsf	171,7,c	;volatile
  1062  00714A                     
  1063                           ;UART.c: 18:     TXSTAbits.TX9 = 0;
  1064  00714A  9CAC               	bcf	172,6,c	;volatile
  1065  00714C                     
  1066                           ;UART.c: 19:     TXSTAbits.TXEN = 1;
  1067  00714C  8AAC               	bsf	172,5,c	;volatile
  1068  00714E                     
  1069                           ;UART.c: 21:     RCSTAbits.RC9 = 0;
  1070  00714E  9CAB               	bcf	171,6,c	;volatile
  1071  007150                     
  1072                           ;UART.c: 22:     RCSTAbits.CREN = 1;
  1073  007150  88AB               	bsf	171,4,c	;volatile
  1074  007152  0012               	return		;funcret
  1075  007154                     __end_of_USART_Init:
  1076                           	opt callstack 0
  1077                           
  1078 ;; *************** function ___aldiv *****************
  1079 ;; Defined at:
  1080 ;;		line 7 in file "C:\Program Files (x86)\Microchip\xc8\v2.10\pic\sources\c99\common\aldiv.c"
  1081 ;; Parameters:    Size  Location     Type
  1082 ;;  dividend        4    0[COMRAM] long 
  1083 ;;  divisor         4    4[COMRAM] long 
  1084 ;; Auto vars:     Size  Location     Type
  1085 ;;  quotient        4   10[COMRAM] long 
  1086 ;;  sign            1    9[COMRAM] unsigned char 
  1087 ;;  counter         1    8[COMRAM] unsigned char 
  1088 ;; Return value:  Size  Location     Type
  1089 ;;                  4    0[COMRAM] long 
  1090 ;; Registers used:
  1091 ;;		wreg, status,2, status,0
  1092 ;; Tracked objects:
  1093 ;;		On entry : 0/0
  1094 ;;		On exit  : 0/0
  1095 ;;		Unchanged: 0/0
  1096 ;; Data sizes:     COMRAM   BANK0   BANK1   BANK2   BANK3   BANK4   BANK5   BANK6   BANK7
  1097 ;;      Params:         8       0       0       0       0       0       0       0       0
  1098 ;;      Locals:         6       0       0       0       0       0       0       0       0
  1099 ;;      Temps:          0       0       0       0       0       0       0       0       0
  1100 ;;      Totals:        14       0       0       0       0       0       0       0       0
  1101 ;;Total ram usage:       14 bytes
  1102 ;; Hardware stack levels used:    1
  1103 ;; This function calls:
  1104 ;;		Nothing
  1105 ;; This function is called by:
  1106 ;;		_USART_Init
  1107 ;; This function uses a non-reentrant model
  1108 ;;
  1109                           
  1110                           	psect	text4
  1111  007432                     __ptext4:
  1112                           	opt callstack 0
  1113  007432                     ___aldiv:
  1114                           	opt callstack 29
  1115  007432  0E00               	movlw	0
  1116  007434  6E0A               	movwf	___aldiv@sign^0,c
  1117  007436  BE08               	btfsc	(___aldiv@divisor+3)^0,7,c
  1118  007438  EF22  F03A         	goto	u1550
  1119  00743C  EF20  F03A         	goto	u1551
  1120  007440                     u1551:
  1121  007440  EF2C  F03A         	goto	l2502
  1122  007444                     u1550:
  1123  007444  1E08               	comf	(___aldiv@divisor+3)^0,f,c
  1124  007446  1E07               	comf	(___aldiv@divisor+2)^0,f,c
  1125  007448  1E06               	comf	(___aldiv@divisor+1)^0,f,c
  1126  00744A  6C05               	negf	___aldiv@divisor^0,c
  1127  00744C  0E00               	movlw	0
  1128  00744E  2206               	addwfc	(___aldiv@divisor+1)^0,f,c
  1129  007450  2207               	addwfc	(___aldiv@divisor+2)^0,f,c
  1130  007452  2208               	addwfc	(___aldiv@divisor+3)^0,f,c
  1131  007454  0E01               	movlw	1
  1132  007456  6E0A               	movwf	___aldiv@sign^0,c
  1133  007458                     l2502:
  1134  007458  BE04               	btfsc	(___aldiv@dividend+3)^0,7,c
  1135  00745A  EF33  F03A         	goto	u1560
  1136  00745E  EF31  F03A         	goto	u1561
  1137  007462                     u1561:
  1138  007462  EF3D  F03A         	goto	l2508
  1139  007466                     u1560:
  1140  007466  1E04               	comf	(___aldiv@dividend+3)^0,f,c
  1141  007468  1E03               	comf	(___aldiv@dividend+2)^0,f,c
  1142  00746A  1E02               	comf	(___aldiv@dividend+1)^0,f,c
  1143  00746C  6C01               	negf	___aldiv@dividend^0,c
  1144  00746E  0E00               	movlw	0
  1145  007470  2202               	addwfc	(___aldiv@dividend+1)^0,f,c
  1146  007472  2203               	addwfc	(___aldiv@dividend+2)^0,f,c
  1147  007474  2204               	addwfc	(___aldiv@dividend+3)^0,f,c
  1148  007476  0E01               	movlw	1
  1149  007478  1A0A               	xorwf	___aldiv@sign^0,f,c
  1150  00747A                     l2508:
  1151  00747A  0E00               	movlw	0
  1152  00747C  6E0B               	movwf	___aldiv@quotient^0,c
  1153  00747E  0E00               	movlw	0
  1154  007480  6E0C               	movwf	(___aldiv@quotient+1)^0,c
  1155  007482  0E00               	movlw	0
  1156  007484  6E0D               	movwf	(___aldiv@quotient+2)^0,c
  1157  007486  0E00               	movlw	0
  1158  007488  6E0E               	movwf	(___aldiv@quotient+3)^0,c
  1159  00748A  5005               	movf	___aldiv@divisor^0,w,c
  1160  00748C  1006               	iorwf	(___aldiv@divisor+1)^0,w,c
  1161  00748E  1007               	iorwf	(___aldiv@divisor+2)^0,w,c
  1162  007490  1008               	iorwf	(___aldiv@divisor+3)^0,w,c
  1163  007492  B4D8               	btfsc	status,2,c
  1164  007494  EF4E  F03A         	goto	u1571
  1165  007498  EF50  F03A         	goto	u1570
  1166  00749C                     u1571:
  1167  00749C  EF86  F03A         	goto	l2530
  1168  0074A0                     u1570:
  1169  0074A0  0E01               	movlw	1
  1170  0074A2  6E09               	movwf	___aldiv@counter^0,c
  1171  0074A4  EF5A  F03A         	goto	l2516
  1172  0074A8                     l2514:
  1173  0074A8  90D8               	bcf	status,0,c
  1174  0074AA  3605               	rlcf	___aldiv@divisor^0,f,c
  1175  0074AC  3606               	rlcf	(___aldiv@divisor+1)^0,f,c
  1176  0074AE  3607               	rlcf	(___aldiv@divisor+2)^0,f,c
  1177  0074B0  3608               	rlcf	(___aldiv@divisor+3)^0,f,c
  1178  0074B2  2A09               	incf	___aldiv@counter^0,f,c
  1179  0074B4                     l2516:
  1180  0074B4  AE08               	btfss	(___aldiv@divisor+3)^0,7,c
  1181  0074B6  EF5F  F03A         	goto	u1581
  1182  0074BA  EF61  F03A         	goto	u1580
  1183  0074BE                     u1581:
  1184  0074BE  EF54  F03A         	goto	l2514
  1185  0074C2                     u1580:
  1186  0074C2                     l2518:
  1187  0074C2  90D8               	bcf	status,0,c
  1188  0074C4  360B               	rlcf	___aldiv@quotient^0,f,c
  1189  0074C6  360C               	rlcf	(___aldiv@quotient+1)^0,f,c
  1190  0074C8  360D               	rlcf	(___aldiv@quotient+2)^0,f,c
  1191  0074CA  360E               	rlcf	(___aldiv@quotient+3)^0,f,c
  1192  0074CC  5005               	movf	___aldiv@divisor^0,w,c
  1193  0074CE  5C01               	subwf	___aldiv@dividend^0,w,c
  1194  0074D0  5006               	movf	(___aldiv@divisor+1)^0,w,c
  1195  0074D2  5802               	subwfb	(___aldiv@dividend+1)^0,w,c
  1196  0074D4  5007               	movf	(___aldiv@divisor+2)^0,w,c
  1197  0074D6  5803               	subwfb	(___aldiv@dividend+2)^0,w,c
  1198  0074D8  5008               	movf	(___aldiv@divisor+3)^0,w,c
  1199  0074DA  5804               	subwfb	(___aldiv@dividend+3)^0,w,c
  1200  0074DC  A0D8               	btfss	status,0,c
  1201  0074DE  EF73  F03A         	goto	u1591
  1202  0074E2  EF75  F03A         	goto	u1590
  1203  0074E6                     u1591:
  1204  0074E6  EF7E  F03A         	goto	l2526
  1205  0074EA                     u1590:
  1206  0074EA  5005               	movf	___aldiv@divisor^0,w,c
  1207  0074EC  5E01               	subwf	___aldiv@dividend^0,f,c
  1208  0074EE  5006               	movf	(___aldiv@divisor+1)^0,w,c
  1209  0074F0  5A02               	subwfb	(___aldiv@dividend+1)^0,f,c
  1210  0074F2  5007               	movf	(___aldiv@divisor+2)^0,w,c
  1211  0074F4  5A03               	subwfb	(___aldiv@dividend+2)^0,f,c
  1212  0074F6  5008               	movf	(___aldiv@divisor+3)^0,w,c
  1213  0074F8  5A04               	subwfb	(___aldiv@dividend+3)^0,f,c
  1214  0074FA  800B               	bsf	___aldiv@quotient^0,0,c
  1215  0074FC                     l2526:
  1216  0074FC  90D8               	bcf	status,0,c
  1217  0074FE  3208               	rrcf	(___aldiv@divisor+3)^0,f,c
  1218  007500  3207               	rrcf	(___aldiv@divisor+2)^0,f,c
  1219  007502  3206               	rrcf	(___aldiv@divisor+1)^0,f,c
  1220  007504  3205               	rrcf	___aldiv@divisor^0,f,c
  1221  007506  2E09               	decfsz	___aldiv@counter^0,f,c
  1222  007508  EF61  F03A         	goto	l2518
  1223  00750C                     l2530:
  1224  00750C  500A               	movf	___aldiv@sign^0,w,c
  1225  00750E  B4D8               	btfsc	status,2,c
  1226  007510  EF8C  F03A         	goto	u1601
  1227  007514  EF8E  F03A         	goto	u1600
  1228  007518                     u1601:
  1229  007518  EF96  F03A         	goto	l2534
  1230  00751C                     u1600:
  1231  00751C  1E0E               	comf	(___aldiv@quotient+3)^0,f,c
  1232  00751E  1E0D               	comf	(___aldiv@quotient+2)^0,f,c
  1233  007520  1E0C               	comf	(___aldiv@quotient+1)^0,f,c
  1234  007522  6C0B               	negf	___aldiv@quotient^0,c
  1235  007524  0E00               	movlw	0
  1236  007526  220C               	addwfc	(___aldiv@quotient+1)^0,f,c
  1237  007528  220D               	addwfc	(___aldiv@quotient+2)^0,f,c
  1238  00752A  220E               	addwfc	(___aldiv@quotient+3)^0,f,c
  1239  00752C                     l2534:
  1240  00752C  C00B  F001         	movff	___aldiv@quotient,?___aldiv
  1241  007530  C00C  F002         	movff	___aldiv@quotient+1,?___aldiv+1
  1242  007534  C00D  F003         	movff	___aldiv@quotient+2,?___aldiv+2
  1243  007538  C00E  F004         	movff	___aldiv@quotient+3,?___aldiv+3
  1244  00753C  0012               	return		;funcret
  1245  00753E                     __end_of___aldiv:
  1246                           	opt callstack 0
  1247                           
  1248 ;; *************** function _Serial_Lectura_Memoria *****************
  1249 ;; Defined at:
  1250 ;;		line 145 in file "serial.c"
  1251 ;; Parameters:    Size  Location     Type
  1252 ;;  direccion       1    wreg     unsigned char 
  1253 ;;  pointerCX       2   22[COMRAM] PTR int 
  1254 ;;		 -> CX(2), 
  1255 ;;  pointerCY       2   24[COMRAM] PTR int 
  1256 ;;		 -> CY(2), 
  1257 ;;  pointerCZ       2   26[COMRAM] PTR int 
  1258 ;;		 -> CZ(2), 
  1259 ;; Auto vars:     Size  Location     Type
  1260 ;;  direccion       1   40[COMRAM] unsigned char 
  1261 ;;  i               1   43[COMRAM] unsigned char 
  1262 ;;  i               1   42[COMRAM] unsigned char 
  1263 ;;  i               1   41[COMRAM] unsigned char 
  1264 ;;  coordenadaZ     3   34[COMRAM] unsigned char [3]
  1265 ;;  coordenadaY     3   31[COMRAM] unsigned char [3]
  1266 ;;  coordenadaX     3   28[COMRAM] unsigned char [3]
  1267 ;;  direccionZ      1   39[COMRAM] unsigned char 
  1268 ;;  direccionY      1   38[COMRAM] unsigned char 
  1269 ;;  direccionX      1   37[COMRAM] unsigned char 
  1270 ;; Return value:  Size  Location     Type
  1271 ;;                  1    wreg      void 
  1272 ;; Registers used:
  1273 ;;		wreg, fsr2l, fsr2h, status,2, status,0, prodl, prodh, cstack
  1274 ;; Tracked objects:
  1275 ;;		On entry : 0/0
  1276 ;;		On exit  : 0/0
  1277 ;;		Unchanged: 0/0
  1278 ;; Data sizes:     COMRAM   BANK0   BANK1   BANK2   BANK3   BANK4   BANK5   BANK6   BANK7
  1279 ;;      Params:         6       0       0       0       0       0       0       0       0
  1280 ;;      Locals:        16       0       0       0       0       0       0       0       0
  1281 ;;      Temps:          0       0       0       0       0       0       0       0       0
  1282 ;;      Totals:        22       0       0       0       0       0       0       0       0
  1283 ;;Total ram usage:       22 bytes
  1284 ;; Hardware stack levels used:    1
  1285 ;; Hardware stack levels required when called:    2
  1286 ;; This function calls:
  1287 ;;		_EEPROM_Rx
  1288 ;;		_atoi
  1289 ;; This function is called by:
  1290 ;;		_main
  1291 ;; This function uses a non-reentrant model
  1292 ;;
  1293                           
  1294                           	psect	text5
  1295  007240                     __ptext5:
  1296                           	opt callstack 0
  1297  007240                     _Serial_Lectura_Memoria:
  1298                           	opt callstack 28
  1299                           
  1300                           ;incstack = 0
  1301                           ;Serial_Lectura_Memoria@direccion stored from wreg
  1302  007240  6E29               	movwf	Serial_Lectura_Memoria@direccion^0,c
  1303  007242                     
  1304                           ;serial.c: 146:     char coordenadaX[3];;serial.c: 147:     char coordenadaY[3];;serial.
      +                          c: 148:     char coordenadaZ[3];;serial.c: 149:     char direccionX;;serial.c: 150:     
      +                          char direccionY;;serial.c: 151:     char direccionZ;;serial.c: 152:     for (char i = 0;
      +                           i < 3; i++) {
  1305  007242  0E00               	movlw	0
  1306  007244  6E2A               	movwf	Serial_Lectura_Memoria@i^0,c
  1307  007246                     l2666:
  1308                           
  1309                           ;serial.c: 153:         direccionX = direccion + i;
  1310  007246  5029               	movf	Serial_Lectura_Memoria@direccion^0,w,c
  1311  007248  242A               	addwf	Serial_Lectura_Memoria@i^0,w,c
  1312  00724A  6E26               	movwf	Serial_Lectura_Memoria@direccionX^0,c
  1313  00724C                     
  1314                           ;serial.c: 154:         coordenadaX[i] = EEPROM_Rx(direccionX);
  1315  00724C  0E1D               	movlw	low Serial_Lectura_Memoria@coordenadaX
  1316  00724E  242A               	addwf	Serial_Lectura_Memoria@i^0,w,c
  1317  007250  6ED9               	movwf	fsr2l,c
  1318  007252  6ADA               	clrf	fsr2h,c
  1319  007254  0E00               	movlw	high Serial_Lectura_Memoria@coordenadaX
  1320  007256  22DA               	addwfc	fsr2h,f,c
  1321  007258  5026               	movf	Serial_Lectura_Memoria@direccionX^0,w,c
  1322  00725A  EC2E  F036         	call	_EEPROM_Rx
  1323  00725E  6EDF               	movwf	indf2,c
  1324  007260                     
  1325                           ;serial.c: 155:     }
  1326  007260  2A2A               	incf	Serial_Lectura_Memoria@i^0,f,c
  1327  007262  0E02               	movlw	2
  1328  007264  642A               	cpfsgt	Serial_Lectura_Memoria@i^0,c
  1329  007266  EF37  F039         	goto	u1661
  1330  00726A  EF39  F039         	goto	u1660
  1331  00726E                     u1661:
  1332  00726E  EF23  F039         	goto	l2666
  1333  007272                     u1660:
  1334  007272                     
  1335                           ;serial.c: 156:     for (char i = 0; i < 3; i++) {
  1336  007272  0E00               	movlw	0
  1337  007274  6E2B               	movwf	Serial_Lectura_Memoria@i_863^0,c
  1338  007276                     l2680:
  1339                           
  1340                           ;serial.c: 157:         direccionY = direccion + i + 3;
  1341  007276  5029               	movf	Serial_Lectura_Memoria@direccion^0,w,c
  1342  007278  242B               	addwf	Serial_Lectura_Memoria@i_863^0,w,c
  1343  00727A  0F03               	addlw	3
  1344  00727C  6E27               	movwf	Serial_Lectura_Memoria@direccionY^0,c
  1345  00727E                     
  1346                           ;serial.c: 158:         coordenadaY[i] = EEPROM_Rx(direccionY);
  1347  00727E  0E20               	movlw	low Serial_Lectura_Memoria@coordenadaY
  1348  007280  242B               	addwf	Serial_Lectura_Memoria@i_863^0,w,c
  1349  007282  6ED9               	movwf	fsr2l,c
  1350  007284  6ADA               	clrf	fsr2h,c
  1351  007286  0E00               	movlw	high Serial_Lectura_Memoria@coordenadaY
  1352  007288  22DA               	addwfc	fsr2h,f,c
  1353  00728A  5027               	movf	Serial_Lectura_Memoria@direccionY^0,w,c
  1354  00728C  EC2E  F036         	call	_EEPROM_Rx
  1355  007290  6EDF               	movwf	indf2,c
  1356  007292                     
  1357                           ;serial.c: 159:     }
  1358  007292  2A2B               	incf	Serial_Lectura_Memoria@i_863^0,f,c
  1359  007294  0E02               	movlw	2
  1360  007296  642B               	cpfsgt	Serial_Lectura_Memoria@i_863^0,c
  1361  007298  EF50  F039         	goto	u1671
  1362  00729C  EF52  F039         	goto	u1670
  1363  0072A0                     u1671:
  1364  0072A0  EF3B  F039         	goto	l2680
  1365  0072A4                     u1670:
  1366  0072A4                     
  1367                           ;serial.c: 160:     for (char i = 0; i < 3; i++) {
  1368  0072A4  0E00               	movlw	0
  1369  0072A6  6E2C               	movwf	Serial_Lectura_Memoria@i_864^0,c
  1370  0072A8                     l2694:
  1371                           
  1372                           ;serial.c: 161:         direccionZ = direccion + i + 6;
  1373  0072A8  5029               	movf	Serial_Lectura_Memoria@direccion^0,w,c
  1374  0072AA  242C               	addwf	Serial_Lectura_Memoria@i_864^0,w,c
  1375  0072AC  0F06               	addlw	6
  1376  0072AE  6E28               	movwf	Serial_Lectura_Memoria@direccionZ^0,c
  1377  0072B0                     
  1378                           ;serial.c: 162:         coordenadaZ[i] = EEPROM_Rx(direccionZ);
  1379  0072B0  0E23               	movlw	low Serial_Lectura_Memoria@coordenadaZ
  1380  0072B2  242C               	addwf	Serial_Lectura_Memoria@i_864^0,w,c
  1381  0072B4  6ED9               	movwf	fsr2l,c
  1382  0072B6  6ADA               	clrf	fsr2h,c
  1383  0072B8  0E00               	movlw	high Serial_Lectura_Memoria@coordenadaZ
  1384  0072BA  22DA               	addwfc	fsr2h,f,c
  1385  0072BC  5028               	movf	Serial_Lectura_Memoria@direccionZ^0,w,c
  1386  0072BE  EC2E  F036         	call	_EEPROM_Rx
  1387  0072C2  6EDF               	movwf	indf2,c
  1388  0072C4                     
  1389                           ;serial.c: 163:     }
  1390  0072C4  2A2C               	incf	Serial_Lectura_Memoria@i_864^0,f,c
  1391  0072C6  0E02               	movlw	2
  1392  0072C8  642C               	cpfsgt	Serial_Lectura_Memoria@i_864^0,c
  1393  0072CA  EF69  F039         	goto	u1681
  1394  0072CE  EF6B  F039         	goto	u1680
  1395  0072D2                     u1681:
  1396  0072D2  EF54  F039         	goto	l2694
  1397  0072D6                     u1680:
  1398  0072D6                     
  1399                           ;serial.c: 164:     *pointerCX = atoi(coordenadaX);
  1400  0072D6  0E1D               	movlw	low Serial_Lectura_Memoria@coordenadaX
  1401  0072D8  6E08               	movwf	atoi@s^0,c
  1402  0072DA  0E00               	movlw	high Serial_Lectura_Memoria@coordenadaX
  1403  0072DC  6E09               	movwf	(atoi@s+1)^0,c
  1404  0072DE  ECC4  F03B         	call	_atoi	;wreg free
  1405  0072E2  C017  FFD9         	movff	Serial_Lectura_Memoria@pointerCX,fsr2l
  1406  0072E6  C018  FFDA         	movff	Serial_Lectura_Memoria@pointerCX+1,fsr2h
  1407  0072EA  C008  FFDE         	movff	?_atoi,postinc2
  1408  0072EE  C009  FFDD         	movff	?_atoi+1,postdec2
  1409                           
  1410                           ;serial.c: 165:     *pointerCY = atoi(coordenadaY);
  1411  0072F2  0E20               	movlw	low Serial_Lectura_Memoria@coordenadaY
  1412  0072F4  6E08               	movwf	atoi@s^0,c
  1413  0072F6  0E00               	movlw	high Serial_Lectura_Memoria@coordenadaY
  1414  0072F8  6E09               	movwf	(atoi@s+1)^0,c
  1415  0072FA  ECC4  F03B         	call	_atoi	;wreg free
  1416  0072FE  C019  FFD9         	movff	Serial_Lectura_Memoria@pointerCY,fsr2l
  1417  007302  C01A  FFDA         	movff	Serial_Lectura_Memoria@pointerCY+1,fsr2h
  1418  007306  C008  FFDE         	movff	?_atoi,postinc2
  1419  00730A  C009  FFDD         	movff	?_atoi+1,postdec2
  1420                           
  1421                           ;serial.c: 166:     *pointerCZ = atoi(coordenadaZ);
  1422  00730E  0E23               	movlw	low Serial_Lectura_Memoria@coordenadaZ
  1423  007310  6E08               	movwf	atoi@s^0,c
  1424  007312  0E00               	movlw	high Serial_Lectura_Memoria@coordenadaZ
  1425  007314  6E09               	movwf	(atoi@s+1)^0,c
  1426  007316  ECC4  F03B         	call	_atoi	;wreg free
  1427  00731A  C01B  FFD9         	movff	Serial_Lectura_Memoria@pointerCZ,fsr2l
  1428  00731E  C01C  FFDA         	movff	Serial_Lectura_Memoria@pointerCZ+1,fsr2h
  1429  007322  C008  FFDE         	movff	?_atoi,postinc2
  1430  007326  C009  FFDD         	movff	?_atoi+1,postdec2
  1431  00732A  0012               	return		;funcret
  1432  00732C                     __end_of_Serial_Lectura_Memoria:
  1433                           	opt callstack 0
  1434                           
  1435 ;; *************** function _EEPROM_Rx *****************
  1436 ;; Defined at:
  1437 ;;		line 16 in file "EEPROM.c"
  1438 ;; Parameters:    Size  Location     Type
  1439 ;;  direccion       1    wreg     unsigned char 
  1440 ;; Auto vars:     Size  Location     Type
  1441 ;;  direccion       1    0[COMRAM] unsigned char 
  1442 ;; Return value:  Size  Location     Type
  1443 ;;                  1    wreg      unsigned char 
  1444 ;; Registers used:
  1445 ;;		wreg, status,2
  1446 ;; Tracked objects:
  1447 ;;		On entry : 0/0
  1448 ;;		On exit  : 0/0
  1449 ;;		Unchanged: 0/0
  1450 ;; Data sizes:     COMRAM   BANK0   BANK1   BANK2   BANK3   BANK4   BANK5   BANK6   BANK7
  1451 ;;      Params:         0       0       0       0       0       0       0       0       0
  1452 ;;      Locals:         1       0       0       0       0       0       0       0       0
  1453 ;;      Temps:          0       0       0       0       0       0       0       0       0
  1454 ;;      Totals:         1       0       0       0       0       0       0       0       0
  1455 ;;Total ram usage:        1 bytes
  1456 ;; Hardware stack levels used:    1
  1457 ;; This function calls:
  1458 ;;		Nothing
  1459 ;; This function is called by:
  1460 ;;		_Serial_Lectura_Memoria
  1461 ;; This function uses a non-reentrant model
  1462 ;;
  1463                           
  1464                           	psect	text6
  1465  006C5C                     __ptext6:
  1466                           	opt callstack 0
  1467  006C5C                     _EEPROM_Rx:
  1468                           	opt callstack 29
  1469                           
  1470                           ;incstack = 0
  1471                           ;EEPROM_Rx@direccion stored from wreg
  1472  006C5C  6E01               	movwf	EEPROM_Rx@direccion^0,c
  1473  006C5E                     
  1474                           ;EEPROM.c: 17:     EEADR=direccion;
  1475  006C5E  C001  FFA9         	movff	EEPROM_Rx@direccion,4009	;volatile
  1476  006C62                     
  1477                           ;EEPROM.c: 18:     EECON1bits.EEPGD=0;
  1478  006C62  9EA6               	bcf	166,7,c	;volsfr
  1479  006C64                     
  1480                           ;EEPROM.c: 19:       EECON1bits.CFGS=0;
  1481  006C64  9CA6               	bcf	166,6,c	;volsfr
  1482  006C66                     
  1483                           ;EEPROM.c: 20:       EECON1bits.RD=1;
  1484  006C66  80A6               	bsf	166,0,c	;volsfr
  1485  006C68                     
  1486                           ;EEPROM.c: 21:       data=EEDATA;
  1487  006C68  CFA8 F04A          	movff	4008,_data	;volatile
  1488  006C6C                     
  1489                           ;EEPROM.c: 22:       return data;
  1490  006C6C  504A               	movf	_data^0,w,c
  1491  006C6E  0012               	return		;funcret
  1492  006C70                     __end_of_EEPROM_Rx:
  1493                           	opt callstack 0
  1494                           
  1495 ;; *************** function _Serial_Escritura_Memoria *****************
  1496 ;; Defined at:
  1497 ;;		line 169 in file "serial.c"
  1498 ;; Parameters:    Size  Location     Type
  1499 ;;  direccion       1    wreg     unsigned char 
  1500 ;;  string_setpo    2    2[COMRAM] PTR unsigned char 
  1501 ;;		 -> coordenada_setpoint(11), 
  1502 ;; Auto vars:     Size  Location     Type
  1503 ;;  direccion       1    6[COMRAM] unsigned char 
  1504 ;;  i               2   12[COMRAM] int 
  1505 ;;  i               2   10[COMRAM] int 
  1506 ;;  i               2    8[COMRAM] int 
  1507 ;;  direccionFin    1    7[COMRAM] unsigned char 
  1508 ;; Return value:  Size  Location     Type
  1509 ;;                  1    wreg      void 
  1510 ;; Registers used:
  1511 ;;		wreg, fsr2l, fsr2h, status,2, status,0, cstack
  1512 ;; Tracked objects:
  1513 ;;		On entry : 0/0
  1514 ;;		On exit  : 0/0
  1515 ;;		Unchanged: 0/0
  1516 ;; Data sizes:     COMRAM   BANK0   BANK1   BANK2   BANK3   BANK4   BANK5   BANK6   BANK7
  1517 ;;      Params:         2       0       0       0       0       0       0       0       0
  1518 ;;      Locals:         8       0       0       0       0       0       0       0       0
  1519 ;;      Temps:          2       0       0       0       0       0       0       0       0
  1520 ;;      Totals:        12       0       0       0       0       0       0       0       0
  1521 ;;Total ram usage:       12 bytes
  1522 ;; Hardware stack levels used:    1
  1523 ;; Hardware stack levels required when called:    1
  1524 ;; This function calls:
  1525 ;;		_EEPROM_Tx
  1526 ;; This function is called by:
  1527 ;;		_main
  1528 ;; This function uses a non-reentrant model
  1529 ;;
  1530                           
  1531                           	psect	text7
  1532  007154                     __ptext7:
  1533                           	opt callstack 0
  1534  007154                     _Serial_Escritura_Memoria:
  1535                           	opt callstack 29
  1536                           
  1537                           ;incstack = 0
  1538                           ;Serial_Escritura_Memoria@direccion stored from wreg
  1539  007154  6E07               	movwf	Serial_Escritura_Memoria@direccion^0,c
  1540  007156                     
  1541                           ;serial.c: 170:     char direccionFinal;;serial.c: 171:     for (int i=0;i<3;i++){
  1542  007156  0E00               	movlw	0
  1543  007158  6E0A               	movwf	(Serial_Escritura_Memoria@i+1)^0,c
  1544  00715A  0E00               	movlw	0
  1545  00715C  6E09               	movwf	Serial_Escritura_Memoria@i^0,c
  1546  00715E                     l2710:
  1547                           
  1548                           ;serial.c: 172:         direccionFinal=direccion+i;
  1549  00715E  5007               	movf	Serial_Escritura_Memoria@direccion^0,w,c
  1550  007160  2409               	addwf	Serial_Escritura_Memoria@i^0,w,c
  1551  007162  6E08               	movwf	Serial_Escritura_Memoria@direccionFinal^0,c
  1552  007164                     
  1553                           ;serial.c: 173:         EEPROM_Tx(direccionFinal,string_setpoint[i]);
  1554  007164  5009               	movf	Serial_Escritura_Memoria@i^0,w,c
  1555  007166  2403               	addwf	Serial_Escritura_Memoria@string_setpoint^0,w,c
  1556  007168  6ED9               	movwf	fsr2l,c
  1557  00716A  500A               	movf	(Serial_Escritura_Memoria@i+1)^0,w,c
  1558  00716C  2004               	addwfc	(Serial_Escritura_Memoria@string_setpoint+1)^0,w,c
  1559  00716E  6EDA               	movwf	fsr2h,c
  1560  007170  50DF               	movf	indf2,w,c
  1561  007172  6E01               	movwf	EEPROM_Tx@dato^0,c
  1562  007174  5008               	movf	Serial_Escritura_Memoria@direccionFinal^0,w,c
  1563  007176  EC52  F036         	call	_EEPROM_Tx
  1564  00717A                     
  1565                           ;serial.c: 174:     }
  1566  00717A  4A09               	infsnz	Serial_Escritura_Memoria@i^0,f,c
  1567  00717C  2A0A               	incf	(Serial_Escritura_Memoria@i+1)^0,f,c
  1568  00717E  BE0A               	btfsc	(Serial_Escritura_Memoria@i+1)^0,7,c
  1569  007180  EFCB  F038         	goto	u1691
  1570  007184  500A               	movf	(Serial_Escritura_Memoria@i+1)^0,w,c
  1571  007186  E109               	bnz	u1690
  1572  007188  0E03               	movlw	3
  1573  00718A  5C09               	subwf	Serial_Escritura_Memoria@i^0,w,c
  1574  00718C  A0D8               	btfss	status,0,c
  1575  00718E  EFCB  F038         	goto	u1691
  1576  007192  EFCD  F038         	goto	u1690
  1577  007196                     u1691:
  1578  007196  EFAF  F038         	goto	l2710
  1579  00719A                     u1690:
  1580  00719A                     
  1581                           ;serial.c: 175:     for (int i=0;i<3;i++){
  1582  00719A  0E00               	movlw	0
  1583  00719C  6E0C               	movwf	(Serial_Escritura_Memoria@i_870+1)^0,c
  1584  00719E  0E00               	movlw	0
  1585  0071A0  6E0B               	movwf	Serial_Escritura_Memoria@i_870^0,c
  1586  0071A2                     l2724:
  1587                           
  1588                           ;serial.c: 176:         direccionFinal=direccion+i+3;
  1589  0071A2  5007               	movf	Serial_Escritura_Memoria@direccion^0,w,c
  1590  0071A4  240B               	addwf	Serial_Escritura_Memoria@i_870^0,w,c
  1591  0071A6  0F03               	addlw	3
  1592  0071A8  6E08               	movwf	Serial_Escritura_Memoria@direccionFinal^0,c
  1593  0071AA                     
  1594                           ;serial.c: 177:         EEPROM_Tx(direccionFinal,string_setpoint[i+4]);
  1595  0071AA  500B               	movf	Serial_Escritura_Memoria@i_870^0,w,c
  1596  0071AC  2403               	addwf	Serial_Escritura_Memoria@string_setpoint^0,w,c
  1597  0071AE  6E05               	movwf	??_Serial_Escritura_Memoria^0,c
  1598  0071B0  500C               	movf	(Serial_Escritura_Memoria@i_870+1)^0,w,c
  1599  0071B2  2004               	addwfc	(Serial_Escritura_Memoria@string_setpoint+1)^0,w,c
  1600  0071B4  6E06               	movwf	(??_Serial_Escritura_Memoria+1)^0,c
  1601  0071B6  0E04               	movlw	4
  1602  0071B8  2405               	addwf	??_Serial_Escritura_Memoria^0,w,c
  1603  0071BA  6ED9               	movwf	fsr2l,c
  1604  0071BC  0E00               	movlw	0
  1605  0071BE  2006               	addwfc	(??_Serial_Escritura_Memoria+1)^0,w,c
  1606  0071C0  6EDA               	movwf	fsr2h,c
  1607  0071C2  50DF               	movf	indf2,w,c
  1608  0071C4  6E01               	movwf	EEPROM_Tx@dato^0,c
  1609  0071C6  5008               	movf	Serial_Escritura_Memoria@direccionFinal^0,w,c
  1610  0071C8  EC52  F036         	call	_EEPROM_Tx
  1611  0071CC                     
  1612                           ;serial.c: 178:     }
  1613  0071CC  4A0B               	infsnz	Serial_Escritura_Memoria@i_870^0,f,c
  1614  0071CE  2A0C               	incf	(Serial_Escritura_Memoria@i_870+1)^0,f,c
  1615  0071D0  BE0C               	btfsc	(Serial_Escritura_Memoria@i_870+1)^0,7,c
  1616  0071D2  EFF4  F038         	goto	u1701
  1617  0071D6  500C               	movf	(Serial_Escritura_Memoria@i_870+1)^0,w,c
  1618  0071D8  E109               	bnz	u1700
  1619  0071DA  0E03               	movlw	3
  1620  0071DC  5C0B               	subwf	Serial_Escritura_Memoria@i_870^0,w,c
  1621  0071DE  A0D8               	btfss	status,0,c
  1622  0071E0  EFF4  F038         	goto	u1701
  1623  0071E4  EFF6  F038         	goto	u1700
  1624  0071E8                     u1701:
  1625  0071E8  EFD1  F038         	goto	l2724
  1626  0071EC                     u1700:
  1627  0071EC                     
  1628                           ;serial.c: 179:     for (int i=0;i<3;i++){
  1629  0071EC  0E00               	movlw	0
  1630  0071EE  6E0E               	movwf	(Serial_Escritura_Memoria@i_871+1)^0,c
  1631  0071F0  0E00               	movlw	0
  1632  0071F2  6E0D               	movwf	Serial_Escritura_Memoria@i_871^0,c
  1633  0071F4                     l2738:
  1634                           
  1635                           ;serial.c: 180:         direccionFinal=direccion+i+6;
  1636  0071F4  5007               	movf	Serial_Escritura_Memoria@direccion^0,w,c
  1637  0071F6  240D               	addwf	Serial_Escritura_Memoria@i_871^0,w,c
  1638  0071F8  0F06               	addlw	6
  1639  0071FA  6E08               	movwf	Serial_Escritura_Memoria@direccionFinal^0,c
  1640  0071FC                     
  1641                           ;serial.c: 181:         EEPROM_Tx(direccionFinal,string_setpoint[i+8]);
  1642  0071FC  500D               	movf	Serial_Escritura_Memoria@i_871^0,w,c
  1643  0071FE  2403               	addwf	Serial_Escritura_Memoria@string_setpoint^0,w,c
  1644  007200  6E05               	movwf	??_Serial_Escritura_Memoria^0,c
  1645  007202  500E               	movf	(Serial_Escritura_Memoria@i_871+1)^0,w,c
  1646  007204  2004               	addwfc	(Serial_Escritura_Memoria@string_setpoint+1)^0,w,c
  1647  007206  6E06               	movwf	(??_Serial_Escritura_Memoria+1)^0,c
  1648  007208  0E08               	movlw	8
  1649  00720A  2405               	addwf	??_Serial_Escritura_Memoria^0,w,c
  1650  00720C  6ED9               	movwf	fsr2l,c
  1651  00720E  0E00               	movlw	0
  1652  007210  2006               	addwfc	(??_Serial_Escritura_Memoria+1)^0,w,c
  1653  007212  6EDA               	movwf	fsr2h,c
  1654  007214  50DF               	movf	indf2,w,c
  1655  007216  6E01               	movwf	EEPROM_Tx@dato^0,c
  1656  007218  5008               	movf	Serial_Escritura_Memoria@direccionFinal^0,w,c
  1657  00721A  EC52  F036         	call	_EEPROM_Tx
  1658  00721E                     
  1659                           ;serial.c: 182:     }
  1660  00721E  4A0D               	infsnz	Serial_Escritura_Memoria@i_871^0,f,c
  1661  007220  2A0E               	incf	(Serial_Escritura_Memoria@i_871+1)^0,f,c
  1662  007222  BE0E               	btfsc	(Serial_Escritura_Memoria@i_871+1)^0,7,c
  1663  007224  EF1D  F039         	goto	u1711
  1664  007228  500E               	movf	(Serial_Escritura_Memoria@i_871+1)^0,w,c
  1665  00722A  E109               	bnz	u1710
  1666  00722C  0E03               	movlw	3
  1667  00722E  5C0D               	subwf	Serial_Escritura_Memoria@i_871^0,w,c
  1668  007230  A0D8               	btfss	status,0,c
  1669  007232  EF1D  F039         	goto	u1711
  1670  007236  EF1F  F039         	goto	u1710
  1671  00723A                     u1711:
  1672  00723A  EFFA  F038         	goto	l2738
  1673  00723E                     u1710:
  1674  00723E  0012               	return		;funcret
  1675  007240                     __end_of_Serial_Escritura_Memoria:
  1676                           	opt callstack 0
  1677                           
  1678 ;; *************** function _EEPROM_Tx *****************
  1679 ;; Defined at:
  1680 ;;		line 24 in file "EEPROM.c"
  1681 ;; Parameters:    Size  Location     Type
  1682 ;;  direccion       1    wreg     unsigned char 
  1683 ;;  dato            1    0[COMRAM] unsigned char 
  1684 ;; Auto vars:     Size  Location     Type
  1685 ;;  direccion       1    1[COMRAM] unsigned char 
  1686 ;; Return value:  Size  Location     Type
  1687 ;;                  1    wreg      void 
  1688 ;; Registers used:
  1689 ;;		wreg, status,2
  1690 ;; Tracked objects:
  1691 ;;		On entry : 0/0
  1692 ;;		On exit  : 0/0
  1693 ;;		Unchanged: 0/0
  1694 ;; Data sizes:     COMRAM   BANK0   BANK1   BANK2   BANK3   BANK4   BANK5   BANK6   BANK7
  1695 ;;      Params:         1       0       0       0       0       0       0       0       0
  1696 ;;      Locals:         1       0       0       0       0       0       0       0       0
  1697 ;;      Temps:          0       0       0       0       0       0       0       0       0
  1698 ;;      Totals:         2       0       0       0       0       0       0       0       0
  1699 ;;Total ram usage:        2 bytes
  1700 ;; Hardware stack levels used:    1
  1701 ;; This function calls:
  1702 ;;		Nothing
  1703 ;; This function is called by:
  1704 ;;		_Serial_Escritura_Memoria
  1705 ;; This function uses a non-reentrant model
  1706 ;;
  1707                           
  1708                           	psect	text8
  1709  006CA4                     __ptext8:
  1710                           	opt callstack 0
  1711  006CA4                     _EEPROM_Tx:
  1712                           	opt callstack 29
  1713                           
  1714                           ;incstack = 0
  1715                           ;EEPROM_Tx@direccion stored from wreg
  1716  006CA4  6E02               	movwf	EEPROM_Tx@direccion^0,c
  1717  006CA6                     
  1718                           ;EEPROM.c: 25:     EEADR=direccion;
  1719  006CA6  C002  FFA9         	movff	EEPROM_Tx@direccion,4009	;volatile
  1720  006CAA                     
  1721                           ;EEPROM.c: 26:     EEDATA=data;
  1722  006CAA  C04A  FFA8         	movff	_data,4008	;volatile
  1723  006CAE                     
  1724                           ;EEPROM.c: 27:      EECON1bits.EEPGD=0;
  1725  006CAE  9EA6               	bcf	166,7,c	;volsfr
  1726  006CB0                     
  1727                           ;EEPROM.c: 28:       EECON1bits.CFGS=0;
  1728  006CB0  9CA6               	bcf	166,6,c	;volsfr
  1729  006CB2                     
  1730                           ;EEPROM.c: 29:       EECON1bits.WREN=1;
  1731  006CB2  84A6               	bsf	166,2,c	;volsfr
  1732  006CB4                     
  1733                           ;EEPROM.c: 30:       INTCONbits.GIE=0;
  1734  006CB4  9EF2               	bcf	242,7,c	;volatile
  1735  006CB6                     
  1736                           ;EEPROM.c: 32:       EECON2=0x55;
  1737  006CB6  0E55               	movlw	85
  1738  006CB8  6EA7               	movwf	167,c	;volsfr
  1739  006CBA                     
  1740                           ;EEPROM.c: 33:       EECON2=0x0AA;
  1741  006CBA  0EAA               	movlw	170
  1742  006CBC  6EA7               	movwf	167,c	;volsfr
  1743  006CBE                     
  1744                           ;EEPROM.c: 34:       EECON1bits.WR=1;
  1745  006CBE  82A6               	bsf	166,1,c	;volsfr
  1746  006CC0                     
  1747                           ;EEPROM.c: 35:       INTCONbits.GIE=1;
  1748  006CC0  8EF2               	bsf	242,7,c	;volatile
  1749  006CC2                     
  1750                           ;EEPROM.c: 36:       EECON1bits.WREN=0 ;
  1751  006CC2  94A6               	bcf	166,2,c	;volsfr
  1752  006CC4  0012               	return		;funcret
  1753  006CC6                     __end_of_EEPROM_Tx:
  1754                           	opt callstack 0
  1755                           
  1756 ;; *************** function _Serial_DecodificacionY *****************
  1757 ;; Defined at:
  1758 ;;		line 74 in file "serial.c"
  1759 ;; Parameters:    Size  Location     Type
  1760 ;;  string_coord    2   22[COMRAM] PTR unsigned char 
  1761 ;;		 -> coordenada_array(7), 
  1762 ;;  pointerCY       2   24[COMRAM] PTR int 
  1763 ;;		 -> CY(2), 
  1764 ;; Auto vars:     Size  Location     Type
  1765 ;;  i               2   31[COMRAM] int 
  1766 ;;  coordenadaY     3   28[COMRAM] unsigned char [3]
  1767 ;; Return value:  Size  Location     Type
  1768 ;;                  1    wreg      void 
  1769 ;; Registers used:
  1770 ;;		wreg, fsr1l, fsr1h, fsr2l, fsr2h, status,2, status,0, prodl, prodh, cstack
  1771 ;; Tracked objects:
  1772 ;;		On entry : 0/0
  1773 ;;		On exit  : 0/0
  1774 ;;		Unchanged: 0/0
  1775 ;; Data sizes:     COMRAM   BANK0   BANK1   BANK2   BANK3   BANK4   BANK5   BANK6   BANK7
  1776 ;;      Params:         4       0       0       0       0       0       0       0       0
  1777 ;;      Locals:         5       0       0       0       0       0       0       0       0
  1778 ;;      Temps:          2       0       0       0       0       0       0       0       0
  1779 ;;      Totals:        11       0       0       0       0       0       0       0       0
  1780 ;;Total ram usage:       11 bytes
  1781 ;; Hardware stack levels used:    1
  1782 ;; Hardware stack levels required when called:    2
  1783 ;; This function calls:
  1784 ;;		_USART_Tx
  1785 ;;		_atoi
  1786 ;; This function is called by:
  1787 ;;		_main
  1788 ;; This function uses a non-reentrant model
  1789 ;;
  1790                           
  1791                           	psect	text9
  1792  00706C                     __ptext9:
  1793                           	opt callstack 0
  1794  00706C                     _Serial_DecodificacionY:
  1795                           	opt callstack 28
  1796  00706C                     
  1797                           ;serial.c: 75:     char coordenadaY[3];;serial.c: 76:     for (int i = 0; i < 3; i++) {
  1798  00706C  0E00               	movlw	0
  1799  00706E  6E21               	movwf	(Serial_DecodificacionY@i+1)^0,c
  1800  007070  0E00               	movlw	0
  1801  007072  6E20               	movwf	Serial_DecodificacionY@i^0,c
  1802  007074                     l2598:
  1803                           
  1804                           ;serial.c: 77:         coordenadaY[i] = string_coordenada[4 + i];
  1805  007074  5020               	movf	Serial_DecodificacionY@i^0,w,c
  1806  007076  2417               	addwf	Serial_DecodificacionY@string_coordenada^0,w,c
  1807  007078  6E1B               	movwf	??_Serial_DecodificacionY^0,c
  1808  00707A  5021               	movf	(Serial_DecodificacionY@i+1)^0,w,c
  1809  00707C  2018               	addwfc	(Serial_DecodificacionY@string_coordenada+1)^0,w,c
  1810  00707E  6E1C               	movwf	(??_Serial_DecodificacionY+1)^0,c
  1811  007080  0E04               	movlw	4
  1812  007082  241B               	addwf	??_Serial_DecodificacionY^0,w,c
  1813  007084  6ED9               	movwf	fsr2l,c
  1814  007086  0E00               	movlw	0
  1815  007088  201C               	addwfc	(??_Serial_DecodificacionY+1)^0,w,c
  1816  00708A  6EDA               	movwf	fsr2h,c
  1817  00708C  0E1D               	movlw	low Serial_DecodificacionY@coordenadaY
  1818  00708E  2420               	addwf	Serial_DecodificacionY@i^0,w,c
  1819  007090  6EE1               	movwf	fsr1l,c
  1820  007092  0E00               	movlw	high Serial_DecodificacionY@coordenadaY
  1821  007094  2021               	addwfc	(Serial_DecodificacionY@i+1)^0,w,c
  1822  007096  6EE2               	movwf	fsr1h,c
  1823  007098  CFDF FFE7          	movff	indf2,indf1
  1824  00709C                     
  1825                           ;serial.c: 78:     }
  1826  00709C  4A20               	infsnz	Serial_DecodificacionY@i^0,f,c
  1827  00709E  2A21               	incf	(Serial_DecodificacionY@i+1)^0,f,c
  1828  0070A0  BE21               	btfsc	(Serial_DecodificacionY@i+1)^0,7,c
  1829  0070A2  EF5C  F038         	goto	u1651
  1830  0070A6  5021               	movf	(Serial_DecodificacionY@i+1)^0,w,c
  1831  0070A8  E109               	bnz	u1650
  1832  0070AA  0E03               	movlw	3
  1833  0070AC  5C20               	subwf	Serial_DecodificacionY@i^0,w,c
  1834  0070AE  A0D8               	btfss	status,0,c
  1835  0070B0  EF5C  F038         	goto	u1651
  1836  0070B4  EF5E  F038         	goto	u1650
  1837  0070B8                     u1651:
  1838  0070B8  EF3A  F038         	goto	l2598
  1839  0070BC                     u1650:
  1840  0070BC                     
  1841                           ;serial.c: 79:     USART_Tx('1');
  1842  0070BC  0E31               	movlw	49
  1843  0070BE  EC38  F036         	call	_USART_Tx
  1844  0070C2                     
  1845                           ;serial.c: 80:     *pointerCY = atoi(coordenadaY);
  1846  0070C2  0E1D               	movlw	low Serial_DecodificacionY@coordenadaY
  1847  0070C4  6E08               	movwf	atoi@s^0,c
  1848  0070C6  0E00               	movlw	high Serial_DecodificacionY@coordenadaY
  1849  0070C8  6E09               	movwf	(atoi@s+1)^0,c
  1850  0070CA  ECC4  F03B         	call	_atoi	;wreg free
  1851  0070CE  C019  FFD9         	movff	Serial_DecodificacionY@pointerCY,fsr2l
  1852  0070D2  C01A  FFDA         	movff	Serial_DecodificacionY@pointerCY+1,fsr2h
  1853  0070D6  C008  FFDE         	movff	?_atoi,postinc2
  1854  0070DA  C009  FFDD         	movff	?_atoi+1,postdec2
  1855  0070DE  0012               	return		;funcret
  1856  0070E0                     __end_of_Serial_DecodificacionY:
  1857                           	opt callstack 0
  1858                           
  1859 ;; *************** function _Serial_DecodificacionX *****************
  1860 ;; Defined at:
  1861 ;;		line 64 in file "serial.c"
  1862 ;; Parameters:    Size  Location     Type
  1863 ;;  string_coord    2   22[COMRAM] PTR unsigned char 
  1864 ;;		 -> coordenada_array(7), 
  1865 ;;  pointerCX       2   24[COMRAM] PTR int 
  1866 ;;		 -> CX(2), 
  1867 ;; Auto vars:     Size  Location     Type
  1868 ;;  i               2   29[COMRAM] int 
  1869 ;;  coordenadaX     3   26[COMRAM] unsigned char [3]
  1870 ;; Return value:  Size  Location     Type
  1871 ;;                  1    wreg      void 
  1872 ;; Registers used:
  1873 ;;		wreg, fsr1l, fsr1h, fsr2l, fsr2h, status,2, status,0, prodl, prodh, cstack
  1874 ;; Tracked objects:
  1875 ;;		On entry : 0/0
  1876 ;;		On exit  : 0/0
  1877 ;;		Unchanged: 0/0
  1878 ;; Data sizes:     COMRAM   BANK0   BANK1   BANK2   BANK3   BANK4   BANK5   BANK6   BANK7
  1879 ;;      Params:         4       0       0       0       0       0       0       0       0
  1880 ;;      Locals:         5       0       0       0       0       0       0       0       0
  1881 ;;      Temps:          0       0       0       0       0       0       0       0       0
  1882 ;;      Totals:         9       0       0       0       0       0       0       0       0
  1883 ;;Total ram usage:        9 bytes
  1884 ;; Hardware stack levels used:    1
  1885 ;; Hardware stack levels required when called:    2
  1886 ;; This function calls:
  1887 ;;		_USART_Tx
  1888 ;;		_atoi
  1889 ;; This function is called by:
  1890 ;;		_main
  1891 ;; This function uses a non-reentrant model
  1892 ;;
  1893                           
  1894                           	psect	text10
  1895  006F28                     __ptext10:
  1896                           	opt callstack 0
  1897  006F28                     _Serial_DecodificacionX:
  1898                           	opt callstack 28
  1899  006F28                     
  1900                           ;serial.c: 65:     char coordenadaX[3];;serial.c: 66:     for (int i = 0; i < 3; i++) {
  1901  006F28  0E00               	movlw	0
  1902  006F2A  6E1F               	movwf	(Serial_DecodificacionX@i+1)^0,c
  1903  006F2C  0E00               	movlw	0
  1904  006F2E  6E1E               	movwf	Serial_DecodificacionX@i^0,c
  1905  006F30                     l2582:
  1906                           
  1907                           ;serial.c: 67:         coordenadaX[i] = string_coordenada[i];
  1908  006F30  501E               	movf	Serial_DecodificacionX@i^0,w,c
  1909  006F32  2417               	addwf	Serial_DecodificacionX@string_coordenada^0,w,c
  1910  006F34  6ED9               	movwf	fsr2l,c
  1911  006F36  501F               	movf	(Serial_DecodificacionX@i+1)^0,w,c
  1912  006F38  2018               	addwfc	(Serial_DecodificacionX@string_coordenada+1)^0,w,c
  1913  006F3A  6EDA               	movwf	fsr2h,c
  1914  006F3C  0E1B               	movlw	low Serial_DecodificacionX@coordenadaX
  1915  006F3E  241E               	addwf	Serial_DecodificacionX@i^0,w,c
  1916  006F40  6EE1               	movwf	fsr1l,c
  1917  006F42  0E00               	movlw	high Serial_DecodificacionX@coordenadaX
  1918  006F44  201F               	addwfc	(Serial_DecodificacionX@i+1)^0,w,c
  1919  006F46  6EE2               	movwf	fsr1h,c
  1920  006F48  CFDF FFE7          	movff	indf2,indf1
  1921  006F4C                     
  1922                           ;serial.c: 68:     }
  1923  006F4C  4A1E               	infsnz	Serial_DecodificacionX@i^0,f,c
  1924  006F4E  2A1F               	incf	(Serial_DecodificacionX@i+1)^0,f,c
  1925  006F50  BE1F               	btfsc	(Serial_DecodificacionX@i+1)^0,7,c
  1926  006F52  EFB4  F037         	goto	u1641
  1927  006F56  501F               	movf	(Serial_DecodificacionX@i+1)^0,w,c
  1928  006F58  E109               	bnz	u1640
  1929  006F5A  0E03               	movlw	3
  1930  006F5C  5C1E               	subwf	Serial_DecodificacionX@i^0,w,c
  1931  006F5E  A0D8               	btfss	status,0,c
  1932  006F60  EFB4  F037         	goto	u1641
  1933  006F64  EFB6  F037         	goto	u1640
  1934  006F68                     u1641:
  1935  006F68  EF98  F037         	goto	l2582
  1936  006F6C                     u1640:
  1937  006F6C                     
  1938                           ;serial.c: 69:     USART_Tx('2');
  1939  006F6C  0E32               	movlw	50
  1940  006F6E  EC38  F036         	call	_USART_Tx
  1941  006F72                     
  1942                           ;serial.c: 70:     *pointerCX = atoi(coordenadaX);
  1943  006F72  0E1B               	movlw	low Serial_DecodificacionX@coordenadaX
  1944  006F74  6E08               	movwf	atoi@s^0,c
  1945  006F76  0E00               	movlw	high Serial_DecodificacionX@coordenadaX
  1946  006F78  6E09               	movwf	(atoi@s+1)^0,c
  1947  006F7A  ECC4  F03B         	call	_atoi	;wreg free
  1948  006F7E  C019  FFD9         	movff	Serial_DecodificacionX@pointerCX,fsr2l
  1949  006F82  C01A  FFDA         	movff	Serial_DecodificacionX@pointerCX+1,fsr2h
  1950  006F86  C008  FFDE         	movff	?_atoi,postinc2
  1951  006F8A  C009  FFDD         	movff	?_atoi+1,postdec2
  1952  006F8E  0012               	return		;funcret
  1953  006F90                     __end_of_Serial_DecodificacionX:
  1954                           	opt callstack 0
  1955                           
  1956 ;; *************** function _atoi *****************
  1957 ;; Defined at:
  1958 ;;		line 4 in file "C:\Program Files (x86)\Microchip\xc8\v2.10\pic\sources\c99\common\atoi.c"
  1959 ;; Parameters:    Size  Location     Type
  1960 ;;  s               2    7[COMRAM] PTR const unsigned char 
  1961 ;;		 -> Serial_Lectura_Memoria@coordenadaZ(3), Serial_Lectura_Memoria@coordenadaY(3), Serial_Lectura_Memoria@coordenadaX
      +(3), Serial_DecodificacionZ@coordenadaZ(3), 
  1962 ;;		 -> Serial_DecodificacionY@coordenadaY(3), Serial_DecodificacionX@coordenadaX(3), 
  1963 ;; Auto vars:     Size  Location     Type
  1964 ;;  n               2   20[COMRAM] int 
  1965 ;;  neg             2   13[COMRAM] int 
  1966 ;; Return value:  Size  Location     Type
  1967 ;;                  2    7[COMRAM] int 
  1968 ;; Registers used:
  1969 ;;		wreg, fsr2l, fsr2h, status,2, status,0, prodl, prodh, cstack
  1970 ;; Tracked objects:
  1971 ;;		On entry : 0/0
  1972 ;;		On exit  : 0/0
  1973 ;;		Unchanged: 0/0
  1974 ;; Data sizes:     COMRAM   BANK0   BANK1   BANK2   BANK3   BANK4   BANK5   BANK6   BANK7
  1975 ;;      Params:         2       0       0       0       0       0       0       0       0
  1976 ;;      Locals:         9       0       0       0       0       0       0       0       0
  1977 ;;      Temps:          4       0       0       0       0       0       0       0       0
  1978 ;;      Totals:        15       0       0       0       0       0       0       0       0
  1979 ;;Total ram usage:       15 bytes
  1980 ;; Hardware stack levels used:    1
  1981 ;; Hardware stack levels required when called:    1
  1982 ;; This function calls:
  1983 ;;		___wmul
  1984 ;;		_isdigit
  1985 ;;		_isspace
  1986 ;; This function is called by:
  1987 ;;		_Serial_DecodificacionX
  1988 ;;		_Serial_DecodificacionY
  1989 ;;		_Serial_Lectura_Memoria
  1990 ;;		_Serial_DecodificacionZ
  1991 ;; This function uses a non-reentrant model
  1992 ;;
  1993                           
  1994                           	psect	text11
  1995  007788                     __ptext11:
  1996                           	opt callstack 0
  1997  007788                     _atoi:
  1998                           	opt callstack 28
  1999  007788  0E00               	movlw	0
  2000  00778A  6E16               	movwf	(atoi@n+1)^0,c
  2001  00778C  0E00               	movlw	0
  2002  00778E  6E15               	movwf	atoi@n^0,c
  2003  007790  0E00               	movlw	0
  2004  007792  6E0F               	movwf	(atoi@neg+1)^0,c
  2005  007794  0E00               	movlw	0
  2006  007796  6E0E               	movwf	atoi@neg^0,c
  2007  007798  EFD0  F03B         	goto	l2388
  2008  00779C                     l2386:
  2009  00779C  4A08               	infsnz	atoi@s^0,f,c
  2010  00779E  2A09               	incf	(atoi@s+1)^0,f,c
  2011  0077A0                     l2388:
  2012  0077A0  0E01               	movlw	1
  2013  0077A2  6E14               	movwf	_atoi$1654^0,c
  2014  0077A4  C008  FFD9         	movff	atoi@s,fsr2l
  2015  0077A8  C009  FFDA         	movff	atoi@s+1,fsr2h
  2016  0077AC  0E20               	movlw	32
  2017  0077AE  18DE               	xorwf	postinc2,w,c
  2018  0077B0  B4D8               	btfsc	status,2,c
  2019  0077B2  EFDD  F03B         	goto	u1461
  2020  0077B6  EFDF  F03B         	goto	u1460
  2021  0077BA                     u1461:
  2022  0077BA  EFFB  F03B         	goto	l2396
  2023  0077BE                     u1460:
  2024  0077BE  0EF7               	movlw	247
  2025  0077C0  6E0A               	movwf	??_atoi^0,c
  2026  0077C2  0EFF               	movlw	255
  2027  0077C4  6E0B               	movwf	(??_atoi+1)^0,c
  2028  0077C6  C008  FFD9         	movff	atoi@s,fsr2l
  2029  0077CA  C009  FFDA         	movff	atoi@s+1,fsr2h
  2030  0077CE  50DF               	movf	indf2,w,c
  2031  0077D0  6E0C               	movwf	(??_atoi+2)^0,c
  2032  0077D2  6A0D               	clrf	(??_atoi+3)^0,c
  2033  0077D4  500A               	movf	??_atoi^0,w,c
  2034  0077D6  260C               	addwf	(??_atoi+2)^0,f,c
  2035  0077D8  500B               	movf	(??_atoi+1)^0,w,c
  2036  0077DA  220D               	addwfc	(??_atoi+3)^0,f,c
  2037  0077DC  500D               	movf	(??_atoi+3)^0,w,c
  2038  0077DE  E109               	bnz	u1470
  2039  0077E0  0E05               	movlw	5
  2040  0077E2  5C0C               	subwf	(??_atoi+2)^0,w,c
  2041  0077E4  A0D8               	btfss	status,0,c
  2042  0077E6  EFF7  F03B         	goto	u1471
  2043  0077EA  EFF9  F03B         	goto	u1470
  2044  0077EE                     u1471:
  2045  0077EE  EFFB  F03B         	goto	l2396
  2046  0077F2                     u1470:
  2047  0077F2  0E00               	movlw	0
  2048  0077F4  6E14               	movwf	_atoi$1654^0,c
  2049  0077F6                     l2396:
  2050  0077F6  C014  F010         	movff	_atoi$1654,_atoi$1653
  2051  0077FA  6A11               	clrf	(_atoi$1653+1)^0,c
  2052  0077FC  5010               	movf	_atoi$1653^0,w,c
  2053  0077FE  1011               	iorwf	(_atoi$1653+1)^0,w,c
  2054  007800  A4D8               	btfss	status,2,c
  2055  007802  EF05  F03C         	goto	u1481
  2056  007806  EF07  F03C         	goto	u1480
  2057  00780A                     u1481:
  2058  00780A  EFCE  F03B         	goto	l2386
  2059  00780E                     u1480:
  2060  00780E  EF11  F03C         	goto	l2406
  2061  007812                     l2402:
  2062  007812  0E00               	movlw	0
  2063  007814  6E0F               	movwf	(atoi@neg+1)^0,c
  2064  007816  0E01               	movlw	1
  2065  007818  6E0E               	movwf	atoi@neg^0,c
  2066  00781A                     l2404:
  2067  00781A  4A08               	infsnz	atoi@s^0,f,c
  2068  00781C  2A09               	incf	(atoi@s+1)^0,f,c
  2069  00781E  EF46  F03C         	goto	l2412
  2070  007822                     l2406:
  2071  007822  C008  FFD9         	movff	atoi@s,fsr2l
  2072  007826  C009  FFDA         	movff	atoi@s+1,fsr2h
  2073  00782A  50DF               	movf	indf2,w,c
  2074  00782C  6E0A               	movwf	??_atoi^0,c
  2075  00782E  6A0B               	clrf	(??_atoi+1)^0,c
  2076                           
  2077                           ; Switch on 2 bytes has been partitioned into a top level switch of size 1, and 1 sub-sw
      +                          itches
  2078                           ; Switch size 1, requested type "simple"
  2079                           ; Number of cases is 1, Range of values is 0 to 0
  2080                           ; switch strategies available:
  2081                           ; Name         Instructions Cycles
  2082                           ; simple_byte            4     3 (average)
  2083                           ;	Chosen strategy is simple_byte
  2084  007830  500B               	movf	(??_atoi+1)^0,w,c
  2085  007832  0A00               	xorlw	0	; case 0
  2086  007834  B4D8               	btfsc	status,2,c
  2087  007836  EF1F  F03C         	goto	l2832
  2088  00783A  EF46  F03C         	goto	l2412
  2089  00783E                     l2832:
  2090                           
  2091                           ; Switch size 1, requested type "simple"
  2092                           ; Number of cases is 2, Range of values is 43 to 45
  2093                           ; switch strategies available:
  2094                           ; Name         Instructions Cycles
  2095                           ; simple_byte            7     4 (average)
  2096                           ;	Chosen strategy is simple_byte
  2097  00783E  500A               	movf	??_atoi^0,w,c
  2098  007840  0A2B               	xorlw	43	; case 43
  2099  007842  B4D8               	btfsc	status,2,c
  2100  007844  EF0D  F03C         	goto	l2404
  2101  007848  0A06               	xorlw	6	; case 45
  2102  00784A  B4D8               	btfsc	status,2,c
  2103  00784C  EF09  F03C         	goto	l2402
  2104  007850  EF46  F03C         	goto	l2412
  2105  007854                     l2408:
  2106  007854  C015  F001         	movff	atoi@n,___wmul@multiplier
  2107  007858  C016  F002         	movff	atoi@n+1,___wmul@multiplier+1
  2108  00785C  0E00               	movlw	0
  2109  00785E  6E04               	movwf	(___wmul@multiplicand+1)^0,c
  2110  007860  0E0A               	movlw	10
  2111  007862  6E03               	movwf	___wmul@multiplicand^0,c
  2112  007864  EC99  F036         	call	___wmul	;wreg free
  2113  007868  C008  FFD9         	movff	atoi@s,fsr2l
  2114  00786C  C009  FFDA         	movff	atoi@s+1,fsr2h
  2115  007870  50DF               	movf	indf2,w,c
  2116  007872  6E0A               	movwf	??_atoi^0,c
  2117  007874  500A               	movf	??_atoi^0,w,c
  2118  007876  5E01               	subwf	?___wmul^0,f,c
  2119  007878  0E00               	movlw	0
  2120  00787A  5A02               	subwfb	(?___wmul+1)^0,f,c
  2121  00787C  0E30               	movlw	48
  2122  00787E  2401               	addwf	?___wmul^0,w,c
  2123  007880  6E15               	movwf	atoi@n^0,c
  2124  007882  0E00               	movlw	0
  2125  007884  2002               	addwfc	(?___wmul+1)^0,w,c
  2126  007886  6E16               	movwf	(atoi@n+1)^0,c
  2127  007888  EF0D  F03C         	goto	l2404
  2128  00788C                     l2412:
  2129  00788C  0ED0               	movlw	208
  2130  00788E  6E0A               	movwf	??_atoi^0,c
  2131  007890  0EFF               	movlw	255
  2132  007892  6E0B               	movwf	(??_atoi+1)^0,c
  2133  007894  C008  FFD9         	movff	atoi@s,fsr2l
  2134  007898  C009  FFDA         	movff	atoi@s+1,fsr2h
  2135  00789C  50DF               	movf	indf2,w,c
  2136  00789E  6E0C               	movwf	(??_atoi+2)^0,c
  2137  0078A0  6A0D               	clrf	(??_atoi+3)^0,c
  2138  0078A2  500A               	movf	??_atoi^0,w,c
  2139  0078A4  260C               	addwf	(??_atoi+2)^0,f,c
  2140  0078A6  500B               	movf	(??_atoi+1)^0,w,c
  2141  0078A8  220D               	addwfc	(??_atoi+3)^0,f,c
  2142  0078AA  500D               	movf	(??_atoi+3)^0,w,c
  2143  0078AC  E10A               	bnz	u1490
  2144  0078AE  0E0A               	movlw	10
  2145  0078B0  5C0C               	subwf	(??_atoi+2)^0,w,c
  2146  0078B2  A0D8               	btfss	status,0,c
  2147  0078B4  EF5E  F03C         	goto	u1491
  2148  0078B8  EF61  F03C         	goto	u1490
  2149  0078BC                     u1491:
  2150  0078BC  0E01               	movlw	1
  2151  0078BE  EF62  F03C         	goto	u1500
  2152  0078C2                     u1490:
  2153  0078C2  0E00               	movlw	0
  2154  0078C4                     u1500:
  2155  0078C4  6E12               	movwf	_atoi$1655^0,c
  2156  0078C6  6A13               	clrf	(_atoi$1655+1)^0,c
  2157  0078C8  5012               	movf	_atoi$1655^0,w,c
  2158  0078CA  1013               	iorwf	(_atoi$1655+1)^0,w,c
  2159  0078CC  A4D8               	btfss	status,2,c
  2160  0078CE  EF6B  F03C         	goto	u1511
  2161  0078D2  EF6D  F03C         	goto	u1510
  2162  0078D6                     u1511:
  2163  0078D6  EF2A  F03C         	goto	l2408
  2164  0078DA                     u1510:
  2165  0078DA  500E               	movf	atoi@neg^0,w,c
  2166  0078DC  100F               	iorwf	(atoi@neg+1)^0,w,c
  2167  0078DE  A4D8               	btfss	status,2,c
  2168  0078E0  EF74  F03C         	goto	u1521
  2169  0078E4  EF76  F03C         	goto	u1520
  2170  0078E8                     u1521:
  2171  0078E8  EF84  F03C         	goto	l1153
  2172  0078EC                     u1520:
  2173  0078EC  C015  F00A         	movff	atoi@n,??_atoi
  2174  0078F0  C016  F00B         	movff	atoi@n+1,??_atoi+1
  2175  0078F4  1E0A               	comf	??_atoi^0,f,c
  2176  0078F6  1E0B               	comf	(??_atoi+1)^0,f,c
  2177  0078F8  4A0A               	infsnz	??_atoi^0,f,c
  2178  0078FA  2A0B               	incf	(??_atoi+1)^0,f,c
  2179  0078FC  C00A  F008         	movff	??_atoi,?_atoi
  2180  007900  C00B  F009         	movff	??_atoi+1,?_atoi+1
  2181  007904  EF88  F03C         	goto	l1156
  2182  007908                     l1153:
  2183  007908  C015  F008         	movff	atoi@n,?_atoi
  2184  00790C  C016  F009         	movff	atoi@n+1,?_atoi+1
  2185  007910                     l1156:
  2186  007910  0012               	return		;funcret
  2187  007912                     __end_of_atoi:
  2188                           	opt callstack 0
  2189                           
  2190 ;; *************** function _isspace *****************
  2191 ;; Defined at:
  2192 ;;		line 5 in file "C:\Program Files (x86)\Microchip\xc8\v2.10\pic\sources\c99\common\isspace.c"
  2193 ;; Parameters:    Size  Location     Type
  2194 ;;  c               2    0[COMRAM] int 
  2195 ;; Auto vars:     Size  Location     Type
  2196 ;;		None
  2197 ;; Return value:  Size  Location     Type
  2198 ;;                  2    0[COMRAM] int 
  2199 ;; Registers used:
  2200 ;;		wreg, status,2, status,0
  2201 ;; Tracked objects:
  2202 ;;		On entry : 0/0
  2203 ;;		On exit  : 0/0
  2204 ;;		Unchanged: 0/0
  2205 ;; Data sizes:     COMRAM   BANK0   BANK1   BANK2   BANK3   BANK4   BANK5   BANK6   BANK7
  2206 ;;      Params:         2       0       0       0       0       0       0       0       0
  2207 ;;      Locals:         1       0       0       0       0       0       0       0       0
  2208 ;;      Temps:          4       0       0       0       0       0       0       0       0
  2209 ;;      Totals:         7       0       0       0       0       0       0       0       0
  2210 ;;Total ram usage:        7 bytes
  2211 ;; Hardware stack levels used:    1
  2212 ;; This function calls:
  2213 ;;		Nothing
  2214 ;; This function is called by:
  2215 ;;		_atoi
  2216 ;; This function uses a non-reentrant model
  2217 ;;
  2218                           
  2219                           	psect	text12
  2220  006E80                     __ptext12:
  2221                           	opt callstack 0
  2222  006E80                     _isspace:
  2223                           	opt callstack 28
  2224  006E80  0E01               	movlw	1
  2225  006E82  6E07               	movwf	_isspace$1671^0,c
  2226  006E84  0E20               	movlw	32
  2227  006E86  1801               	xorwf	isspace@c^0,w,c
  2228  006E88  1002               	iorwf	(isspace@c+1)^0,w,c
  2229  006E8A  B4D8               	btfsc	status,2,c
  2230  006E8C  EF4A  F037         	goto	u1341
  2231  006E90  EF4C  F037         	goto	u1340
  2232  006E94                     u1341:
  2233  006E94  EF65  F037         	goto	l2332
  2234  006E98                     u1340:
  2235  006E98  0EF7               	movlw	247
  2236  006E9A  6E03               	movwf	??_isspace^0,c
  2237  006E9C  0EFF               	movlw	255
  2238  006E9E  6E04               	movwf	(??_isspace+1)^0,c
  2239  006EA0  C001  F005         	movff	isspace@c,??_isspace+2
  2240  006EA4  C002  F006         	movff	isspace@c+1,??_isspace+3
  2241  006EA8  5003               	movf	??_isspace^0,w,c
  2242  006EAA  2605               	addwf	(??_isspace+2)^0,f,c
  2243  006EAC  5004               	movf	(??_isspace+1)^0,w,c
  2244  006EAE  2206               	addwfc	(??_isspace+3)^0,f,c
  2245  006EB0  5006               	movf	(??_isspace+3)^0,w,c
  2246  006EB2  E109               	bnz	u1350
  2247  006EB4  0E05               	movlw	5
  2248  006EB6  5C05               	subwf	(??_isspace+2)^0,w,c
  2249  006EB8  A0D8               	btfss	status,0,c
  2250  006EBA  EF61  F037         	goto	u1351
  2251  006EBE  EF63  F037         	goto	u1350
  2252  006EC2                     u1351:
  2253  006EC2  EF65  F037         	goto	l2332
  2254  006EC6                     u1350:
  2255  006EC6  0E00               	movlw	0
  2256  006EC8  6E07               	movwf	_isspace$1671^0,c
  2257  006ECA                     l2332:
  2258  006ECA  C007  F001         	movff	_isspace$1671,?_isspace
  2259  006ECE  6A02               	clrf	(?_isspace+1)^0,c
  2260  006ED0  0012               	return		;funcret
  2261  006ED2                     __end_of_isspace:
  2262                           	opt callstack 0
  2263                           
  2264 ;; *************** function _isdigit *****************
  2265 ;; Defined at:
  2266 ;;		line 5 in file "C:\Program Files (x86)\Microchip\xc8\v2.10\pic\sources\c99\common\isdigit.c"
  2267 ;; Parameters:    Size  Location     Type
  2268 ;;  c               2    0[COMRAM] int 
  2269 ;; Auto vars:     Size  Location     Type
  2270 ;;		None
  2271 ;; Return value:  Size  Location     Type
  2272 ;;                  2    0[COMRAM] int 
  2273 ;; Registers used:
  2274 ;;		wreg, status,2, status,0
  2275 ;; Tracked objects:
  2276 ;;		On entry : 0/0
  2277 ;;		On exit  : 0/0
  2278 ;;		Unchanged: 0/0
  2279 ;; Data sizes:     COMRAM   BANK0   BANK1   BANK2   BANK3   BANK4   BANK5   BANK6   BANK7
  2280 ;;      Params:         2       0       0       0       0       0       0       0       0
  2281 ;;      Locals:         0       0       0       0       0       0       0       0       0
  2282 ;;      Temps:          4       0       0       0       0       0       0       0       0
  2283 ;;      Totals:         6       0       0       0       0       0       0       0       0
  2284 ;;Total ram usage:        6 bytes
  2285 ;; Hardware stack levels used:    1
  2286 ;; This function calls:
  2287 ;;		Nothing
  2288 ;; This function is called by:
  2289 ;;		_atoi
  2290 ;; This function uses a non-reentrant model
  2291 ;;
  2292                           
  2293                           	psect	text13
  2294  006DB8                     __ptext13:
  2295                           	opt callstack 0
  2296  006DB8                     _isdigit:
  2297                           	opt callstack 28
  2298  006DB8  0ED0               	movlw	208
  2299  006DBA  6E03               	movwf	??_isdigit^0,c
  2300  006DBC  0EFF               	movlw	255
  2301  006DBE  6E04               	movwf	(??_isdigit+1)^0,c
  2302  006DC0  C001  F005         	movff	isdigit@c,??_isdigit+2
  2303  006DC4  C002  F006         	movff	isdigit@c+1,??_isdigit+3
  2304  006DC8  5003               	movf	??_isdigit^0,w,c
  2305  006DCA  2605               	addwf	(??_isdigit+2)^0,f,c
  2306  006DCC  5004               	movf	(??_isdigit+1)^0,w,c
  2307  006DCE  2206               	addwfc	(??_isdigit+3)^0,f,c
  2308  006DD0  5006               	movf	(??_isdigit+3)^0,w,c
  2309  006DD2  E10A               	bnz	u1360
  2310  006DD4  0E0A               	movlw	10
  2311  006DD6  5C05               	subwf	(??_isdigit+2)^0,w,c
  2312  006DD8  A0D8               	btfss	status,0,c
  2313  006DDA  EFF1  F036         	goto	u1361
  2314  006DDE  EFF4  F036         	goto	u1360
  2315  006DE2                     u1361:
  2316  006DE2  0E01               	movlw	1
  2317  006DE4  EFF5  F036         	goto	u1370
  2318  006DE8                     u1360:
  2319  006DE8  0E00               	movlw	0
  2320  006DEA                     u1370:
  2321  006DEA  6E01               	movwf	?_isdigit^0,c
  2322  006DEC  6A02               	clrf	(?_isdigit+1)^0,c
  2323  006DEE  0012               	return		;funcret
  2324  006DF0                     __end_of_isdigit:
  2325                           	opt callstack 0
  2326                           
  2327 ;; *************** function ___wmul *****************
  2328 ;; Defined at:
  2329 ;;		line 15 in file "C:\Program Files (x86)\Microchip\xc8\v2.10\pic\sources\c99\common\Umul16.c"
  2330 ;; Parameters:    Size  Location     Type
  2331 ;;  multiplier      2    0[COMRAM] unsigned int 
  2332 ;;  multiplicand    2    2[COMRAM] unsigned int 
  2333 ;; Auto vars:     Size  Location     Type
  2334 ;;  product         2    4[COMRAM] unsigned int 
  2335 ;; Return value:  Size  Location     Type
  2336 ;;                  2    0[COMRAM] unsigned int 
  2337 ;; Registers used:
  2338 ;;		wreg, status,2, status,0, prodl, prodh
  2339 ;; Tracked objects:
  2340 ;;		On entry : 0/0
  2341 ;;		On exit  : 0/0
  2342 ;;		Unchanged: 0/0
  2343 ;; Data sizes:     COMRAM   BANK0   BANK1   BANK2   BANK3   BANK4   BANK5   BANK6   BANK7
  2344 ;;      Params:         4       0       0       0       0       0       0       0       0
  2345 ;;      Locals:         2       0       0       0       0       0       0       0       0
  2346 ;;      Temps:          0       0       0       0       0       0       0       0       0
  2347 ;;      Totals:         6       0       0       0       0       0       0       0       0
  2348 ;;Total ram usage:        6 bytes
  2349 ;; Hardware stack levels used:    1
  2350 ;; This function calls:
  2351 ;;		Nothing
  2352 ;; This function is called by:
  2353 ;;		_atoi
  2354 ;; This function uses a non-reentrant model
  2355 ;;
  2356                           
  2357                           	psect	text14
  2358  006D32                     __ptext14:
  2359                           	opt callstack 0
  2360  006D32                     ___wmul:
  2361                           	opt callstack 28
  2362  006D32  5001               	movf	___wmul@multiplier^0,w,c
  2363  006D34  0203               	mulwf	___wmul@multiplicand^0,c
  2364  006D36  CFF3 F005          	movff	prodl,___wmul@product
  2365  006D3A  CFF4 F006          	movff	prodh,___wmul@product+1
  2366  006D3E  5001               	movf	___wmul@multiplier^0,w,c
  2367  006D40  0204               	mulwf	(___wmul@multiplicand+1)^0,c
  2368  006D42  50F3               	movf	243,w,c
  2369  006D44  2606               	addwf	(___wmul@product+1)^0,f,c
  2370  006D46  5002               	movf	(___wmul@multiplier+1)^0,w,c
  2371  006D48  0203               	mulwf	___wmul@multiplicand^0,c
  2372  006D4A  50F3               	movf	243,w,c
  2373  006D4C  2606               	addwf	(___wmul@product+1)^0,f,c
  2374  006D4E  C005  F001         	movff	___wmul@product,?___wmul
  2375  006D52  C006  F002         	movff	___wmul@product+1,?___wmul+1
  2376  006D56  0012               	return		;funcret
  2377  006D58                     __end_of___wmul:
  2378                           	opt callstack 0
  2379                           
  2380 ;; *************** function _USART_Tx *****************
  2381 ;; Defined at:
  2382 ;;		line 25 in file "UART.c"
  2383 ;; Parameters:    Size  Location     Type
  2384 ;;  data            1    wreg     unsigned char 
  2385 ;; Auto vars:     Size  Location     Type
  2386 ;;  data            1    0[COMRAM] unsigned char 
  2387 ;; Return value:  Size  Location     Type
  2388 ;;                  1    wreg      void 
  2389 ;; Registers used:
  2390 ;;		wreg
  2391 ;; Tracked objects:
  2392 ;;		On entry : 0/0
  2393 ;;		On exit  : 0/0
  2394 ;;		Unchanged: 0/0
  2395 ;; Data sizes:     COMRAM   BANK0   BANK1   BANK2   BANK3   BANK4   BANK5   BANK6   BANK7
  2396 ;;      Params:         0       0       0       0       0       0       0       0       0
  2397 ;;      Locals:         1       0       0       0       0       0       0       0       0
  2398 ;;      Temps:          0       0       0       0       0       0       0       0       0
  2399 ;;      Totals:         1       0       0       0       0       0       0       0       0
  2400 ;;Total ram usage:        1 bytes
  2401 ;; Hardware stack levels used:    1
  2402 ;; This function calls:
  2403 ;;		Nothing
  2404 ;; This function is called by:
  2405 ;;		_Serial_DecodificacionX
  2406 ;;		_Serial_DecodificacionY
  2407 ;;		_USART_SPrint
  2408 ;; This function uses a non-reentrant model
  2409 ;;
  2410                           
  2411                           	psect	text15
  2412  006C70                     __ptext15:
  2413                           	opt callstack 0
  2414  006C70                     _USART_Tx:
  2415                           	opt callstack 29
  2416                           
  2417                           ;incstack = 0
  2418                           ;USART_Tx@data stored from wreg
  2419  006C70  6E01               	movwf	USART_Tx@data^0,c
  2420  006C72                     l86:
  2421  006C72  A89E               	btfss	158,4,c	;volatile
  2422  006C74  EF3E  F036         	goto	u1451
  2423  006C78  EF40  F036         	goto	u1450
  2424  006C7C                     u1451:
  2425  006C7C  EF39  F036         	goto	l86
  2426  006C80                     u1450:
  2427  006C80                     
  2428                           ;UART.c: 27:     TXREG = data;
  2429  006C80  C001  FFAD         	movff	USART_Tx@data,4013	;volatile
  2430  006C84  0012               	return		;funcret
  2431  006C86                     __end_of_USART_Tx:
  2432                           	opt callstack 0
  2433                           
  2434 ;; *************** function _Seria_Decodificacion_Memoria *****************
  2435 ;; Defined at:
  2436 ;;		line 91 in file "serial.c"
  2437 ;; Parameters:    Size  Location     Type
  2438 ;;  direccion       1    wreg     unsigned char 
  2439 ;; Auto vars:     Size  Location     Type
  2440 ;;  direccion       1    2[COMRAM] unsigned char 
  2441 ;; Return value:  Size  Location     Type
  2442 ;;                  1    wreg      unsigned char 
  2443 ;; Registers used:
  2444 ;;		wreg, status,2, status,0
  2445 ;; Tracked objects:
  2446 ;;		On entry : 0/0
  2447 ;;		On exit  : 0/0
  2448 ;;		Unchanged: 0/0
  2449 ;; Data sizes:     COMRAM   BANK0   BANK1   BANK2   BANK3   BANK4   BANK5   BANK6   BANK7
  2450 ;;      Params:         0       0       0       0       0       0       0       0       0
  2451 ;;      Locals:         1       0       0       0       0       0       0       0       0
  2452 ;;      Temps:          2       0       0       0       0       0       0       0       0
  2453 ;;      Totals:         3       0       0       0       0       0       0       0       0
  2454 ;;Total ram usage:        3 bytes
  2455 ;; Hardware stack levels used:    1
  2456 ;; This function calls:
  2457 ;;		Nothing
  2458 ;; This function is called by:
  2459 ;;		_main
  2460 ;; This function uses a non-reentrant model
  2461 ;;
  2462                           
  2463                           	psect	text16
  2464  00753E                     __ptext16:
  2465                           	opt callstack 0
  2466  00753E                     _Seria_Decodificacion_Memoria:
  2467                           	opt callstack 30
  2468                           
  2469                           ;incstack = 0
  2470                           ;Seria_Decodificacion_Memoria@direccion stored from wreg
  2471  00753E  6E03               	movwf	Seria_Decodificacion_Memoria@direccion^0,c
  2472  007540                     
  2473                           ;serial.c: 92:     switch (direccion) {
  2474  007540  EFE2  F03A         	goto	l2650
  2475  007544                     l2616:
  2476                           
  2477                           ;serial.c: 94:             direccion = 0x00;
  2478  007544  0E00               	movlw	0
  2479  007546  6E03               	movwf	Seria_Decodificacion_Memoria@direccion^0,c
  2480                           
  2481                           ;serial.c: 95:             break;
  2482  007548  EF2F  F03B         	goto	l2652
  2483  00754C                     l2618:
  2484                           
  2485                           ;serial.c: 97:             direccion = 0x01;
  2486  00754C  0E01               	movlw	1
  2487  00754E  6E03               	movwf	Seria_Decodificacion_Memoria@direccion^0,c
  2488                           
  2489                           ;serial.c: 98:             break;
  2490  007550  EF2F  F03B         	goto	l2652
  2491  007554                     l2620:
  2492                           
  2493                           ;serial.c: 100:             direccion = 0x02;
  2494  007554  0E02               	movlw	2
  2495  007556  6E03               	movwf	Seria_Decodificacion_Memoria@direccion^0,c
  2496                           
  2497                           ;serial.c: 101:             break;
  2498  007558  EF2F  F03B         	goto	l2652
  2499  00755C                     l2622:
  2500                           
  2501                           ;serial.c: 103:             direccion = 0x03;
  2502  00755C  0E03               	movlw	3
  2503  00755E  6E03               	movwf	Seria_Decodificacion_Memoria@direccion^0,c
  2504                           
  2505                           ;serial.c: 104:             break;
  2506  007560  EF2F  F03B         	goto	l2652
  2507  007564                     l2624:
  2508                           
  2509                           ;serial.c: 106:             direccion = 0x04;
  2510  007564  0E04               	movlw	4
  2511  007566  6E03               	movwf	Seria_Decodificacion_Memoria@direccion^0,c
  2512                           
  2513                           ;serial.c: 107:             break;
  2514  007568  EF2F  F03B         	goto	l2652
  2515  00756C                     l2626:
  2516                           
  2517                           ;serial.c: 109:             direccion = 0x05;
  2518  00756C  0E05               	movlw	5
  2519  00756E  6E03               	movwf	Seria_Decodificacion_Memoria@direccion^0,c
  2520                           
  2521                           ;serial.c: 110:             break;
  2522  007570  EF2F  F03B         	goto	l2652
  2523  007574                     l2628:
  2524                           
  2525                           ;serial.c: 112:             direccion = 0x06;
  2526  007574  0E06               	movlw	6
  2527  007576  6E03               	movwf	Seria_Decodificacion_Memoria@direccion^0,c
  2528                           
  2529                           ;serial.c: 113:             break;
  2530  007578  EF2F  F03B         	goto	l2652
  2531  00757C                     l2630:
  2532                           
  2533                           ;serial.c: 115:             direccion = 0x07;
  2534  00757C  0E07               	movlw	7
  2535  00757E  6E03               	movwf	Seria_Decodificacion_Memoria@direccion^0,c
  2536                           
  2537                           ;serial.c: 116:             break;
  2538  007580  EF2F  F03B         	goto	l2652
  2539  007584                     l2632:
  2540                           
  2541                           ;serial.c: 118:             direccion = 0x08;
  2542  007584  0E08               	movlw	8
  2543  007586  6E03               	movwf	Seria_Decodificacion_Memoria@direccion^0,c
  2544                           
  2545                           ;serial.c: 119:             break;
  2546  007588  EF2F  F03B         	goto	l2652
  2547  00758C                     l2634:
  2548                           
  2549                           ;serial.c: 121:             direccion = 0x09;
  2550  00758C  0E09               	movlw	9
  2551  00758E  6E03               	movwf	Seria_Decodificacion_Memoria@direccion^0,c
  2552                           
  2553                           ;serial.c: 122:             break;
  2554  007590  EF2F  F03B         	goto	l2652
  2555  007594                     l2636:
  2556                           
  2557                           ;serial.c: 124:             direccion = 0x0A;
  2558  007594  0E0A               	movlw	10
  2559  007596  6E03               	movwf	Seria_Decodificacion_Memoria@direccion^0,c
  2560                           
  2561                           ;serial.c: 125:             break;
  2562  007598  EF2F  F03B         	goto	l2652
  2563  00759C                     l2638:
  2564                           
  2565                           ;serial.c: 127:             direccion = 0x0B;
  2566  00759C  0E0B               	movlw	11
  2567  00759E  6E03               	movwf	Seria_Decodificacion_Memoria@direccion^0,c
  2568                           
  2569                           ;serial.c: 128:             break;
  2570  0075A0  EF2F  F03B         	goto	l2652
  2571  0075A4                     l2640:
  2572                           
  2573                           ;serial.c: 130:             direccion = 0x0C;
  2574  0075A4  0E0C               	movlw	12
  2575  0075A6  6E03               	movwf	Seria_Decodificacion_Memoria@direccion^0,c
  2576                           
  2577                           ;serial.c: 131:             break;
  2578  0075A8  EF2F  F03B         	goto	l2652
  2579  0075AC                     l2642:
  2580                           
  2581                           ;serial.c: 133:             direccion = 0x0D;
  2582  0075AC  0E0D               	movlw	13
  2583  0075AE  6E03               	movwf	Seria_Decodificacion_Memoria@direccion^0,c
  2584                           
  2585                           ;serial.c: 134:             break;
  2586  0075B0  EF2F  F03B         	goto	l2652
  2587  0075B4                     l2644:
  2588                           
  2589                           ;serial.c: 136:             direccion = 0x0E;
  2590  0075B4  0E0E               	movlw	14
  2591  0075B6  6E03               	movwf	Seria_Decodificacion_Memoria@direccion^0,c
  2592                           
  2593                           ;serial.c: 137:             break;
  2594  0075B8  EF2F  F03B         	goto	l2652
  2595  0075BC                     l2646:
  2596                           
  2597                           ;serial.c: 139:             direccion = 0x0F;
  2598  0075BC  0E0F               	movlw	15
  2599  0075BE  6E03               	movwf	Seria_Decodificacion_Memoria@direccion^0,c
  2600                           
  2601                           ;serial.c: 140:             break;
  2602  0075C0  EF2F  F03B         	goto	l2652
  2603  0075C4                     l2650:
  2604  0075C4  5003               	movf	Seria_Decodificacion_Memoria@direccion^0,w,c
  2605  0075C6  6E01               	movwf	??_Seria_Decodificacion_Memoria^0,c
  2606  0075C8  6A02               	clrf	(??_Seria_Decodificacion_Memoria+1)^0,c
  2607                           
  2608                           ; Switch on 2 bytes has been partitioned into a top level switch of size 1, and 1 sub-sw
      +                          itches
  2609                           ; Switch size 1, requested type "simple"
  2610                           ; Number of cases is 1, Range of values is 0 to 0
  2611                           ; switch strategies available:
  2612                           ; Name         Instructions Cycles
  2613                           ; simple_byte            4     3 (average)
  2614                           ;	Chosen strategy is simple_byte
  2615  0075CA  5002               	movf	(??_Seria_Decodificacion_Memoria+1)^0,w,c
  2616  0075CC  0A00               	xorlw	0	; case 0
  2617  0075CE  B4D8               	btfsc	status,2,c
  2618  0075D0  EFEC  F03A         	goto	l2834
  2619  0075D4  EF2F  F03B         	goto	l2652
  2620  0075D8                     l2834:
  2621                           
  2622                           ; Switch size 1, requested type "simple"
  2623                           ; Number of cases is 16, Range of values is 48 to 70
  2624                           ; switch strategies available:
  2625                           ; Name         Instructions Cycles
  2626                           ; simple_byte           49    25 (average)
  2627                           ;	Chosen strategy is simple_byte
  2628  0075D8  5001               	movf	??_Seria_Decodificacion_Memoria^0,w,c
  2629  0075DA  0A30               	xorlw	48	; case 48
  2630  0075DC  B4D8               	btfsc	status,2,c
  2631  0075DE  EFA2  F03A         	goto	l2616
  2632  0075E2  0A01               	xorlw	1	; case 49
  2633  0075E4  B4D8               	btfsc	status,2,c
  2634  0075E6  EFA6  F03A         	goto	l2618
  2635  0075EA  0A03               	xorlw	3	; case 50
  2636  0075EC  B4D8               	btfsc	status,2,c
  2637  0075EE  EFAA  F03A         	goto	l2620
  2638  0075F2  0A01               	xorlw	1	; case 51
  2639  0075F4  B4D8               	btfsc	status,2,c
  2640  0075F6  EFAE  F03A         	goto	l2622
  2641  0075FA  0A07               	xorlw	7	; case 52
  2642  0075FC  B4D8               	btfsc	status,2,c
  2643  0075FE  EFB2  F03A         	goto	l2624
  2644  007602  0A01               	xorlw	1	; case 53
  2645  007604  B4D8               	btfsc	status,2,c
  2646  007606  EFB6  F03A         	goto	l2626
  2647  00760A  0A03               	xorlw	3	; case 54
  2648  00760C  B4D8               	btfsc	status,2,c
  2649  00760E  EFBA  F03A         	goto	l2628
  2650  007612  0A01               	xorlw	1	; case 55
  2651  007614  B4D8               	btfsc	status,2,c
  2652  007616  EFBE  F03A         	goto	l2630
  2653  00761A  0A0F               	xorlw	15	; case 56
  2654  00761C  B4D8               	btfsc	status,2,c
  2655  00761E  EFC2  F03A         	goto	l2632
  2656  007622  0A01               	xorlw	1	; case 57
  2657  007624  B4D8               	btfsc	status,2,c
  2658  007626  EFC6  F03A         	goto	l2634
  2659  00762A  0A78               	xorlw	120	; case 65
  2660  00762C  B4D8               	btfsc	status,2,c
  2661  00762E  EFCA  F03A         	goto	l2636
  2662  007632  0A03               	xorlw	3	; case 66
  2663  007634  B4D8               	btfsc	status,2,c
  2664  007636  EFCE  F03A         	goto	l2638
  2665  00763A  0A01               	xorlw	1	; case 67
  2666  00763C  B4D8               	btfsc	status,2,c
  2667  00763E  EFD2  F03A         	goto	l2640
  2668  007642  0A07               	xorlw	7	; case 68
  2669  007644  B4D8               	btfsc	status,2,c
  2670  007646  EFD6  F03A         	goto	l2642
  2671  00764A  0A01               	xorlw	1	; case 69
  2672  00764C  B4D8               	btfsc	status,2,c
  2673  00764E  EFDA  F03A         	goto	l2644
  2674  007652  0A03               	xorlw	3	; case 70
  2675  007654  B4D8               	btfsc	status,2,c
  2676  007656  EFDE  F03A         	goto	l2646
  2677  00765A  EF2F  F03B         	goto	l2652
  2678  00765E                     l2652:
  2679                           
  2680                           ;serial.c: 142:     return direccion;
  2681  00765E  5003               	movf	Seria_Decodificacion_Memoria@direccion^0,w,c
  2682  007660  0012               	return		;funcret
  2683  007662                     __end_of_Seria_Decodificacion_Memoria:
  2684                           	opt callstack 0
  2685                           
  2686 ;; *************** function _Motor_Movimiento *****************
  2687 ;; Defined at:
  2688 ;;		line 23 in file "Motor.c"
  2689 ;; Parameters:    Size  Location     Type
  2690 ;;  Oupcode         1    wreg     unsigned char 
  2691 ;;  CoordenadaX     2   55[COMRAM] int 
  2692 ;;  CoordenadaY     2   57[COMRAM] int 
  2693 ;; Auto vars:     Size  Location     Type
  2694 ;;  Oupcode         1   59[COMRAM] unsigned char 
  2695 ;; Return value:  Size  Location     Type
  2696 ;;                  1    wreg      void 
  2697 ;; Registers used:
  2698 ;;		wreg, status,2, status,0, cstack
  2699 ;; Tracked objects:
  2700 ;;		On entry : 0/0
  2701 ;;		On exit  : 0/0
  2702 ;;		Unchanged: 0/0
  2703 ;; Data sizes:     COMRAM   BANK0   BANK1   BANK2   BANK3   BANK4   BANK5   BANK6   BANK7
  2704 ;;      Params:         4       0       0       0       0       0       0       0       0
  2705 ;;      Locals:         1       0       0       0       0       0       0       0       0
  2706 ;;      Temps:          0       0       0       0       0       0       0       0       0
  2707 ;;      Totals:         5       0       0       0       0       0       0       0       0
  2708 ;;Total ram usage:        5 bytes
  2709 ;; Hardware stack levels used:    1
  2710 ;; Hardware stack levels required when called:    2
  2711 ;; This function calls:
  2712 ;;		_Motor_Calcular_PasosX
  2713 ;;		_Motor_Calcular_PasosY
  2714 ;;		_Motor_Conversion
  2715 ;;		_PWM_GeneratePulsos
  2716 ;; This function is called by:
  2717 ;;		_main
  2718 ;; This function uses a non-reentrant model
  2719 ;;
  2720                           
  2721                           	psect	text17
  2722  006F90                     __ptext17:
  2723                           	opt callstack 0
  2724  006F90                     _Motor_Movimiento:
  2725                           	opt callstack 28
  2726                           
  2727                           ;incstack = 0
  2728                           ;Motor_Movimiento@Oupcode stored from wreg
  2729  006F90  6E3C               	movwf	Motor_Movimiento@Oupcode^0,c
  2730  006F92                     
  2731                           ;Motor.c: 23: void Motor_Movimiento(char Oupcode, int CoordenadaX, int CoordenadaY);Moto
      +                          r.c: 24: {;Motor.c: 25:     pasosX = Motor_Conversion(CoordenadaX);
  2732  006F92  C038  F032         	movff	Motor_Movimiento@CoordenadaX,Motor_Conversion@Coordenada
  2733  006F96  C039  F033         	movff	Motor_Movimiento@CoordenadaX+1,Motor_Conversion@Coordenada+1
  2734  006F9A  ECFD  F037         	call	_Motor_Conversion	;wreg free
  2735  006F9E  C032  F046         	movff	?_Motor_Conversion,_pasosX
  2736  006FA2  C033  F047         	movff	?_Motor_Conversion+1,_pasosX+1
  2737                           
  2738                           ;Motor.c: 26:     pasosY = Motor_Conversion(CoordenadaY);
  2739  006FA6  C03A  F032         	movff	Motor_Movimiento@CoordenadaY,Motor_Conversion@Coordenada
  2740  006FAA  C03B  F033         	movff	Motor_Movimiento@CoordenadaY+1,Motor_Conversion@Coordenada+1
  2741  006FAE  ECFD  F037         	call	_Motor_Conversion	;wreg free
  2742  006FB2  C032  F044         	movff	?_Motor_Conversion,_pasosY
  2743  006FB6  C033  F045         	movff	?_Motor_Conversion+1,_pasosY+1
  2744                           
  2745                           ;Motor.c: 27:     pasosX=Motor_Calcular_PasosX(pasosX);
  2746  006FBA  C046  F001         	movff	_pasosX,Motor_Calcular_PasosX@pasos_converX
  2747  006FBE  C047  F002         	movff	_pasosX+1,Motor_Calcular_PasosX@pasos_converX+1
  2748  006FC2  ECF8  F036         	call	_Motor_Calcular_PasosX	;wreg free
  2749  006FC6  C001  F046         	movff	?_Motor_Calcular_PasosX,_pasosX
  2750  006FCA  C002  F047         	movff	?_Motor_Calcular_PasosX+1,_pasosX+1
  2751                           
  2752                           ;Motor.c: 28:     pasosY=Motor_Calcular_PasosY(pasosY);
  2753  006FCE  C044  F001         	movff	_pasosY,Motor_Calcular_PasosY@pasos_converY
  2754  006FD2  C045  F002         	movff	_pasosY+1,Motor_Calcular_PasosY@pasos_converY+1
  2755  006FD6  EC1C  F037         	call	_Motor_Calcular_PasosY	;wreg free
  2756  006FDA  C001  F044         	movff	?_Motor_Calcular_PasosY,_pasosY
  2757  006FDE  C002  F045         	movff	?_Motor_Calcular_PasosY+1,_pasosY+1
  2758                           
  2759                           ;Motor.c: 29:     PWM_GeneratePulsos(Oupcode, pasosX, pasosY);
  2760  006FE2  C046  F003         	movff	_pasosX,PWM_GeneratePulsos@pulsosX
  2761  006FE6  C047  F004         	movff	_pasosX+1,PWM_GeneratePulsos@pulsosX+1
  2762  006FEA  C044  F005         	movff	_pasosY,PWM_GeneratePulsos@pulsosY
  2763  006FEE  C045  F006         	movff	_pasosY+1,PWM_GeneratePulsos@pulsosY+1
  2764  006FF2  503C               	movf	Motor_Movimiento@Oupcode^0,w,c
  2765  006FF4  EC31  F03B         	call	_PWM_GeneratePulsos
  2766  006FF8  0012               	return		;funcret
  2767  006FFA                     __end_of_Motor_Movimiento:
  2768                           	opt callstack 0
  2769                           
  2770 ;; *************** function _PWM_GeneratePulsos *****************
  2771 ;; Defined at:
  2772 ;;		line 6 in file "PWM.c"
  2773 ;; Parameters:    Size  Location     Type
  2774 ;;  Oupcode         1    wreg     unsigned char 
  2775 ;;  pulsosX         2    2[COMRAM] int 
  2776 ;;  pulsosY         2    4[COMRAM] int 
  2777 ;; Auto vars:     Size  Location     Type
  2778 ;;  Oupcode         1    7[COMRAM] unsigned char 
  2779 ;;  countY          2   10[COMRAM] int 
  2780 ;;  countX          2    8[COMRAM] int 
  2781 ;; Return value:  Size  Location     Type
  2782 ;;                  1    wreg      void 
  2783 ;; Registers used:
  2784 ;;		wreg, status,2, status,0, cstack
  2785 ;; Tracked objects:
  2786 ;;		On entry : 0/0
  2787 ;;		On exit  : 0/0
  2788 ;;		Unchanged: 0/0
  2789 ;; Data sizes:     COMRAM   BANK0   BANK1   BANK2   BANK3   BANK4   BANK5   BANK6   BANK7
  2790 ;;      Params:         4       0       0       0       0       0       0       0       0
  2791 ;;      Locals:         5       0       0       0       0       0       0       0       0
  2792 ;;      Temps:          1       0       0       0       0       0       0       0       0
  2793 ;;      Totals:        10       0       0       0       0       0       0       0       0
  2794 ;;Total ram usage:       10 bytes
  2795 ;; Hardware stack levels used:    1
  2796 ;; Hardware stack levels required when called:    1
  2797 ;; This function calls:
  2798 ;;		_PWM_InitF
  2799 ;;		_PWM_InitS
  2800 ;;		_PWM_OneshotX
  2801 ;;		_PWM_OneshotY
  2802 ;; This function is called by:
  2803 ;;		_Motor_Movimiento
  2804 ;; This function uses a non-reentrant model
  2805 ;;
  2806                           
  2807                           	psect	text18
  2808  007662                     __ptext18:
  2809                           	opt callstack 0
  2810  007662                     _PWM_GeneratePulsos:
  2811                           	opt callstack 28
  2812                           
  2813                           ;incstack = 0
  2814                           ;PWM_GeneratePulsos@Oupcode stored from wreg
  2815  007662  6E08               	movwf	PWM_GeneratePulsos@Oupcode^0,c
  2816  007664                     
  2817                           ;PWM.c: 7:     if (Oupcode == 'S') {
  2818  007664  0E53               	movlw	83
  2819  007666  1808               	xorwf	PWM_GeneratePulsos@Oupcode^0,w,c
  2820  007668  A4D8               	btfss	status,2,c
  2821  00766A  EF39  F03B         	goto	u1381
  2822  00766E  EF3B  F03B         	goto	u1380
  2823  007672                     u1381:
  2824  007672  EF3F  F03B         	goto	l2344
  2825  007676                     u1380:
  2826  007676                     
  2827                           ;PWM.c: 8:         PWM_InitS();
  2828  007676  EC74  F036         	call	_PWM_InitS	;wreg free
  2829                           
  2830                           ;PWM.c: 9:     } else {
  2831  00767A  EF41  F03B         	goto	l2346
  2832  00767E                     l2344:
  2833                           
  2834                           ;PWM.c: 10:         PWM_InitF();
  2835  00767E  EC86  F036         	call	_PWM_InitF	;wreg free
  2836  007682                     l2346:
  2837                           
  2838                           ;PWM.c: 12:     PORTCbits.RC0 = 0;
  2839  007682  9082               	bcf	130,0,c	;volatile
  2840  007684                     
  2841                           ;PWM.c: 13:     PORTCbits.RC4 = 0;
  2842  007684  9882               	bcf	130,4,c	;volatile
  2843  007686                     
  2844                           ;PWM.c: 14:     T2CONbits.TMR2ON = 1;
  2845  007686  84CA               	bsf	202,2,c	;volatile
  2846  007688                     
  2847                           ;PWM.c: 15:     int countX = 0;
  2848  007688  0E00               	movlw	0
  2849  00768A  6E0A               	movwf	(PWM_GeneratePulsos@countX+1)^0,c
  2850  00768C  0E00               	movlw	0
  2851  00768E  6E09               	movwf	PWM_GeneratePulsos@countX^0,c
  2852  007690                     
  2853                           ;PWM.c: 16:     int countY = 0;
  2854  007690  0E00               	movlw	0
  2855  007692  6E0C               	movwf	(PWM_GeneratePulsos@countY+1)^0,c
  2856  007694  0E00               	movlw	0
  2857  007696  6E0B               	movwf	PWM_GeneratePulsos@countY^0,c
  2858                           
  2859                           ;PWM.c: 17:     while (countX < pulsosX && countY < pulsosY) {
  2860  007698  EF9C  F03B         	goto	l2372
  2861  00769C                     l2356:
  2862                           
  2863                           ;PWM.c: 18:         if (countX < pulsosX) {
  2864  00769C  5003               	movf	PWM_GeneratePulsos@pulsosX^0,w,c
  2865  00769E  5C09               	subwf	PWM_GeneratePulsos@countX^0,w,c
  2866  0076A0  500A               	movf	(PWM_GeneratePulsos@countX+1)^0,w,c
  2867  0076A2  0A80               	xorlw	128
  2868  0076A4  6E07               	movwf	??_PWM_GeneratePulsos^0,c
  2869  0076A6  5004               	movf	(PWM_GeneratePulsos@pulsosX+1)^0,w,c
  2870  0076A8  0A80               	xorlw	128
  2871  0076AA  5807               	subwfb	??_PWM_GeneratePulsos^0,w,c
  2872  0076AC  B0D8               	btfsc	status,0,c
  2873  0076AE  EF5B  F03B         	goto	u1391
  2874  0076B2  EF5D  F03B         	goto	u1390
  2875  0076B6                     u1391:
  2876  0076B6  EF74  F03B         	goto	l37
  2877  0076BA                     u1390:
  2878  0076BA                     
  2879                           ;PWM.c: 19:             if (PORTCbits.RC2 == 1) {
  2880  0076BA  A482               	btfss	130,2,c	;volatile
  2881  0076BC  EF62  F03B         	goto	u1401
  2882  0076C0  EF64  F03B         	goto	u1400
  2883  0076C4                     u1401:
  2884  0076C4  EF70  F03B         	goto	l2362
  2885  0076C8                     u1400:
  2886  0076C8                     
  2887                           ;PWM.c: 20:                 countX = PWM_OneshotX(countX);
  2888  0076C8  C009  F001         	movff	PWM_GeneratePulsos@countX,PWM_OneshotX@countX
  2889  0076CC  C00A  F002         	movff	PWM_GeneratePulsos@countX+1,PWM_OneshotX@countX+1
  2890  0076D0  ECAC  F036         	call	_PWM_OneshotX	;wreg free
  2891  0076D4  C001  F009         	movff	?_PWM_OneshotX,PWM_GeneratePulsos@countX
  2892  0076D8  C002  F00A         	movff	?_PWM_OneshotX+1,PWM_GeneratePulsos@countX+1
  2893                           
  2894                           ;PWM.c: 21:             } else {
  2895  0076DC  EF75  F03B         	goto	l2364
  2896  0076E0                     l2362:
  2897                           
  2898                           ;PWM.c: 22:                 oneshotX = 0;
  2899  0076E0  0E00               	movlw	0
  2900  0076E2  6E4D               	movwf	_oneshotX^0,c
  2901  0076E4  EF75  F03B         	goto	l2364
  2902  0076E8                     l37:
  2903                           
  2904                           ;PWM.c: 25:             PORTCbits.RC0 = 1;
  2905  0076E8  8082               	bsf	130,0,c	;volatile
  2906  0076EA                     l2364:
  2907                           
  2908                           ;PWM.c: 27:         if (countY < pulsosY) {
  2909  0076EA  5005               	movf	PWM_GeneratePulsos@pulsosY^0,w,c
  2910  0076EC  5C0B               	subwf	PWM_GeneratePulsos@countY^0,w,c
  2911  0076EE  500C               	movf	(PWM_GeneratePulsos@countY+1)^0,w,c
  2912  0076F0  0A80               	xorlw	128
  2913  0076F2  6E07               	movwf	??_PWM_GeneratePulsos^0,c
  2914  0076F4  5006               	movf	(PWM_GeneratePulsos@pulsosY+1)^0,w,c
  2915  0076F6  0A80               	xorlw	128
  2916  0076F8  5807               	subwfb	??_PWM_GeneratePulsos^0,w,c
  2917  0076FA  B0D8               	btfsc	status,0,c
  2918  0076FC  EF82  F03B         	goto	u1411
  2919  007700  EF84  F03B         	goto	u1410
  2920  007704                     u1411:
  2921  007704  EF9B  F03B         	goto	l41
  2922  007708                     u1410:
  2923  007708                     
  2924                           ;PWM.c: 28:             if (PORTCbits.RC1 == 1) {
  2925  007708  A282               	btfss	130,1,c	;volatile
  2926  00770A  EF89  F03B         	goto	u1421
  2927  00770E  EF8B  F03B         	goto	u1420
  2928  007712                     u1421:
  2929  007712  EF97  F03B         	goto	l2370
  2930  007716                     u1420:
  2931  007716                     
  2932                           ;PWM.c: 29:                 countY = PWM_OneshotY(countY);
  2933  007716  C00B  F001         	movff	PWM_GeneratePulsos@countY,PWM_OneshotY@countY
  2934  00771A  C00C  F002         	movff	PWM_GeneratePulsos@countY+1,PWM_OneshotY@countY+1
  2935  00771E  ECC4  F036         	call	_PWM_OneshotY	;wreg free
  2936  007722  C001  F00B         	movff	?_PWM_OneshotY,PWM_GeneratePulsos@countY
  2937  007726  C002  F00C         	movff	?_PWM_OneshotY+1,PWM_GeneratePulsos@countY+1
  2938                           
  2939                           ;PWM.c: 30:             } else {
  2940  00772A  EF9C  F03B         	goto	l2372
  2941  00772E                     l2370:
  2942                           
  2943                           ;PWM.c: 31:                 oneshotY = 0;
  2944  00772E  0E00               	movlw	0
  2945  007730  6E4C               	movwf	_oneshotY^0,c
  2946  007732  EF9C  F03B         	goto	l2372
  2947  007736                     l41:
  2948                           
  2949                           ;PWM.c: 34:             PORTCbits.RC4 = 1;
  2950  007736  8882               	bsf	130,4,c	;volatile
  2951  007738                     l2372:
  2952                           
  2953                           ;PWM.c: 17:     while (countX < pulsosX && countY < pulsosY) {
  2954  007738  5003               	movf	PWM_GeneratePulsos@pulsosX^0,w,c
  2955  00773A  5C09               	subwf	PWM_GeneratePulsos@countX^0,w,c
  2956  00773C  500A               	movf	(PWM_GeneratePulsos@countX+1)^0,w,c
  2957  00773E  0A80               	xorlw	128
  2958  007740  6E07               	movwf	??_PWM_GeneratePulsos^0,c
  2959  007742  5004               	movf	(PWM_GeneratePulsos@pulsosX+1)^0,w,c
  2960  007744  0A80               	xorlw	128
  2961  007746  5807               	subwfb	??_PWM_GeneratePulsos^0,w,c
  2962  007748  B0D8               	btfsc	status,0,c
  2963  00774A  EFA9  F03B         	goto	u1431
  2964  00774E  EFAB  F03B         	goto	u1430
  2965  007752                     u1431:
  2966  007752  EFBA  F03B         	goto	l2376
  2967  007756                     u1430:
  2968  007756  5005               	movf	PWM_GeneratePulsos@pulsosY^0,w,c
  2969  007758  5C0B               	subwf	PWM_GeneratePulsos@countY^0,w,c
  2970  00775A  500C               	movf	(PWM_GeneratePulsos@countY+1)^0,w,c
  2971  00775C  0A80               	xorlw	128
  2972  00775E  6E07               	movwf	??_PWM_GeneratePulsos^0,c
  2973  007760  5006               	movf	(PWM_GeneratePulsos@pulsosY+1)^0,w,c
  2974  007762  0A80               	xorlw	128
  2975  007764  5807               	subwfb	??_PWM_GeneratePulsos^0,w,c
  2976  007766  A0D8               	btfss	status,0,c
  2977  007768  EFB8  F03B         	goto	u1441
  2978  00776C  EFBA  F03B         	goto	u1440
  2979  007770                     u1441:
  2980  007770  EF4E  F03B         	goto	l2356
  2981  007774                     u1440:
  2982  007774                     l2376:
  2983                           
  2984                           ;PWM.c: 38:     oneshotX = 0;
  2985  007774  0E00               	movlw	0
  2986  007776  6E4D               	movwf	_oneshotX^0,c
  2987                           
  2988                           ;PWM.c: 39:     countY = 0;
  2989  007778  0E00               	movlw	0
  2990  00777A  6E0C               	movwf	(PWM_GeneratePulsos@countY+1)^0,c
  2991  00777C  0E00               	movlw	0
  2992  00777E  6E0B               	movwf	PWM_GeneratePulsos@countY^0,c
  2993                           
  2994                           ;PWM.c: 40:     oneshotY = 0;
  2995  007780  0E00               	movlw	0
  2996  007782  6E4C               	movwf	_oneshotY^0,c
  2997  007784                     
  2998                           ;PWM.c: 41:     T2CONbits.TMR2ON = 0;
  2999  007784  94CA               	bcf	202,2,c	;volatile
  3000  007786  0012               	return		;funcret
  3001  007788                     __end_of_PWM_GeneratePulsos:
  3002                           	opt callstack 0
  3003                           
  3004 ;; *************** function _PWM_OneshotY *****************
  3005 ;; Defined at:
  3006 ;;		line 84 in file "PWM.c"
  3007 ;; Parameters:    Size  Location     Type
  3008 ;;  countY          2    0[COMRAM] int 
  3009 ;; Auto vars:     Size  Location     Type
  3010 ;;		None
  3011 ;; Return value:  Size  Location     Type
  3012 ;;                  2    0[COMRAM] int 
  3013 ;; Registers used:
  3014 ;;		wreg, status,2, status,0
  3015 ;; Tracked objects:
  3016 ;;		On entry : 0/0
  3017 ;;		On exit  : 0/0
  3018 ;;		Unchanged: 0/0
  3019 ;; Data sizes:     COMRAM   BANK0   BANK1   BANK2   BANK3   BANK4   BANK5   BANK6   BANK7
  3020 ;;      Params:         2       0       0       0       0       0       0       0       0
  3021 ;;      Locals:         0       0       0       0       0       0       0       0       0
  3022 ;;      Temps:          0       0       0       0       0       0       0       0       0
  3023 ;;      Totals:         2       0       0       0       0       0       0       0       0
  3024 ;;Total ram usage:        2 bytes
  3025 ;; Hardware stack levels used:    1
  3026 ;; This function calls:
  3027 ;;		Nothing
  3028 ;; This function is called by:
  3029 ;;		_PWM_GeneratePulsos
  3030 ;; This function uses a non-reentrant model
  3031 ;;
  3032                           
  3033                           	psect	text19
  3034  006D88                     __ptext19:
  3035                           	opt callstack 0
  3036  006D88                     _PWM_OneshotY:
  3037                           	opt callstack 28
  3038  006D88                     
  3039                           ;PWM.c: 85:     if (PORTCbits.RC1 == 1 & oneshotY == 0) {
  3040  006D88  A282               	btfss	130,1,c	;volatile
  3041  006D8A  EFC9  F036         	goto	u921
  3042  006D8E  EFCB  F036         	goto	u920
  3043  006D92                     u921:
  3044  006D92  EFD7  F036         	goto	l2086
  3045  006D96                     u920:
  3046  006D96  504C               	movf	_oneshotY^0,w,c
  3047  006D98  A4D8               	btfss	status,2,c
  3048  006D9A  EFD1  F036         	goto	u931
  3049  006D9E  EFD3  F036         	goto	u930
  3050  006DA2                     u931:
  3051  006DA2  EFD7  F036         	goto	l2086
  3052  006DA6                     u930:
  3053  006DA6                     
  3054                           ;PWM.c: 86:         countY++;
  3055  006DA6  4A01               	infsnz	PWM_OneshotY@countY^0,f,c
  3056  006DA8  2A02               	incf	(PWM_OneshotY@countY+1)^0,f,c
  3057  006DAA                     
  3058                           ;PWM.c: 87:         oneshotY = 1;
  3059  006DAA  0E01               	movlw	1
  3060  006DAC  6E4C               	movwf	_oneshotY^0,c
  3061  006DAE                     l2086:
  3062                           
  3063                           ;PWM.c: 89:     return countY;
  3064  006DAE  C001  F001         	movff	PWM_OneshotY@countY,?_PWM_OneshotY
  3065  006DB2  C002  F002         	movff	PWM_OneshotY@countY+1,?_PWM_OneshotY+1
  3066  006DB6  0012               	return		;funcret
  3067  006DB8                     __end_of_PWM_OneshotY:
  3068                           	opt callstack 0
  3069                           
  3070 ;; *************** function _PWM_OneshotX *****************
  3071 ;; Defined at:
  3072 ;;		line 76 in file "PWM.c"
  3073 ;; Parameters:    Size  Location     Type
  3074 ;;  countX          2    0[COMRAM] int 
  3075 ;; Auto vars:     Size  Location     Type
  3076 ;;		None
  3077 ;; Return value:  Size  Location     Type
  3078 ;;                  2    0[COMRAM] int 
  3079 ;; Registers used:
  3080 ;;		wreg, status,2, status,0
  3081 ;; Tracked objects:
  3082 ;;		On entry : 0/0
  3083 ;;		On exit  : 0/0
  3084 ;;		Unchanged: 0/0
  3085 ;; Data sizes:     COMRAM   BANK0   BANK1   BANK2   BANK3   BANK4   BANK5   BANK6   BANK7
  3086 ;;      Params:         2       0       0       0       0       0       0       0       0
  3087 ;;      Locals:         0       0       0       0       0       0       0       0       0
  3088 ;;      Temps:          0       0       0       0       0       0       0       0       0
  3089 ;;      Totals:         2       0       0       0       0       0       0       0       0
  3090 ;;Total ram usage:        2 bytes
  3091 ;; Hardware stack levels used:    1
  3092 ;; This function calls:
  3093 ;;		Nothing
  3094 ;; This function is called by:
  3095 ;;		_PWM_GeneratePulsos
  3096 ;; This function uses a non-reentrant model
  3097 ;;
  3098                           
  3099                           	psect	text20
  3100  006D58                     __ptext20:
  3101                           	opt callstack 0
  3102  006D58                     _PWM_OneshotX:
  3103                           	opt callstack 28
  3104  006D58                     
  3105                           ;PWM.c: 77:     if (PORTCbits.RC2 == 1 & oneshotX == 0) {
  3106  006D58  A482               	btfss	130,2,c	;volatile
  3107  006D5A  EFB1  F036         	goto	u901
  3108  006D5E  EFB3  F036         	goto	u900
  3109  006D62                     u901:
  3110  006D62  EFBF  F036         	goto	l2074
  3111  006D66                     u900:
  3112  006D66  504D               	movf	_oneshotX^0,w,c
  3113  006D68  A4D8               	btfss	status,2,c
  3114  006D6A  EFB9  F036         	goto	u911
  3115  006D6E  EFBB  F036         	goto	u910
  3116  006D72                     u911:
  3117  006D72  EFBF  F036         	goto	l2074
  3118  006D76                     u910:
  3119  006D76                     
  3120                           ;PWM.c: 78:         countX++;
  3121  006D76  4A01               	infsnz	PWM_OneshotX@countX^0,f,c
  3122  006D78  2A02               	incf	(PWM_OneshotX@countX+1)^0,f,c
  3123  006D7A                     
  3124                           ;PWM.c: 79:         oneshotX = 1;
  3125  006D7A  0E01               	movlw	1
  3126  006D7C  6E4D               	movwf	_oneshotX^0,c
  3127  006D7E                     l2074:
  3128                           
  3129                           ;PWM.c: 81:     return countX;
  3130  006D7E  C001  F001         	movff	PWM_OneshotX@countX,?_PWM_OneshotX
  3131  006D82  C002  F002         	movff	PWM_OneshotX@countX+1,?_PWM_OneshotX+1
  3132  006D86  0012               	return		;funcret
  3133  006D88                     __end_of_PWM_OneshotX:
  3134                           	opt callstack 0
  3135                           
  3136 ;; *************** function _PWM_InitS *****************
  3137 ;; Defined at:
  3138 ;;		line 60 in file "PWM.c"
  3139 ;; Parameters:    Size  Location     Type
  3140 ;;		None
  3141 ;; Auto vars:     Size  Location     Type
  3142 ;;		None
  3143 ;; Return value:  Size  Location     Type
  3144 ;;                  1    wreg      void 
  3145 ;; Registers used:
  3146 ;;		wreg, status,2
  3147 ;; Tracked objects:
  3148 ;;		On entry : 0/0
  3149 ;;		On exit  : 0/0
  3150 ;;		Unchanged: 0/0
  3151 ;; Data sizes:     COMRAM   BANK0   BANK1   BANK2   BANK3   BANK4   BANK5   BANK6   BANK7
  3152 ;;      Params:         0       0       0       0       0       0       0       0       0
  3153 ;;      Locals:         0       0       0       0       0       0       0       0       0
  3154 ;;      Temps:          0       0       0       0       0       0       0       0       0
  3155 ;;      Totals:         0       0       0       0       0       0       0       0       0
  3156 ;;Total ram usage:        0 bytes
  3157 ;; Hardware stack levels used:    1
  3158 ;; This function calls:
  3159 ;;		Nothing
  3160 ;; This function is called by:
  3161 ;;		_PWM_GeneratePulsos
  3162 ;; This function uses a non-reentrant model
  3163 ;;
  3164                           
  3165                           	psect	text21
  3166  006CE8                     __ptext21:
  3167                           	opt callstack 0
  3168  006CE8                     _PWM_InitS:
  3169                           	opt callstack 28
  3170  006CE8                     
  3171                           ;PWM.c: 62:     PR2 = 0XFF;
  3172  006CE8  68CB               	setf	203,c	;volatile
  3173  006CEA                     
  3174                           ;PWM.c: 63:     CCPR1L = 0X3E;
  3175  006CEA  0E3E               	movlw	62
  3176  006CEC  6EBE               	movwf	190,c	;volatile
  3177                           
  3178                           ;PWM.c: 64:     CCPR2L = 0X3E;
  3179  006CEE  0E3E               	movlw	62
  3180  006CF0  6EBB               	movwf	187,c	;volatile
  3181  006CF2                     
  3182                           ;PWM.c: 65:     TRISCbits.RC1 = 0;
  3183  006CF2  9294               	bcf	148,1,c	;volatile
  3184  006CF4                     
  3185                           ;PWM.c: 66:     TRISCbits.RC0 = 0;
  3186  006CF4  9094               	bcf	148,0,c	;volatile
  3187  006CF6                     
  3188                           ;PWM.c: 67:     TRISCbits.RC2 = 0;
  3189  006CF6  9494               	bcf	148,2,c	;volatile
  3190                           
  3191                           ;PWM.c: 68:     T2CON = 0X03;
  3192  006CF8  0E03               	movlw	3
  3193  006CFA  6ECA               	movwf	202,c	;volatile
  3194                           
  3195                           ;PWM.c: 69:     CCP1CON = 0X0C;
  3196  006CFC  0E0C               	movlw	12
  3197  006CFE  6EBD               	movwf	189,c	;volatile
  3198                           
  3199                           ;PWM.c: 70:     CCP2CON = 0X0C;
  3200  006D00  0E0C               	movlw	12
  3201  006D02  6EBA               	movwf	186,c	;volatile
  3202  006D04                     
  3203                           ;PWM.c: 71:     T2CONbits.TMR2ON = 0;
  3204  006D04  94CA               	bcf	202,2,c	;volatile
  3205  006D06                     
  3206                           ;PWM.c: 72:     PORTCbits.RC0 = 1;
  3207  006D06  8082               	bsf	130,0,c	;volatile
  3208  006D08                     
  3209                           ;PWM.c: 73:     PORTCbits.RC4 = 1;
  3210  006D08  8882               	bsf	130,4,c	;volatile
  3211  006D0A  0012               	return		;funcret
  3212  006D0C                     __end_of_PWM_InitS:
  3213                           	opt callstack 0
  3214                           
  3215 ;; *************** function _PWM_InitF *****************
  3216 ;; Defined at:
  3217 ;;		line 44 in file "PWM.c"
  3218 ;; Parameters:    Size  Location     Type
  3219 ;;		None
  3220 ;; Auto vars:     Size  Location     Type
  3221 ;;		None
  3222 ;; Return value:  Size  Location     Type
  3223 ;;                  1    wreg      void 
  3224 ;; Registers used:
  3225 ;;		wreg, status,2
  3226 ;; Tracked objects:
  3227 ;;		On entry : 0/0
  3228 ;;		On exit  : 0/0
  3229 ;;		Unchanged: 0/0
  3230 ;; Data sizes:     COMRAM   BANK0   BANK1   BANK2   BANK3   BANK4   BANK5   BANK6   BANK7
  3231 ;;      Params:         0       0       0       0       0       0       0       0       0
  3232 ;;      Locals:         0       0       0       0       0       0       0       0       0
  3233 ;;      Temps:          0       0       0       0       0       0       0       0       0
  3234 ;;      Totals:         0       0       0       0       0       0       0       0       0
  3235 ;;Total ram usage:        0 bytes
  3236 ;; Hardware stack levels used:    1
  3237 ;; This function calls:
  3238 ;;		Nothing
  3239 ;; This function is called by:
  3240 ;;		_PWM_GeneratePulsos
  3241 ;; This function uses a non-reentrant model
  3242 ;;
  3243                           
  3244                           	psect	text22
  3245  006D0C                     __ptext22:
  3246                           	opt callstack 0
  3247  006D0C                     _PWM_InitF:
  3248                           	opt callstack 28
  3249  006D0C                     
  3250                           ;PWM.c: 46:     PR2 = 0X7C;
  3251  006D0C  0E7C               	movlw	124
  3252  006D0E  6ECB               	movwf	203,c	;volatile
  3253                           
  3254                           ;PWM.c: 47:     CCPR1L = 0X3E;
  3255  006D10  0E3E               	movlw	62
  3256  006D12  6EBE               	movwf	190,c	;volatile
  3257                           
  3258                           ;PWM.c: 48:     CCPR2L = 0X3E;
  3259  006D14  0E3E               	movlw	62
  3260  006D16  6EBB               	movwf	187,c	;volatile
  3261  006D18                     
  3262                           ;PWM.c: 49:     TRISCbits.RC1 = 0;
  3263  006D18  9294               	bcf	148,1,c	;volatile
  3264  006D1A                     
  3265                           ;PWM.c: 50:     TRISCbits.RC0 = 0;
  3266  006D1A  9094               	bcf	148,0,c	;volatile
  3267  006D1C                     
  3268                           ;PWM.c: 51:     TRISCbits.RC2 = 0;
  3269  006D1C  9494               	bcf	148,2,c	;volatile
  3270                           
  3271                           ;PWM.c: 52:     T2CON = 0X03;
  3272  006D1E  0E03               	movlw	3
  3273  006D20  6ECA               	movwf	202,c	;volatile
  3274                           
  3275                           ;PWM.c: 53:     CCP1CON = 0X0C;
  3276  006D22  0E0C               	movlw	12
  3277  006D24  6EBD               	movwf	189,c	;volatile
  3278                           
  3279                           ;PWM.c: 54:     CCP2CON = 0X0C;
  3280  006D26  0E0C               	movlw	12
  3281  006D28  6EBA               	movwf	186,c	;volatile
  3282  006D2A                     
  3283                           ;PWM.c: 55:     T2CONbits.TMR2ON = 0;
  3284  006D2A  94CA               	bcf	202,2,c	;volatile
  3285  006D2C                     
  3286                           ;PWM.c: 56:     PORTCbits.RC0 = 1;
  3287  006D2C  8082               	bsf	130,0,c	;volatile
  3288  006D2E                     
  3289                           ;PWM.c: 57:     PORTCbits.RC4 = 1;
  3290  006D2E  8882               	bsf	130,4,c	;volatile
  3291  006D30  0012               	return		;funcret
  3292  006D32                     __end_of_PWM_InitF:
  3293                           	opt callstack 0
  3294                           
  3295 ;; *************** function _Motor_Conversion *****************
  3296 ;; Defined at:
  3297 ;;		line 16 in file "Motor.c"
  3298 ;; Parameters:    Size  Location     Type
  3299 ;;  Coordenada      2   49[COMRAM] int 
  3300 ;; Auto vars:     Size  Location     Type
  3301 ;;  conversion      4   51[COMRAM] float 
  3302 ;; Return value:  Size  Location     Type
  3303 ;;                  2   49[COMRAM] int 
  3304 ;; Registers used:
  3305 ;;		wreg, status,2, status,0, cstack
  3306 ;; Tracked objects:
  3307 ;;		On entry : 0/0
  3308 ;;		On exit  : 0/0
  3309 ;;		Unchanged: 0/0
  3310 ;; Data sizes:     COMRAM   BANK0   BANK1   BANK2   BANK3   BANK4   BANK5   BANK6   BANK7
  3311 ;;      Params:         2       0       0       0       0       0       0       0       0
  3312 ;;      Locals:         4       0       0       0       0       0       0       0       0
  3313 ;;      Temps:          0       0       0       0       0       0       0       0       0
  3314 ;;      Totals:         6       0       0       0       0       0       0       0       0
  3315 ;;Total ram usage:        6 bytes
  3316 ;; Hardware stack levels used:    1
  3317 ;; Hardware stack levels required when called:    1
  3318 ;; This function calls:
  3319 ;;		___fldiv
  3320 ;;		___fltol
  3321 ;;		___xxtofl
  3322 ;; This function is called by:
  3323 ;;		_Motor_Movimiento
  3324 ;; This function uses a non-reentrant model
  3325 ;;
  3326                           
  3327                           	psect	text23
  3328  006FFA                     __ptext23:
  3329                           	opt callstack 0
  3330  006FFA                     _Motor_Conversion:
  3331                           	opt callstack 28
  3332  006FFA                     
  3333                           ;Motor.c: 16: int Motor_Conversion(int Coordenada);Motor.c: 17: {;Motor.c: 18:     float
      +                           conversion = 0.2;
  3334  006FFA  0ECD               	movlw	205
  3335  006FFC  6E34               	movwf	Motor_Conversion@conversion^0,c
  3336  006FFE  0ECC               	movlw	204
  3337  007000  6E35               	movwf	(Motor_Conversion@conversion+1)^0,c
  3338  007002  0E4C               	movlw	76
  3339  007004  6E36               	movwf	(Motor_Conversion@conversion+2)^0,c
  3340  007006  0E3E               	movlw	62
  3341  007008  6E37               	movwf	(Motor_Conversion@conversion+3)^0,c
  3342  00700A                     
  3343                           ;Motor.c: 19:     pasos_convertidos = Coordenada / conversion;
  3344  00700A  C034  F013         	movff	Motor_Conversion@conversion,___fldiv@a
  3345  00700E  C035  F014         	movff	Motor_Conversion@conversion+1,___fldiv@a+1
  3346  007012  C036  F015         	movff	Motor_Conversion@conversion+2,___fldiv@a+2
  3347  007016  C037  F016         	movff	Motor_Conversion@conversion+3,___fldiv@a+3
  3348  00701A  C032  F001         	movff	Motor_Conversion@Coordenada,___xxtofl@val
  3349  00701E  C033  F002         	movff	Motor_Conversion@Coordenada+1,___xxtofl@val+1
  3350  007022  0E00               	movlw	0
  3351  007024  BE02               	btfsc	(___xxtofl@val+1)^0,7,c
  3352  007026  0EFF               	movlw	-1
  3353  007028  6E03               	movwf	(___xxtofl@val+2)^0,c
  3354  00702A  6E04               	movwf	(___xxtofl@val+3)^0,c
  3355  00702C  0E01               	movlw	1
  3356  00702E  EC59  F03D         	call	___xxtofl
  3357  007032  C001  F00F         	movff	?___xxtofl,___fldiv@b
  3358  007036  C002  F010         	movff	?___xxtofl+1,___fldiv@b+1
  3359  00703A  C003  F011         	movff	?___xxtofl+2,___fldiv@b+2
  3360  00703E  C004  F012         	movff	?___xxtofl+3,___fldiv@b+3
  3361  007042  EC33  F03E         	call	___fldiv	;wreg free
  3362  007046  C00F  F028         	movff	?___fldiv,___fltol@f1
  3363  00704A  C010  F029         	movff	?___fldiv+1,___fltol@f1+1
  3364  00704E  C011  F02A         	movff	?___fldiv+2,___fltol@f1+2
  3365  007052  C012  F02B         	movff	?___fldiv+3,___fltol@f1+3
  3366  007056  EC96  F039         	call	___fltol	;wreg free
  3367  00705A  C028  F048         	movff	?___fltol,_pasos_convertidos
  3368  00705E  C029  F049         	movff	?___fltol+1,_pasos_convertidos+1
  3369  007062                     
  3370                           ;Motor.c: 20:     return pasos_convertidos;
  3371  007062  C048  F032         	movff	_pasos_convertidos,?_Motor_Conversion
  3372  007066  C049  F033         	movff	_pasos_convertidos+1,?_Motor_Conversion+1
  3373  00706A  0012               	return		;funcret
  3374  00706C                     __end_of_Motor_Conversion:
  3375                           	opt callstack 0
  3376                           
  3377 ;; *************** function ___xxtofl *****************
  3378 ;; Defined at:
  3379 ;;		line 10 in file "C:\Program Files (x86)\Microchip\xc8\v2.10\pic\sources\c99\common\xxtofl.c"
  3380 ;; Parameters:    Size  Location     Type
  3381 ;;  sign            1    wreg     unsigned char 
  3382 ;;  val             4    0[COMRAM] long 
  3383 ;; Auto vars:     Size  Location     Type
  3384 ;;  sign            1    8[COMRAM] unsigned char 
  3385 ;;  arg             4   10[COMRAM] unsigned long 
  3386 ;;  exp             1    9[COMRAM] unsigned char 
  3387 ;; Return value:  Size  Location     Type
  3388 ;;                  4    0[COMRAM] unsigned char 
  3389 ;; Registers used:
  3390 ;;		wreg, status,2, status,0
  3391 ;; Tracked objects:
  3392 ;;		On entry : 0/0
  3393 ;;		On exit  : 0/0
  3394 ;;		Unchanged: 0/0
  3395 ;; Data sizes:     COMRAM   BANK0   BANK1   BANK2   BANK3   BANK4   BANK5   BANK6   BANK7
  3396 ;;      Params:         4       0       0       0       0       0       0       0       0
  3397 ;;      Locals:         6       0       0       0       0       0       0       0       0
  3398 ;;      Temps:          4       0       0       0       0       0       0       0       0
  3399 ;;      Totals:        14       0       0       0       0       0       0       0       0
  3400 ;;Total ram usage:       14 bytes
  3401 ;; Hardware stack levels used:    1
  3402 ;; This function calls:
  3403 ;;		Nothing
  3404 ;; This function is called by:
  3405 ;;		_Motor_Conversion
  3406 ;; This function uses a non-reentrant model
  3407 ;;
  3408                           
  3409                           	psect	text24
  3410  007AB2                     __ptext24:
  3411                           	opt callstack 0
  3412  007AB2                     ___xxtofl:
  3413                           	opt callstack 28
  3414                           
  3415                           ;incstack = 0
  3416                           ;___xxtofl@sign stored from wreg
  3417  007AB2  6E09               	movwf	___xxtofl@sign^0,c
  3418  007AB4  5009               	movf	___xxtofl@sign^0,w,c
  3419  007AB6  B4D8               	btfsc	status,2,c
  3420  007AB8  EF60  F03D         	goto	u1241
  3421  007ABC  EF62  F03D         	goto	u1240
  3422  007AC0                     u1241:
  3423  007AC0  EF84  F03D         	goto	l1109
  3424  007AC4                     u1240:
  3425  007AC4  BE04               	btfsc	(___xxtofl@val+3)^0,7,c
  3426  007AC6  EF69  F03D         	goto	u1250
  3427  007ACA  EF67  F03D         	goto	u1251
  3428  007ACE                     u1251:
  3429  007ACE  EF84  F03D         	goto	l1109
  3430  007AD2                     u1250:
  3431  007AD2  C001  F005         	movff	___xxtofl@val,??___xxtofl
  3432  007AD6  C002  F006         	movff	___xxtofl@val+1,??___xxtofl+1
  3433  007ADA  C003  F007         	movff	___xxtofl@val+2,??___xxtofl+2
  3434  007ADE  C004  F008         	movff	___xxtofl@val+3,??___xxtofl+3
  3435  007AE2  1E05               	comf	??___xxtofl^0,f,c
  3436  007AE4  1E06               	comf	(??___xxtofl+1)^0,f,c
  3437  007AE6  1E07               	comf	(??___xxtofl+2)^0,f,c
  3438  007AE8  1E08               	comf	(??___xxtofl+3)^0,f,c
  3439  007AEA  2A05               	incf	??___xxtofl^0,f,c
  3440  007AEC  0E00               	movlw	0
  3441  007AEE  2206               	addwfc	(??___xxtofl+1)^0,f,c
  3442  007AF0  2207               	addwfc	(??___xxtofl+2)^0,f,c
  3443  007AF2  2208               	addwfc	(??___xxtofl+3)^0,f,c
  3444  007AF4  C005  F00B         	movff	??___xxtofl,___xxtofl@arg
  3445  007AF8  C006  F00C         	movff	??___xxtofl+1,___xxtofl@arg+1
  3446  007AFC  C007  F00D         	movff	??___xxtofl+2,___xxtofl@arg+2
  3447  007B00  C008  F00E         	movff	??___xxtofl+3,___xxtofl@arg+3
  3448  007B04  EF8C  F03D         	goto	l2284
  3449  007B08                     l1109:
  3450  007B08  C001  F00B         	movff	___xxtofl@val,___xxtofl@arg
  3451  007B0C  C002  F00C         	movff	___xxtofl@val+1,___xxtofl@arg+1
  3452  007B10  C003  F00D         	movff	___xxtofl@val+2,___xxtofl@arg+2
  3453  007B14  C004  F00E         	movff	___xxtofl@val+3,___xxtofl@arg+3
  3454  007B18                     l2284:
  3455  007B18  5001               	movf	___xxtofl@val^0,w,c
  3456  007B1A  1002               	iorwf	(___xxtofl@val+1)^0,w,c
  3457  007B1C  1003               	iorwf	(___xxtofl@val+2)^0,w,c
  3458  007B1E  1004               	iorwf	(___xxtofl@val+3)^0,w,c
  3459  007B20  A4D8               	btfss	status,2,c
  3460  007B22  EF95  F03D         	goto	u1261
  3461  007B26  EF97  F03D         	goto	u1260
  3462  007B2A                     u1261:
  3463  007B2A  EFA1  F03D         	goto	l2290
  3464  007B2E                     u1260:
  3465  007B2E  0E00               	movlw	0
  3466  007B30  6E01               	movwf	?___xxtofl^0,c
  3467  007B32  0E00               	movlw	0
  3468  007B34  6E02               	movwf	(?___xxtofl+1)^0,c
  3469  007B36  0E00               	movlw	0
  3470  007B38  6E03               	movwf	(?___xxtofl+2)^0,c
  3471  007B3A  0E00               	movlw	0
  3472  007B3C  6E04               	movwf	(?___xxtofl+3)^0,c
  3473  007B3E  EF32  F03E         	goto	l1112
  3474  007B42                     l2290:
  3475  007B42  0E96               	movlw	150
  3476  007B44  6E0A               	movwf	___xxtofl@exp^0,c
  3477  007B46  EFAB  F03D         	goto	l2294
  3478  007B4A                     l2292:
  3479  007B4A  2A0A               	incf	___xxtofl@exp^0,f,c
  3480  007B4C  90D8               	bcf	status,0,c
  3481  007B4E  320E               	rrcf	(___xxtofl@arg+3)^0,f,c
  3482  007B50  320D               	rrcf	(___xxtofl@arg+2)^0,f,c
  3483  007B52  320C               	rrcf	(___xxtofl@arg+1)^0,f,c
  3484  007B54  320B               	rrcf	___xxtofl@arg^0,f,c
  3485  007B56                     l2294:
  3486  007B56  0E00               	movlw	0
  3487  007B58  140B               	andwf	___xxtofl@arg^0,w,c
  3488  007B5A  6E05               	movwf	??___xxtofl^0,c
  3489  007B5C  0E00               	movlw	0
  3490  007B5E  140C               	andwf	(___xxtofl@arg+1)^0,w,c
  3491  007B60  6E06               	movwf	(??___xxtofl+1)^0,c
  3492  007B62  0E00               	movlw	0
  3493  007B64  140D               	andwf	(___xxtofl@arg+2)^0,w,c
  3494  007B66  6E07               	movwf	(??___xxtofl+2)^0,c
  3495  007B68  0EFE               	movlw	254
  3496  007B6A  140E               	andwf	(___xxtofl@arg+3)^0,w,c
  3497  007B6C  6E08               	movwf	(??___xxtofl+3)^0,c
  3498  007B6E  5005               	movf	??___xxtofl^0,w,c
  3499  007B70  1006               	iorwf	(??___xxtofl+1)^0,w,c
  3500  007B72  1007               	iorwf	(??___xxtofl+2)^0,w,c
  3501  007B74  1008               	iorwf	(??___xxtofl+3)^0,w,c
  3502  007B76  A4D8               	btfss	status,2,c
  3503  007B78  EFC0  F03D         	goto	u1271
  3504  007B7C  EFC2  F03D         	goto	u1270
  3505  007B80                     u1271:
  3506  007B80  EFA5  F03D         	goto	l2292
  3507  007B84                     u1270:
  3508  007B84  EFD0  F03D         	goto	l1116
  3509  007B88                     l2296:
  3510  007B88  2A0A               	incf	___xxtofl@exp^0,f,c
  3511  007B8A  0E01               	movlw	1
  3512  007B8C  260B               	addwf	___xxtofl@arg^0,f,c
  3513  007B8E  0E00               	movlw	0
  3514  007B90  220C               	addwfc	(___xxtofl@arg+1)^0,f,c
  3515  007B92  220D               	addwfc	(___xxtofl@arg+2)^0,f,c
  3516  007B94  220E               	addwfc	(___xxtofl@arg+3)^0,f,c
  3517  007B96  90D8               	bcf	status,0,c
  3518  007B98  320E               	rrcf	(___xxtofl@arg+3)^0,f,c
  3519  007B9A  320D               	rrcf	(___xxtofl@arg+2)^0,f,c
  3520  007B9C  320C               	rrcf	(___xxtofl@arg+1)^0,f,c
  3521  007B9E  320B               	rrcf	___xxtofl@arg^0,f,c
  3522  007BA0                     l1116:
  3523  007BA0  0E00               	movlw	0
  3524  007BA2  140B               	andwf	___xxtofl@arg^0,w,c
  3525  007BA4  6E05               	movwf	??___xxtofl^0,c
  3526  007BA6  0E00               	movlw	0
  3527  007BA8  140C               	andwf	(___xxtofl@arg+1)^0,w,c
  3528  007BAA  6E06               	movwf	(??___xxtofl+1)^0,c
  3529  007BAC  0E00               	movlw	0
  3530  007BAE  140D               	andwf	(___xxtofl@arg+2)^0,w,c
  3531  007BB0  6E07               	movwf	(??___xxtofl+2)^0,c
  3532  007BB2  0EFF               	movlw	255
  3533  007BB4  140E               	andwf	(___xxtofl@arg+3)^0,w,c
  3534  007BB6  6E08               	movwf	(??___xxtofl+3)^0,c
  3535  007BB8  5005               	movf	??___xxtofl^0,w,c
  3536  007BBA  1006               	iorwf	(??___xxtofl+1)^0,w,c
  3537  007BBC  1007               	iorwf	(??___xxtofl+2)^0,w,c
  3538  007BBE  1008               	iorwf	(??___xxtofl+3)^0,w,c
  3539  007BC0  A4D8               	btfss	status,2,c
  3540  007BC2  EFE5  F03D         	goto	u1281
  3541  007BC6  EFE7  F03D         	goto	u1280
  3542  007BCA                     u1281:
  3543  007BCA  EFC4  F03D         	goto	l2296
  3544  007BCE                     u1280:
  3545  007BCE  EFEF  F03D         	goto	l2304
  3546  007BD2                     l2302:
  3547  007BD2  060A               	decf	___xxtofl@exp^0,f,c
  3548  007BD4  90D8               	bcf	status,0,c
  3549  007BD6  360B               	rlcf	___xxtofl@arg^0,f,c
  3550  007BD8  360C               	rlcf	(___xxtofl@arg+1)^0,f,c
  3551  007BDA  360D               	rlcf	(___xxtofl@arg+2)^0,f,c
  3552  007BDC  360E               	rlcf	(___xxtofl@arg+3)^0,f,c
  3553  007BDE                     l2304:
  3554  007BDE  BE0D               	btfsc	(___xxtofl@arg+2)^0,7,c
  3555  007BE0  EFF4  F03D         	goto	u1291
  3556  007BE4  EFF6  F03D         	goto	u1290
  3557  007BE8                     u1291:
  3558  007BE8  EFFE  F03D         	goto	l1123
  3559  007BEC                     u1290:
  3560  007BEC  0E02               	movlw	2
  3561  007BEE  600A               	cpfslt	___xxtofl@exp^0,c
  3562  007BF0  EFFC  F03D         	goto	u1301
  3563  007BF4  EFFE  F03D         	goto	u1300
  3564  007BF8                     u1301:
  3565  007BF8  EFE9  F03D         	goto	l2302
  3566  007BFC                     u1300:
  3567  007BFC                     l1123:
  3568  007BFC  B00A               	btfsc	___xxtofl@exp^0,0,c
  3569  007BFE  EF03  F03E         	goto	u1311
  3570  007C02  EF05  F03E         	goto	u1310
  3571  007C06                     u1311:
  3572  007C06  EF06  F03E         	goto	l2310
  3573  007C0A                     u1310:
  3574  007C0A  9E0D               	bcf	(___xxtofl@arg+2)^0,7,c
  3575  007C0C                     l2310:
  3576  007C0C  90D8               	bcf	status,0,c
  3577  007C0E  320A               	rrcf	___xxtofl@exp^0,f,c
  3578  007C10  C00A  F005         	movff	___xxtofl@exp,??___xxtofl
  3579  007C14  6A06               	clrf	(??___xxtofl+1)^0,c
  3580  007C16  6A07               	clrf	(??___xxtofl+2)^0,c
  3581  007C18  6A08               	clrf	(??___xxtofl+3)^0,c
  3582  007C1A  C005  F008         	movff	??___xxtofl,??___xxtofl+3
  3583  007C1E  6A07               	clrf	(??___xxtofl+2)^0,c
  3584  007C20  6A06               	clrf	(??___xxtofl+1)^0,c
  3585  007C22  6A05               	clrf	??___xxtofl^0,c
  3586  007C24  5005               	movf	??___xxtofl^0,w,c
  3587  007C26  120B               	iorwf	___xxtofl@arg^0,f,c
  3588  007C28  5006               	movf	(??___xxtofl+1)^0,w,c
  3589  007C2A  120C               	iorwf	(___xxtofl@arg+1)^0,f,c
  3590  007C2C  5007               	movf	(??___xxtofl+2)^0,w,c
  3591  007C2E  120D               	iorwf	(___xxtofl@arg+2)^0,f,c
  3592  007C30  5008               	movf	(??___xxtofl+3)^0,w,c
  3593  007C32  120E               	iorwf	(___xxtofl@arg+3)^0,f,c
  3594  007C34  5009               	movf	___xxtofl@sign^0,w,c
  3595  007C36  B4D8               	btfsc	status,2,c
  3596  007C38  EF20  F03E         	goto	u1321
  3597  007C3C  EF22  F03E         	goto	u1320
  3598  007C40                     u1321:
  3599  007C40  EF2A  F03E         	goto	l2320
  3600  007C44                     u1320:
  3601  007C44  BE04               	btfsc	(___xxtofl@val+3)^0,7,c
  3602  007C46  EF29  F03E         	goto	u1330
  3603  007C4A  EF27  F03E         	goto	u1331
  3604  007C4E                     u1331:
  3605  007C4E  EF2A  F03E         	goto	l2320
  3606  007C52                     u1330:
  3607  007C52  8E0E               	bsf	(___xxtofl@arg+3)^0,7,c
  3608  007C54                     l2320:
  3609  007C54  C00B  F001         	movff	___xxtofl@arg,?___xxtofl
  3610  007C58  C00C  F002         	movff	___xxtofl@arg+1,?___xxtofl+1
  3611  007C5C  C00D  F003         	movff	___xxtofl@arg+2,?___xxtofl+2
  3612  007C60  C00E  F004         	movff	___xxtofl@arg+3,?___xxtofl+3
  3613  007C64                     l1112:
  3614  007C64  0012               	return		;funcret
  3615  007C66                     __end_of___xxtofl:
  3616                           	opt callstack 0
  3617                           
  3618 ;; *************** function ___fltol *****************
  3619 ;; Defined at:
  3620 ;;		line 43 in file "C:\Program Files (x86)\Microchip\xc8\v2.10\pic\sources\c99\common\fltol.c"
  3621 ;; Parameters:    Size  Location     Type
  3622 ;;  f1              4   39[COMRAM] unsigned char 
  3623 ;; Auto vars:     Size  Location     Type
  3624 ;;  exp1            1   48[COMRAM] unsigned char 
  3625 ;;  sign1           1   47[COMRAM] unsigned char 
  3626 ;; Return value:  Size  Location     Type
  3627 ;;                  4   39[COMRAM] long 
  3628 ;; Registers used:
  3629 ;;		wreg, status,2, status,0
  3630 ;; Tracked objects:
  3631 ;;		On entry : 0/0
  3632 ;;		On exit  : 0/0
  3633 ;;		Unchanged: 0/0
  3634 ;; Data sizes:     COMRAM   BANK0   BANK1   BANK2   BANK3   BANK4   BANK5   BANK6   BANK7
  3635 ;;      Params:         4       0       0       0       0       0       0       0       0
  3636 ;;      Locals:         2       0       0       0       0       0       0       0       0
  3637 ;;      Temps:          4       0       0       0       0       0       0       0       0
  3638 ;;      Totals:        10       0       0       0       0       0       0       0       0
  3639 ;;Total ram usage:       10 bytes
  3640 ;; Hardware stack levels used:    1
  3641 ;; This function calls:
  3642 ;;		Nothing
  3643 ;; This function is called by:
  3644 ;;		_Motor_Conversion
  3645 ;; This function uses a non-reentrant model
  3646 ;;
  3647                           
  3648                           	psect	text25
  3649  00732C                     __ptext25:
  3650                           	opt callstack 0
  3651  00732C                     ___fltol:
  3652                           	opt callstack 28
  3653  00732C  342A               	rlcf	(___fltol@f1+2)^0,w,c
  3654  00732E  342B               	rlcf	(___fltol@f1+3)^0,w,c
  3655  007330  6E31               	movwf	___fltol@exp1^0,c
  3656  007332  5031               	movf	___fltol@exp1^0,w,c
  3657  007334  A4D8               	btfss	status,2,c
  3658  007336  EF9F  F039         	goto	u1171
  3659  00733A  EFA1  F039         	goto	u1170
  3660  00733E                     u1171:
  3661  00733E  EFAB  F039         	goto	l2240
  3662  007342                     u1170:
  3663  007342                     l2236:
  3664  007342  0E00               	movlw	0
  3665  007344  6E28               	movwf	?___fltol^0,c
  3666  007346  0E00               	movlw	0
  3667  007348  6E29               	movwf	(?___fltol+1)^0,c
  3668  00734A  0E00               	movlw	0
  3669  00734C  6E2A               	movwf	(?___fltol+2)^0,c
  3670  00734E  0E00               	movlw	0
  3671  007350  6E2B               	movwf	(?___fltol+3)^0,c
  3672  007352  EF18  F03A         	goto	l751
  3673  007356                     l2240:
  3674  007356  C028  F02C         	movff	___fltol@f1,??___fltol
  3675  00735A  C029  F02D         	movff	___fltol@f1+1,??___fltol+1
  3676  00735E  C02A  F02E         	movff	___fltol@f1+2,??___fltol+2
  3677  007362  C02B  F02F         	movff	___fltol@f1+3,??___fltol+3
  3678  007366  0E20               	movlw	32
  3679  007368  EFBB  F039         	goto	u1180
  3680  00736C                     u1185:
  3681  00736C  90D8               	bcf	status,0,c
  3682  00736E  322F               	rrcf	(??___fltol+3)^0,f,c
  3683  007370  322E               	rrcf	(??___fltol+2)^0,f,c
  3684  007372  322D               	rrcf	(??___fltol+1)^0,f,c
  3685  007374  322C               	rrcf	??___fltol^0,f,c
  3686  007376                     u1180:
  3687  007376  2EE8               	decfsz	wreg,f,c
  3688  007378  EFB6  F039         	goto	u1185
  3689  00737C  502C               	movf	??___fltol^0,w,c
  3690  00737E  6E30               	movwf	___fltol@sign1^0,c
  3691  007380  8E2A               	bsf	(___fltol@f1+2)^0,7,c
  3692  007382  0EFF               	movlw	255
  3693  007384  1628               	andwf	___fltol@f1^0,f,c
  3694  007386  0EFF               	movlw	255
  3695  007388  1629               	andwf	(___fltol@f1+1)^0,f,c
  3696  00738A  0EFF               	movlw	255
  3697  00738C  162A               	andwf	(___fltol@f1+2)^0,f,c
  3698  00738E  0E00               	movlw	0
  3699  007390  162B               	andwf	(___fltol@f1+3)^0,f,c
  3700  007392  0E96               	movlw	150
  3701  007394  5E31               	subwf	___fltol@exp1^0,f,c
  3702  007396  BE31               	btfsc	___fltol@exp1^0,7,c
  3703  007398  EFD2  F039         	goto	u1190
  3704  00739C  EFD0  F039         	goto	u1191
  3705  0073A0                     u1191:
  3706  0073A0  EFE8  F039         	goto	l2260
  3707  0073A4                     u1190:
  3708  0073A4  5031               	movf	___fltol@exp1^0,w,c
  3709  0073A6  0A80               	xorlw	128
  3710  0073A8  0F97               	addlw	151
  3711  0073AA  B0D8               	btfsc	status,0,c
  3712  0073AC  EFDA  F039         	goto	u1201
  3713  0073B0  EFDC  F039         	goto	u1200
  3714  0073B4                     u1201:
  3715  0073B4  EFDE  F039         	goto	l2256
  3716  0073B8                     u1200:
  3717  0073B8  EFA1  F039         	goto	l2236
  3718  0073BC                     l2256:
  3719  0073BC  90D8               	bcf	status,0,c
  3720  0073BE  322B               	rrcf	(___fltol@f1+3)^0,f,c
  3721  0073C0  322A               	rrcf	(___fltol@f1+2)^0,f,c
  3722  0073C2  3229               	rrcf	(___fltol@f1+1)^0,f,c
  3723  0073C4  3228               	rrcf	___fltol@f1^0,f,c
  3724  0073C6  3E31               	incfsz	___fltol@exp1^0,f,c
  3725  0073C8  EFDE  F039         	goto	l2256
  3726  0073CC  EF00  F03A         	goto	l2270
  3727  0073D0                     l2260:
  3728  0073D0  0E1F               	movlw	31
  3729  0073D2  6431               	cpfsgt	___fltol@exp1^0,c
  3730  0073D4  EFEE  F039         	goto	u1211
  3731  0073D8  EFF0  F039         	goto	u1210
  3732  0073DC                     u1211:
  3733  0073DC  EFF8  F039         	goto	l2268
  3734  0073E0                     u1210:
  3735  0073E0  EFA1  F039         	goto	l2236
  3736  0073E4                     l2266:
  3737  0073E4  90D8               	bcf	status,0,c
  3738  0073E6  3628               	rlcf	___fltol@f1^0,f,c
  3739  0073E8  3629               	rlcf	(___fltol@f1+1)^0,f,c
  3740  0073EA  362A               	rlcf	(___fltol@f1+2)^0,f,c
  3741  0073EC  362B               	rlcf	(___fltol@f1+3)^0,f,c
  3742  0073EE  0631               	decf	___fltol@exp1^0,f,c
  3743  0073F0                     l2268:
  3744  0073F0  5031               	movf	___fltol@exp1^0,w,c
  3745  0073F2  A4D8               	btfss	status,2,c
  3746  0073F4  EFFE  F039         	goto	u1221
  3747  0073F8  EF00  F03A         	goto	u1220
  3748  0073FC                     u1221:
  3749  0073FC  EFF2  F039         	goto	l2266
  3750  007400                     u1220:
  3751  007400                     l2270:
  3752  007400  5030               	movf	___fltol@sign1^0,w,c
  3753  007402  B4D8               	btfsc	status,2,c
  3754  007404  EF06  F03A         	goto	u1231
  3755  007408  EF08  F03A         	goto	u1230
  3756  00740C                     u1231:
  3757  00740C  EF10  F03A         	goto	l2274
  3758  007410                     u1230:
  3759  007410  1E2B               	comf	(___fltol@f1+3)^0,f,c
  3760  007412  1E2A               	comf	(___fltol@f1+2)^0,f,c
  3761  007414  1E29               	comf	(___fltol@f1+1)^0,f,c
  3762  007416  6C28               	negf	___fltol@f1^0,c
  3763  007418  0E00               	movlw	0
  3764  00741A  2229               	addwfc	(___fltol@f1+1)^0,f,c
  3765  00741C  222A               	addwfc	(___fltol@f1+2)^0,f,c
  3766  00741E  222B               	addwfc	(___fltol@f1+3)^0,f,c
  3767  007420                     l2274:
  3768  007420  C028  F028         	movff	___fltol@f1,?___fltol
  3769  007424  C029  F029         	movff	___fltol@f1+1,?___fltol+1
  3770  007428  C02A  F02A         	movff	___fltol@f1+2,?___fltol+2
  3771  00742C  C02B  F02B         	movff	___fltol@f1+3,?___fltol+3
  3772  007430                     l751:
  3773  007430  0012               	return		;funcret
  3774  007432                     __end_of___fltol:
  3775                           	opt callstack 0
  3776                           
  3777 ;; *************** function ___fldiv *****************
  3778 ;; Defined at:
  3779 ;;		line 11 in file "C:\Program Files (x86)\Microchip\xc8\v2.10\pic\sources\c99\common\sprcdiv.c"
  3780 ;; Parameters:    Size  Location     Type
  3781 ;;  b               4   14[COMRAM] long 
  3782 ;;  a               4   18[COMRAM] long 
  3783 ;; Auto vars:     Size  Location     Type
  3784 ;;  grs             4   33[COMRAM] unsigned long 
  3785 ;;  rem             4   26[COMRAM] unsigned long 
  3786 ;;  new_exp         2   31[COMRAM] short 
  3787 ;;  aexp            1   38[COMRAM] unsigned char 
  3788 ;;  bexp            1   37[COMRAM] unsigned char 
  3789 ;;  sign            1   30[COMRAM] unsigned char 
  3790 ;; Return value:  Size  Location     Type
  3791 ;;                  4   14[COMRAM] unsigned char 
  3792 ;; Registers used:
  3793 ;;		wreg, status,2, status,0
  3794 ;; Tracked objects:
  3795 ;;		On entry : 0/0
  3796 ;;		On exit  : 0/0
  3797 ;;		Unchanged: 0/0
  3798 ;; Data sizes:     COMRAM   BANK0   BANK1   BANK2   BANK3   BANK4   BANK5   BANK6   BANK7
  3799 ;;      Params:         8       0       0       0       0       0       0       0       0
  3800 ;;      Locals:        13       0       0       0       0       0       0       0       0
  3801 ;;      Temps:          4       0       0       0       0       0       0       0       0
  3802 ;;      Totals:        25       0       0       0       0       0       0       0       0
  3803 ;;Total ram usage:       25 bytes
  3804 ;; Hardware stack levels used:    1
  3805 ;; This function calls:
  3806 ;;		Nothing
  3807 ;; This function is called by:
  3808 ;;		_Motor_Conversion
  3809 ;; This function uses a non-reentrant model
  3810 ;;
  3811                           
  3812                           	psect	text26
  3813  007C66                     __ptext26:
  3814                           	opt callstack 0
  3815  007C66                     ___fldiv:
  3816                           	opt callstack 28
  3817  007C66  5012               	movf	(___fldiv@b+3)^0,w,c
  3818  007C68  0B80               	andlw	128
  3819  007C6A  6E1F               	movwf	___fldiv@sign^0,c
  3820  007C6C  5012               	movf	(___fldiv@b+3)^0,w,c
  3821  007C6E  2412               	addwf	(___fldiv@b+3)^0,w,c
  3822  007C70  6E26               	movwf	___fldiv@bexp^0,c
  3823  007C72  AE11               	btfss	(___fldiv@b+2)^0,7,c
  3824  007C74  EF3E  F03E         	goto	u941
  3825  007C78  EF40  F03E         	goto	u940
  3826  007C7C                     u941:
  3827  007C7C  EF41  F03E         	goto	l2102
  3828  007C80                     u940:
  3829  007C80  8026               	bsf	___fldiv@bexp^0,0,c
  3830  007C82                     l2102:
  3831  007C82  5026               	movf	___fldiv@bexp^0,w,c
  3832  007C84  B4D8               	btfsc	status,2,c
  3833  007C86  EF47  F03E         	goto	u951
  3834  007C8A  EF49  F03E         	goto	u950
  3835  007C8E                     u951:
  3836  007C8E  EF5E  F03E         	goto	l2112
  3837  007C92                     u950:
  3838  007C92  2826               	incf	___fldiv@bexp^0,w,c
  3839  007C94  A4D8               	btfss	status,2,c
  3840  007C96  EF4F  F03E         	goto	u961
  3841  007C9A  EF51  F03E         	goto	u960
  3842  007C9E                     u961:
  3843  007C9E  EF59  F03E         	goto	l2108
  3844  007CA2                     u960:
  3845  007CA2  0E00               	movlw	0
  3846  007CA4  6E0F               	movwf	___fldiv@b^0,c
  3847  007CA6  0E00               	movlw	0
  3848  007CA8  6E10               	movwf	(___fldiv@b+1)^0,c
  3849  007CAA  0E00               	movlw	0
  3850  007CAC  6E11               	movwf	(___fldiv@b+2)^0,c
  3851  007CAE  0E00               	movlw	0
  3852  007CB0  6E12               	movwf	(___fldiv@b+3)^0,c
  3853  007CB2                     l2108:
  3854  007CB2  8E11               	bsf	(___fldiv@b+2)^0,7,c
  3855  007CB4  0E00               	movlw	0
  3856  007CB6  6E12               	movwf	(___fldiv@b+3)^0,c
  3857  007CB8  EF66  F03E         	goto	l2114
  3858  007CBC                     l2112:
  3859  007CBC  0E00               	movlw	0
  3860  007CBE  6E0F               	movwf	___fldiv@b^0,c
  3861  007CC0  0E00               	movlw	0
  3862  007CC2  6E10               	movwf	(___fldiv@b+1)^0,c
  3863  007CC4  0E00               	movlw	0
  3864  007CC6  6E11               	movwf	(___fldiv@b+2)^0,c
  3865  007CC8  0E00               	movlw	0
  3866  007CCA  6E12               	movwf	(___fldiv@b+3)^0,c
  3867  007CCC                     l2114:
  3868  007CCC  5016               	movf	(___fldiv@a+3)^0,w,c
  3869  007CCE  0B80               	andlw	128
  3870  007CD0  1A1F               	xorwf	___fldiv@sign^0,f,c
  3871  007CD2  5016               	movf	(___fldiv@a+3)^0,w,c
  3872  007CD4  2416               	addwf	(___fldiv@a+3)^0,w,c
  3873  007CD6  6E27               	movwf	___fldiv@aexp^0,c
  3874  007CD8  AE15               	btfss	(___fldiv@a+2)^0,7,c
  3875  007CDA  EF71  F03E         	goto	u971
  3876  007CDE  EF73  F03E         	goto	u970
  3877  007CE2                     u971:
  3878  007CE2  EF74  F03E         	goto	l2122
  3879  007CE6                     u970:
  3880  007CE6  8027               	bsf	___fldiv@aexp^0,0,c
  3881  007CE8                     l2122:
  3882  007CE8  5027               	movf	___fldiv@aexp^0,w,c
  3883  007CEA  B4D8               	btfsc	status,2,c
  3884  007CEC  EF7A  F03E         	goto	u981
  3885  007CF0  EF7C  F03E         	goto	u980
  3886  007CF4                     u981:
  3887  007CF4  EF91  F03E         	goto	l2132
  3888  007CF8                     u980:
  3889  007CF8  2827               	incf	___fldiv@aexp^0,w,c
  3890  007CFA  A4D8               	btfss	status,2,c
  3891  007CFC  EF82  F03E         	goto	u991
  3892  007D00  EF84  F03E         	goto	u990
  3893  007D04                     u991:
  3894  007D04  EF8C  F03E         	goto	l2128
  3895  007D08                     u990:
  3896  007D08  0E00               	movlw	0
  3897  007D0A  6E13               	movwf	___fldiv@a^0,c
  3898  007D0C  0E00               	movlw	0
  3899  007D0E  6E14               	movwf	(___fldiv@a+1)^0,c
  3900  007D10  0E00               	movlw	0
  3901  007D12  6E15               	movwf	(___fldiv@a+2)^0,c
  3902  007D14  0E00               	movlw	0
  3903  007D16  6E16               	movwf	(___fldiv@a+3)^0,c
  3904  007D18                     l2128:
  3905  007D18  8E15               	bsf	(___fldiv@a+2)^0,7,c
  3906  007D1A  0E00               	movlw	0
  3907  007D1C  6E16               	movwf	(___fldiv@a+3)^0,c
  3908  007D1E  EF99  F03E         	goto	l2134
  3909  007D22                     l2132:
  3910  007D22  0E00               	movlw	0
  3911  007D24  6E13               	movwf	___fldiv@a^0,c
  3912  007D26  0E00               	movlw	0
  3913  007D28  6E14               	movwf	(___fldiv@a+1)^0,c
  3914  007D2A  0E00               	movlw	0
  3915  007D2C  6E15               	movwf	(___fldiv@a+2)^0,c
  3916  007D2E  0E00               	movlw	0
  3917  007D30  6E16               	movwf	(___fldiv@a+3)^0,c
  3918  007D32                     l2134:
  3919  007D32  5013               	movf	___fldiv@a^0,w,c
  3920  007D34  1014               	iorwf	(___fldiv@a+1)^0,w,c
  3921  007D36  1015               	iorwf	(___fldiv@a+2)^0,w,c
  3922  007D38  1016               	iorwf	(___fldiv@a+3)^0,w,c
  3923  007D3A  A4D8               	btfss	status,2,c
  3924  007D3C  EFA2  F03E         	goto	u1001
  3925  007D40  EFA4  F03E         	goto	u1000
  3926  007D44                     u1001:
  3927  007D44  EFBC  F03E         	goto	l2146
  3928  007D48                     u1000:
  3929  007D48  0E00               	movlw	0
  3930  007D4A  6E0F               	movwf	___fldiv@b^0,c
  3931  007D4C  0E00               	movlw	0
  3932  007D4E  6E10               	movwf	(___fldiv@b+1)^0,c
  3933  007D50  0E00               	movlw	0
  3934  007D52  6E11               	movwf	(___fldiv@b+2)^0,c
  3935  007D54  0E00               	movlw	0
  3936  007D56  6E12               	movwf	(___fldiv@b+3)^0,c
  3937  007D58  0E80               	movlw	128
  3938  007D5A  1211               	iorwf	(___fldiv@b+2)^0,f,c
  3939  007D5C  0E7F               	movlw	127
  3940  007D5E  1212               	iorwf	(___fldiv@b+3)^0,f,c
  3941  007D60                     l2140:
  3942  007D60  501F               	movf	___fldiv@sign^0,w,c
  3943  007D62  1212               	iorwf	(___fldiv@b+3)^0,f,c
  3944  007D64  C00F  F00F         	movff	___fldiv@b,?___fldiv
  3945  007D68  C010  F010         	movff	___fldiv@b+1,?___fldiv+1
  3946  007D6C  C011  F011         	movff	___fldiv@b+2,?___fldiv+2
  3947  007D70  C012  F012         	movff	___fldiv@b+3,?___fldiv+3
  3948  007D74  EFFF  F03F         	goto	l1036
  3949  007D78                     l2146:
  3950  007D78  5026               	movf	___fldiv@bexp^0,w,c
  3951  007D7A  A4D8               	btfss	status,2,c
  3952  007D7C  EFC2  F03E         	goto	u1011
  3953  007D80  EFC4  F03E         	goto	u1010
  3954  007D84                     u1011:
  3955  007D84  EFCE  F03E         	goto	l2154
  3956  007D88                     u1010:
  3957  007D88  0E00               	movlw	0
  3958  007D8A  6E0F               	movwf	?___fldiv^0,c
  3959  007D8C  0E00               	movlw	0
  3960  007D8E  6E10               	movwf	(?___fldiv+1)^0,c
  3961  007D90  0E00               	movlw	0
  3962  007D92  6E11               	movwf	(?___fldiv+2)^0,c
  3963  007D94  0E00               	movlw	0
  3964  007D96  6E12               	movwf	(?___fldiv+3)^0,c
  3965  007D98  EFFF  F03F         	goto	l1036
  3966  007D9C                     l2154:
  3967  007D9C  5027               	movf	___fldiv@aexp^0,w,c
  3968  007D9E  C026  F017         	movff	___fldiv@bexp,??___fldiv
  3969  007DA2  6A18               	clrf	(??___fldiv+1)^0,c
  3970  007DA4  5E17               	subwf	??___fldiv^0,f,c
  3971  007DA6  0E00               	movlw	0
  3972  007DA8  5A18               	subwfb	(??___fldiv+1)^0,f,c
  3973  007DAA  0E7F               	movlw	127
  3974  007DAC  2417               	addwf	??___fldiv^0,w,c
  3975  007DAE  6E20               	movwf	___fldiv@new_exp^0,c
  3976  007DB0  0E00               	movlw	0
  3977  007DB2  2018               	addwfc	(??___fldiv+1)^0,w,c
  3978  007DB4  6E21               	movwf	(___fldiv@new_exp+1)^0,c
  3979  007DB6  C00F  F01B         	movff	___fldiv@b,___fldiv@rem
  3980  007DBA  C010  F01C         	movff	___fldiv@b+1,___fldiv@rem+1
  3981  007DBE  C011  F01D         	movff	___fldiv@b+2,___fldiv@rem+2
  3982  007DC2  C012  F01E         	movff	___fldiv@b+3,___fldiv@rem+3
  3983  007DC6  0E00               	movlw	0
  3984  007DC8  6E0F               	movwf	___fldiv@b^0,c
  3985  007DCA  0E00               	movlw	0
  3986  007DCC  6E10               	movwf	(___fldiv@b+1)^0,c
  3987  007DCE  0E00               	movlw	0
  3988  007DD0  6E11               	movwf	(___fldiv@b+2)^0,c
  3989  007DD2  0E00               	movlw	0
  3990  007DD4  6E12               	movwf	(___fldiv@b+3)^0,c
  3991  007DD6  0E00               	movlw	0
  3992  007DD8  6E22               	movwf	___fldiv@grs^0,c
  3993  007DDA  0E00               	movlw	0
  3994  007DDC  6E23               	movwf	(___fldiv@grs+1)^0,c
  3995  007DDE  0E00               	movlw	0
  3996  007DE0  6E24               	movwf	(___fldiv@grs+2)^0,c
  3997  007DE2  0E00               	movlw	0
  3998  007DE4  6E25               	movwf	(___fldiv@grs+3)^0,c
  3999  007DE6  0E00               	movlw	0
  4000  007DE8  6E27               	movwf	___fldiv@aexp^0,c
  4001  007DEA  EF2F  F03F         	goto	l1038
  4002  007DEE                     l2164:
  4003  007DEE  5027               	movf	___fldiv@aexp^0,w,c
  4004  007DF0  B4D8               	btfsc	status,2,c
  4005  007DF2  EFFD  F03E         	goto	u1021
  4006  007DF6  EFFF  F03E         	goto	u1020
  4007  007DFA                     u1021:
  4008  007DFA  EF16  F03F         	goto	l2172
  4009  007DFE                     u1020:
  4010  007DFE  90D8               	bcf	status,0,c
  4011  007E00  361B               	rlcf	___fldiv@rem^0,f,c
  4012  007E02  361C               	rlcf	(___fldiv@rem+1)^0,f,c
  4013  007E04  361D               	rlcf	(___fldiv@rem+2)^0,f,c
  4014  007E06  361E               	rlcf	(___fldiv@rem+3)^0,f,c
  4015  007E08  90D8               	bcf	status,0,c
  4016  007E0A  360F               	rlcf	___fldiv@b^0,f,c
  4017  007E0C  3610               	rlcf	(___fldiv@b+1)^0,f,c
  4018  007E0E  3611               	rlcf	(___fldiv@b+2)^0,f,c
  4019  007E10  3612               	rlcf	(___fldiv@b+3)^0,f,c
  4020  007E12  AE25               	btfss	(___fldiv@grs+3)^0,7,c
  4021  007E14  EF0E  F03F         	goto	u1031
  4022  007E18  EF10  F03F         	goto	u1030
  4023  007E1C                     u1031:
  4024  007E1C  EF11  F03F         	goto	l1041
  4025  007E20                     u1030:
  4026  007E20  800F               	bsf	___fldiv@b^0,0,c
  4027  007E22                     l1041:
  4028  007E22  90D8               	bcf	status,0,c
  4029  007E24  3622               	rlcf	___fldiv@grs^0,f,c
  4030  007E26  3623               	rlcf	(___fldiv@grs+1)^0,f,c
  4031  007E28  3624               	rlcf	(___fldiv@grs+2)^0,f,c
  4032  007E2A  3625               	rlcf	(___fldiv@grs+3)^0,f,c
  4033  007E2C                     l2172:
  4034  007E2C  5013               	movf	___fldiv@a^0,w,c
  4035  007E2E  5C1B               	subwf	___fldiv@rem^0,w,c
  4036  007E30  5014               	movf	(___fldiv@a+1)^0,w,c
  4037  007E32  581C               	subwfb	(___fldiv@rem+1)^0,w,c
  4038  007E34  5015               	movf	(___fldiv@a+2)^0,w,c
  4039  007E36  581D               	subwfb	(___fldiv@rem+2)^0,w,c
  4040  007E38  5016               	movf	(___fldiv@a+3)^0,w,c
  4041  007E3A  581E               	subwfb	(___fldiv@rem+3)^0,w,c
  4042  007E3C  A0D8               	btfss	status,0,c
  4043  007E3E  EF23  F03F         	goto	u1041
  4044  007E42  EF25  F03F         	goto	u1040
  4045  007E46                     u1041:
  4046  007E46  EF2E  F03F         	goto	l2178
  4047  007E4A                     u1040:
  4048  007E4A  8C25               	bsf	(___fldiv@grs+3)^0,6,c
  4049  007E4C  5013               	movf	___fldiv@a^0,w,c
  4050  007E4E  5E1B               	subwf	___fldiv@rem^0,f,c
  4051  007E50  5014               	movf	(___fldiv@a+1)^0,w,c
  4052  007E52  5A1C               	subwfb	(___fldiv@rem+1)^0,f,c
  4053  007E54  5015               	movf	(___fldiv@a+2)^0,w,c
  4054  007E56  5A1D               	subwfb	(___fldiv@rem+2)^0,f,c
  4055  007E58  5016               	movf	(___fldiv@a+3)^0,w,c
  4056  007E5A  5A1E               	subwfb	(___fldiv@rem+3)^0,f,c
  4057  007E5C                     l2178:
  4058  007E5C  2A27               	incf	___fldiv@aexp^0,f,c
  4059  007E5E                     l1038:
  4060  007E5E  0E19               	movlw	25
  4061  007E60  6427               	cpfsgt	___fldiv@aexp^0,c
  4062  007E62  EF35  F03F         	goto	u1051
  4063  007E66  EF37  F03F         	goto	u1050
  4064  007E6A                     u1051:
  4065  007E6A  EFF7  F03E         	goto	l2164
  4066  007E6E                     u1050:
  4067  007E6E  501B               	movf	___fldiv@rem^0,w,c
  4068  007E70  101C               	iorwf	(___fldiv@rem+1)^0,w,c
  4069  007E72  101D               	iorwf	(___fldiv@rem+2)^0,w,c
  4070  007E74  101E               	iorwf	(___fldiv@rem+3)^0,w,c
  4071  007E76  B4D8               	btfsc	status,2,c
  4072  007E78  EF40  F03F         	goto	u1061
  4073  007E7C  EF42  F03F         	goto	u1060
  4074  007E80                     u1061:
  4075  007E80  EF5A  F03F         	goto	l2190
  4076  007E84                     u1060:
  4077  007E84  8022               	bsf	___fldiv@grs^0,0,c
  4078  007E86  EF5A  F03F         	goto	l2190
  4079  007E8A                     l2184:
  4080  007E8A  90D8               	bcf	status,0,c
  4081  007E8C  360F               	rlcf	___fldiv@b^0,f,c
  4082  007E8E  3610               	rlcf	(___fldiv@b+1)^0,f,c
  4083  007E90  3611               	rlcf	(___fldiv@b+2)^0,f,c
  4084  007E92  3612               	rlcf	(___fldiv@b+3)^0,f,c
  4085  007E94  AE25               	btfss	(___fldiv@grs+3)^0,7,c
  4086  007E96  EF4F  F03F         	goto	u1071
  4087  007E9A  EF51  F03F         	goto	u1070
  4088  007E9E                     u1071:
  4089  007E9E  EF52  F03F         	goto	l1047
  4090  007EA2                     u1070:
  4091  007EA2  800F               	bsf	___fldiv@b^0,0,c
  4092  007EA4                     l1047:
  4093  007EA4  90D8               	bcf	status,0,c
  4094  007EA6  3622               	rlcf	___fldiv@grs^0,f,c
  4095  007EA8  3623               	rlcf	(___fldiv@grs+1)^0,f,c
  4096  007EAA  3624               	rlcf	(___fldiv@grs+2)^0,f,c
  4097  007EAC  3625               	rlcf	(___fldiv@grs+3)^0,f,c
  4098  007EAE  0620               	decf	___fldiv@new_exp^0,f,c
  4099  007EB0  A0D8               	btfss	status,0,c
  4100  007EB2  0621               	decf	(___fldiv@new_exp+1)^0,f,c
  4101  007EB4                     l2190:
  4102  007EB4  AE11               	btfss	(___fldiv@b+2)^0,7,c
  4103  007EB6  EF5F  F03F         	goto	u1081
  4104  007EBA  EF61  F03F         	goto	u1080
  4105  007EBE                     u1081:
  4106  007EBE  EF45  F03F         	goto	l2184
  4107  007EC2                     u1080:
  4108  007EC2  0E00               	movlw	0
  4109  007EC4  6E27               	movwf	___fldiv@aexp^0,c
  4110  007EC6  AE25               	btfss	(___fldiv@grs+3)^0,7,c
  4111  007EC8  EF68  F03F         	goto	u1091
  4112  007ECC  EF6A  F03F         	goto	u1090
  4113  007ED0                     u1091:
  4114  007ED0  EF8E  F03F         	goto	l1049
  4115  007ED4                     u1090:
  4116  007ED4  0EFF               	movlw	255
  4117  007ED6  1422               	andwf	___fldiv@grs^0,w,c
  4118  007ED8  6E17               	movwf	??___fldiv^0,c
  4119  007EDA  0EFF               	movlw	255
  4120  007EDC  1423               	andwf	(___fldiv@grs+1)^0,w,c
  4121  007EDE  6E18               	movwf	(??___fldiv+1)^0,c
  4122  007EE0  0EFF               	movlw	255
  4123  007EE2  1424               	andwf	(___fldiv@grs+2)^0,w,c
  4124  007EE4  6E19               	movwf	(??___fldiv+2)^0,c
  4125  007EE6  0E7F               	movlw	127
  4126  007EE8  1425               	andwf	(___fldiv@grs+3)^0,w,c
  4127  007EEA  6E1A               	movwf	(??___fldiv+3)^0,c
  4128  007EEC  5017               	movf	??___fldiv^0,w,c
  4129  007EEE  1018               	iorwf	(??___fldiv+1)^0,w,c
  4130  007EF0  1019               	iorwf	(??___fldiv+2)^0,w,c
  4131  007EF2  101A               	iorwf	(??___fldiv+3)^0,w,c
  4132  007EF4  B4D8               	btfsc	status,2,c
  4133  007EF6  EF7F  F03F         	goto	u1101
  4134  007EFA  EF81  F03F         	goto	u1100
  4135  007EFE                     u1101:
  4136  007EFE  EF85  F03F         	goto	l1050
  4137  007F02                     u1100:
  4138  007F02                     l2198:
  4139  007F02  0E01               	movlw	1
  4140  007F04  6E27               	movwf	___fldiv@aexp^0,c
  4141  007F06  EF8E  F03F         	goto	l1049
  4142  007F0A                     l1050:
  4143  007F0A  A00F               	btfss	___fldiv@b^0,0,c
  4144  007F0C  EF8A  F03F         	goto	u1111
  4145  007F10  EF8C  F03F         	goto	u1110
  4146  007F14                     u1111:
  4147  007F14  EF8E  F03F         	goto	l1049
  4148  007F18                     u1110:
  4149  007F18  EF81  F03F         	goto	l2198
  4150  007F1C                     l1049:
  4151  007F1C  5027               	movf	___fldiv@aexp^0,w,c
  4152  007F1E  B4D8               	btfsc	status,2,c
  4153  007F20  EF94  F03F         	goto	u1121
  4154  007F24  EF96  F03F         	goto	u1120
  4155  007F28                     u1121:
  4156  007F28  EFBA  F03F         	goto	l2210
  4157  007F2C                     u1120:
  4158  007F2C  0E01               	movlw	1
  4159  007F2E  260F               	addwf	___fldiv@b^0,f,c
  4160  007F30  0E00               	movlw	0
  4161  007F32  2210               	addwfc	(___fldiv@b+1)^0,f,c
  4162  007F34  2211               	addwfc	(___fldiv@b+2)^0,f,c
  4163  007F36  2212               	addwfc	(___fldiv@b+3)^0,f,c
  4164  007F38  A012               	btfss	(___fldiv@b+3)^0,0,c
  4165  007F3A  EFA1  F03F         	goto	u1131
  4166  007F3E  EFA3  F03F         	goto	u1130
  4167  007F42                     u1131:
  4168  007F42  EFBA  F03F         	goto	l2210
  4169  007F46                     u1130:
  4170  007F46  C00F  F017         	movff	___fldiv@b,??___fldiv
  4171  007F4A  C010  F018         	movff	___fldiv@b+1,??___fldiv+1
  4172  007F4E  C011  F019         	movff	___fldiv@b+2,??___fldiv+2
  4173  007F52  C012  F01A         	movff	___fldiv@b+3,??___fldiv+3
  4174  007F56  341A               	rlcf	(??___fldiv+3)^0,w,c
  4175  007F58  321A               	rrcf	(??___fldiv+3)^0,f,c
  4176  007F5A  3219               	rrcf	(??___fldiv+2)^0,f,c
  4177  007F5C  3218               	rrcf	(??___fldiv+1)^0,f,c
  4178  007F5E  3217               	rrcf	??___fldiv^0,f,c
  4179  007F60  C017  F00F         	movff	??___fldiv,___fldiv@b
  4180  007F64  C018  F010         	movff	??___fldiv+1,___fldiv@b+1
  4181  007F68  C019  F011         	movff	??___fldiv+2,___fldiv@b+2
  4182  007F6C  C01A  F012         	movff	??___fldiv+3,___fldiv@b+3
  4183  007F70  4A20               	infsnz	___fldiv@new_exp^0,f,c
  4184  007F72  2A21               	incf	(___fldiv@new_exp+1)^0,f,c
  4185  007F74                     l2210:
  4186  007F74  BE21               	btfsc	(___fldiv@new_exp+1)^0,7,c
  4187  007F76  EFC5  F03F         	goto	u1141
  4188  007F7A  5021               	movf	(___fldiv@new_exp+1)^0,w,c
  4189  007F7C  E108               	bnz	u1140
  4190  007F7E  2820               	incf	___fldiv@new_exp^0,w,c
  4191  007F80  A0D8               	btfss	status,0,c
  4192  007F82  EFC5  F03F         	goto	u1141
  4193  007F86  EFC7  F03F         	goto	u1140
  4194  007F8A                     u1141:
  4195  007F8A  EFD2  F03F         	goto	l2214
  4196  007F8E                     u1140:
  4197  007F8E  0E00               	movlw	0
  4198  007F90  6E21               	movwf	(___fldiv@new_exp+1)^0,c
  4199  007F92  6820               	setf	___fldiv@new_exp^0,c
  4200  007F94  0E00               	movlw	0
  4201  007F96  6E0F               	movwf	___fldiv@b^0,c
  4202  007F98  0E00               	movlw	0
  4203  007F9A  6E10               	movwf	(___fldiv@b+1)^0,c
  4204  007F9C  0E00               	movlw	0
  4205  007F9E  6E11               	movwf	(___fldiv@b+2)^0,c
  4206  007FA0  0E00               	movlw	0
  4207  007FA2  6E12               	movwf	(___fldiv@b+3)^0,c
  4208  007FA4                     l2214:
  4209  007FA4  BE21               	btfsc	(___fldiv@new_exp+1)^0,7,c
  4210  007FA6  EFDF  F03F         	goto	u1150
  4211  007FAA  5021               	movf	(___fldiv@new_exp+1)^0,w,c
  4212  007FAC  E106               	bnz	u1151
  4213  007FAE  0420               	decf	___fldiv@new_exp^0,w,c
  4214  007FB0  B0D8               	btfsc	status,0,c
  4215  007FB2  EFDD  F03F         	goto	u1151
  4216  007FB6  EFDF  F03F         	goto	u1150
  4217  007FBA                     u1151:
  4218  007FBA  EFED  F03F         	goto	l2218
  4219  007FBE                     u1150:
  4220  007FBE  0E00               	movlw	0
  4221  007FC0  6E21               	movwf	(___fldiv@new_exp+1)^0,c
  4222  007FC2  0E00               	movlw	0
  4223  007FC4  6E20               	movwf	___fldiv@new_exp^0,c
  4224  007FC6  0E00               	movlw	0
  4225  007FC8  6E0F               	movwf	___fldiv@b^0,c
  4226  007FCA  0E00               	movlw	0
  4227  007FCC  6E10               	movwf	(___fldiv@b+1)^0,c
  4228  007FCE  0E00               	movlw	0
  4229  007FD0  6E11               	movwf	(___fldiv@b+2)^0,c
  4230  007FD2  0E00               	movlw	0
  4231  007FD4  6E12               	movwf	(___fldiv@b+3)^0,c
  4232  007FD6  0E00               	movlw	0
  4233  007FD8  6E1F               	movwf	___fldiv@sign^0,c
  4234  007FDA                     l2218:
  4235  007FDA  C020  F026         	movff	___fldiv@new_exp,___fldiv@bexp
  4236  007FDE  A026               	btfss	___fldiv@bexp^0,0,c
  4237  007FE0  EFF4  F03F         	goto	u1161
  4238  007FE4  EFF6  F03F         	goto	u1160
  4239  007FE8                     u1161:
  4240  007FE8  EFF9  F03F         	goto	l2224
  4241  007FEC                     u1160:
  4242  007FEC  8E11               	bsf	(___fldiv@b+2)^0,7,c
  4243  007FEE  EFFA  F03F         	goto	l2226
  4244  007FF2                     l2224:
  4245  007FF2  9E11               	bcf	(___fldiv@b+2)^0,7,c
  4246  007FF4                     l2226:
  4247  007FF4  90D8               	bcf	status,0,c
  4248  007FF6  3026               	rrcf	___fldiv@bexp^0,w,c
  4249  007FF8  6E12               	movwf	(___fldiv@b+3)^0,c
  4250  007FFA  EFB0  F03E         	goto	l2140
  4251  007FFE                     l1036:
  4252  007FFE  0012               	return		;funcret
  4253  008000                     __end_of___fldiv:
  4254                           	opt callstack 0
  4255                           
  4256 ;; *************** function _Motor_Calcular_PasosY *****************
  4257 ;; Defined at:
  4258 ;;		line 45 in file "Motor.c"
  4259 ;; Parameters:    Size  Location     Type
  4260 ;;  pasos_conver    2    0[COMRAM] int 
  4261 ;; Auto vars:     Size  Location     Type
  4262 ;;		None
  4263 ;; Return value:  Size  Location     Type
  4264 ;;                  2    0[COMRAM] int 
  4265 ;; Registers used:
  4266 ;;		wreg, status,2, status,0
  4267 ;; Tracked objects:
  4268 ;;		On entry : 0/0
  4269 ;;		On exit  : 0/0
  4270 ;;		Unchanged: 0/0
  4271 ;; Data sizes:     COMRAM   BANK0   BANK1   BANK2   BANK3   BANK4   BANK5   BANK6   BANK7
  4272 ;;      Params:         2       0       0       0       0       0       0       0       0
  4273 ;;      Locals:         0       0       0       0       0       0       0       0       0
  4274 ;;      Temps:          1       0       0       0       0       0       0       0       0
  4275 ;;      Totals:         3       0       0       0       0       0       0       0       0
  4276 ;;Total ram usage:        3 bytes
  4277 ;; Hardware stack levels used:    1
  4278 ;; This function calls:
  4279 ;;		Nothing
  4280 ;; This function is called by:
  4281 ;;		_Motor_Movimiento
  4282 ;; This function uses a non-reentrant model
  4283 ;;
  4284                           
  4285                           	psect	text27
  4286  006E38                     __ptext27:
  4287                           	opt callstack 0
  4288  006E38                     _Motor_Calcular_PasosY:
  4289                           	opt callstack 29
  4290  006E38                     
  4291                           ;Motor.c: 45: int Motor_Calcular_PasosY(int pasos_converY);Motor.c: 46: {;Motor.c: 47:  
      +                             if (pasos_converY < pasosY)
  4292  006E38  5044               	movf	_pasosY^0,w,c
  4293  006E3A  5C01               	subwf	Motor_Calcular_PasosY@pasos_converY^0,w,c
  4294  006E3C  5002               	movf	(Motor_Calcular_PasosY@pasos_converY+1)^0,w,c
  4295  006E3E  0A80               	xorlw	128
  4296  006E40  6E03               	movwf	??_Motor_Calcular_PasosY^0,c
  4297  006E42  5045               	movf	(_pasosY+1)^0,w,c
  4298  006E44  0A80               	xorlw	128
  4299  006E46  5803               	subwfb	??_Motor_Calcular_PasosY^0,w,c
  4300  006E48  B0D8               	btfsc	status,0,c
  4301  006E4A  EF29  F037         	goto	u1541
  4302  006E4E  EF2B  F037         	goto	u1540
  4303  006E52                     u1541:
  4304  006E52  EF34  F037         	goto	l376
  4305  006E56                     u1540:
  4306  006E56                     
  4307                           ;Motor.c: 48:     {;Motor.c: 49:         PORTDbits.RD3 = 0;
  4308  006E56  9683               	bcf	131,3,c	;volatile
  4309  006E58                     
  4310                           ;Motor.c: 50:         pulsY = pasosY - pasos_converY;
  4311  006E58  5001               	movf	Motor_Calcular_PasosY@pasos_converY^0,w,c
  4312  006E5A  5C44               	subwf	_pasosY^0,w,c
  4313  006E5C  6E40               	movwf	_pulsY^0,c
  4314  006E5E  5002               	movf	(Motor_Calcular_PasosY@pasos_converY+1)^0,w,c
  4315  006E60  5845               	subwfb	(_pasosY+1)^0,w,c
  4316  006E62  6E41               	movwf	(_pulsY+1)^0,c
  4317                           
  4318                           ;Motor.c: 51:     } else
  4319  006E64  EF3B  F037         	goto	l2490
  4320  006E68                     l376:
  4321                           
  4322                           ;Motor.c: 52:     {;Motor.c: 53:         PORTDbits.RD3 = 1;
  4323  006E68  8683               	bsf	131,3,c	;volatile
  4324  006E6A                     
  4325                           ;Motor.c: 54:         pulsY = pasos_converY-pasosY;
  4326  006E6A  5044               	movf	_pasosY^0,w,c
  4327  006E6C  5C01               	subwf	Motor_Calcular_PasosY@pasos_converY^0,w,c
  4328  006E6E  6E40               	movwf	_pulsY^0,c
  4329  006E70  5045               	movf	(_pasosY+1)^0,w,c
  4330  006E72  5802               	subwfb	(Motor_Calcular_PasosY@pasos_converY+1)^0,w,c
  4331  006E74  6E41               	movwf	(_pulsY+1)^0,c
  4332  006E76                     l2490:
  4333                           
  4334                           ;Motor.c: 56:     return (pulsY);
  4335  006E76  C040  F001         	movff	_pulsY,?_Motor_Calcular_PasosY
  4336  006E7A  C041  F002         	movff	_pulsY+1,?_Motor_Calcular_PasosY+1
  4337  006E7E  0012               	return		;funcret
  4338  006E80                     __end_of_Motor_Calcular_PasosY:
  4339                           	opt callstack 0
  4340                           
  4341 ;; *************** function _Motor_Calcular_PasosX *****************
  4342 ;; Defined at:
  4343 ;;		line 31 in file "Motor.c"
  4344 ;; Parameters:    Size  Location     Type
  4345 ;;  pasos_conver    2    0[COMRAM] int 
  4346 ;; Auto vars:     Size  Location     Type
  4347 ;;		None
  4348 ;; Return value:  Size  Location     Type
  4349 ;;                  2    0[COMRAM] int 
  4350 ;; Registers used:
  4351 ;;		wreg, status,2, status,0
  4352 ;; Tracked objects:
  4353 ;;		On entry : 0/0
  4354 ;;		On exit  : 0/0
  4355 ;;		Unchanged: 0/0
  4356 ;; Data sizes:     COMRAM   BANK0   BANK1   BANK2   BANK3   BANK4   BANK5   BANK6   BANK7
  4357 ;;      Params:         2       0       0       0       0       0       0       0       0
  4358 ;;      Locals:         0       0       0       0       0       0       0       0       0
  4359 ;;      Temps:          1       0       0       0       0       0       0       0       0
  4360 ;;      Totals:         3       0       0       0       0       0       0       0       0
  4361 ;;Total ram usage:        3 bytes
  4362 ;; Hardware stack levels used:    1
  4363 ;; This function calls:
  4364 ;;		Nothing
  4365 ;; This function is called by:
  4366 ;;		_Motor_Movimiento
  4367 ;; This function uses a non-reentrant model
  4368 ;;
  4369                           
  4370                           	psect	text28
  4371  006DF0                     __ptext28:
  4372                           	opt callstack 0
  4373  006DF0                     _Motor_Calcular_PasosX:
  4374                           	opt callstack 29
  4375  006DF0                     
  4376                           ;Motor.c: 31: int Motor_Calcular_PasosX(int pasos_converX);Motor.c: 32: {;Motor.c: 33:  
      +                             if (pasos_converX <= pasosX)
  4377  006DF0  5001               	movf	Motor_Calcular_PasosX@pasos_converX^0,w,c
  4378  006DF2  5C46               	subwf	_pasosX^0,w,c
  4379  006DF4  5047               	movf	(_pasosX+1)^0,w,c
  4380  006DF6  0A80               	xorlw	128
  4381  006DF8  6E03               	movwf	??_Motor_Calcular_PasosX^0,c
  4382  006DFA  5002               	movf	(Motor_Calcular_PasosX@pasos_converX+1)^0,w,c
  4383  006DFC  0A80               	xorlw	128
  4384  006DFE  5803               	subwfb	??_Motor_Calcular_PasosX^0,w,c
  4385  006E00  A0D8               	btfss	status,0,c
  4386  006E02  EF05  F037         	goto	u1531
  4387  006E06  EF07  F037         	goto	u1530
  4388  006E0A                     u1531:
  4389  006E0A  EF10  F037         	goto	l371
  4390  006E0E                     u1530:
  4391  006E0E                     
  4392                           ;Motor.c: 34:     {;Motor.c: 35:         PORTDbits.RD1 = 0;
  4393  006E0E  9283               	bcf	131,1,c	;volatile
  4394  006E10                     
  4395                           ;Motor.c: 36:         pulsX = pasosX - pasos_converX;
  4396  006E10  5001               	movf	Motor_Calcular_PasosX@pasos_converX^0,w,c
  4397  006E12  5C46               	subwf	_pasosX^0,w,c
  4398  006E14  6E42               	movwf	_pulsX^0,c
  4399  006E16  5002               	movf	(Motor_Calcular_PasosX@pasos_converX+1)^0,w,c
  4400  006E18  5847               	subwfb	(_pasosX+1)^0,w,c
  4401  006E1A  6E43               	movwf	(_pulsX+1)^0,c
  4402                           
  4403                           ;Motor.c: 37:     }
  4404  006E1C  EF17  F037         	goto	l2478
  4405  006E20                     l371:
  4406                           
  4407                           ;Motor.c: 39:     {;Motor.c: 40:         PORTDbits.RD1 = 1;
  4408  006E20  8283               	bsf	131,1,c	;volatile
  4409  006E22                     
  4410                           ;Motor.c: 41:         pulsX = pasos_converX-pasosX;
  4411  006E22  5046               	movf	_pasosX^0,w,c
  4412  006E24  5C01               	subwf	Motor_Calcular_PasosX@pasos_converX^0,w,c
  4413  006E26  6E42               	movwf	_pulsX^0,c
  4414  006E28  5047               	movf	(_pasosX+1)^0,w,c
  4415  006E2A  5802               	subwfb	(Motor_Calcular_PasosX@pasos_converX+1)^0,w,c
  4416  006E2C  6E43               	movwf	(_pulsX+1)^0,c
  4417  006E2E                     l2478:
  4418                           
  4419                           ;Motor.c: 43:     return (pulsX);
  4420  006E2E  C042  F001         	movff	_pulsX,?_Motor_Calcular_PasosX
  4421  006E32  C043  F002         	movff	_pulsX+1,?_Motor_Calcular_PasosX+1
  4422  006E36  0012               	return		;funcret
  4423  006E38                     __end_of_Motor_Calcular_PasosX:
  4424                           	opt callstack 0
  4425                           
  4426 ;; *************** function _Actuator_Touch *****************
  4427 ;; Defined at:
  4428 ;;		line 19 in file "Actuator.c"
  4429 ;; Parameters:    Size  Location     Type
  4430 ;;		None
  4431 ;; Auto vars:     Size  Location     Type
  4432 ;;		None
  4433 ;; Return value:  Size  Location     Type
  4434 ;;                  1    wreg      void 
  4435 ;; Registers used:
  4436 ;;		wreg
  4437 ;; Tracked objects:
  4438 ;;		On entry : 0/0
  4439 ;;		On exit  : 0/0
  4440 ;;		Unchanged: 0/0
  4441 ;; Data sizes:     COMRAM   BANK0   BANK1   BANK2   BANK3   BANK4   BANK5   BANK6   BANK7
  4442 ;;      Params:         0       0       0       0       0       0       0       0       0
  4443 ;;      Locals:         0       0       0       0       0       0       0       0       0
  4444 ;;      Temps:          2       0       0       0       0       0       0       0       0
  4445 ;;      Totals:         2       0       0       0       0       0       0       0       0
  4446 ;;Total ram usage:        2 bytes
  4447 ;; Hardware stack levels used:    1
  4448 ;; This function calls:
  4449 ;;		Nothing
  4450 ;; This function is called by:
  4451 ;;		_main
  4452 ;; This function uses a non-reentrant model
  4453 ;;
  4454                           
  4455                           	psect	text29
  4456  006C86                     __ptext29:
  4457                           	opt callstack 0
  4458  006C86                     _Actuator_Touch:
  4459                           	opt callstack 30
  4460  006C86  808B               	bsf	139,0,c	;volatile
  4461  006C88                     
  4462                           ;Actuator.c: 21:     _delay((unsigned long)((100)*(8000000/4000.0)));
  4463  006C88  0E02               	movlw	2
  4464  006C8A  6E02               	movwf	(??_Actuator_Touch+1)^0,c
  4465  006C8C  0E04               	movlw	4
  4466  006C8E  6E01               	movwf	??_Actuator_Touch^0,c
  4467  006C90  0EBA               	movlw	186
  4468  006C92                     u1747:
  4469  006C92  2EE8               	decfsz	wreg,f,c
  4470  006C94  D7FE               	bra	u1747
  4471  006C96  2E01               	decfsz	??_Actuator_Touch^0,f,c
  4472  006C98  D7FC               	bra	u1747
  4473  006C9A  2E02               	decfsz	(??_Actuator_Touch+1)^0,f,c
  4474  006C9C  D7FA               	bra	u1747
  4475  006C9E  D000               	nop2	
  4476  006CA0  908B               	bcf	139,0,c	;volatile
  4477  006CA2  0012               	return		;funcret
  4478  006CA4                     __end_of_Actuator_Touch:
  4479                           	opt callstack 0
  4480                           
  4481 ;; *************** function _Actuator_Retrain *****************
  4482 ;; Defined at:
  4483 ;;		line 27 in file "Actuator.c"
  4484 ;; Parameters:    Size  Location     Type
  4485 ;;		None
  4486 ;; Auto vars:     Size  Location     Type
  4487 ;;		None
  4488 ;; Return value:  Size  Location     Type
  4489 ;;                  1    wreg      void 
  4490 ;; Registers used:
  4491 ;;		None
  4492 ;; Tracked objects:
  4493 ;;		On entry : 0/0
  4494 ;;		On exit  : 0/0
  4495 ;;		Unchanged: 0/0
  4496 ;; Data sizes:     COMRAM   BANK0   BANK1   BANK2   BANK3   BANK4   BANK5   BANK6   BANK7
  4497 ;;      Params:         0       0       0       0       0       0       0       0       0
  4498 ;;      Locals:         0       0       0       0       0       0       0       0       0
  4499 ;;      Temps:          0       0       0       0       0       0       0       0       0
  4500 ;;      Totals:         0       0       0       0       0       0       0       0       0
  4501 ;;Total ram usage:        0 bytes
  4502 ;; Hardware stack levels used:    1
  4503 ;; This function calls:
  4504 ;;		Nothing
  4505 ;; This function is called by:
  4506 ;;		_main
  4507 ;; This function uses a non-reentrant model
  4508 ;;
  4509                           
  4510                           	psect	text30
  4511  006C46                     __ptext30:
  4512                           	opt callstack 0
  4513  006C46                     _Actuator_Retrain:
  4514                           	opt callstack 30
  4515  006C46  908B               	bcf	139,0,c	;volatile
  4516  006C48  0012               	return		;funcret
  4517  006C4A                     __end_of_Actuator_Retrain:
  4518                           	opt callstack 0
  4519                           
  4520 ;; *************** function _Actuator_Hold *****************
  4521 ;; Defined at:
  4522 ;;		line 24 in file "Actuator.c"
  4523 ;; Parameters:    Size  Location     Type
  4524 ;;		None
  4525 ;; Auto vars:     Size  Location     Type
  4526 ;;		None
  4527 ;; Return value:  Size  Location     Type
  4528 ;;                  1    wreg      void 
  4529 ;; Registers used:
  4530 ;;		None
  4531 ;; Tracked objects:
  4532 ;;		On entry : 0/0
  4533 ;;		On exit  : 0/0
  4534 ;;		Unchanged: 0/0
  4535 ;; Data sizes:     COMRAM   BANK0   BANK1   BANK2   BANK3   BANK4   BANK5   BANK6   BANK7
  4536 ;;      Params:         0       0       0       0       0       0       0       0       0
  4537 ;;      Locals:         0       0       0       0       0       0       0       0       0
  4538 ;;      Temps:          0       0       0       0       0       0       0       0       0
  4539 ;;      Totals:         0       0       0       0       0       0       0       0       0
  4540 ;;Total ram usage:        0 bytes
  4541 ;; Hardware stack levels used:    1
  4542 ;; This function calls:
  4543 ;;		Nothing
  4544 ;; This function is called by:
  4545 ;;		_main
  4546 ;; This function uses a non-reentrant model
  4547 ;;
  4548                           
  4549                           	psect	text31
  4550  006C42                     __ptext31:
  4551                           	opt callstack 0
  4552  006C42                     _Actuator_Hold:
  4553                           	opt callstack 30
  4554  006C42  808B               	bsf	139,0,c	;volatile
  4555  006C44  0012               	return		;funcret
  4556  006C46                     __end_of_Actuator_Hold:
  4557                           	opt callstack 0
  4558  0000                     
  4559                           	psect	rparam
  4560  0000                     tosu	equ	0xFFF
  4561                           tosh	equ	0xFFE
  4562                           tosl	equ	0xFFD
  4563                           stkptr	equ	0xFFC
  4564                           pclatu	equ	0xFFB
  4565                           pclath	equ	0xFFA
  4566                           pcl	equ	0xFF9
  4567                           tblptru	equ	0xFF8
  4568                           tblptrh	equ	0xFF7
  4569                           tblptrl	equ	0xFF6
  4570                           tablat	equ	0xFF5
  4571                           prodh	equ	0xFF4
  4572                           prodl	equ	0xFF3
  4573                           indf0	equ	0xFEF
  4574                           postinc0	equ	0xFEE
  4575                           postdec0	equ	0xFED
  4576                           preinc0	equ	0xFEC
  4577                           plusw0	equ	0xFEB
  4578                           fsr0h	equ	0xFEA
  4579                           fsr0l	equ	0xFE9
  4580                           wreg	equ	0xFE8
  4581                           indf1	equ	0xFE7
  4582                           postinc1	equ	0xFE6
  4583                           postdec1	equ	0xFE5
  4584                           preinc1	equ	0xFE4
  4585                           plusw1	equ	0xFE3
  4586                           fsr1h	equ	0xFE2
  4587                           fsr1l	equ	0xFE1
  4588                           bsr	equ	0xFE0
  4589                           indf2	equ	0xFDF
  4590                           postinc2	equ	0xFDE
  4591                           postdec2	equ	0xFDD
  4592                           preinc2	equ	0xFDC
  4593                           plusw2	equ	0xFDB
  4594                           fsr2h	equ	0xFDA
  4595                           fsr2l	equ	0xFD9
  4596                           status	equ	0xFD8


Data Sizes:
    Strings     0
    Constant    0
    Data        0
    BSS         38
    Persistent  0
    Stack       0

Auto Spaces:
    Space          Size  Autos    Used
    COMRAM           95     63      90
    BANK0           160      0      11
    BANK1           256      0       0
    BANK2           256      0       0
    BANK3           256      0       0
    BANK4           256      0       0
    BANK5           256      0       0
    BANK6           256      0       0
    BANK7           256      0       0

Pointer List with Targets:

    atoi@s	PTR const unsigned char  size(2) Largest target is 3
		 -> Serial_Lectura_Memoria@coordenadaZ(COMRAM[3]), Serial_Lectura_Memoria@coordenadaY(COMRAM[3]), Serial_Lectura_Memoria@coordenadaX(COMRAM[3]), Serial_DecodificacionZ@coordenadaZ(COMRAM[3]), 
		 -> Serial_DecodificacionY@coordenadaY(COMRAM[3]), Serial_DecodificacionX@coordenadaX(COMRAM[3]), 

    Serial_Escritura_Memoria@string_setpoint	PTR unsigned char  size(2) Largest target is 11
		 -> coordenada_setpoint(BANK0[11]), 

    Serial_Lectura_Memoria@pointerCZ	PTR int  size(2) Largest target is 2
		 -> CZ(COMRAM[2]), 

    Serial_Lectura_Memoria@pointerCY	PTR int  size(2) Largest target is 2
		 -> CY(COMRAM[2]), 

    Serial_Lectura_Memoria@pointerCX	PTR int  size(2) Largest target is 2
		 -> CX(COMRAM[2]), 

    Serial_DecodificacionY@pointerCY	PTR int  size(2) Largest target is 2
		 -> CY(COMRAM[2]), 

    Serial_DecodificacionY@string_coordenada	PTR unsigned char  size(2) Largest target is 7
		 -> coordenada_array(COMRAM[7]), 

    Serial_DecodificacionX@pointerCX	PTR int  size(2) Largest target is 2
		 -> CX(COMRAM[2]), 

    Serial_DecodificacionX@string_coordenada	PTR unsigned char  size(2) Largest target is 7
		 -> coordenada_array(COMRAM[7]), 

    USART_RxS@pointer	PTR unsigned char  size(2) Largest target is 11
		 -> coordenada_setpoint(BANK0[11]), coordenada_array(COMRAM[7]), 


Critical Paths under _main in COMRAM

    _main->_Motor_Movimiento
    _USART_Init->___aldiv
    _Serial_Lectura_Memoria->_atoi
    _Serial_Escritura_Memoria->_EEPROM_Tx
    _Serial_DecodificacionY->_atoi
    _Serial_DecodificacionX->_atoi
    _atoi->_isspace
    _Motor_Movimiento->_Motor_Conversion
    _PWM_GeneratePulsos->_PWM_OneshotX
    _PWM_GeneratePulsos->_PWM_OneshotY
    _Motor_Conversion->___fltol
    ___fltol->___fldiv
    ___fldiv->___xxtofl

Critical Paths under _main in BANK0

    None.

Critical Paths under _main in BANK1

    None.

Critical Paths under _main in BANK2

    None.

Critical Paths under _main in BANK3

    None.

Critical Paths under _main in BANK4

    None.

Critical Paths under _main in BANK5

    None.

Critical Paths under _main in BANK6

    None.

Critical Paths under _main in BANK7

    None.

Call Graph Tables:

 ---------------------------------------------------------------------------------
 (Depth) Function   	        Calls       Base Space   Used Autos Params    Refs
 ---------------------------------------------------------------------------------
 (0) _main                                                 3     3      0   11966
                                             60 COMRAM     3     3      0
                      _Actuator_Hold
                   _Actuator_Retrain
                     _Actuator_Touch
                   _Motor_Movimiento
       _Seria_Decodificacion_Memoria
             _Serial_DecodificacionX
             _Serial_DecodificacionY
           _Serial_Escritura_Memoria
             _Serial_Lectura_Memoria
                         _USART_Init
                           _USART_Rx
                          _USART_RxS
 ---------------------------------------------------------------------------------
 (1) _USART_RxS                                            8     6      2     318
                                              0 COMRAM     8     6      2
 ---------------------------------------------------------------------------------
 (1) _USART_Rx                                             0     0      0       0
 ---------------------------------------------------------------------------------
 (1) _USART_Init                                           8     4      4     725
                                             14 COMRAM     8     4      4
                            ___aldiv
 ---------------------------------------------------------------------------------
 (2) ___aldiv                                             14     6      8     604
                                              0 COMRAM    14     6      8
 ---------------------------------------------------------------------------------
 (1) _Serial_Lectura_Memoria                              22    16      6    2336
                                             22 COMRAM    22    16      6
                          _EEPROM_Rx
                               _atoi
 ---------------------------------------------------------------------------------
 (2) _EEPROM_Rx                                            1     1      0      22
                                              0 COMRAM     1     1      0
 ---------------------------------------------------------------------------------
 (1) _Serial_Escritura_Memoria                            12    10      2     797
                                              2 COMRAM    12    10      2
                          _EEPROM_Tx
 ---------------------------------------------------------------------------------
 (2) _EEPROM_Tx                                            2     1      1     250
                                              0 COMRAM     2     1      1
 ---------------------------------------------------------------------------------
 (1) _Serial_DecodificacionY                              11     7      4    1969
                                             22 COMRAM    11     7      4
                           _USART_Tx
                               _atoi
 ---------------------------------------------------------------------------------
 (1) _Serial_DecodificacionX                               9     5      4    1969
                                             22 COMRAM     9     5      4
                           _USART_Tx
                               _atoi
 ---------------------------------------------------------------------------------
 (2) _atoi                                                15    13      2    1456
                                              7 COMRAM    15    13      2
                             ___wmul
                            _isdigit
                            _isspace
 ---------------------------------------------------------------------------------
 (3) _isspace                                              7     5      2     207
                                              0 COMRAM     7     5      2
 ---------------------------------------------------------------------------------
 (3) _isdigit                                              6     4      2     161
                                              0 COMRAM     6     4      2
 ---------------------------------------------------------------------------------
 (3) ___wmul                                               6     2      4     311
                                              0 COMRAM     6     2      4
 ---------------------------------------------------------------------------------
 (2) _USART_Tx                                             1     1      0      22
                                              0 COMRAM     1     1      0
 ---------------------------------------------------------------------------------
 (1) _Seria_Decodificacion_Memoria                         3     3      0      60
                                              0 COMRAM     3     3      0
 ---------------------------------------------------------------------------------
 (1) _Motor_Movimiento                                     5     1      4    3703
                                             55 COMRAM     5     1      4
              _Motor_Calcular_PasosX
              _Motor_Calcular_PasosY
                   _Motor_Conversion
                 _PWM_GeneratePulsos
 ---------------------------------------------------------------------------------
 (2) _PWM_GeneratePulsos                                  10     6      4     598
                                              2 COMRAM    10     6      4
                          _PWM_InitF
                          _PWM_InitS
                       _PWM_OneshotX
                       _PWM_OneshotY
 ---------------------------------------------------------------------------------
 (3) _PWM_OneshotY                                         2     0      2      99
                                              0 COMRAM     2     0      2
 ---------------------------------------------------------------------------------
 (3) _PWM_OneshotX                                         2     0      2      99
                                              0 COMRAM     2     0      2
 ---------------------------------------------------------------------------------
 (3) _PWM_InitS                                            0     0      0       0
 ---------------------------------------------------------------------------------
 (3) _PWM_InitF                                            0     0      0       0
 ---------------------------------------------------------------------------------
 (2) _Motor_Conversion                                     6     4      2    2299
                                             49 COMRAM     6     4      2
                            ___fldiv
                            ___fltol
                           ___xxtofl
 ---------------------------------------------------------------------------------
 (3) ___xxtofl                                            14    10      4     398
                                              0 COMRAM    14    10      4
 ---------------------------------------------------------------------------------
 (3) ___fltol                                             10     6      4     305
                                             39 COMRAM    10     6      4
                            ___fldiv (ARG)
                           ___xxtofl (ARG)
 ---------------------------------------------------------------------------------
 (3) ___fldiv                                             25    17      8    1399
                                             14 COMRAM    25    17      8
                           ___xxtofl (ARG)
 ---------------------------------------------------------------------------------
 (2) _Motor_Calcular_PasosY                                3     1      2     142
                                              0 COMRAM     3     1      2
 ---------------------------------------------------------------------------------
 (2) _Motor_Calcular_PasosX                                3     1      2     142
                                              0 COMRAM     3     1      2
 ---------------------------------------------------------------------------------
 (1) _Actuator_Touch                                       2     2      0       0
                                              0 COMRAM     2     2      0
 ---------------------------------------------------------------------------------
 (1) _Actuator_Retrain                                     0     0      0       0
 ---------------------------------------------------------------------------------
 (1) _Actuator_Hold                                        0     0      0       0
 ---------------------------------------------------------------------------------
 Estimated maximum stack depth 3
 ---------------------------------------------------------------------------------

 Call Graph Graphs:

 _main (ROOT)
   _Actuator_Hold
   _Actuator_Retrain
   _Actuator_Touch
   _Motor_Movimiento
     _Motor_Calcular_PasosX
     _Motor_Calcular_PasosY
     _Motor_Conversion
       ___fldiv
         ___xxtofl (ARG)
       ___fltol
         ___fldiv (ARG)
           ___xxtofl (ARG)
         ___xxtofl (ARG)
       ___xxtofl
     _PWM_GeneratePulsos
       _PWM_InitF
       _PWM_InitS
       _PWM_OneshotX
       _PWM_OneshotY
   _Seria_Decodificacion_Memoria
   _Serial_DecodificacionX
     _USART_Tx
     _atoi
       ___wmul
       _isdigit
       _isspace
   _Serial_DecodificacionY
     _USART_Tx
     _atoi
       ___wmul
       _isdigit
       _isspace
   _Serial_Escritura_Memoria
     _EEPROM_Tx
   _Serial_Lectura_Memoria
     _EEPROM_Rx
     _atoi
       ___wmul
       _isdigit
       _isspace
   _USART_Init
     ___aldiv
   _USART_Rx
   _USART_RxS

 Address spaces:
Name               Size   Autos  Total    Cost      Usage
BIGRAM             7FF      0       0      21        0.0%
EEDATA             100      0       0       0        0.0%
BITBANK7           100      0       0      18        0.0%
BANK7              100      0       0      19        0.0%
BITBANK6           100      0       0      16        0.0%
BANK6              100      0       0      17        0.0%
BITBANK5           100      0       0      14        0.0%
BANK5              100      0       0      15        0.0%
BITBANK4           100      0       0      12        0.0%
BANK4              100      0       0      13        0.0%
BITBANK3           100      0       0      10        0.0%
BANK3              100      0       0      11        0.0%
BITBANK2           100      0       0       8        0.0%
BANK2              100      0       0       9        0.0%
BITBANK1           100      0       0       6        0.0%
BANK1              100      0       0       7        0.0%
BITBANK0            A0      0       0       4        0.0%
BANK0               A0      0       B       5        6.9%
BITCOMRAM           5F      0       0       0        0.0%
COMRAM              5F     3F      5A       1       94.7%
BITSFR               0      0       0     200        0.0%
SFR                  0      0       0     200        0.0%
STACK                0      0       0       2        0.0%
NULL                 0      0       0       0        0.0%
ABS                  0      0      65      20        0.0%
DATA                 0      0      65       3        0.0%
CODE                 0      0       0       0        0.0%


Microchip Technology PIC18 Macro Assembler V2.10 build 88905656 
Symbol Table                                                                                   Sun Nov 24 17:53:11 2019

              PWM_GeneratePulsos@Oupcode 0008                    _Motor_Calcular_PasosX 6DF0  
                  _Motor_Calcular_PasosY 6E38                             ___fldiv@aexp 0027  
                           ___fldiv@bexp 0026                             ___fldiv@sign 001F  
                                     l41 7736                                       l51 6D30  
                                     l37 76E8                                       l54 6D0A  
                                     l62 6DB6                                       l48 7786  
                                     l58 6D86                                       l83 7152  
                                     l92 6C4A                                       l86 6C72  
                                     l95 6C5A                                       l89 6C84  
                                     _CX 0059                                       _CY 0057  
                                     _CZ 0055                              __CFG_BOR$ON 000000  
                  __size_of_PWM_OneshotX 0030                    __size_of_PWM_OneshotY 0030  
                    ___wmul@multiplicand 0003                              __CFG_BORV$3 000000  
                           __CFG_CP0$OFF 000000                             __CFG_CP1$OFF 000000  
                           __CFG_CP2$OFF 000000                             __CFG_CP3$OFF 000000  
             ??_Serial_Escritura_Memoria 0005                                      l114 6EE0  
                                    l118 6F26                                      l420 6C42  
                                    l413 6C86                                      l422 6C44  
                                    l318 7660                                      l327 732A  
                                    l336 723E                                      l425 6C46  
                                    l417 6CA2                                      l427 6C48  
                                    l371 6E20                                      l292 70DE  
                                    l373 6E36                                      l365 706A  
                                    l445 6C6E                                      l533 753C  
                                    l454 6D56                                      l287 6F8E  
                                    l376 6E68                                      l368 6FF8  
                                    l448 6CC4                                      l378 6E7E  
                                    l751 7430                             __CFG_CPB$OFF 000000  
          ?_Seria_Decodificacion_Memoria 0001                                      _PR2 000FCB  
                           __CFG_CPD$OFF 000000                                      u900 6D66  
                                    u901 6D62                                      u910 6D76  
                                    u911 6D72                                      u920 6D96  
                                    u921 6D92                                      u930 6DA6  
                                    u931 6DA2                                      u940 7C80  
                                    u941 7C7C                                      u950 7C92  
                                    u951 7C8E                                      u960 7CA2  
                                    u961 7C9E                                      u970 7CE6  
                                    u971 7CE2                                      u980 7CF8  
                                    u981 7CF4                                      u990 7D08  
                                    u991 7D04                              main@Oupcode 003F  
                                    wreg 000FE8                       __size_of_EEPROM_Rx 0014  
                     __size_of_EEPROM_Tx 0022                          ?_Actuator_Touch 0001  
              PWM_GeneratePulsos@pulsosX 0003                PWM_GeneratePulsos@pulsosY 0005  
                           __CFG_LVP$OFF 000000                             ___fltol@exp1 0031  
                           __CFG_WDT$OFF 000000                                     l1112 7C64  
                                   l1041 7E22                                     l1050 7F0A  
                                   l1123 7BFC                                     l1036 7FFE  
                                   l2100 7C80                                     l1116 7BA0  
                                   l1109 7B08                                     l1038 7E5E  
                                   l2110 7CB4                                     l2102 7C82  
                                   l1047 7EA4                                     l2120 7CE6  
                                   l2104 7C92                                     l2112 7CBC  
                                   l2040 6CF2                                     l1049 7F1C  
                                   l1153 7908                                     l2202 7F2C  
                                   l2210 7F74                                     l2130 7D1A  
                                   l2122 7CE8                                     l2114 7CCC  
                                   l2106 7CA2                                     l2050 6D08  
                                   l2042 6CF4                                     l2220 7FDE  
                                   l2212 7F8E                                     l2204 7F38  
                                   l2140 7D60                                     l2124 7CF8  
                                   l2132 7D22                                     l2116 7CD2  
                                   l2108 7CB2                                     l2300 7B96  
                                   l2060 6D2A                                     l2052 6D0C  
                                   l2044 6CF6                                     l2036 6CE8  
                                   l1156 7910                                     l2222 7FEC  
                                   l2214 7FA4                                     l2206 7F46  
                                   l2150 7D88                                     l2142 7D64  
                                   l2134 7D32                                     l2126 7D08  
                                   l2118 7CD8                                     l2310 7C0C  
                                   l2302 7BD2                                     l2062 6D2C  
                                   l2054 6D18                                     l2046 6D04  
                                   l2038 6CEA                                     l2070 6D76  
                                   l1159 6DEE                                     l1167 6ED0  
                                   l2224 7FF2                                     l2216 7FBE  
                                   l2208 7F70                                     l2160 7DD6  
                                   l2136 7D48                                     l2128 7D18  
                                   l2240 7356                                     l2320 7C54  
                                   l2312 7C10                                     l2304 7BDE  
                                   l2064 6D2E                                     l2056 6D1A  
                                   l2048 6D06                                     l2072 6D7A  
                                   l2080 6D96                                     l2400 77FC  
                                   l2226 7FF4                                     l2218 7FDA  
                                   l2170 7E20                                     l2162 7DE6  
                                   l2154 7D9C                                     l2138 7D58  
                                   l2146 7D78                                     l2250 73A4  
                                   l2242 7380                                     l2234 732C  
                                   l2314 7C34                                     l2306 7BEC  
                                   l2058 6D1C                                     l2074 6D7E  
                                   l2066 6D58                                     l2082 6DA6  
                                   l2090 6D32                                     l2330 6EC6  
                                   l2402 7812                                     l2180 7E6E  
                                   l2172 7E2C                                     l2164 7DEE  
                                   l2156 7DB6                                     l2148 7D88  
                                   l2260 73D0                                     l2244 7382  
                                   l2236 7342                                     l2316 7C44  
                                   l2308 7C0A                                     l2068 6D66  
                                   l2084 6DAA                                     l2340 7664  
                                   l2092 6D4E                                     l2332 6ECA  
                                   l2324 6E80                                     l2420 78EC  
                                   l2412 788C                                     l2404 781A  
                                   l2500 7454                                     l2182 7E84  
                                   l2190 7EB4                                     l2174 7E4A  
                                   l2166 7DFE                                     l2158 7DC6  
                                   l2270 7400                                     l2246 7392  
                                   l2318 7C52                                     l2086 6DAE  
                                   l2078 6D88                                     l2350 7686  
                                   l2342 7676                                     l2326 6E84  
                                   l2406 7822                                     l2430 6C64  
                                   l2510 748A                                     l2502 7458  
                                   l2192 7EC2                                     l2184 7E8A  
                                   l2176 7E4C                                     l2168 7E12  
                                   l2096 7C66                                     l2272 7410  
                                   l2256 73BC                                     l2248 7396  
                                   l2280 7AC4                                     l2360 76C8  
                                   l2352 7688                                     l2344 767E  
                                   l2336 6DB8                                     l2328 6E98  
                                   l2416 78C8                                     l2408 7854  
                                   l2600 709C                                     l2440 6CA6  
                                   l2432 6C66                                     l2520 74CC  
                                   l2512 74A0                                     l2504 7466  
                                   l2610 6C88                                     l2194 7EC6  
                                   l2186 7E94                                     l2178 7E5C  
                                   l2098 7C72                                     l2274 7420  
                                   l2266 73E4                                     l2258 73C6  
                                   l2290 7B42                                     l2282 7AD2  
                                   l2370 772E                                     l2362 76E0  
                                   l2354 7690                                     l2346 7682  
                                   l2418 78DA                                     l2602 70A0  
                                   l2450 6CB4                                     l2442 6CAA  
                                   l2434 6C68                                     l2426 6C5E  
                                   l2522 74EA                                     l2514 74A8  
                                   l2530 750C                                     l2506 7476  
                                   l2612 6CA0                                     l2196 7ED4  
                                   l2188 7EA2                                     l2268 73F0  
                                   l2292 7B4A                                     l2284 7B18  
                                   l2364 76EA                                     l2356 769C  
                                   l2372 7738                                     l2348 7684  
                                   l2620 7554                                     l2380 6C72  
                                   l2604 70BC                                     l2460 6CC2  
                                   l2452 6CB6                                     l2444 6CAE  
                                   l2436 6C6C                                     l2428 6C62  
                                   l2700 72C6                                     l2532 751C  
                                   l2524 74FA                                     l2516 74B4  
                                   l2508 747A                                     l2540 70E4  
                                   l2470 6DF0                                     l2198 7F02  
                                   l2294 7B56                                     l2286 7B2E  
                                   l2278 7AB4                                     l2462 6FFA  
                                   l2374 7756                                     l2366 7708  
                                   l2358 76BA                                     l2630 757C  
                                   l2622 755C                                     l2614 7540  
                                   l2382 6C80                                     l2390 77A4  
                                   l2606 70C2                                     l2454 6CBA  
                                   l2446 6CB0                                     l2710 715E  
                                   l2702 72D6                                     l2534 752C  
                                   l2526 74FC                                     l2518 74C2  
                                   l2550 7146                                     l2542 70E6  
                                   l2472 6E0E                                     l2296 7B88  
                                   l2464 700A                                     l2376 7774  
                                   l2368 7716                                     l2608 6F92  
                                   l2640 75A4                                     l2632 7584  
                                   l2624 7564                                     l2616 7544  
                                   l2392 77BE                                     l2384 7788  
                                   l2456 6CBE                                     l2448 6CB2  
                                   l2712 7164                                     l2704 7156  
                                   l2528 7506                                     l2560 7150  
                                   l2552 7148                                     l2544 70E8  
                                   l2474 6E10                                     l2490 6E76  
                                   l2482 6E38                                     l2298 7B8A  
                                   l2466 7062                                     l2378 7784  
                                   l2642 75AC                                     l2634 758C  
                                   l2626 756C                                     l2618 754C  
                                   l2650 75C4                                     l2394 77F2  
                                   l2386 779C                                     l2458 6CC0  
                                   l2730 71D0                                     l2714 717A  
                                   l2554 714A                                     l2546 711C  
                                   l2538 70E0                                     l2562 6C4A  
                                   l2570 6EEE                                     l2476 6E22  
                                   l2484 6E56                                     l2644 75B4  
                                   l2636 7594                                     l2628 7574  
                                   l2652 765E                                     l2396 77F6  
                                   l2388 77A0                                     l2740 71FC  
                                   l2732 71EC                                     l2724 71A2  
                                   l2716 717E                                     l2660 7242  
                                   l2556 714C                                     l2548 7144  
                                   l2564 6C58                                     l2572 6EFE  
                                   l2478 6E2E                                     l2486 6E58  
                                   l2646 75BC                                     l2638 759C  
                                   l2590 6F72                                     l2582 6F30  
                                   l2742 721E                                     l2726 71AA  
                                   l2718 719A                                     l2670 7260  
                                   l2494 7432                                     l2558 714E  
                                   l2574 6F02                                     l2830 7A70  
                                   l2488 6E6A                                     l2832 783E  
                                   l2584 6F4C                                     l2576 6F28  
                                   l2592 706C                                     l2744 7222  
                                   l2728 71CC                                     l2680 7276  
                                   l2672 7262                                     l2496 7436  
                                   l2568 6ED4                                     l2760 793E  
                                   l2834 75D8                                     l2586 6F50  
                                   l2738 71F4                                     l2682 727E  
                                   l2674 7272                                     l2666 7246  
                                   l2498 7444                                     l2770 79A2  
                                   l2762 7952                                     l2754 7912  
                                   l2588 6F6C                                     l2684 7292  
                                   l2668 724C                                     l2780 79E8  
                                   l2772 79B6                                     l2764 7966  
                                   l2756 7926                                     l2598 7074  
                                   l2694 72A8                                     l2686 7294  
                                   l2790 7A34                                     l2782 79EE  
                                   l2774 79D0                                     l2766 7980  
                                   l2758 7930                                     l2696 72B0  
                                   l2688 72A4                                     l2792 7A42  
                                   l2784 79F6                                     l2776 79D8  
                                   l2768 798E                                     l2698 72C4  
                                   l2794 7A4A                                     l2786 7A14  
                                   l2778 79E0                                     l2788 7A2E  
                                   l2798 7A5C                                     u1000 7D48  
                                   u1001 7D44                                     u1010 7D88  
                                   u1011 7D84                                     u1100 7F02  
                                   u1020 7DFE                                     u1101 7EFE  
                                   u1021 7DFA                                     u1110 7F18  
                                   u1030 7E20                                     u1111 7F14  
                                   u1031 7E1C                                     u1120 7F2C  
                                   u1040 7E4A                                     u1200 73B8  
                                   u1121 7F28                                     u1041 7E46  
                                   u1201 73B4                                     u1130 7F46  
                                   u1050 7E6E                                     u1210 73E0  
                                   u1131 7F42                                     u1051 7E6A  
                                   u1211 73DC                                     u1140 7F8E  
                                   u1060 7E84                                     u1220 7400  
                                   u1300 7BFC                                     u1141 7F8A  
                                   u1061 7E80                                     u1221 73FC  
                                   u1301 7BF8                                     u1150 7FBE  
                                   u1070 7EA2                                     u1230 7410  
                                   u1310 7C0A                                     u1151 7FBA  
                                   u1071 7E9E                                     u1231 740C  
                                   u1311 7C06                                     u1160 7FEC  
                                   u1080 7EC2                                     u1320 7C44  
                                   u1240 7AC4                                     u1400 76C8  
                                   u1161 7FE8                                     u1081 7EBE  
                                   u1321 7C40                                     u1241 7AC0  
                                   u1401 76C4                                     u1090 7ED4  
                                   u1170 7342                                     u1330 7C52  
                                   u1250 7AD2                                     u1410 7708  
                                   u1091 7ED0                                     u1171 733E  
                                   u1331 7C4E                                     u1251 7ACE  
                                   u1411 7704                                     u1180 7376  
                                   u1260 7B2E                                     u1420 7716  
                                   u1340 6E98                                     u1500 78C4  
                                   u1261 7B2A                                     u1421 7712  
                                   u1341 6E94                                     u1190 73A4  
                                   u1270 7B84                                     u1430 7756  
                                   u1350 6EC6                                     u1510 78DA  
                                   _LATB 000F8A                                     u1191 73A0  
                                   u1271 7B80                                     u1431 7752  
                                   u1351 6EC2                                     u1511 78D6  
                                   _LATC 000F8B                                     u1280 7BCE  
                                   u1440 7774                                     u1360 6DE8  
                                   u1520 78EC                                     u1600 751C  
                                   _LATD 000F8C                                     u1185 736C  
                                   u1281 7BCA                                     u1441 7770  
                                   u1361 6DE2                                     u1521 78E8  
                                   u1601 7518                                     u1530 6E0E  
                                   u1290 7BEC                                     u1450 6C80  
                                   u1370 6DEA                                     u1610 6C58  
                                   u1531 6E0A                                     u1291 7BE8  
                                   u1451 6C7C                                     u1611 6C54  
                                   u1540 6E56                                     u1380 7676  
                                   u1460 77BE                                     u1700 71EC  
                                   u1620 6EEE                                     u1541 6E52  
                                   u1381 7672                                     u1461 77BA  
                                   u1701 71E8                                     u1621 6EEA  
                                   u1390 76BA                                     u1470 77F2  
                                   u1710 723E                                     u1550 7444  
                                   u1630 6F26                                     u1391 76B6  
                                   u1471 77EE                                     u1711 723A  
                                   u1551 7440                                     u1631 6F22  
                                   u1480 780E                                     u1640 6F6C  
                                   u1560 7466                                     u1481 780A  
                                   u1641 6F68                                     u1561 7462  
                                   u1490 78C2                                     u1650 70BC  
                                   u1570 74A0                                     u1491 78BC  
                                   u1651 70B8                                     u1571 749C  
                                   u1660 7272                                     u1580 74C2  
                                   u1661 726E                                     u1581 74BE  
                                   u1670 72A4                                     u1590 74EA  
                                   u1671 72A0                                     u1591 74E6  
                                   u1680 72D6                                     u1681 72D2  
                                   u1690 719A                                     u1747 6C92  
                                   u1691 7196                                     _RCIF 007CF5  
                                   _data 004A                                     _atoi 7788  
                                   _main 7912                                     fsr2h 000FDA  
                                   indf1 000FE7                                     indf2 000FDF  
                                   fsr1l 000FE1                                     fsr2l 000FD9  
            Serial_Lectura_Memoria@i_863 002B              Serial_Lectura_Memoria@i_864 002C  
                                   prodh 000FF4                                     prodl 000FF3  
                                   start 0000                            __CFG_IESO$OFF 000000  
                        ___fldiv@new_exp 0020                             _PWM_OneshotX 6D58  
                           _PWM_OneshotY 6D88                            __CFG_MCLRE$ON 000000  
                           ___param_bank 000000   Serial_Escritura_Memoria@direccionFinal 0008  
                     EEPROM_Rx@direccion 0001                            __CFG_PLLDIV$1 000000  
               ??_Serial_Lectura_Memoria 001D                           __CFG_CCP2MX$ON 000000  
                          ___fltol@sign1 0030                          __end_of___aldiv 753E  
                                  ?_atoi 0008                                    ?_main 0001  
                        __end_of___fldiv 8000                                    _EEADR 000FA9  
                        __end_of___fltol 7432                                    _T2CON 000FCA  
                                  _RCREG 000FAE                                    _SPBRG 000FAF  
                                  _PORTB 000F81                                    _PORTC 000F82  
                                  _PORTD 000F83                            __CFG_USBDIV$1 000000  
                                  _TXREG 000FAD                            __CFG_PWRT$OFF 000000  
                          __CFG_WRT0$OFF 000000                            __CFG_WRT1$OFF 000000  
                          __CFG_WRT2$OFF 000000                            __CFG_WRT3$OFF 000000  
                         __CFG_EBTR0$OFF 000000                           __CFG_FCMEN$OFF 000000  
                         __CFG_EBTR1$OFF 000000                           __CFG_EBTR2$OFF 000000  
                         __CFG_EBTR3$OFF 000000                            __CFG_WRTB$OFF 000000  
                          __CFG_WRTC$OFF 000000                            __CFG_WRTD$OFF 000000  
                         __CFG_EBTRB$OFF 000000                          __end_of_isdigit 6DF0  
                                  atoi@n 0015                                    atoi@s 0008  
                                  _pulsX 0042                                    _pulsY 0040  
                       __end_of_USART_Rx 6C5C                         __end_of_USART_Tx 6C86  
                        __end_of_isspace 6ED2                             USART_Tx@data 0001  
                     __size_of_USART_RxS 0056                                    status 000FD8  
                         __CFG_ICPRT$OFF 000000                       __size_of_PWM_InitF 0026  
                     __size_of_PWM_InitS 0024                 __end_of_Motor_Conversion 706C  
                            ?_USART_Init 000F                          __initialization 6CC6  
                 ?_Motor_Calcular_PasosX 0001                   ?_Motor_Calcular_PasosY 0001  
             __end_of_PWM_GeneratePulsos 7788        Serial_DecodificacionX@coordenadaX 001B  
                      __end_of_EEPROM_Rx 6C70                        __end_of_EEPROM_Tx 6CC6  
                           __end_of_atoi 7912                             __end_of_main 7AB2  
                     EEPROM_Tx@direccion 0002                        ?_Actuator_Retrain 0001  
                                 ??_atoi 000A                                   ??_main 003D  
                     ??_Actuator_Retrain 0001                            __activetblptr 000002  
          Serial_Escritura_Memoria@i_870 000B            Serial_Escritura_Memoria@i_871 000D  
         ??_Seria_Decodificacion_Memoria 0001                                   _ADCON0 000FC2  
                                 _ADCON1 000FC1                                   _EEDATA 000FA8  
                                 _CCPR1L 000FBE                                   _CCPR2L 000FBB  
                                 _EECON2 000FA7                                   _OSCCON 000FD3  
                       __end_of___xxtofl 7C66                           __CFG_XINST$OFF 000000  
      Serial_DecodificacionY@coordenadaY 001D                                ??___aldiv 0009  
                                 ___wmul 6D32                                ??___fldiv 0017  
                         __CFG_STVREN$ON 000000                                ??___fltol 002C  
                                 clear_0 6CCC                                   clear_1 6CD8  
               __end_of_Motor_Movimiento 6FFA                                   _pasosX 0046  
                                 _pasosY 0044                         _coordenada_array 004E  
        __size_of_Serial_Lectura_Memoria 00EC                        __end_of_USART_RxS 6F28  
                      __end_of_PWM_InitF 6D32                        __end_of_PWM_InitS 6D0C  
                              ??_isdigit 0003                                ??_isspace 0003  
                                 tblptru 000FF8                      __size_of_USART_Init 0074  
                           ___xxtofl@arg 000B                             ___xxtofl@exp 000A  
                           ___xxtofl@val 0001                               __accesstop 0060  
                __end_of__initialization 6CDE                          __CFG_PBADEN$OFF 000000  
             Motor_Conversion@conversion 0034                            ___rparam_used 000001  
                Serial_DecodificacionX@i 001E                  Serial_DecodificacionY@i 0020  
                             ___fltol@f1 0028                           __pcstackCOMRAM 0001  
                              ?_USART_Rx 0001                                ?_USART_Tx 0001  
        Serial_DecodificacionX@pointerCX 0019                         ??_Actuator_Touch 0001  
        Serial_DecodificacionY@pointerCY 0019                               __pbssBANK0 0060  
                 _Serial_Lectura_Memoria 7240              Motor_Movimiento@CoordenadaX 0038  
            Motor_Movimiento@CoordenadaY 003A                                  ?___wmul 0001  
                                _CCP1CON 000FBD                                  _CCP2CON 000FBA  
                             ??_USART_Rx 0001                               ??_USART_Tx 0001  
                 __size_of_Actuator_Hold 0004        Serial_Escritura_Memoria@direccion 0007  
                              ?___xxtofl 0001                          __CFG_VREGEN$OFF 000000  
      __size_of_Serial_Escritura_Memoria 00EC                ?_Serial_Escritura_Memoria 0003  
                ??_Motor_Calcular_PasosX 0003                  ??_Motor_Calcular_PasosY 0003  
                           ??_USART_Init 0013                        ?_Motor_Conversion 0032  
                                __Hparam 0000                                  __Lparam 0000  
                     ??_Motor_Conversion 0034                                  ___aldiv 7432  
                                ___fldiv 7C66       Motor_Calcular_PasosX@pasos_converX 0001  
                                ___fltol 732C                          __size_of___wmul 0026  
                              _EEPROM_Rx 6C5C                                _EEPROM_Tx 6CA4  
                         USART_Init@BAUD 000F                                  __pcinit 6CC6  
                                __ramtop 0800                                  __ptext0 7912  
                                __ptext1 6ED2                                  __ptext2 6C4A  
                                __ptext3 70E0                                  __ptext4 7432  
                                __ptext5 7240                                  __ptext6 6C5C  
                                __ptext7 7154                                  __ptext8 6CA4  
                                __ptext9 706C    Seria_Decodificacion_Memoria@direccion 0003  
                              _T2CONbits 000FCA                       _PWM_GeneratePulsos 7662  
                                _isdigit 6DB8                               ??___xxtofl 0005  
                       ___aldiv@dividend 0001                                  _isspace 6E80  
                                atoi@neg 000E                       __end_of_USART_Init 7154  
               ??_Serial_DecodificacionX 001B                 ??_Serial_DecodificacionY 001B  
                    ?_PWM_GeneratePulsos 0003                     end_of_initialization 6CDE  
              __size_of_Actuator_Retrain 0004                            __Lmediumconst 0000  
                          _Actuator_Hold 6C42                        _pasos_convertidos 0048  
                              _RCSTAbits 000FAB                         ___aldiv@quotient 000B  
                                postdec2 000FDD                                  postinc0 000FEE  
                                postinc2 000FDE                     ??_PWM_GeneratePulsos 0007  
                Motor_Movimiento@Oupcode 003C                               ?_EEPROM_Rx 0001  
                             ?_EEPROM_Tx 0001                        ?_Motor_Movimiento 0038  
                              _PORTCbits 000F82                                _PORTDbits 000F83  
                     ??_Motor_Movimiento 003C                            ___xxtofl@sign 0009  
                              _TRISAbits 000F92                                _USART_RxS 6ED2  
                              _TRISBbits 000F93                                _TRISCbits 000F94  
                              _TRISDbits 000F95                              ___fldiv@grs 0022  
                            ___fldiv@rem 001B                            EEPROM_Tx@dato 0001  
                              _PWM_InitF 6D0C                                _PWM_InitS 6CE8  
                         ?_Actuator_Hold 0001                                _TXSTAbits 000FAC  
                         __end_of___wmul 6D58                        __size_of_USART_Rx 0012  
                      __size_of_USART_Tx 0016                      start_initialization 6CC6  
                             ?_USART_RxS 0001                        _Direccion_Memoria 004B  
                ?_Serial_Lectura_Memoria 0017                               ?_PWM_InitF 0001  
                             ?_PWM_InitS 0001          __size_of_Serial_DecodificacionX 0068  
        __size_of_Serial_DecodificacionY 0074  Serial_DecodificacionX@string_coordenada 0017  
                          ?_PWM_OneshotX 0001                            ?_PWM_OneshotY 0001  
                               ??___wmul 0005                         __CFG_LPT1OSC$OFF 000000  
                            ??_EEPROM_Rx 0001                              ??_EEPROM_Tx 0002  
Serial_Escritura_Memoria@string_setpoint 0003                                ___fldiv@a 0013  
                              ___fldiv@b 000F         __end_of_Serial_Escritura_Memoria 7240  
                            __pbssCOMRAM 0040           __end_of_Serial_Lectura_Memoria 732C  
                      __size_of___xxtofl 01B4                       PWM_OneshotX@countX 0001  
                       _Actuator_Retrain 6C46                          ??_Actuator_Hold 0001  
                     PWM_OneshotY@countY 0001                                _atoi$1653 0010  
                              _atoi$1654 0014                                _atoi$1655 0012  
                         ??_PWM_OneshotX 0003                           ??_PWM_OneshotY 0003  
         __size_of_Motor_Calcular_PasosX 0048           __size_of_Motor_Calcular_PasosY 0048  
          __end_of_Motor_Calcular_PasosX 6E38            __end_of_Motor_Calcular_PasosY 6E80  
                               ?___aldiv 0001                                 ?___fldiv 000F  
                 _Serial_DecodificacionX 6F28                   _Serial_DecodificacionY 706C  
                               ?___fltol 0028       Motor_Calcular_PasosY@pasos_converY 0001  
        Serial_Lectura_Memoria@direccion 0029                __size_of_Motor_Conversion 0072  
                               ?_isdigit 0001                                 ?_isspace 0001  
                            ??_USART_RxS 0003                              ??_PWM_InitF 0001  
                            ??_PWM_InitS 0001                  __size_of_Actuator_Touch 001E  
               PWM_GeneratePulsos@countX 0009                 PWM_GeneratePulsos@countY 000B  
                        ___aldiv@divisor 0005                          ___aldiv@counter 0009  
                         ___wmul@product 0005                                 _LATCbits 000F8B  
                               _LATDbits 000F8C                                 _PIR1bits 000F9E  
                       __CFG_WDTPS$32768 000000          Serial_Lectura_Memoria@pointerCX 0017  
        Serial_Lectura_Memoria@pointerCY 0019          Serial_Lectura_Memoria@pointerCZ 001B  
                               _USART_Rx 6C4A                                 _USART_Tx 6C70  
                             _ADCON0bits 000FC2                               _ADCON1bits 000FC1  
                             _ADCON2bits 000FC0                        ___wmul@multiplier 0001  
                    _coordenada_setpoint 0060                             _isspace$1671 0007  
               _Serial_Escritura_Memoria 7154                               USART_RxS@i 0007  
              __size_of_Motor_Movimiento 006A                         USART_RxS@pointer 0001  
                             _EECON1bits 000FA6                                 __Hrparam 0000  
                               __Lrparam 0000              __size_of_PWM_GeneratePulsos 0126  
                       __size_of___aldiv 010C                         __size_of___fldiv 039A  
                       __size_of___fltol 0106                  Serial_Lectura_Memoria@i 002A  
                  __CFG_FOSC$INTOSCIO_EC 000000                     __end_of_PWM_OneshotX 6D88  
                   __end_of_PWM_OneshotY 6DB8                                 ___xxtofl 7AB2  
                       __size_of_isdigit 0038                         __size_of_isspace 0052  
                               __ptext10 6F28                                 __ptext11 7788  
                               __ptext20 6D58                                 __ptext12 6E80  
                               __ptext21 6CE8                                 __ptext13 6DB8  
                               __ptext30 6C46                                 __ptext22 6D0C  
                               __ptext14 6D32                                 __ptext31 6C42  
                               __ptext23 6FFA                                 __ptext15 6C70  
                               __ptext24 7AB2                                 __ptext16 753E  
                               __ptext25 732C                                 __ptext17 6F90  
                               __ptext26 7C66                                 __ptext18 7662  
                               __ptext27 6E38                                 __ptext19 6D88  
                               __ptext28 6DF0                                 __ptext29 6C86  
                          __size_of_atoi 018A                            __size_of_main 01A0  
                        _USART_Init$1901 0013                                 _oneshotX 004D  
                               _oneshotY 004C                 __end_of_Actuator_Retrain 6C4A  
                        USART_RxS@lenght 0006                    __CFG_CPUDIV$OSC1_PLL2 000000  
                       _Motor_Conversion 6FFA                               _INTCONbits 000FF2  
                               isdigit@c 0001                           _Actuator_Touch 6C86  
Serial_DecodificacionY@string_coordenada 0017                                 isspace@c 0001  
                ?_Serial_DecodificacionX 0017                  ?_Serial_DecodificacionY 0017  
              Serial_Escritura_Memoria@i 0009        Serial_Lectura_Memoria@coordenadaX 001D  
      Serial_Lectura_Memoria@coordenadaY 0020        Serial_Lectura_Memoria@coordenadaZ 0023  
       Serial_Lectura_Memoria@direccionX 0026         Serial_Lectura_Memoria@direccionY 0027  
       Serial_Lectura_Memoria@direccionZ 0028     __end_of_Seria_Decodificacion_Memoria 7662  
  __size_of_Seria_Decodificacion_Memoria 0124             _Seria_Decodificacion_Memoria 753E  
                           ___aldiv@sign 000A                   __end_of_Actuator_Touch 6CA4  
             Motor_Conversion@Coordenada 0032                         _Motor_Movimiento 6F90  
                  __end_of_Actuator_Hold 6C46           __end_of_Serial_DecodificacionX 6F90  
         __end_of_Serial_DecodificacionY 70E0                               _USART_Init 70E0  
